  Tue Jan 13 23:03:19 2026                                                                                               Page    1







               2500 A.D. 6502 Macro Assembler  -  Version 5.02b
               ------------------------------------------------

                       Input  Filename : psnakefar.asm
                       Output Filename : psnakefar.obj
                       Listing Has Been Relocated                               


    1                     	program_psfar:	.section
    2                     	const_data_psfar:	.section
    3                     	init_data_psfar:	.section
    4                     	uninit_data_psfar:	.section
    5                     	bank_table:	.section
    6                     	bank_table:	.section
    7                     			.program_psfar
    8  5000                 			.filetype	C
    9                     			.symbols
   10                     			.llchar		?
   11                     			.longchk	off
   12                     			.extern	page0	__oper1
   13                     			.extern	page0	__oper1_high8
   14                     			.extern	page0	__oper2
   15                     			.extern	page0	__oper2_high8
   16                     			.extern	page0	__addr_reg
   17                     			.extern	page0	__stack_ptr
   18                     			.extern	page0	__lib_temp_ptr
   19                     	;.filename psnakefar.c
   20                     	;
   21                     			.filename	psnakefar.c
   22                     	;.filename .\os\inc\dictsys.h
   23                     	;
   24                     			.filename	.\os\inc\dictsys.h
   25                     	;.filename .\os\inc\keytable.h
   26                     	;
   27                     			.filename	.\os\inc\keytable.h
   28                     	;.endinc .\os\inc\dictsys.h
   29                     			.filename	.\os\inc\dictsys.h
   30                     	;struct tagMsgType {
   31                     	;	
   32                     			.strname  _tagMsgType
   33                     	;unsigned char 		type;
   34                     	;	
   35                     			.strdef	_type,73,v,c,u,0,g,d,d,d,d,00h
   36                     	;unsigned int 		param;
   37                     	;
   38                     			.strdef	_param,74,v,i,u,1,g,d,d,d,d,00h
   39                     	;}
   40                     			.strend	_tagMsgType,3,2
   41                     	;struct tagMsgByteType {
   42                     	;	
   43                     			.strname  _tagMsgByteType
   44                     	;unsigned char 		type;
   45                     	;	
   46                     			.strdef	_type,78,v,c,u,0,g,d,d,d,d,00h
  Tue Jan 13 23:03:19 2026                                                                                               Page    2




   47                     	;unsigned char 		prmLow;
   48                     	;	
   49                     			.strdef	_prmLow,79,v,c,u,1,g,d,d,d,d,00h
   50                     	;unsigned char 		prmHi;
   51                     	;
   52                     			.strdef	_prmHi,80,v,c,u,2,g,d,d,d,d,00h
   53                     	;}
   54                     			.strend	_tagMsgByteType,3,3
   55                     	;struct tagDate {
   56                     	;	
   57                     			.strname  _tagDate
   58                     	;unsigned char 	day;
   59                     	;	
   60                     			.strdef	_day,115,v,c,u,0,g,d,d,d,d,00h
   61                     	;unsigned char 	month;
   62                     	;	
   63                     			.strdef	_month,116,v,c,u,1,g,d,d,d,d,00h
   64                     	;unsigned char 	year;
   65                     	;	
   66                     			.strdef	_year,117,v,c,u,2,g,d,d,d,d,00h
   67                     	;unsigned char 	wday;				
   68                     	;
   69                     			.strdef	_wday,118,v,c,u,3,g,d,d,d,d,00h
   70                     	;}
   71                     			.strend	_tagDate,4,4
   72                     	;struct tagTime {
   73                     	;	
   74                     			.strname  _tagTime
   75                     	;unsigned char 	second;
   76                     	;	
   77                     			.strdef	_second,123,v,c,u,0,g,d,d,d,d,00h
   78                     	;unsigned char 	minute;
   79                     	;	
   80                     			.strdef	_minute,124,v,c,u,1,g,d,d,d,d,00h
   81                     	;unsigned char 	hour;
   82                     	;
   83                     			.strdef	_hour,125,v,c,u,2,g,d,d,d,d,00h
   84                     	;}
   85                     			.strend	_tagTime,3,3
   86                     	;struct tagGuiMenuItemType {
   87                     	;	
   88                     			.strname  _tagGuiMenuItemType
   89                     	;unsigned char 		strLen;				
   90                     	;	
   91                     			.strdef	_strLen,143,v,c,u,0,g,d,d,d,d,00h
   92                     	;unsigned char 		*str;				
   93                     	;	
   94                     			.strdef	_str,144,v,pc1,u,1,g,d,d,d,d,00h
   95                     	;unsigned char 		*bmpData0;			
   96                     	;	
   97                     			.strdef	_bmpData0,145,v,pc1,u,3,g,d,d,d,d,00h
   98                     	;unsigned char 		*bmpData1;			
   99                     	;
  100                     			.strdef	_bmpData1,146,v,pc1,u,5,g,d,d,d,d,00h
  101                     	;}
  102                     			.strend	_tagGuiMenuItemType,7,4
  103                     	;struct tagGuiMenu {
  Tue Jan 13 23:03:19 2026                                                                                               Page    3




  104                     	;	
  105                     			.strname  _tagGuiMenu
  106                     	;unsigned char 					itemNum;			
  107                     	;	
  108                     			.strdef	_itemNum,151,v,c,u,0,g,d,d,d,d,00h
  109                     	;unsigned char 					colNum;				
  110                     	;	
  111                     			.strdef	_colNum,152,v,c,u,1,g,d,d,d,d,00h
  112                     	;unsigned char 					*colPos;			
  113                     	;	
  114                     			.strdef	_colPos,153,v,pc1,u,2,g,d,d,d,d,00h
  115                     	;unsigned char 					style;				
  116                     	;	
  117                     			.strdef	_style,154,v,c,u,4,g,d,d,d,d,00h
  118                     	;struct tagGuiMenuItemType *	*menuItems ;		
  119                     	;
  120                     			.strdef	_menuItems,155,v,ps2,_tagGuiMenuItemType,s,5,g,d,d,d,d,00h
  121                     	;}
  122                     			.strend	_tagGuiMenu,7,5
  123                     	;struct tagMenuEnv {
  124                     	;	
  125                     			.strname  _tagMenuEnv
  126                     	;unsigned char 		x0;					
  127                     	;	
  128                     			.strdef	_x0,160,v,c,u,0,g,d,d,d,d,00h
  129                     	;unsigned char 		x1;
  130                     	;	
  131                     			.strdef	_x1,161,v,c,u,1,g,d,d,d,d,00h
  132                     	;unsigned char 		y0;
  133                     	;	
  134                     			.strdef	_y0,162,v,c,u,2,g,d,d,d,d,00h
  135                     	;unsigned char 		y1;
  136                     	;	
  137                     			.strdef	_y1,163,v,c,u,3,g,d,d,d,d,00h
  138                     	;unsigned char 		startDispItem;		
  139                     	;
  140                     	;
  141                     	;	
  142                     			.strdef	_startDispItem,164,v,c,u,4,g,d,d,d,d,00h
  143                     	;unsigned char 		maxDispItem;		
  144                     	;	
  145                     			.strdef	_maxDispItem,167,v,c,u,5,g,d,d,d,d,00h
  146                     	;unsigned char 		dispItemNum;		
  147                     	;	
  148                     			.strdef	_dispItemNum,168,v,c,u,6,g,d,d,d,d,00h
  149                     	;unsigned char 		nFocus;				
  150                     	;
  151                     			.strdef	_nFocus,169,v,c,u,7,g,d,d,d,d,00h
  152                     	;}
  153                     			.strend	_tagMenuEnv,8,8
  154                     	;struct tagRect {
  155                     	;	
  156                     			.strname  _tagRect
  157                     	;unsigned char 		left;					
  158                     	;	
  159                     			.strdef	_left,174,v,c,u,0,g,d,d,d,d,00h
  160                     	;unsigned char 		top;					
  Tue Jan 13 23:03:19 2026                                                                                               Page    4




  161                     	;	
  162                     			.strdef	_top,175,v,c,u,1,g,d,d,d,d,00h
  163                     	;unsigned char 		height;					
  164                     	;	
  165                     			.strdef	_height,176,v,c,u,2,g,d,d,d,d,00h
  166                     	;unsigned char 		width;					
  167                     	;
  168                     			.strdef	_width,177,v,c,u,3,g,d,d,d,d,00h
  169                     	;}
  170                     			.strend	_tagRect,4,4
  171                     	;struct tagRandEnv {
  172                     	;	
  173                     			.strname  _tagRandEnv
  174                     	;unsigned long  next 	;
  175                     	; 	
  176                     			.strdef	_next,182,v,l,u,0,g,d,d,d,d,00h
  177                     	;unsigned int  randMax	;
  178                     	;
  179                     			.strdef	_randMax,183,v,i,u,4,g,d,d,d,d,00h
  180                     	;}
  181                     			.strend	_tagRandEnv,6,2
  182                     	;struct tagQryBoxBmp {
  183                     	;	
  184                     			.strname  _tagQryBoxBmp
  185                     	;unsigned char 		left;					
  186                     	;	
  187                     			.strdef	_left,188,v,c,u,0,g,d,d,d,d,00h
  188                     	;unsigned char 		top;					
  189                     	;	
  190                     			.strdef	_top,189,v,c,u,1,g,d,d,d,d,00h
  191                     	;unsigned char 		height;					
  192                     	;	
  193                     			.strdef	_height,190,v,c,u,2,g,d,d,d,d,00h
  194                     	;unsigned char 		width;					
  195                     	;	
  196                     			.strdef	_width,191,v,c,u,3,g,d,d,d,d,00h
  197                     	;unsigned char 		*bmpData;				
  198                     	;
  199                     			.strdef	_bmpData,192,v,pc1,u,4,g,d,d,d,d,00h
  200                     	;}
  201                     			.strend	_tagQryBoxBmp,6,5
  202                     	;struct tagAppSwitchInfo {
  203                     	;	
  204                     			.strname  _tagAppSwitchInfo
  205                     	;unsigned int 		currentAppID;							
  206                     	;	
  207                     			.strdef	_currentAppID,237,v,i,u,0,g,d,d,d,d,00h
  208                     	;unsigned int 		heirAppID;								
  209                     	;	
  210                     			.strdef	_heirAppID,238,v,i,u,2,g,d,d,d,d,00h
  211                     	;unsigned long 		downAppPhyAddr;							
  212                     	;	
  213                     			.strdef	_downAppPhyAddr,239,v,l,u,4,g,d,d,d,d,00h
  214                     	;unsigned char 		currentAppAttr;							
  215                     	;	
  216                     			.strdef	_currentAppAttr,240,v,c,u,8,g,d,d,d,d,00h
  217                     	;unsigned char 		heirAppAttr;
  Tue Jan 13 23:03:19 2026                                                                                               Page    5




  218                     	;
  219                     			.strdef	_heirAppAttr,241,v,c,u,9,g,d,d,d,d,00h
  220                     	;}
  221                     			.strend	_tagAppSwitchInfo,10,5
  222                     	;struct tagSysIconEnv {
  223                     	;	
  224                     			.strname  _tagSysIconEnv
  225                     	;unsigned char 		iconSaveBuf[12];
  226                     	;
  227                     			.strdef	_iconSaveBuf,327,v,c,u,0,g,d,d,d,d,0ch,00h
  228                     	;}
  229                     			.strend	_tagSysIconEnv,12,1
  230                     	;.macstart 19335,525
  231                     	;
  232                     			.c_start  04b87h,525
  233                     	;.asm
  234                     	;	
  235  5000                 			.CHIP	6502
  236                     			.LINKLIST
  237                     			.SYMBOLS
  238                     			.DEBUG	ASM
  239                     			.LIST	ON
  240                     	;.optimize	off
  241                     	;	
  242                     	;.endasm
  243                     	;
  244                     	;
  245                     	;.macend 19418,532
  246                     	;
  247                     			.c_end	04bdah,532
  248                     	;.endinc psnakefar.c
  249                     			.filename	psnakefar.c
  250                     	;.filename mtower.h
  251                     	;
  252                     			.filename	mtower.h
  253                     	;.endinc psnakefar.c
  254                     			.filename	psnakefar.c
  255                     	;
  256                     			.f_start  070ch,50
  257                     			.bank_table
  258                     			.global	&GameMTChaFloor
  259  9048     00 50 E1    	&GameMTChaFloor:	.bankaddr	_GameMTChaFloor
  260                     			.ends
  261         3915 5000   	_GameMTChaFloor:	.equal	$
  262                     			.attrib	_GameMTChaFloor,51,f,b
  263                     	;
  264                     	;
  265         0000        	?ASC0:		.equal	0
  266         0005        	?TSC0:		.equal	5
  267         0003        	?LSC0:		.equal	3
  268  5000     08          			php
  269  5001     78          			sei
  270  5002     38          			sec
  271  5003     A5 28       			lda	__stack_ptr
  272  5005     E9 08       			sbc	#.low.+?LSC0+?TSC0
  273  5007     85 28       			sta	__stack_ptr
  274  5009     A5 29       			lda	__stack_ptr+1
  Tue Jan 13 23:03:19 2026                                                                                               Page    6




  275  500B     E9 00       			sbc	#.high.+?LSC0+?TSC0
  276  500D     85 29       			sta	__stack_ptr+1
  277  500F     28          			plp
  278                     	;unsigned char 	i=tempF=temp;
  279                     	;	
  280                     			.local	_i,52,v,c,u,d,d,d,d,-1+?LSC0+0,00h
  281                     			.local	_tempF,52,v,c,u,d,d,d,d,-2+?LSC0+0,00h
  282                     			.local	_temp,52,v,c,u,d,d,d,d,-3+?LSC0+0,00h
  283                     	;tempF=0
  284                     			.c_start  0735h,53
  285  5010     A0 01       			ldy	#-2+?LSC0
  286  5012     A9 00       			lda	#0
  287  5014     91 28       			sta	(__stack_ptr),y
  288                     			.c_end	073ch,53
  289                     	;temp=0
  290                     			.c_start  0740h,54
  291  5016     A0 00       			ldy	#-3+?LSC0
  292  5018     A9 00       			lda	#0
  293  501A     91 28       			sta	(__stack_ptr),y
  294                     			.c_end	0746h,54
  295                     	;(g_GameMTTopFloor==21)
  296                     	;	
  297                     			.if_top	074ah,?BOL0,1,55
  298  501C     AD 08 18    			lda	_g_GameMTTopFloor
  299  501F     38          			sec
  300  5020     E9 15       			sbc	#21
  301  5022     F0 03       			beq	+3
  302  5024     4C 57 50    			jmp	?BOL0
  303         3513 5027   	?PLC0:		.equal	$
  304                     			.c_end	0763h,56
  305                     	;GameMTTalk(2,494,0)
  306                     			.c_start  076ah,57
  307  5027     A9 00       			lda	#0
  308  5029     20 AA DA    			jsr	__store_char_funct_arg
  309  502C     A9 EE       			lda	#.low.494
  310  502E     85 20       			sta	__oper1
  311  5030     A9 01       			lda	#.high.494
  312  5032     85 21       			sta	__oper1+1
  313  5034     20 CA DA    			jsr	__store_int_funct_arg
  314  5037     A9 02       			lda	#2
  315  5039     A2 33       			ldx	#.low.&GameMTTalk
  316  503B     86 26       			stx	__addr_reg
  317  503D     A2 90       			ldx	#.high.&GameMTTalk+1
  318  503F     86 27       			stx	__addr_reg+1
  319                     			.bf_call
  320  5041     20 F6 D2    			jsr	__banked_function_call
  321  5044     08          			php
  322  5045     78          			sei
  323  5046     18          			clc
  324  5047     A5 28       			lda	__stack_ptr
  325  5049     69 03       			adc	#.low.3
  326  504B     85 28       			sta	__stack_ptr
  327  504D     A5 29       			lda	__stack_ptr+1
  328  504F     69 00       			adc	#.high.3
  329  5051     85 29       			sta	__stack_ptr+1
  330  5053     28          			plp
  331                     			.c_end	077dh,57
  Tue Jan 13 23:03:19 2026                                                                                               Page    7




  332                     	;return
  333                     			.c_start  0782h,58
  334  5054     4C 58 57    			jmp	?BOF0
  335                     			.c_end	0788h,58
  336                     	;
  337                     	;SysSaveScreen(7,1,121,94,g_GameMTBuf)
  338         3516 5057   	?BOL0:		.equal	$
  339                     			.c_start  0790h,60
  340  5057     A9 13       			lda	#.low._g_GameMTBuf
  341  5059     85 20       			sta	__oper1
  342  505B     A9 18       			lda	#.high._g_GameMTBuf
  343  505D     85 21       			sta	__oper1+1
  344  505F     20 CA DA    			jsr	__store_int_funct_arg
  345  5062     A9 5E       			lda	#94
  346  5064     20 AA DA    			jsr	__store_char_funct_arg
  347  5067     A9 79       			lda	#121
  348  5069     20 AA DA    			jsr	__store_char_funct_arg
  349  506C     A9 01       			lda	#1
  350  506E     20 AA DA    			jsr	__store_char_funct_arg
  351  5071     A9 07       			lda	#7
  352  5073     A2 77       			ldx	#.low.&SysSaveScreen
  353  5075     86 26       			stx	__addr_reg
  354  5077     A2 E8       			ldx	#.high.&SysSaveScreen+1
  355  5079     86 27       			stx	__addr_reg+1
  356                     			.bf_call
  357  507B     20 F6 D2    			jsr	__banked_function_call
  358  507E     08          			php
  359  507F     78          			sei
  360  5080     18          			clc
  361  5081     A5 28       			lda	__stack_ptr
  362  5083     69 05       			adc	#.low.5
  363  5085     85 28       			sta	__stack_ptr
  364  5087     A5 29       			lda	__stack_ptr+1
  365  5089     69 00       			adc	#.high.5
  366  508B     85 29       			sta	__stack_ptr+1
  367  508D     28          			plp
  368                     			.c_end	07b5h,60
  369                     	;SysLcdPartClear(7,1,121,94)
  370                     			.c_start  07b9h,61
  371  508E     A9 5E       			lda	#94
  372  5090     20 AA DA    			jsr	__store_char_funct_arg
  373  5093     A9 79       			lda	#121
  374  5095     20 AA DA    			jsr	__store_char_funct_arg
  375  5098     A9 01       			lda	#1
  376  509A     20 AA DA    			jsr	__store_char_funct_arg
  377  509D     A9 07       			lda	#7
  378  509F     A2 5D       			ldx	#.low.&SysLcdPartClear
  379  50A1     86 26       			stx	__addr_reg
  380  50A3     A2 E8       			ldx	#.high.&SysLcdPartClear+1
  381  50A5     86 27       			stx	__addr_reg+1
  382                     			.bf_call
  383  50A7     20 F6 D2    			jsr	__banked_function_call
  384  50AA     08          			php
  385  50AB     78          			sei
  386  50AC     18          			clc
  387  50AD     A5 28       			lda	__stack_ptr
  388  50AF     69 03       			adc	#.low.3
  Tue Jan 13 23:03:19 2026                                                                                               Page    8




  389  50B1     85 28       			sta	__stack_ptr
  390  50B3     A5 29       			lda	__stack_ptr+1
  391  50B5     69 00       			adc	#.high.3
  392  50B7     85 29       			sta	__stack_ptr+1
  393  50B9     28          			plp
  394                     			.c_end	07d4h,61
  395                     	;SysRect(7,1,121,94)
  396                     			.c_start  07d8h,62
  397  50BA     A9 5E       			lda	#94
  398  50BC     20 AA DA    			jsr	__store_char_funct_arg
  399  50BF     A9 79       			lda	#121
  400  50C1     20 AA DA    			jsr	__store_char_funct_arg
  401  50C4     A9 01       			lda	#1
  402  50C6     20 AA DA    			jsr	__store_char_funct_arg
  403  50C9     A9 07       			lda	#7
  404  50CB     A2 97       			ldx	#.low.&SysRect
  405  50CD     86 26       			stx	__addr_reg
  406  50CF     A2 E7       			ldx	#.high.&SysRect+1
  407  50D1     86 27       			stx	__addr_reg+1
  408                     			.bf_call
  409  50D3     20 F6 D2    			jsr	__banked_function_call
  410  50D6     08          			php
  411  50D7     78          			sei
  412  50D8     18          			clc
  413  50D9     A5 28       			lda	__stack_ptr
  414  50DB     69 03       			adc	#.low.3
  415  50DD     85 28       			sta	__stack_ptr
  416  50DF     A5 29       			lda	__stack_ptr+1
  417  50E1     69 00       			adc	#.high.3
  418  50E3     85 29       			sta	__stack_ptr+1
  419  50E5     28          			plp
  420                     			.c_end	07ebh,62
  421                     	;SysRect(8,2,120,93)
  422                     			.c_start  07efh,63
  423  50E6     A9 5D       			lda	#93
  424  50E8     20 AA DA    			jsr	__store_char_funct_arg
  425  50EB     A9 78       			lda	#120
  426  50ED     20 AA DA    			jsr	__store_char_funct_arg
  427  50F0     A9 02       			lda	#2
  428  50F2     20 AA DA    			jsr	__store_char_funct_arg
  429  50F5     A9 08       			lda	#8
  430  50F7     A2 97       			ldx	#.low.&SysRect
  431  50F9     86 26       			stx	__addr_reg
  432  50FB     A2 E7       			ldx	#.high.&SysRect+1
  433  50FD     86 27       			stx	__addr_reg+1
  434                     			.bf_call
  435  50FF     20 F6 D2    			jsr	__banked_function_call
  436  5102     08          			php
  437  5103     78          			sei
  438  5104     18          			clc
  439  5105     A5 28       			lda	__stack_ptr
  440  5107     69 03       			adc	#.low.3
  441  5109     85 28       			sta	__stack_ptr
  442  510B     A5 29       			lda	__stack_ptr+1
  443  510D     69 00       			adc	#.high.3
  444  510F     85 29       			sta	__stack_ptr+1
  445  5111     28          			plp
  Tue Jan 13 23:03:19 2026                                                                                               Page    9




  446                     			.c_end	0802h,63
  447                     	;SysPicture(89,82,112,90,GameMTLiKai,0)
  448                     			.c_start  0806h,64
  449  5112     A9 00       			lda	#0
  450  5114     20 AA DA    			jsr	__store_char_funct_arg
  451  5117     A9 8B       			lda	#.low._GameMTLiKai
  452  5119     85 20       			sta	__oper1
  453  511B     A9 AD       			lda	#.high._GameMTLiKai
  454  511D     85 21       			sta	__oper1+1
  455  511F     20 CA DA    			jsr	__store_int_funct_arg
  456  5122     A9 5A       			lda	#90
  457  5124     20 AA DA    			jsr	__store_char_funct_arg
  458  5127     A9 70       			lda	#112
  459  5129     20 AA DA    			jsr	__store_char_funct_arg
  460  512C     A9 52       			lda	#82
  461  512E     20 AA DA    			jsr	__store_char_funct_arg
  462  5131     A9 59       			lda	#89
  463  5133     A2 8E       			ldx	#.low.&SysPicture
  464  5135     86 26       			stx	__addr_reg
  465  5137     A2 E7       			ldx	#.high.&SysPicture+1
  466  5139     86 27       			stx	__addr_reg+1
  467                     			.bf_call
  468  513B     20 F6 D2    			jsr	__banked_function_call
  469  513E     08          			php
  470  513F     78          			sei
  471  5140     18          			clc
  472  5141     A5 28       			lda	__stack_ptr
  473  5143     69 06       			adc	#.low.6
  474  5145     85 28       			sta	__stack_ptr
  475  5147     A5 29       			lda	__stack_ptr+1
  476  5149     69 00       			adc	#.high.6
  477  514B     85 29       			sta	__stack_ptr+1
  478  514D     28          			plp
  479                     			.c_end	082ch,64
  480                     	;i=0;
  481                     			.c_start  0830h,65
  482  514E     A0 02       			ldy	#-1+?LSC0
  483  5150     A9 00       			lda	#0
  484  5152     91 28       			sta	(__stack_ptr),y
  485                     			.c_end	0837h,65
  486         3316 5154   	?FLC1:		.equal	$
  487                     	;i<g_GameMTTopFloor+1;
  488                     			.for_top  0838h,?BOL1,?FLB1,?FLA1,1,65
  489  5154     AD 08 18    			lda	_g_GameMTTopFloor
  490  5157     18          			clc
  491  5158     69 01       			adc	#1
  492  515A     85 23       			sta	__oper2
  493  515C     A0 02       			ldy	#-1+?LSC0
  494  515E     B1 28       			lda	(__stack_ptr),y
  495  5160     38          			sec
  496  5161     E5 23       			sbc	__oper2
  497  5163     90 03       			bcc	+3
  498  5165     4C 62 53    			jmp	?BOL1
  499                     			.c_end	084ch,65
  500  5168     4C 77 51    			jmp	?FLB1
  501         3917 516B   	?FLA1:		.equal	$
  502                     	;i++)
  Tue Jan 13 23:03:19 2026                                                                                               Page   10




  503                     	;	
  504                     			.for_adj  084dh,65
  505  516B     A0 02       			ldy	#-1+?LSC0
  506  516D     B1 28       			lda	(__stack_ptr),y
  507  516F     18          			clc
  508  5170     69 01       			adc	#1
  509  5172     91 28       			sta	(__stack_ptr),y
  510                     			.c_end	0852h,66
  511  5174     4C 54 51    			jmp	?FLC1
  512         3518 5177   	?FLB1:		.equal	$
  513                     	;SysPicture(11+(i/8)*38,5+(i%8)*11,17+(i/8)*38,13+(i%8)*11,GameMTDi,0)
  514                     			.c_start  0859h,67
  515  5177     A9 08       			lda	#8
  516  5179     85 23       			sta	__oper2
  517  517B     A0 02       			ldy	#-1+?LSC0
  518  517D     B1 28       			lda	(__stack_ptr),y
  519  517F     20 7B DC    			jsr	__uns_div_char
  520  5182     48          			pha
  521  5183     A9 26       			lda	#38
  522  5185     85 23       			sta	__oper2
  523  5187     68          			pla
  524  5188     20 EF DC    			jsr	__uns_mult_char
  525  518B     18          			clc
  526  518C     69 0B       			adc	#11
  527  518E     A0 03       			ldy	#+0+?LSC0
  528  5190     91 28       			sta	(__stack_ptr),y
  529  5192     A9 08       			lda	#8
  530  5194     85 23       			sta	__oper2
  531  5196     A0 02       			ldy	#-1+?LSC0
  532  5198     B1 28       			lda	(__stack_ptr),y
  533  519A     20 AB DC    			jsr	__uns_mod_char
  534  519D     48          			pha
  535  519E     A9 0B       			lda	#11
  536  51A0     85 23       			sta	__oper2
  537  51A2     68          			pla
  538  51A3     20 EF DC    			jsr	__uns_mult_char
  539  51A6     18          			clc
  540  51A7     69 05       			adc	#5
  541  51A9     A0 04       			ldy	#+1+?LSC0
  542  51AB     91 28       			sta	(__stack_ptr),y
  543  51AD     A9 08       			lda	#8
  544  51AF     85 23       			sta	__oper2
  545  51B1     A0 02       			ldy	#-1+?LSC0
  546  51B3     B1 28       			lda	(__stack_ptr),y
  547  51B5     20 7B DC    			jsr	__uns_div_char
  548  51B8     48          			pha
  549  51B9     A9 26       			lda	#38
  550  51BB     85 23       			sta	__oper2
  551  51BD     68          			pla
  552  51BE     20 EF DC    			jsr	__uns_mult_char
  553  51C1     18          			clc
  554  51C2     69 11       			adc	#17
  555  51C4     A0 05       			ldy	#+2+?LSC0
  556  51C6     91 28       			sta	(__stack_ptr),y
  557  51C8     A9 08       			lda	#8
  558  51CA     85 23       			sta	__oper2
  559  51CC     A0 02       			ldy	#-1+?LSC0
  Tue Jan 13 23:03:19 2026                                                                                               Page   11




  560  51CE     B1 28       			lda	(__stack_ptr),y
  561  51D0     20 AB DC    			jsr	__uns_mod_char
  562  51D3     48          			pha
  563  51D4     A9 0B       			lda	#11
  564  51D6     85 23       			sta	__oper2
  565  51D8     68          			pla
  566  51D9     20 EF DC    			jsr	__uns_mult_char
  567  51DC     18          			clc
  568  51DD     69 0D       			adc	#13
  569  51DF     A0 06       			ldy	#+3+?LSC0
  570  51E1     91 28       			sta	(__stack_ptr),y
  571  51E3     A9 00       			lda	#0
  572  51E5     20 AA DA    			jsr	__store_char_funct_arg
  573  51E8     A9 79       			lda	#.low._GameMTDi
  574  51EA     85 20       			sta	__oper1
  575  51EC     A9 AD       			lda	#.high._GameMTDi
  576  51EE     85 21       			sta	__oper1+1
  577  51F0     20 CA DA    			jsr	__store_int_funct_arg
  578  51F3     A0 09       			ldy	#+3+?LSC0+3
  579  51F5     B1 28       			lda	(__stack_ptr),y
  580  51F7     20 AA DA    			jsr	__store_char_funct_arg
  581  51FA     A0 09       			ldy	#+2+?LSC0+4
  582  51FC     B1 28       			lda	(__stack_ptr),y
  583  51FE     20 AA DA    			jsr	__store_char_funct_arg
  584  5201     A0 09       			ldy	#+1+?LSC0+5
  585  5203     B1 28       			lda	(__stack_ptr),y
  586  5205     20 AA DA    			jsr	__store_char_funct_arg
  587  5208     A0 09       			ldy	#+0+?LSC0+6
  588  520A     B1 28       			lda	(__stack_ptr),y
  589  520C     A2 8E       			ldx	#.low.&SysPicture
  590  520E     86 26       			stx	__addr_reg
  591  5210     A2 E7       			ldx	#.high.&SysPicture+1
  592  5212     86 27       			stx	__addr_reg+1
  593                     			.bf_call
  594  5214     20 F6 D2    			jsr	__banked_function_call
  595  5217     08          			php
  596  5218     78          			sei
  597  5219     18          			clc
  598  521A     A5 28       			lda	__stack_ptr
  599  521C     69 06       			adc	#.low.6
  600  521E     85 28       			sta	__stack_ptr
  601  5220     A5 29       			lda	__stack_ptr+1
  602  5222     69 00       			adc	#.high.6
  603  5224     85 29       			sta	__stack_ptr+1
  604  5226     28          			plp
  605                     			.c_end	089eh,67
  606                     	;GameMTPrintNum(2,(unsigned long )i,24+(i/8)*38,6+(i%8)*11)
  607                     			.c_start  08a3h,68
  608  5227     A0 02       			ldy	#-1+?LSC0
  609  5229     B1 28       			lda	(__stack_ptr),y
  610  522B     20 1F DD    			jsr	__uns_oper1_char_to_long
  611  522E     A5 20       			lda	__oper1
  612  5230     85 23       			sta	__oper2
  613  5232     A5 21       			lda	__oper1+1
  614  5234     85 24       			sta	__oper2+1
  615  5236     18          			clc
  616  5237     A5 28       			lda	__stack_ptr
  Tue Jan 13 23:03:19 2026                                                                                               Page   12




  617  5239     69 03       			adc	#.low.+0+?LSC0
  618  523B     85 20       			sta	__oper1
  619  523D     A5 29       			lda	__stack_ptr+1
  620  523F     69 00       			adc	#.high.+0+?LSC0
  621  5241     85 21       			sta	__oper1+1
  622  5243     20 E6 DA    			jsr	__store_long
  623  5246     A9 08       			lda	#8
  624  5248     85 23       			sta	__oper2
  625  524A     A0 02       			ldy	#-1+?LSC0
  626  524C     B1 28       			lda	(__stack_ptr),y
  627  524E     20 7B DC    			jsr	__uns_div_char
  628  5251     48          			pha
  629  5252     A9 26       			lda	#38
  630  5254     85 23       			sta	__oper2
  631  5256     68          			pla
  632  5257     20 EF DC    			jsr	__uns_mult_char
  633  525A     18          			clc
  634  525B     69 18       			adc	#24
  635  525D     A0 07       			ldy	#+4+?LSC0
  636  525F     91 28       			sta	(__stack_ptr),y
  637  5261     A9 08       			lda	#8
  638  5263     85 23       			sta	__oper2
  639  5265     A0 02       			ldy	#-1+?LSC0
  640  5267     B1 28       			lda	(__stack_ptr),y
  641  5269     20 AB DC    			jsr	__uns_mod_char
  642  526C     48          			pha
  643  526D     A9 0B       			lda	#11
  644  526F     85 23       			sta	__oper2
  645  5271     68          			pla
  646  5272     20 EF DC    			jsr	__uns_mult_char
  647  5275     18          			clc
  648  5276     69 06       			adc	#6
  649  5278     20 AA DA    			jsr	__store_char_funct_arg
  650  527B     A0 08       			ldy	#+4+?LSC0+1
  651  527D     B1 28       			lda	(__stack_ptr),y
  652  527F     20 AA DA    			jsr	__store_char_funct_arg
  653  5282     18          			clc
  654  5283     A5 28       			lda	__stack_ptr
  655  5285     69 05       			adc	#.low.+0+?LSC0+2
  656  5287     85 20       			sta	__oper1
  657  5289     A5 29       			lda	__stack_ptr+1
  658  528B     69 00       			adc	#.high.+0+?LSC0+2
  659  528D     85 21       			sta	__oper1+1
  660  528F     20 FC DA    			jsr	__store_long_funct_arg
  661  5292     A9 02       			lda	#2
  662  5294     A2 39       			ldx	#.low.&GameMTPrintNum
  663  5296     86 26       			stx	__addr_reg
  664  5298     A2 90       			ldx	#.high.&GameMTPrintNum+1
  665  529A     86 27       			stx	__addr_reg+1
  666                     			.bf_call
  667  529C     20 F6 D2    			jsr	__banked_function_call
  668  529F     08          			php
  669  52A0     78          			sei
  670  52A1     18          			clc
  671  52A2     A5 28       			lda	__stack_ptr
  672  52A4     69 06       			adc	#.low.6
  673  52A6     85 28       			sta	__stack_ptr
  Tue Jan 13 23:03:19 2026                                                                                               Page   13




  674  52A8     A5 29       			lda	__stack_ptr+1
  675  52AA     69 00       			adc	#.high.6
  676  52AC     85 29       			sta	__stack_ptr+1
  677  52AE     28          			plp
  678                     			.c_end	08d2h,68
  679                     	;SysPicture(34+(i/8)*38,5+(i%8)*11,41+(i/8)*38,13+(i%8)*11,GameMTCeng,0)
  680                     			.c_start  08d7h,69
  681  52AF     A9 08       			lda	#8
  682  52B1     85 23       			sta	__oper2
  683  52B3     A0 02       			ldy	#-1+?LSC0
  684  52B5     B1 28       			lda	(__stack_ptr),y
  685  52B7     20 7B DC    			jsr	__uns_div_char
  686  52BA     48          			pha
  687  52BB     A9 26       			lda	#38
  688  52BD     85 23       			sta	__oper2
  689  52BF     68          			pla
  690  52C0     20 EF DC    			jsr	__uns_mult_char
  691  52C3     18          			clc
  692  52C4     69 22       			adc	#34
  693  52C6     A0 03       			ldy	#+0+?LSC0
  694  52C8     91 28       			sta	(__stack_ptr),y
  695  52CA     A9 08       			lda	#8
  696  52CC     85 23       			sta	__oper2
  697  52CE     A0 02       			ldy	#-1+?LSC0
  698  52D0     B1 28       			lda	(__stack_ptr),y
  699  52D2     20 AB DC    			jsr	__uns_mod_char
  700  52D5     48          			pha
  701  52D6     A9 0B       			lda	#11
  702  52D8     85 23       			sta	__oper2
  703  52DA     68          			pla
  704  52DB     20 EF DC    			jsr	__uns_mult_char
  705  52DE     18          			clc
  706  52DF     69 05       			adc	#5
  707  52E1     A0 04       			ldy	#+1+?LSC0
  708  52E3     91 28       			sta	(__stack_ptr),y
  709  52E5     A9 08       			lda	#8
  710  52E7     85 23       			sta	__oper2
  711  52E9     A0 02       			ldy	#-1+?LSC0
  712  52EB     B1 28       			lda	(__stack_ptr),y
  713  52ED     20 7B DC    			jsr	__uns_div_char
  714  52F0     48          			pha
  715  52F1     A9 26       			lda	#38
  716  52F3     85 23       			sta	__oper2
  717  52F5     68          			pla
  718  52F6     20 EF DC    			jsr	__uns_mult_char
  719  52F9     18          			clc
  720  52FA     69 29       			adc	#41
  721  52FC     A0 05       			ldy	#+2+?LSC0
  722  52FE     91 28       			sta	(__stack_ptr),y
  723  5300     A9 08       			lda	#8
  724  5302     85 23       			sta	__oper2
  725  5304     A0 02       			ldy	#-1+?LSC0
  726  5306     B1 28       			lda	(__stack_ptr),y
  727  5308     20 AB DC    			jsr	__uns_mod_char
  728  530B     48          			pha
  729  530C     A9 0B       			lda	#11
  730  530E     85 23       			sta	__oper2
  Tue Jan 13 23:03:19 2026                                                                                               Page   14




  731  5310     68          			pla
  732  5311     20 EF DC    			jsr	__uns_mult_char
  733  5314     18          			clc
  734  5315     69 0D       			adc	#13
  735  5317     A0 06       			ldy	#+3+?LSC0
  736  5319     91 28       			sta	(__stack_ptr),y
  737  531B     A9 00       			lda	#0
  738  531D     20 AA DA    			jsr	__store_char_funct_arg
  739  5320     A9 82       			lda	#.low._GameMTCeng
  740  5322     85 20       			sta	__oper1
  741  5324     A9 AD       			lda	#.high._GameMTCeng
  742  5326     85 21       			sta	__oper1+1
  743  5328     20 CA DA    			jsr	__store_int_funct_arg
  744  532B     A0 09       			ldy	#+3+?LSC0+3
  745  532D     B1 28       			lda	(__stack_ptr),y
  746  532F     20 AA DA    			jsr	__store_char_funct_arg
  747  5332     A0 09       			ldy	#+2+?LSC0+4
  748  5334     B1 28       			lda	(__stack_ptr),y
  749  5336     20 AA DA    			jsr	__store_char_funct_arg
  750  5339     A0 09       			ldy	#+1+?LSC0+5
  751  533B     B1 28       			lda	(__stack_ptr),y
  752  533D     20 AA DA    			jsr	__store_char_funct_arg
  753  5340     A0 09       			ldy	#+0+?LSC0+6
  754  5342     B1 28       			lda	(__stack_ptr),y
  755  5344     A2 8E       			ldx	#.low.&SysPicture
  756  5346     86 26       			stx	__addr_reg
  757  5348     A2 E7       			ldx	#.high.&SysPicture+1
  758  534A     86 27       			stx	__addr_reg+1
  759                     			.bf_call
  760  534C     20 F6 D2    			jsr	__banked_function_call
  761  534F     08          			php
  762  5350     78          			sei
  763  5351     18          			clc
  764  5352     A5 28       			lda	__stack_ptr
  765  5354     69 06       			adc	#.low.6
  766  5356     85 28       			sta	__stack_ptr
  767  5358     A5 29       			lda	__stack_ptr+1
  768  535A     69 00       			adc	#.high.6
  769  535C     85 29       			sta	__stack_ptr+1
  770  535E     28          			plp
  771                     			.c_end	091eh,69
  772                     	;
  773                     			.for_bot  1,70
  774  535F     4C 6B 51    			jmp	?FLA1
  775         4716 5362   	?BOL1:		.equal	$
  776                     	;SysRect(10,4,42,14)
  777                     			.c_start  0926h,71
  778  5362     A9 0E       			lda	#14
  779  5364     20 AA DA    			jsr	__store_char_funct_arg
  780  5367     A9 2A       			lda	#42
  781  5369     20 AA DA    			jsr	__store_char_funct_arg
  782  536C     A9 04       			lda	#4
  783  536E     20 AA DA    			jsr	__store_char_funct_arg
  784  5371     A9 0A       			lda	#10
  785  5373     A2 97       			ldx	#.low.&SysRect
  786  5375     86 26       			stx	__addr_reg
  787  5377     A2 E7       			ldx	#.high.&SysRect+1
  Tue Jan 13 23:03:19 2026                                                                                               Page   15




  788  5379     86 27       			stx	__addr_reg+1
  789                     			.bf_call
  790  537B     20 F6 D2    			jsr	__banked_function_call
  791  537E     08          			php
  792  537F     78          			sei
  793  5380     18          			clc
  794  5381     A5 28       			lda	__stack_ptr
  795  5383     69 03       			adc	#.low.3
  796  5385     85 28       			sta	__stack_ptr
  797  5387     A5 29       			lda	__stack_ptr+1
  798  5389     69 00       			adc	#.high.3
  799  538B     85 29       			sta	__stack_ptr+1
  800  538D     28          			plp
  801                     			.c_end	0939h,71
  802                     	;while
  803         4519 538E   	?TOL2:		.equal	$
  804                     	;(1)
  805                     	;	
  806                     			.whi_top  093dh,?BOL2,1,72
  807  538E     A9 01       			lda	#1
  808  5390     D0 03       			bne	+3
  809  5392     4C 60 56    			jmp	?BOL2
  810         331A 5395   	?PLC1:		.equal	$
  811                     			.c_end	0946h,73
  812                     	;GameMTGetInput()
  813                     			.c_start  094dh,74
  814  5395     A2 2D       			ldx	#.low.&GameMTGetInput
  815  5397     86 26       			stx	__addr_reg
  816  5399     A2 90       			ldx	#.high.&GameMTGetInput+1
  817  539B     86 27       			stx	__addr_reg+1
  818                     			.bf_call
  819  539D     20 F6 D2    			jsr	__banked_function_call
  820                     			.c_end	095dh,74
  821                     	;(g_GameMTQuit)
  822                     			.if_top	095eh,?BOL3,2,74
  823  53A0     AD 05 18    			lda	_g_GameMTQuit
  824  53A3     D0 03       			bne	+3
  825  53A5     4C AB 53    			jmp	?BOL3
  826         3622 53A8   	?PLC2:		.equal	$
  827                     			.c_end	096dh,74
  828                     	;break;
  829                     	;		
  830  53A8     4C 60 56    			jmp	?BOL2
  831                     	;(g_GameMTReadKey==16)
  832         3922 53AB   	?BOL3:		.equal	$
  833                     			.if_top	0978h,?BOL4,2,75
  834  53AB     AD 06 18    			lda	_g_GameMTReadKey
  835  53AE     38          			sec
  836  53AF     E9 10       			sbc	#16
  837  53B1     F0 03       			beq	+3
  838  53B3     4C B9 53    			jmp	?BOL4
  839         3423 53B6   	?PLC3:		.equal	$
  840                     			.c_end	098eh,75
  841                     	;continue;
  842                     	;		
  843  53B6     4C 8E 53    			jmp	?TOL2
  844                     	;(g_GameMTReadKey==7)
  Tue Jan 13 23:03:19 2026                                                                                               Page   16




  845         3723 53B9   	?BOL4:		.equal	$
  846                     			.if_top	099ch,?BOL5,2,76
  847  53B9     AD 06 18    			lda	_g_GameMTReadKey
  848  53BC     38          			sec
  849  53BD     E9 07       			sbc	#7
  850  53BF     F0 03       			beq	+3
  851  53C1     4C C7 53    			jmp	?BOL5
  852         3224 53C4   	?PLC4:		.equal	$
  853                     			.c_end	09b1h,76
  854                     	;break;
  855                     	;		
  856  53C4     4C 60 56    			jmp	?BOL2
  857                     	;(g_GameMTReadKey==6)
  858         3524 53C7   	?BOL5:		.equal	$
  859                     			.if_top	09bch,?BOL6,2,77
  860  53C7     AD 06 18    			lda	_g_GameMTReadKey
  861  53CA     38          			sec
  862  53CB     E9 06       			sbc	#6
  863  53CD     F0 03       			beq	+3
  864  53CF     4C D5 53    			jmp	?BOL6
  865         4724 53D2   	?PLC5:		.equal	$
  866                     			.c_end	09d1h,77
  867                     	;break;
  868                     	;		
  869  53D2     4C 60 56    			jmp	?BOL2
  870                     	;(g_GameMTReadKey==1)
  871                     	;		
  872         3325 53D5   	?BOL6:		.equal	$
  873                     			.if_top	09dch,?BOL7,2,78
  874  53D5     AD 06 18    			lda	_g_GameMTReadKey
  875  53D8     38          			sec
  876  53D9     E9 01       			sbc	#1
  877  53DB     F0 03       			beq	+3
  878  53DD     4C 4F 54    			jmp	?BOL7
  879         4525 53E0   	?PLC6:		.equal	$
  880                     			.c_end	09f3h,79
  881                     	;(tempF>7&&tempF!=23)
  882                     			.if_top	09fch,?BOL8,3,80
  883  53E0     A0 01       			ldy	#-2+?LSC0
  884  53E2     B1 28       			lda	(__stack_ptr),y
  885  53E4     38          			sec
  886  53E5     E9 07       			sbc	#7
  887  53E7     B0 03       			bcs	+3
  888  53E9     4C 08 54    			jmp	?BOL8
  889  53EC     D0 03       			bne	+3
  890  53EE     4C 08 54    			jmp	?BOL8
  891         4626 53F1   	?ACC0:		.equal	$
  892  53F1     A0 01       			ldy	#-2+?LSC0
  893  53F3     B1 28       			lda	(__stack_ptr),y
  894  53F5     38          			sec
  895  53F6     E9 17       			sbc	#23
  896  53F8     D0 03       			bne	+3
  897  53FA     4C 08 54    			jmp	?BOL8
  898         4227 53FD   	?PLC7:		.equal	$
  899                     			.c_end	0a11h,80
  900                     	;tempF-=8
  901                     			.c_start  09fch,80
  Tue Jan 13 23:03:19 2026                                                                                               Page   17




  902  53FD     A0 01       			ldy	#-2+?LSC0
  903  53FF     B1 28       			lda	(__stack_ptr),y
  904  5401     38          			sec
  905  5402     E9 08       			sbc	#8
  906  5404     A0 01       			ldy	#-2+?LSC0
  907  5406     91 28       			sta	(__stack_ptr),y
  908                     			.c_end	0a1ah,80
  909                     	;;
  910                     	;			
  911                     	;(tempF==23)
  912                     	;			
  913         3711 5408   	?BOL8:		.equal	$
  914                     			.if_top	0a20h,?BOL9,3,81
  915  5408     A0 01       			ldy	#-2+?LSC0
  916  540A     B1 28       			lda	(__stack_ptr),y
  917  540C     38          			sec
  918  540D     E9 17       			sbc	#23
  919  540F     F0 03       			beq	+3
  920  5411     4C 4F 54    			jmp	?BOL9
  921         3212 5414   	?PLC8:		.equal	$
  922                     			.c_end	0a2eh,82
  923                     	;(tempF>14)
  924                     			.if_top	0a39h,?BOL10,4,83
  925  5414     A0 01       			ldy	#-2+?LSC0
  926  5416     B1 28       			lda	(__stack_ptr),y
  927  5418     38          			sec
  928  5419     E9 0E       			sbc	#14
  929  541B     B0 03       			bcs	+3
  930  541D     4C 2E 54    			jmp	?BOL10
  931  5420     D0 03       			bne	+3
  932  5422     4C 2E 54    			jmp	?BOL10
  933         3313 5425   	?PLC9:		.equal	$
  934                     			.c_end	0a44h,83
  935                     	;tempF=15
  936                     			.c_start  0a39h,83
  937  5425     A0 01       			ldy	#-2+?LSC0
  938  5427     A9 0F       			lda	#15
  939  5429     91 28       			sta	(__stack_ptr),y
  940                     			.c_end	0a4dh,83
  941                     	;;
  942                     	;				
  943                     	;else if
  944  542B     4C 4F 54    			jmp	?EOI10
  945                     			.if_else  ?EOI10,4,84
  946         4313 542E   	?BOL10:		.equal	$
  947                     	;(tempF>6)
  948                     			.if_top	0a59h,?BOL12,4,84
  949  542E     A0 01       			ldy	#-2+?LSC0
  950  5430     B1 28       			lda	(__stack_ptr),y
  951  5432     38          			sec
  952  5433     E9 06       			sbc	#6
  953  5435     B0 03       			bcs	+3
  954  5437     4C 48 54    			jmp	?BOL12
  955  543A     D0 03       			bne	+3
  956  543C     4C 48 54    			jmp	?BOL12
  957         4414 543F   	?PLC10:		.equal	$
  958                     			.c_end	0a63h,84
  Tue Jan 13 23:03:19 2026                                                                                               Page   18




  959                     	;tempF=7
  960                     			.c_start  0a59h,84
  961  543F     A0 01       			ldy	#-2+?LSC0
  962  5441     A9 07       			lda	#7
  963  5443     91 28       			sta	(__stack_ptr),y
  964                     			.c_end	0a6bh,84
  965                     	;;
  966                     	;				
  967                     	;else 
  968  5445     4C 4F 54    			jmp	?EOI10
  969                     			.if_else  ?EOI10,4,85
  970         3615 5448   	?BOL12:		.equal	$
  971                     	;tempF=g_GameMTTopFloor
  972                     			.c_start  0a77h,85
  973  5448     AD 08 18    			lda	_g_GameMTTopFloor
  974  544B     A0 01       			ldy	#-2+?LSC0
  975  544D     91 28       			sta	(__stack_ptr),y
  976                     			.c_end	0a8dh,85
  977                     	;;
  978                     	;			
  979         4515 544F   	?EOI10:		.equal	$
  980                     	;
  981                     	;
  982         45F6 544F   	?BOL9:		.equal	$
  983                     	;(g_GameMTReadKey==2)
  984                     	;		
  985         46D7 544F   	?BOL7:		.equal	$
  986                     			.if_top	0a9dh,?BOL14,2,88
  987  544F     AD 06 18    			lda	_g_GameMTReadKey
  988  5452     38          			sec
  989  5453     E9 02       			sbc	#2
  990  5455     F0 03       			beq	+3
  991  5457     4C AA 54    			jmp	?BOL14
  992         3816 545A   	?PLC11:		.equal	$
  993                     			.c_end	0ab4h,89
  994                     	;(tempF+7<g_GameMTTopFloor)
  995                     			.if_top	0abdh,?BOL15,3,90
  996  545A     A0 01       			ldy	#-2+?LSC0
  997  545C     B1 28       			lda	(__stack_ptr),y
  998  545E     18          			clc
  999  545F     69 07       			adc	#7
 1000  5461     38          			sec
 1001  5462     ED 08 18    			sbc	_g_GameMTTopFloor
 1002  5465     90 03       			bcc	+3
 1003  5467     4C 78 54    			jmp	?BOL15
 1004         3817 546A   	?PLC12:		.equal	$
 1005                     			.c_end	0ad8h,90
 1006                     	;tempF+=8
 1007                     			.c_start  0abdh,90
 1008  546A     A0 01       			ldy	#-2+?LSC0
 1009  546C     B1 28       			lda	(__stack_ptr),y
 1010  546E     18          			clc
 1011  546F     69 08       			adc	#8
 1012  5471     A0 01       			ldy	#-2+?LSC0
 1013  5473     91 28       			sta	(__stack_ptr),y
 1014                     			.c_end	0ae1h,90
 1015                     	;;
  Tue Jan 13 23:03:19 2026                                                                                               Page   19




 1016                     	;			
 1017                     	;else if
 1018  5475     4C AA 54    			jmp	?EOI15
 1019                     			.if_else  ?EOI15,3,91
 1020         3618 5478   	?BOL15:		.equal	$
 1021                     	;(tempF==7&&g_GameMTTopFloor<15)
 1022                     			.if_top	0aech,?BOL17,3,91
 1023  5478     A0 01       			ldy	#-2+?LSC0
 1024  547A     B1 28       			lda	(__stack_ptr),y
 1025  547C     38          			sec
 1026  547D     E9 07       			sbc	#7
 1027  547F     F0 03       			beq	+3
 1028  5481     4C 98 54    			jmp	?BOL17
 1029         3219 5484   	?ACC1:		.equal	$
 1030  5484     AD 08 18    			lda	_g_GameMTTopFloor
 1031  5487     38          			sec
 1032  5488     E9 0F       			sbc	#15
 1033  548A     90 03       			bcc	+3
 1034  548C     4C 98 54    			jmp	?BOL17
 1035         4419 548F   	?PLC13:		.equal	$
 1036                     			.c_end	0b0ch,91
 1037                     	;tempF=23
 1038                     			.c_start  0aech,91
 1039  548F     A0 01       			ldy	#-2+?LSC0
 1040  5491     A9 17       			lda	#23
 1041  5493     91 28       			sta	(__stack_ptr),y
 1042                     			.c_end	0b15h,91
 1043                     	;;
 1044                     	;			
 1045                     	;else if
 1046  5495     4C AA 54    			jmp	?EOI15
 1047                     			.if_else  ?EOI15,3,92
 1048         361A 5498   	?BOL17:		.equal	$
 1049                     	;(tempF==15)
 1050                     			.if_top	0b20h,?BOL19,3,92
 1051  5498     A0 01       			ldy	#-2+?LSC0
 1052  549A     B1 28       			lda	(__stack_ptr),y
 1053  549C     38          			sec
 1054  549D     E9 0F       			sbc	#15
 1055  549F     F0 03       			beq	+3
 1056  54A1     4C AA 54    			jmp	?BOL19
 1057         3222 54A4   	?PLC14:		.equal	$
 1058                     			.c_end	0b2ch,92
 1059                     	;tempF=23
 1060                     			.c_start  0b20h,92
 1061  54A4     A0 01       			ldy	#-2+?LSC0
 1062  54A6     A9 17       			lda	#23
 1063  54A8     91 28       			sta	(__stack_ptr),y
 1064                     			.c_end	0b35h,92
 1065                     	;;	
 1066                     	;		
 1067                     	;
 1068         3922 54AA   	?EOI15:	.equal	$
 1069         3A03 54AA   	?BOL19:	.equal	$
 1070                     	;(g_GameMTReadKey==4)
 1071                     	;		
 1072         3AE4 54AA   	?BOL14:		.equal	$
  Tue Jan 13 23:03:19 2026                                                                                               Page   20




 1073                     			.if_top	0b40h,?BOL20,2,94
 1074  54AA     AD 06 18    			lda	_g_GameMTReadKey
 1075  54AD     38          			sec
 1076  54AE     E9 04       			sbc	#4
 1077  54B0     F0 03       			beq	+3
 1078  54B2     4C DE 54    			jmp	?BOL20
 1079         3323 54B5   	?PLC15:		.equal	$
 1080                     			.c_end	0b57h,95
 1081                     	;(tempF==g_GameMTTopFloor)
 1082                     			.if_top	0b60h,?BOL21,3,96
 1083  54B5     A0 01       			ldy	#-2+?LSC0
 1084  54B7     B1 28       			lda	(__stack_ptr),y
 1085  54B9     38          			sec
 1086  54BA     ED 08 18    			sbc	_g_GameMTTopFloor
 1087  54BD     F0 03       			beq	+3
 1088  54BF     4C C8 54    			jmp	?BOL21
 1089         4723 54C2   	?PLC16:		.equal	$
 1090                     			.c_end	0b7ah,96
 1091                     	;tempF=23
 1092                     			.c_start  0b60h,96
 1093  54C2     A0 01       			ldy	#-2+?LSC0
 1094  54C4     A9 17       			lda	#23
 1095  54C6     91 28       			sta	(__stack_ptr),y
 1096                     			.c_end	0b83h,96
 1097                     	;;
 1098                     	;			
 1099                     	;(tempF<g_GameMTTopFloor)
 1100         3724 54C8   	?BOL21:		.equal	$
 1101                     			.if_top	0b89h,?BOL22,3,97
 1102  54C8     A0 01       			ldy	#-2+?LSC0
 1103  54CA     B1 28       			lda	(__stack_ptr),y
 1104  54CC     38          			sec
 1105  54CD     ED 08 18    			sbc	_g_GameMTTopFloor
 1106  54D0     90 03       			bcc	+3
 1107  54D2     4C DE 54    			jmp	?BOL22
 1108         3325 54D5   	?PLC17:		.equal	$
 1109                     			.c_end	0ba2h,97
 1110                     	;tempF++
 1111                     			.c_start  0b89h,97
 1112  54D5     A0 01       			ldy	#-2+?LSC0
 1113  54D7     B1 28       			lda	(__stack_ptr),y
 1114  54D9     18          			clc
 1115  54DA     69 01       			adc	#1
 1116  54DC     91 28       			sta	(__stack_ptr),y
 1117                     			.c_end	0baah,97
 1118                     	;;
 1119                     	;		
 1120                     	;
 1121         4425 54DE   	?BOL22:		.equal	$
 1122                     	;(g_GameMTReadKey==3)
 1123                     	;		
 1124         4506 54DE   	?BOL20:		.equal	$
 1125                     			.if_top	0bb4h,?BOL23,2,99
 1126  54DE     AD 06 18    			lda	_g_GameMTReadKey
 1127  54E1     38          			sec
 1128  54E2     E9 03       			sbc	#3
 1129  54E4     F0 03       			beq	+3
  Tue Jan 13 23:03:19 2026                                                                                               Page   21




 1130  54E6     4C 25 55    			jmp	?BOL23
 1131         3726 54E9   	?PLC18:		.equal	$
 1132                     			.c_end	0bcbh,100
 1133                     	;(tempF+1>1&&tempF!=23)
 1134                     			.if_top	0bd4h,?BOL24,3,101
 1135  54E9     A0 01       			ldy	#-2+?LSC0
 1136  54EB     B1 28       			lda	(__stack_ptr),y
 1137  54ED     18          			clc
 1138  54EE     69 01       			adc	#1
 1139  54F0     38          			sec
 1140  54F1     E9 01       			sbc	#1
 1141  54F3     B0 03       			bcs	+3
 1142  54F5     4C 12 55    			jmp	?BOL24
 1143  54F8     D0 03       			bne	+3
 1144  54FA     4C 12 55    			jmp	?BOL24
 1145         4227 54FD   	?ACC2:		.equal	$
 1146  54FD     A0 01       			ldy	#-2+?LSC0
 1147  54FF     B1 28       			lda	(__stack_ptr),y
 1148  5501     38          			sec
 1149  5502     E9 17       			sbc	#23
 1150  5504     D0 03       			bne	+3
 1151  5506     4C 12 55    			jmp	?BOL24
 1152         3711 5509   	?PLC19:		.equal	$
 1153                     			.c_end	0bebh,101
 1154                     	;tempF--
 1155                     			.c_start  0bd4h,101
 1156  5509     A0 01       			ldy	#-2+?LSC0
 1157  550B     B1 28       			lda	(__stack_ptr),y
 1158  550D     38          			sec
 1159  550E     E9 01       			sbc	#1
 1160  5510     91 28       			sta	(__stack_ptr),y
 1161                     			.c_end	0bf3h,101
 1162                     	;;
 1163                     	;			
 1164                     	;(tempF==23)
 1165         3112 5512   	?BOL24:		.equal	$
 1166                     			.if_top	0bf9h,?BOL25,3,102
 1167  5512     A0 01       			ldy	#-2+?LSC0
 1168  5514     B1 28       			lda	(__stack_ptr),y
 1169  5516     38          			sec
 1170  5517     E9 17       			sbc	#23
 1171  5519     F0 03       			beq	+3
 1172  551B     4C 25 55    			jmp	?BOL25
 1173         4312 551E   	?PLC20:		.equal	$
 1174                     			.c_end	0c05h,102
 1175                     	;tempF=g_GameMTTopFloor
 1176                     			.c_start  0bf9h,102
 1177  551E     AD 08 18    			lda	_g_GameMTTopFloor
 1178  5521     A0 01       			ldy	#-2+?LSC0
 1179  5523     91 28       			sta	(__stack_ptr),y
 1180                     			.c_end	0c1ch,102
 1181                     	;;
 1182                     	;		
 1183                     	;
 1184         3413 5525   	?BOL25:		.equal	$
 1185                     	;SysRectClear(10+(temp/8)*38,4+(temp%8)*11,42+(temp/8)*38,14+(temp%8)*11)
 1186         34F4 5525   	?BOL23:		.equal	$
  Tue Jan 13 23:03:19 2026                                                                                               Page   22




 1187                     			.c_start  0c26h,104
 1188  5525     A9 08       			lda	#8
 1189  5527     85 23       			sta	__oper2
 1190  5529     A0 00       			ldy	#-3+?LSC0
 1191  552B     B1 28       			lda	(__stack_ptr),y
 1192  552D     20 7B DC    			jsr	__uns_div_char
 1193  5530     48          			pha
 1194  5531     A9 26       			lda	#38
 1195  5533     85 23       			sta	__oper2
 1196  5535     68          			pla
 1197  5536     20 EF DC    			jsr	__uns_mult_char
 1198  5539     18          			clc
 1199  553A     69 0A       			adc	#10
 1200  553C     A0 03       			ldy	#+0+?LSC0
 1201  553E     91 28       			sta	(__stack_ptr),y
 1202  5540     A9 08       			lda	#8
 1203  5542     85 23       			sta	__oper2
 1204  5544     A0 00       			ldy	#-3+?LSC0
 1205  5546     B1 28       			lda	(__stack_ptr),y
 1206  5548     20 AB DC    			jsr	__uns_mod_char
 1207  554B     48          			pha
 1208  554C     A9 0B       			lda	#11
 1209  554E     85 23       			sta	__oper2
 1210  5550     68          			pla
 1211  5551     20 EF DC    			jsr	__uns_mult_char
 1212  5554     18          			clc
 1213  5555     69 04       			adc	#4
 1214  5557     A0 04       			ldy	#+1+?LSC0
 1215  5559     91 28       			sta	(__stack_ptr),y
 1216  555B     A9 08       			lda	#8
 1217  555D     85 23       			sta	__oper2
 1218  555F     A0 00       			ldy	#-3+?LSC0
 1219  5561     B1 28       			lda	(__stack_ptr),y
 1220  5563     20 7B DC    			jsr	__uns_div_char
 1221  5566     48          			pha
 1222  5567     A9 26       			lda	#38
 1223  5569     85 23       			sta	__oper2
 1224  556B     68          			pla
 1225  556C     20 EF DC    			jsr	__uns_mult_char
 1226  556F     18          			clc
 1227  5570     69 2A       			adc	#42
 1228  5572     A0 05       			ldy	#+2+?LSC0
 1229  5574     91 28       			sta	(__stack_ptr),y
 1230  5576     A9 08       			lda	#8
 1231  5578     85 23       			sta	__oper2
 1232  557A     A0 00       			ldy	#-3+?LSC0
 1233  557C     B1 28       			lda	(__stack_ptr),y
 1234  557E     20 AB DC    			jsr	__uns_mod_char
 1235  5581     48          			pha
 1236  5582     A9 0B       			lda	#11
 1237  5584     85 23       			sta	__oper2
 1238  5586     68          			pla
 1239  5587     20 EF DC    			jsr	__uns_mult_char
 1240  558A     18          			clc
 1241  558B     69 0E       			adc	#14
 1242  558D     20 AA DA    			jsr	__store_char_funct_arg
 1243  5590     A0 06       			ldy	#+2+?LSC0+1
  Tue Jan 13 23:03:19 2026                                                                                               Page   23




 1244  5592     B1 28       			lda	(__stack_ptr),y
 1245  5594     20 AA DA    			jsr	__store_char_funct_arg
 1246  5597     A0 06       			ldy	#+1+?LSC0+2
 1247  5599     B1 28       			lda	(__stack_ptr),y
 1248  559B     20 AA DA    			jsr	__store_char_funct_arg
 1249  559E     A0 06       			ldy	#+0+?LSC0+3
 1250  55A0     B1 28       			lda	(__stack_ptr),y
 1251  55A2     A2 BF       			ldx	#.low.&SysRectClear
 1252  55A4     86 26       			stx	__addr_reg
 1253  55A6     A2 E8       			ldx	#.high.&SysRectClear+1
 1254  55A8     86 27       			stx	__addr_reg+1
 1255                     			.bf_call
 1256  55AA     20 F6 D2    			jsr	__banked_function_call
 1257  55AD     08          			php
 1258  55AE     78          			sei
 1259  55AF     18          			clc
 1260  55B0     A5 28       			lda	__stack_ptr
 1261  55B2     69 03       			adc	#.low.3
 1262  55B4     85 28       			sta	__stack_ptr
 1263  55B6     A5 29       			lda	__stack_ptr+1
 1264  55B8     69 00       			adc	#.high.3
 1265  55BA     85 29       			sta	__stack_ptr+1
 1266  55BC     28          			plp
 1267                     			.c_end	0c6eh,104
 1268                     	;temp=tempF
 1269                     			.c_start  0c73h,105
 1270  55BD     A0 01       			ldy	#-2+?LSC0
 1271  55BF     B1 28       			lda	(__stack_ptr),y
 1272  55C1     A0 00       			ldy	#-3+?LSC0
 1273  55C3     91 28       			sta	(__stack_ptr),y
 1274                     			.c_end	0c7dh,105
 1275                     	;SysRect(10+(tempF/8)*38,4+(tempF%8)*11,42+(tempF/8)*38,14+(tempF%8)*11)
 1276                     			.c_start  0c82h,106
 1277  55C5     A9 08       			lda	#8
 1278  55C7     85 23       			sta	__oper2
 1279  55C9     A0 01       			ldy	#-2+?LSC0
 1280  55CB     B1 28       			lda	(__stack_ptr),y
 1281  55CD     20 7B DC    			jsr	__uns_div_char
 1282  55D0     48          			pha
 1283  55D1     A9 26       			lda	#38
 1284  55D3     85 23       			sta	__oper2
 1285  55D5     68          			pla
 1286  55D6     20 EF DC    			jsr	__uns_mult_char
 1287  55D9     18          			clc
 1288  55DA     69 0A       			adc	#10
 1289  55DC     A0 03       			ldy	#+0+?LSC0
 1290  55DE     91 28       			sta	(__stack_ptr),y
 1291  55E0     A9 08       			lda	#8
 1292  55E2     85 23       			sta	__oper2
 1293  55E4     A0 01       			ldy	#-2+?LSC0
 1294  55E6     B1 28       			lda	(__stack_ptr),y
 1295  55E8     20 AB DC    			jsr	__uns_mod_char
 1296  55EB     48          			pha
 1297  55EC     A9 0B       			lda	#11
 1298  55EE     85 23       			sta	__oper2
 1299  55F0     68          			pla
 1300  55F1     20 EF DC    			jsr	__uns_mult_char
  Tue Jan 13 23:03:19 2026                                                                                               Page   24




 1301  55F4     18          			clc
 1302  55F5     69 04       			adc	#4
 1303  55F7     A0 04       			ldy	#+1+?LSC0
 1304  55F9     91 28       			sta	(__stack_ptr),y
 1305  55FB     A9 08       			lda	#8
 1306  55FD     85 23       			sta	__oper2
 1307  55FF     A0 01       			ldy	#-2+?LSC0
 1308  5601     B1 28       			lda	(__stack_ptr),y
 1309  5603     20 7B DC    			jsr	__uns_div_char
 1310  5606     48          			pha
 1311  5607     A9 26       			lda	#38
 1312  5609     85 23       			sta	__oper2
 1313  560B     68          			pla
 1314  560C     20 EF DC    			jsr	__uns_mult_char
 1315  560F     18          			clc
 1316  5610     69 2A       			adc	#42
 1317  5612     A0 05       			ldy	#+2+?LSC0
 1318  5614     91 28       			sta	(__stack_ptr),y
 1319  5616     A9 08       			lda	#8
 1320  5618     85 23       			sta	__oper2
 1321  561A     A0 01       			ldy	#-2+?LSC0
 1322  561C     B1 28       			lda	(__stack_ptr),y
 1323  561E     20 AB DC    			jsr	__uns_mod_char
 1324  5621     48          			pha
 1325  5622     A9 0B       			lda	#11
 1326  5624     85 23       			sta	__oper2
 1327  5626     68          			pla
 1328  5627     20 EF DC    			jsr	__uns_mult_char
 1329  562A     18          			clc
 1330  562B     69 0E       			adc	#14
 1331  562D     20 AA DA    			jsr	__store_char_funct_arg
 1332  5630     A0 06       			ldy	#+2+?LSC0+1
 1333  5632     B1 28       			lda	(__stack_ptr),y
 1334  5634     20 AA DA    			jsr	__store_char_funct_arg
 1335  5637     A0 06       			ldy	#+1+?LSC0+2
 1336  5639     B1 28       			lda	(__stack_ptr),y
 1337  563B     20 AA DA    			jsr	__store_char_funct_arg
 1338  563E     A0 06       			ldy	#+0+?LSC0+3
 1339  5640     B1 28       			lda	(__stack_ptr),y
 1340  5642     A2 97       			ldx	#.low.&SysRect
 1341  5644     86 26       			stx	__addr_reg
 1342  5646     A2 E7       			ldx	#.high.&SysRect+1
 1343  5648     86 27       			stx	__addr_reg+1
 1344                     			.bf_call
 1345  564A     20 F6 D2    			jsr	__banked_function_call
 1346  564D     08          			php
 1347  564E     78          			sei
 1348  564F     18          			clc
 1349  5650     A5 28       			lda	__stack_ptr
 1350  5652     69 03       			adc	#.low.3
 1351  5654     85 28       			sta	__stack_ptr
 1352  5656     A5 29       			lda	__stack_ptr+1
 1353  5658     69 00       			adc	#.high.3
 1354  565A     85 29       			sta	__stack_ptr+1
 1355  565C     28          			plp
 1356                     			.c_end	0cc9h,106
 1357                     	;
  Tue Jan 13 23:03:19 2026                                                                                               Page   25




 1358                     			.whi_bot  1,107
 1359  565D     4C 8E 53    			jmp	?TOL2
 1360         4516 5660   	?BOL2:		.equal	$
 1361                     	;(g_GameMTReadKey==6)
 1362                     	;		
 1363                     			.if_top	0cd1h,?BOL26,1,108
 1364  5660     AD 06 18    			lda	_g_GameMTReadKey
 1365  5663     38          			sec
 1366  5664     E9 06       			sbc	#6
 1367  5666     F0 03       			beq	+3
 1368  5668     4C 21 57    			jmp	?BOL26
 1369         3917 566B   	?PLC21:		.equal	$
 1370                     			.c_end	0ce8h,109
 1371                     	;(g_GameMTTopFloor>=tempF)
 1372                     	;				
 1373                     			.if_top	0cebh,?BOL27,2,109
 1374  566B     AD 08 18    			lda	_g_GameMTTopFloor
 1375  566E     A0 01       			ldy	#-2+?LSC0
 1376  5670     38          			sec
 1377  5671     F1 28       			sbc	(__stack_ptr),y
 1378  5673     B0 03       			bcs	+3
 1379  5675     4C 21 57    			jmp	?BOL27
 1380         3618 5678   	?PLC22:		.equal	$
 1381                     			.c_end	0d07h,110
 1382                     	;g_GameMTFloor=tempF
 1383                     			.c_start  0d14h,111
 1384  5678     A0 01       			ldy	#-2+?LSC0
 1385  567A     B1 28       			lda	(__stack_ptr),y
 1386  567C     8D A7 1F    			sta	_g_GameMTFloor
 1387                     			.c_end	0d27h,111
 1388                     	;g_GameMTHeroX=GameMTStartPoint[g_GameMTFloor][0]
 1389                     			.c_start  0d2fh,112
 1390  567F     A9 04       			lda	#.low.4
 1391  5681     85 23       			sta	__oper2
 1392  5683     A9 00       			lda	#.high.4
 1393  5685     85 24       			sta	__oper2+1
 1394  5687     AD A7 1F    			lda	_g_GameMTFloor
 1395  568A     85 20       			sta	__oper1
 1396  568C     A9 00       			lda	#0
 1397  568E     85 21       			sta	__oper1+1
 1398  5690     20 AF D6    			jsr	__mult_int
 1399  5693     18          			clc
 1400  5694     A5 20       			lda	__oper1
 1401  5696     69 40       			adc	#.low._GameMTStartPoint
 1402  5698     85 20       			sta	__oper1
 1403  569A     A5 21       			lda	__oper1+1
 1404  569C     69 BD       			adc	#.high._GameMTStartPoint
 1405  569E     85 21       			sta	__oper1+1
 1406  56A0     A0 03       			ldy	#+0+?LSC0
 1407  56A2     A5 20       			lda	__oper1
 1408  56A4     91 28       			sta	(__stack_ptr),y
 1409  56A6     C8          			iny
 1410  56A7     A5 21       			lda	__oper1+1
 1411  56A9     91 28       			sta	(__stack_ptr),y
 1412  56AB     A0 03       			ldy	#+0+?LSC0
 1413  56AD     B1 28       			lda	(__stack_ptr),y
 1414  56AF     AA          			tax
  Tue Jan 13 23:03:19 2026                                                                                               Page   26




 1415  56B0     C8          			iny
 1416  56B1     B1 28       			lda	(__stack_ptr),y
 1417  56B3     85 27       			sta	__addr_reg+1
 1418  56B5     86 26       			stx	__addr_reg
 1419  56B7     A0 00       			ldy	#0
 1420  56B9     B1 26       			lda	(__addr_reg),y
 1421  56BB     8D 0F 18    			sta	_g_GameMTHeroX
 1422                     			.c_end	0d5fh,112
 1423                     	;g_GameMTHeroY=GameMTStartPoint[g_GameMTFloor][1]
 1424                     			.c_start  0d67h,113
 1425  56BE     A9 04       			lda	#.low.4
 1426  56C0     85 23       			sta	__oper2
 1427  56C2     A9 00       			lda	#.high.4
 1428  56C4     85 24       			sta	__oper2+1
 1429  56C6     AD A7 1F    			lda	_g_GameMTFloor
 1430  56C9     85 20       			sta	__oper1
 1431  56CB     A9 00       			lda	#0
 1432  56CD     85 21       			sta	__oper1+1
 1433  56CF     20 AF D6    			jsr	__mult_int
 1434  56D2     18          			clc
 1435  56D3     A5 20       			lda	__oper1
 1436  56D5     69 40       			adc	#.low._GameMTStartPoint
 1437  56D7     85 20       			sta	__oper1
 1438  56D9     A5 21       			lda	__oper1+1
 1439  56DB     69 BD       			adc	#.high._GameMTStartPoint
 1440  56DD     85 21       			sta	__oper1+1
 1441  56DF     A0 03       			ldy	#+0+?LSC0
 1442  56E1     A5 20       			lda	__oper1
 1443  56E3     91 28       			sta	(__stack_ptr),y
 1444  56E5     C8          			iny
 1445  56E6     A5 21       			lda	__oper1+1
 1446  56E8     91 28       			sta	(__stack_ptr),y
 1447  56EA     A0 03       			ldy	#+0+?LSC0
 1448  56EC     B1 28       			lda	(__stack_ptr),y
 1449  56EE     AA          			tax
 1450  56EF     C8          			iny
 1451  56F0     B1 28       			lda	(__stack_ptr),y
 1452  56F2     85 27       			sta	__addr_reg+1
 1453  56F4     86 26       			stx	__addr_reg
 1454  56F6     A0 01       			ldy	#1
 1455  56F8     B1 26       			lda	(__addr_reg),y
 1456  56FA     8D 10 18    			sta	_g_GameMTHeroY
 1457                     			.c_end	0d97h,113
 1458                     	;GameMTNewFloor()
 1459                     			.c_start  0d9fh,114
 1460  56FD     A2 42       			ldx	#.low.&GameMTNewFloor
 1461  56FF     86 26       			stx	__addr_reg
 1462  5701     A2 90       			ldx	#.high.&GameMTNewFloor+1
 1463  5703     86 27       			stx	__addr_reg+1
 1464                     			.bf_call
 1465  5705     20 F6 D2    			jsr	__banked_function_call
 1466                     			.c_end	0dafh,114
 1467                     	;GameMTReNewR()
 1468                     			.c_start  0db7h,115
 1469  5708     A2 57       			ldx	#.low.&GameMTReNewR
 1470  570A     86 26       			stx	__addr_reg
 1471  570C     A2 90       			ldx	#.high.&GameMTReNewR+1
  Tue Jan 13 23:03:19 2026                                                                                               Page   27




 1472  570E     86 27       			stx	__addr_reg+1
 1473                     			.bf_call
 1474  5710     20 F6 D2    			jsr	__banked_function_call
 1475                     			.c_end	0dc5h,115
 1476                     	;GameMTRefresh()
 1477                     			.c_start  0dcdh,116
 1478  5713     A2 30       			ldx	#.low.&GameMTRefresh
 1479  5715     86 26       			stx	__addr_reg
 1480  5717     A2 90       			ldx	#.high.&GameMTRefresh+1
 1481  5719     86 27       			stx	__addr_reg+1
 1482                     			.bf_call
 1483  571B     20 F6 D2    			jsr	__banked_function_call
 1484                     			.c_end	0ddch,116
 1485                     	;return
 1486                     			.c_start  0de4h,117
 1487  571E     4C 58 57    			jmp	?BOF0
 1488                     			.c_end	0deah,117
 1489                     	;
 1490         4612 5721   	?BOL27:		.equal	$
 1491                     	;SysRestoreScreen(7,1,121,94,g_GameMTBuf)
 1492         46F3 5721   	?BOL26:		.equal	$
 1493                     			.c_start  0df5h,119
 1494  5721     A9 13       			lda	#.low._g_GameMTBuf
 1495  5723     85 20       			sta	__oper1
 1496  5725     A9 18       			lda	#.high._g_GameMTBuf
 1497  5727     85 21       			sta	__oper1+1
 1498  5729     20 CA DA    			jsr	__store_int_funct_arg
 1499  572C     A9 5E       			lda	#94
 1500  572E     20 AA DA    			jsr	__store_char_funct_arg
 1501  5731     A9 79       			lda	#121
 1502  5733     20 AA DA    			jsr	__store_char_funct_arg
 1503  5736     A9 01       			lda	#1
 1504  5738     20 AA DA    			jsr	__store_char_funct_arg
 1505  573B     A9 07       			lda	#7
 1506  573D     A2 7A       			ldx	#.low.&SysRestoreScreen
 1507  573F     86 26       			stx	__addr_reg
 1508  5741     A2 E8       			ldx	#.high.&SysRestoreScreen+1
 1509  5743     86 27       			stx	__addr_reg+1
 1510                     			.bf_call
 1511  5745     20 F6 D2    			jsr	__banked_function_call
 1512  5748     08          			php
 1513  5749     78          			sei
 1514  574A     18          			clc
 1515  574B     A5 28       			lda	__stack_ptr
 1516  574D     69 05       			adc	#.low.5
 1517  574F     85 28       			sta	__stack_ptr
 1518  5751     A5 29       			lda	__stack_ptr+1
 1519  5753     69 00       			adc	#.high.5
 1520  5755     85 29       			sta	__stack_ptr+1
 1521  5757     28          			plp
 1522                     			.c_end	0e1dh,119
 1523                     	;
 1524                     			.f_end	0e20h,120
 1525         3816 5758   	?BOF0:		.equal	$
 1526  5758     08          			php
 1527  5759     78          			sei
 1528  575A     18          			clc
  Tue Jan 13 23:03:19 2026                                                                                               Page   28




 1529  575B     A5 28       			lda	__stack_ptr
 1530  575D     69 08       			adc	#.low.+?LSC0+?TSC0+0
 1531  575F     85 28       			sta	__stack_ptr
 1532  5761     A5 29       			lda	__stack_ptr+1
 1533  5763     69 00       			adc	#.high.+?LSC0+?TSC0+0
 1534  5765     85 29       			sta	__stack_ptr+1
 1535  5767     28          			plp
 1536                     			.f_return
 1537  5768     60          			rts
 1538                     	;
 1539                     			.f_start  0fech,132
 1540                     			.bank_table
 1541                     			.global	&GameMTCheckMon
 1542  904B     69 57 E1    	&GameMTCheckMon:	.bankaddr	_GameMTCheckMon
 1543                     			.ends
 1544         4315 5769   	_GameMTCheckMon:	.equal	$
 1545                     			.attrib	_GameMTCheckMon,133,f,b
 1546                     	;
 1547                     	;
 1548         0000        	?ASC1:		.equal	0
 1549         0002        	?TSC1:		.equal	2
 1550         0009        	?LSC1:		.equal	9
 1551  5769     08          			php
 1552  576A     78          			sei
 1553  576B     38          			sec
 1554  576C     A5 28       			lda	__stack_ptr
 1555  576E     E9 0B       			sbc	#.low.+?LSC1+?TSC1
 1556  5770     85 28       			sta	__stack_ptr
 1557  5772     A5 29       			lda	__stack_ptr+1
 1558  5774     E9 00       			sbc	#.high.+?LSC1+?TSC1
 1559  5776     85 29       			sta	__stack_ptr+1
 1560  5778     28          			plp
 1561                     	;unsigned char  i=j=k=scoll=timeout;
 1562                     	;	
 1563                     			.local	_i,134,v,c,u,d,d,d,d,-1+?LSC1+0,00h
 1564                     			.local	_j,134,v,c,u,d,d,d,d,-2+?LSC1+0,00h
 1565                     			.local	_k,134,v,c,u,d,d,d,d,-3+?LSC1+0,00h
 1566                     			.local	_scoll,134,v,c,u,d,d,d,d,-4+?LSC1+0,00h
 1567                     			.local	_timeout,134,v,c,u,d,d,d,d,-5+?LSC1+0,00h
 1568                     	;unsigned int  temp=temp2;
 1569                     	;	
 1570                     			.local	_temp,135,v,i,u,d,d,d,d,-7+?LSC1+0,00h
 1571                     			.local	_temp2,135,v,i,u,d,d,d,d,-9+?LSC1+0,00h
 1572                     	;temp2=g_GameMTHeroDamige
 1573                     			.c_start  0102eh,136
 1574  5779     AD 9E 1F    			lda	_g_GameMTHeroDamige
 1575  577C     85 20       			sta	__oper1
 1576  577E     AD 9F 1F    			lda	_g_GameMTHeroDamige+1
 1577  5781     85 21       			sta	__oper1+1
 1578  5783     A0 00       			ldy	#-9+?LSC1
 1579  5785     A5 20       			lda	__oper1
 1580  5787     91 28       			sta	(__stack_ptr),y
 1581  5789     C8          			iny
 1582  578A     A5 21       			lda	__oper1+1
 1583  578C     91 28       			sta	(__stack_ptr),y
 1584                     			.c_end	01046h,136
 1585                     	;scoll=0
  Tue Jan 13 23:03:19 2026                                                                                               Page   29




 1586                     			.c_start  0104ah,137
 1587  578E     A0 05       			ldy	#-4+?LSC1
 1588  5790     A9 00       			lda	#0
 1589  5792     91 28       			sta	(__stack_ptr),y
 1590                     			.c_end	01051h,137
 1591                     	;timeout=4
 1592                     			.c_start  01055h,138
 1593  5794     A0 04       			ldy	#-5+?LSC1
 1594  5796     A9 04       			lda	#4
 1595  5798     91 28       			sta	(__stack_ptr),y
 1596                     			.c_end	0105eh,138
 1597                     	;i=0;
 1598                     			.c_start  01062h,139
 1599  579A     A0 08       			ldy	#-1+?LSC1
 1600  579C     A9 00       			lda	#0
 1601  579E     91 28       			sta	(__stack_ptr),y
 1602                     			.c_end	01069h,139
 1603         461A 57A0   	?FLC28:		.equal	$
 1604                     	;i<8;
 1605                     			.for_top  0106ah,?BOL28,?FLB28,?FLA28,1,139
 1606  57A0     A0 08       			ldy	#-1+?LSC1
 1607  57A2     B1 28       			lda	(__stack_ptr),y
 1608  57A4     38          			sec
 1609  57A5     E9 08       			sbc	#8
 1610  57A7     90 03       			bcc	+3
 1611  57A9     4C E3 57    			jmp	?BOL28
 1612                     			.c_end	0106dh,139
 1613  57AC     4C BB 57    			jmp	?FLB28
 1614         4422 57AF   	?FLA28:		.equal	$
 1615                     	;i++)
 1616                     			.for_adj  0106eh,139
 1617  57AF     A0 08       			ldy	#-1+?LSC1
 1618  57B1     B1 28       			lda	(__stack_ptr),y
 1619  57B3     18          			clc
 1620  57B4     69 01       			adc	#1
 1621  57B6     91 28       			sta	(__stack_ptr),y
 1622                     			.c_end	01071h,139
 1623  57B8     4C A0 57    			jmp	?FLC28
 1624         3923 57BB   	?FLB28:		.equal	$
 1625                     	;g_GameMTCheck[i]=0
 1626                     			.c_start  0106eh,139
 1627  57BB     A0 08       			ldy	#-1+?LSC1
 1628  57BD     B1 28       			lda	(__stack_ptr),y
 1629  57BF     85 20       			sta	__oper1
 1630  57C1     A9 00       			lda	#0
 1631  57C3     85 21       			sta	__oper1+1
 1632  57C5     18          			clc
 1633  57C6     A5 20       			lda	__oper1
 1634  57C8     69 96       			adc	#.low._g_GameMTCheck
 1635  57CA     85 20       			sta	__oper1
 1636  57CC     A5 21       			lda	__oper1+1
 1637  57CE     69 1F       			adc	#.high._g_GameMTCheck
 1638  57D0     85 21       			sta	__oper1+1
 1639  57D2     A5 20       			lda	__oper1
 1640  57D4     85 23       			sta	__oper2
 1641  57D6     A5 21       			lda	__oper1+1
 1642  57D8     85 24       			sta	__oper2+1
  Tue Jan 13 23:03:19 2026                                                                                               Page   30




 1643  57DA     A9 00       			lda	#0
 1644  57DC     A0 00       			ldy	#0
 1645  57DE     91 23       			sta	(__oper2),y
 1646                     			.c_end	01084h,139
 1647                     	;;
 1648                     	;	
 1649                     			.for_bot  1,139
 1650  57E0     4C AF 57    			jmp	?FLA28
 1651         3126 57E3   	?BOL28:		.equal	$
 1652                     	;i=0;
 1653                     			.c_start  01088h,140
 1654  57E3     A0 08       			ldy	#-1+?LSC1
 1655  57E5     A9 00       			lda	#0
 1656  57E7     91 28       			sta	(__stack_ptr),y
 1657                     			.c_end	0108fh,140
 1658         3826 57E9   	?FLC29:		.equal	$
 1659                     	;i<11;
 1660                     			.for_top  01090h,?BOL29,?FLB29,?FLA29,1,140
 1661  57E9     A0 08       			ldy	#-1+?LSC1
 1662  57EB     B1 28       			lda	(__stack_ptr),y
 1663  57ED     38          			sec
 1664  57EE     E9 0B       			sbc	#11
 1665  57F0     90 03       			bcc	+3
 1666  57F2     4C D5 59    			jmp	?BOL29
 1667                     			.c_end	01094h,140
 1668  57F5     4C 04 58    			jmp	?FLB29
 1669         3627 57F8   	?FLA29:		.equal	$
 1670                     	;i++)
 1671                     	;		
 1672                     			.for_adj  01095h,140
 1673  57F8     A0 08       			ldy	#-1+?LSC1
 1674  57FA     B1 28       			lda	(__stack_ptr),y
 1675  57FC     18          			clc
 1676  57FD     69 01       			adc	#1
 1677  57FF     91 28       			sta	(__stack_ptr),y
 1678                     			.c_end	0109ah,141
 1679  5801     4C E9 57    			jmp	?FLC29
 1680         3211 5804   	?FLB29:		.equal	$
 1681                     	;j=0;
 1682                     			.c_start  0109dh,141
 1683  5804     A0 07       			ldy	#-2+?LSC1
 1684  5806     A9 00       			lda	#0
 1685  5808     91 28       			sta	(__stack_ptr),y
 1686                     			.c_end	010a4h,141
 1687         3911 580A   	?FLC30:		.equal	$
 1688                     	;j<11;
 1689                     			.for_top  010a5h,?BOL30,?FLB30,?FLA30,2,141
 1690  580A     A0 07       			ldy	#-2+?LSC1
 1691  580C     B1 28       			lda	(__stack_ptr),y
 1692  580E     38          			sec
 1693  580F     E9 0B       			sbc	#11
 1694  5811     90 03       			bcc	+3
 1695  5813     4C D2 59    			jmp	?BOL30
 1696                     			.c_end	010a9h,141
 1697  5816     4C 25 58    			jmp	?FLB30
 1698         3712 5819   	?FLA30:		.equal	$
 1699                     	;j++)
  Tue Jan 13 23:03:19 2026                                                                                               Page   31




 1700                     	;		
 1701                     			.for_adj  010aah,141
 1702  5819     A0 07       			ldy	#-2+?LSC1
 1703  581B     B1 28       			lda	(__stack_ptr),y
 1704  581D     18          			clc
 1705  581E     69 01       			adc	#1
 1706  5820     91 28       			sta	(__stack_ptr),y
 1707                     			.c_end	010afh,142
 1708  5822     4C 0A 58    			jmp	?FLC30
 1709         3313 5825   	?FLB30:		.equal	$
 1710                     	;temp=(unsigned int )g_GameMTFloor*121+i*11+j
 1711                     			.c_start  010b8h,143
 1712  5825     AD A7 1F    			lda	_g_GameMTFloor
 1713  5828     85 20       			sta	__oper1
 1714  582A     A9 00       			lda	#0
 1715  582C     85 21       			sta	__oper1+1
 1716  582E     A9 79       			lda	#.low.121
 1717  5830     85 23       			sta	__oper2
 1718  5832     A9 00       			lda	#.high.121
 1719  5834     85 24       			sta	__oper2+1
 1720  5836     20 F4 DC    			jsr	__uns_mult_int
 1721  5839     A0 09       			ldy	#+0+?LSC1
 1722  583B     A5 20       			lda	__oper1
 1723  583D     91 28       			sta	(__stack_ptr),y
 1724  583F     C8          			iny
 1725  5840     A5 21       			lda	__oper1+1
 1726  5842     91 28       			sta	(__stack_ptr),y
 1727  5844     A9 0B       			lda	#11
 1728  5846     85 23       			sta	__oper2
 1729  5848     A0 08       			ldy	#-1+?LSC1
 1730  584A     B1 28       			lda	(__stack_ptr),y
 1731  584C     20 EF DC    			jsr	__uns_mult_char
 1732  584F     85 23       			sta	__oper2
 1733  5851     A2 00       			ldx	#0
 1734  5853     86 24       			stx	__oper2+1
 1735  5855     A0 09       			ldy	#+0+?LSC1
 1736  5857     B1 28       			lda	(__stack_ptr),y
 1737  5859     85 20       			sta	__oper1
 1738  585B     C8          			iny
 1739  585C     B1 28       			lda	(__stack_ptr),y
 1740  585E     85 21       			sta	__oper1+1
 1741  5860     18          			clc
 1742  5861     A5 20       			lda	__oper1
 1743  5863     65 23       			adc	__oper2
 1744  5865     85 20       			sta	__oper1
 1745  5867     A5 21       			lda	__oper1+1
 1746  5869     65 24       			adc	__oper2+1
 1747  586B     85 21       			sta	__oper1+1
 1748  586D     A5 20       			lda	__oper1
 1749  586F     85 23       			sta	__oper2
 1750  5871     A5 21       			lda	__oper1+1
 1751  5873     85 24       			sta	__oper2+1
 1752  5875     A0 07       			ldy	#-2+?LSC1
 1753  5877     B1 28       			lda	(__stack_ptr),y
 1754  5879     85 20       			sta	__oper1
 1755  587B     A9 00       			lda	#0
 1756  587D     85 21       			sta	__oper1+1
  Tue Jan 13 23:03:19 2026                                                                                               Page   32




 1757  587F     18          			clc
 1758  5880     A5 20       			lda	__oper1
 1759  5882     65 23       			adc	__oper2
 1760  5884     85 20       			sta	__oper1
 1761  5886     A5 21       			lda	__oper1+1
 1762  5888     65 24       			adc	__oper2+1
 1763  588A     85 21       			sta	__oper1+1
 1764  588C     A0 02       			ldy	#-7+?LSC1
 1765  588E     A5 20       			lda	__oper1
 1766  5890     91 28       			sta	(__stack_ptr),y
 1767  5892     C8          			iny
 1768  5893     A5 21       			lda	__oper1+1
 1769  5895     91 28       			sta	(__stack_ptr),y
 1770                     			.c_end	010dah,143
 1771                     	;(g_GameMTCurMap[temp]>37&&g_GameMTCurMap[temp]<69)
 1772                     	;			
 1773                     			.if_top	010e0h,?BOL31,3,144
 1774  5897     A0 02       			ldy	#-7+?LSC1
 1775  5899     B1 28       			lda	(__stack_ptr),y
 1776  589B     85 20       			sta	__oper1
 1777  589D     C8          			iny
 1778  589E     B1 28       			lda	(__stack_ptr),y
 1779  58A0     85 21       			sta	__oper1+1
 1780  58A2     18          			clc
 1781  58A3     AD A8 1F    			lda	_g_GameMTCurMap
 1782  58A6     65 20       			adc	__oper1
 1783  58A8     85 20       			sta	__oper1
 1784  58AA     AD A9 1F    			lda	_g_GameMTCurMap+1
 1785  58AD     65 21       			adc	__oper1+1
 1786  58AF     85 21       			sta	__oper1+1
 1787  58B1     A0 00       			ldy	#0
 1788  58B3     B1 20       			lda	(__oper1),y
 1789  58B5     38          			sec
 1790  58B6     E9 25       			sbc	#37
 1791  58B8     B0 03       			bcs	+3
 1792  58BA     4C CF 59    			jmp	?BOL31
 1793  58BD     D0 03       			bne	+3
 1794  58BF     4C CF 59    			jmp	?BOL31
 1795         4723 58C2   	?ACC3:		.equal	$
 1796  58C2     A0 02       			ldy	#-7+?LSC1
 1797  58C4     B1 28       			lda	(__stack_ptr),y
 1798  58C6     85 20       			sta	__oper1
 1799  58C8     C8          			iny
 1800  58C9     B1 28       			lda	(__stack_ptr),y
 1801  58CB     85 21       			sta	__oper1+1
 1802  58CD     18          			clc
 1803  58CE     AD A8 1F    			lda	_g_GameMTCurMap
 1804  58D1     65 20       			adc	__oper1
 1805  58D3     85 20       			sta	__oper1
 1806  58D5     AD A9 1F    			lda	_g_GameMTCurMap+1
 1807  58D8     65 21       			adc	__oper1+1
 1808  58DA     85 21       			sta	__oper1+1
 1809  58DC     A0 00       			ldy	#0
 1810  58DE     B1 20       			lda	(__oper1),y
 1811  58E0     38          			sec
 1812  58E1     E9 45       			sbc	#69
 1813  58E3     90 03       			bcc	+3
  Tue Jan 13 23:03:19 2026                                                                                               Page   33




 1814  58E5     4C CF 59    			jmp	?BOL31
 1815         3626 58E8   	?PLC23:		.equal	$
 1816                     			.c_end	01115h,145
 1817                     	;k=0
 1818                     			.c_start  01120h,146
 1819  58E8     A0 06       			ldy	#-3+?LSC1
 1820  58EA     A9 00       			lda	#0
 1821  58EC     91 28       			sta	(__stack_ptr),y
 1822                     			.c_end	01123h,146
 1823                     	;while
 1824         4426 58EE   	?TOL32:		.equal	$
 1825                     	;(k<8)
 1826                     	;				
 1827                     			.whi_top  0112ah,?BOL32,4,147
 1828  58EE     A0 06       			ldy	#-3+?LSC1
 1829  58F0     B1 28       			lda	(__stack_ptr),y
 1830  58F2     38          			sec
 1831  58F3     E9 08       			sbc	#8
 1832  58F5     90 03       			bcc	+3
 1833  58F7     4C CF 59    			jmp	?BOL32
 1834         3827 58FA   	?PLC24:		.equal	$
 1835                     			.c_end	01135h,148
 1836                     	;(g_GameMTCheck[k]+1==g_GameMTCurMap[temp]+1)
 1837                     			.if_top	01142h,?BOL33,5,149
 1838  58FA     A0 06       			ldy	#-3+?LSC1
 1839  58FC     B1 28       			lda	(__stack_ptr),y
 1840  58FE     85 20       			sta	__oper1
 1841  5900     A9 00       			lda	#0
 1842  5902     85 21       			sta	__oper1+1
 1843  5904     18          			clc
 1844  5905     A5 20       			lda	__oper1
 1845  5907     69 96       			adc	#.low._g_GameMTCheck
 1846  5909     85 20       			sta	__oper1
 1847  590B     A5 21       			lda	__oper1+1
 1848  590D     69 1F       			adc	#.high._g_GameMTCheck
 1849  590F     85 21       			sta	__oper1+1
 1850  5911     A0 00       			ldy	#0
 1851  5913     B1 20       			lda	(__oper1),y
 1852  5915     18          			clc
 1853  5916     69 01       			adc	#1
 1854  5918     A0 09       			ldy	#+0+?LSC1
 1855  591A     91 28       			sta	(__stack_ptr),y
 1856  591C     A0 02       			ldy	#-7+?LSC1
 1857  591E     B1 28       			lda	(__stack_ptr),y
 1858  5920     85 20       			sta	__oper1
 1859  5922     C8          			iny
 1860  5923     B1 28       			lda	(__stack_ptr),y
 1861  5925     85 21       			sta	__oper1+1
 1862  5927     18          			clc
 1863  5928     AD A8 1F    			lda	_g_GameMTCurMap
 1864  592B     65 20       			adc	__oper1
 1865  592D     85 20       			sta	__oper1
 1866  592F     AD A9 1F    			lda	_g_GameMTCurMap+1
 1867  5932     65 21       			adc	__oper1+1
 1868  5934     85 21       			sta	__oper1+1
 1869  5936     A0 00       			ldy	#0
 1870  5938     B1 20       			lda	(__oper1),y
  Tue Jan 13 23:03:19 2026                                                                                               Page   34




 1871  593A     18          			clc
 1872  593B     69 01       			adc	#1
 1873  593D     85 23       			sta	__oper2
 1874  593F     A0 09       			ldy	#+0+?LSC1
 1875  5941     B1 28       			lda	(__stack_ptr),y
 1876  5943     38          			sec
 1877  5944     E5 23       			sbc	__oper2
 1878  5946     F0 03       			beq	+3
 1879  5948     4C 51 59    			jmp	?BOL33
 1880         3915 594B   	?PLC25:		.equal	$
 1881                     			.c_end	0116fh,149
 1882                     	;break;
 1883                     	;					
 1884  594B     4C CF 59    			jmp	?BOL32
 1885                     	;else if
 1886  594E     4C C3 59    			jmp	?EOI33
 1887                     			.if_else  ?EOI33,5,150
 1888         4615 5951   	?BOL33:		.equal	$
 1889                     	;(g_GameMTCheck[k]+1==1)
 1890                     	;					
 1891                     			.if_top	01182h,?BOL35,5,150
 1892  5951     A0 06       			ldy	#-3+?LSC1
 1893  5953     B1 28       			lda	(__stack_ptr),y
 1894  5955     85 20       			sta	__oper1
 1895  5957     A9 00       			lda	#0
 1896  5959     85 21       			sta	__oper1+1
 1897  595B     18          			clc
 1898  595C     A5 20       			lda	__oper1
 1899  595E     69 96       			adc	#.low._g_GameMTCheck
 1900  5960     85 20       			sta	__oper1
 1901  5962     A5 21       			lda	__oper1+1
 1902  5964     69 1F       			adc	#.high._g_GameMTCheck
 1903  5966     85 21       			sta	__oper1+1
 1904  5968     A0 00       			ldy	#0
 1905  596A     B1 20       			lda	(__oper1),y
 1906  596C     18          			clc
 1907  596D     69 01       			adc	#1
 1908  596F     38          			sec
 1909  5970     E9 01       			sbc	#1
 1910  5972     F0 03       			beq	+3
 1911  5974     4C C3 59    			jmp	?BOL35
 1912         3518 5977   	?PLC26:		.equal	$
 1913                     			.c_end	0119ch,151
 1914                     	;g_GameMTCheck[k]=g_GameMTCurMap[temp]
 1915                     			.c_start  011abh,152
 1916  5977     A0 02       			ldy	#-7+?LSC1
 1917  5979     B1 28       			lda	(__stack_ptr),y
 1918  597B     85 20       			sta	__oper1
 1919  597D     C8          			iny
 1920  597E     B1 28       			lda	(__stack_ptr),y
 1921  5980     85 21       			sta	__oper1+1
 1922  5982     18          			clc
 1923  5983     AD A8 1F    			lda	_g_GameMTCurMap
 1924  5986     65 20       			adc	__oper1
 1925  5988     85 20       			sta	__oper1
 1926  598A     AD A9 1F    			lda	_g_GameMTCurMap+1
 1927  598D     65 21       			adc	__oper1+1
  Tue Jan 13 23:03:19 2026                                                                                               Page   35




 1928  598F     85 21       			sta	__oper1+1
 1929  5991     A0 00       			ldy	#0
 1930  5993     B1 20       			lda	(__oper1),y
 1931  5995     A0 09       			ldy	#+0+?LSC1
 1932  5997     91 28       			sta	(__stack_ptr),y
 1933  5999     A0 06       			ldy	#-3+?LSC1
 1934  599B     B1 28       			lda	(__stack_ptr),y
 1935  599D     85 20       			sta	__oper1
 1936  599F     A9 00       			lda	#0
 1937  59A1     85 21       			sta	__oper1+1
 1938  59A3     18          			clc
 1939  59A4     A5 20       			lda	__oper1
 1940  59A6     69 96       			adc	#.low._g_GameMTCheck
 1941  59A8     85 20       			sta	__oper1
 1942  59AA     A5 21       			lda	__oper1+1
 1943  59AC     69 1F       			adc	#.high._g_GameMTCheck
 1944  59AE     85 21       			sta	__oper1+1
 1945  59B0     A5 20       			lda	__oper1
 1946  59B2     85 23       			sta	__oper2
 1947  59B4     A5 21       			lda	__oper1+1
 1948  59B6     85 24       			sta	__oper2+1
 1949  59B8     A0 09       			ldy	#+0+?LSC1
 1950  59BA     B1 28       			lda	(__stack_ptr),y
 1951  59BC     A0 00       			ldy	#0
 1952  59BE     91 23       			sta	(__oper2),y
 1953                     			.c_end	011d0h,152
 1954                     	;break;
 1955                     	;					
 1956  59C0     4C CF 59    			jmp	?BOL32
 1957                     	;
 1958                     	;k++
 1959         3124 59C3   	?EOI33:	.equal	$
 1960         3205 59C3   	?BOL35:	.equal	$
 1961                     			.c_start  011eeh,155
 1962  59C3     A0 06       			ldy	#-3+?LSC1
 1963  59C5     B1 28       			lda	(__stack_ptr),y
 1964  59C7     18          			clc
 1965  59C8     69 01       			adc	#1
 1966  59CA     91 28       			sta	(__stack_ptr),y
 1967                     			.c_end	011f1h,155
 1968                     	;
 1969                     			.whi_bot  4,156
 1970  59CC     4C EE 58    			jmp	?TOL32
 1971         4424 59CF   	?BOL32:		.equal	$
 1972                     	;
 1973                     	;
 1974         4505 59CF   	?BOL31:		.equal	$
 1975                     			.for_bot  2,158
 1976  59CF     4C 19 58    			jmp	?FLA30
 1977         4724 59D2   	?BOL30:		.equal	$
 1978                     			.for_bot  1,158
 1979  59D2     4C F8 57    			jmp	?FLA29
 1980         3325 59D5   	?BOL29:		.equal	$
 1981                     	;(g_GameMTCheck[0]+1==1)
 1982                     			.if_top	01207h,?BOL36,1,159
 1983  59D5     AD 96 1F    			lda	_g_GameMTCheck+0
 1984  59D8     18          			clc
  Tue Jan 13 23:03:19 2026                                                                                               Page   36




 1985  59D9     69 01       			adc	#1
 1986  59DB     38          			sec
 1987  59DC     E9 01       			sbc	#1
 1988  59DE     F0 03       			beq	+3
 1989  59E0     4C E6 59    			jmp	?BOL36
 1990         3126 59E3   	?PLC27:		.equal	$
 1991                     			.c_end	0121fh,159
 1992                     	;return
 1993                     			.c_start  01207h,159
 1994  59E3     4C C4 61    			jmp	?BOF1
 1995                     			.c_end	01226h,159
 1996                     	;;
 1997                     	;	
 1998                     	;SysSaveScreen(0,0,158,95,g_GameMTBuf)
 1999         3426 59E6   	?BOL36:		.equal	$
 2000                     			.c_start  0122ah,160
 2001  59E6     A9 13       			lda	#.low._g_GameMTBuf
 2002  59E8     85 20       			sta	__oper1
 2003  59EA     A9 18       			lda	#.high._g_GameMTBuf
 2004  59EC     85 21       			sta	__oper1+1
 2005  59EE     20 CA DA    			jsr	__store_int_funct_arg
 2006  59F1     A9 5F       			lda	#95
 2007  59F3     20 AA DA    			jsr	__store_char_funct_arg
 2008  59F6     A9 9E       			lda	#.low.158
 2009  59F8     85 20       			sta	__oper1
 2010  59FA     A9 00       			lda	#.high.158
 2011  59FC     85 21       			sta	__oper1+1
 2012  59FE     A5 20       			lda	__oper1
 2013  5A00     20 AA DA    			jsr	__store_char_funct_arg
 2014  5A03     A9 00       			lda	#0
 2015  5A05     20 AA DA    			jsr	__store_char_funct_arg
 2016  5A08     A9 00       			lda	#0
 2017  5A0A     A2 77       			ldx	#.low.&SysSaveScreen
 2018  5A0C     86 26       			stx	__addr_reg
 2019  5A0E     A2 E8       			ldx	#.high.&SysSaveScreen+1
 2020  5A10     86 27       			stx	__addr_reg+1
 2021                     			.bf_call
 2022  5A12     20 F6 D2    			jsr	__banked_function_call
 2023  5A15     08          			php
 2024  5A16     78          			sei
 2025  5A17     18          			clc
 2026  5A18     A5 28       			lda	__stack_ptr
 2027  5A1A     69 05       			adc	#.low.5
 2028  5A1C     85 28       			sta	__stack_ptr
 2029  5A1E     A5 29       			lda	__stack_ptr+1
 2030  5A20     69 00       			adc	#.high.5
 2031  5A22     85 29       			sta	__stack_ptr+1
 2032  5A24     28          			plp
 2033                     			.c_end	0124fh,160
 2034                     	;SysLcdPartClear(0,0,158,95)
 2035                     			.c_start  01253h,161
 2036  5A25     A9 5F       			lda	#95
 2037  5A27     20 AA DA    			jsr	__store_char_funct_arg
 2038  5A2A     A9 9E       			lda	#.low.158
 2039  5A2C     85 20       			sta	__oper1
 2040  5A2E     A9 00       			lda	#.high.158
 2041  5A30     85 21       			sta	__oper1+1
  Tue Jan 13 23:03:19 2026                                                                                               Page   37




 2042  5A32     A5 20       			lda	__oper1
 2043  5A34     20 AA DA    			jsr	__store_char_funct_arg
 2044  5A37     A9 00       			lda	#0
 2045  5A39     20 AA DA    			jsr	__store_char_funct_arg
 2046  5A3C     A9 00       			lda	#0
 2047  5A3E     A2 5D       			ldx	#.low.&SysLcdPartClear
 2048  5A40     86 26       			stx	__addr_reg
 2049  5A42     A2 E8       			ldx	#.high.&SysLcdPartClear+1
 2050  5A44     86 27       			stx	__addr_reg+1
 2051                     			.bf_call
 2052  5A46     20 F6 D2    			jsr	__banked_function_call
 2053  5A49     08          			php
 2054  5A4A     78          			sei
 2055  5A4B     18          			clc
 2056  5A4C     A5 28       			lda	__stack_ptr
 2057  5A4E     69 03       			adc	#.low.3
 2058  5A50     85 28       			sta	__stack_ptr
 2059  5A52     A5 29       			lda	__stack_ptr+1
 2060  5A54     69 00       			adc	#.high.3
 2061  5A56     85 29       			sta	__stack_ptr+1
 2062  5A58     28          			plp
 2063                     			.c_end	0126eh,161
 2064                     	;SysRect(0,0,158,95)
 2065                     			.c_start  01272h,162
 2066  5A59     A9 5F       			lda	#95
 2067  5A5B     20 AA DA    			jsr	__store_char_funct_arg
 2068  5A5E     A9 9E       			lda	#.low.158
 2069  5A60     85 20       			sta	__oper1
 2070  5A62     A9 00       			lda	#.high.158
 2071  5A64     85 21       			sta	__oper1+1
 2072  5A66     A5 20       			lda	__oper1
 2073  5A68     20 AA DA    			jsr	__store_char_funct_arg
 2074  5A6B     A9 00       			lda	#0
 2075  5A6D     20 AA DA    			jsr	__store_char_funct_arg
 2076  5A70     A9 00       			lda	#0
 2077  5A72     A2 97       			ldx	#.low.&SysRect
 2078  5A74     86 26       			stx	__addr_reg
 2079  5A76     A2 E7       			ldx	#.high.&SysRect+1
 2080  5A78     86 27       			stx	__addr_reg+1
 2081                     			.bf_call
 2082  5A7A     20 F6 D2    			jsr	__banked_function_call
 2083  5A7D     08          			php
 2084  5A7E     78          			sei
 2085  5A7F     18          			clc
 2086  5A80     A5 28       			lda	__stack_ptr
 2087  5A82     69 03       			adc	#.low.3
 2088  5A84     85 28       			sta	__stack_ptr
 2089  5A86     A5 29       			lda	__stack_ptr+1
 2090  5A88     69 00       			adc	#.high.3
 2091  5A8A     85 29       			sta	__stack_ptr+1
 2092  5A8C     28          			plp
 2093                     			.c_end	01285h,162
 2094                     	;SysRect(1,1,157,94)
 2095                     			.c_start  01289h,163
 2096  5A8D     A9 5E       			lda	#94
 2097  5A8F     20 AA DA    			jsr	__store_char_funct_arg
 2098  5A92     A9 9D       			lda	#.low.157
  Tue Jan 13 23:03:19 2026                                                                                               Page   38




 2099  5A94     85 20       			sta	__oper1
 2100  5A96     A9 00       			lda	#.high.157
 2101  5A98     85 21       			sta	__oper1+1
 2102  5A9A     A5 20       			lda	__oper1
 2103  5A9C     20 AA DA    			jsr	__store_char_funct_arg
 2104  5A9F     A9 01       			lda	#1
 2105  5AA1     20 AA DA    			jsr	__store_char_funct_arg
 2106  5AA4     A9 01       			lda	#1
 2107  5AA6     A2 97       			ldx	#.low.&SysRect
 2108  5AA8     86 26       			stx	__addr_reg
 2109  5AAA     A2 E7       			ldx	#.high.&SysRect+1
 2110  5AAC     86 27       			stx	__addr_reg+1
 2111                     			.bf_call
 2112  5AAE     20 F6 D2    			jsr	__banked_function_call
 2113  5AB1     08          			php
 2114  5AB2     78          			sei
 2115  5AB3     18          			clc
 2116  5AB4     A5 28       			lda	__stack_ptr
 2117  5AB6     69 03       			adc	#.low.3
 2118  5AB8     85 28       			sta	__stack_ptr
 2119  5ABA     A5 29       			lda	__stack_ptr+1
 2120  5ABC     69 00       			adc	#.high.3
 2121  5ABE     85 29       			sta	__stack_ptr+1
 2122  5AC0     28          			plp
 2123                     			.c_end	0129ch,163
 2124                     	;SysPicture(56,5,64,14,GameMTChar[0],0)
 2125                     			.c_start  012a0h,164
 2126  5AC1     A9 3A       			lda	#.low._GameMTChar+0
 2127  5AC3     85 20       			sta	__oper1
 2128  5AC5     A9 B2       			lda	#.high._GameMTChar+0
 2129  5AC7     85 21       			sta	__oper1+1
 2130  5AC9     A0 09       			ldy	#+0+?LSC1
 2131  5ACB     A5 20       			lda	__oper1
 2132  5ACD     91 28       			sta	(__stack_ptr),y
 2133  5ACF     C8          			iny
 2134  5AD0     A5 21       			lda	__oper1+1
 2135  5AD2     91 28       			sta	(__stack_ptr),y
 2136  5AD4     A9 00       			lda	#0
 2137  5AD6     20 AA DA    			jsr	__store_char_funct_arg
 2138  5AD9     A0 0A       			ldy	#+0+?LSC1+1
 2139  5ADB     B1 28       			lda	(__stack_ptr),y
 2140  5ADD     85 20       			sta	__oper1
 2141  5ADF     C8          			iny
 2142  5AE0     B1 28       			lda	(__stack_ptr),y
 2143  5AE2     85 21       			sta	__oper1+1
 2144  5AE4     20 CA DA    			jsr	__store_int_funct_arg
 2145  5AE7     A9 0E       			lda	#14
 2146  5AE9     20 AA DA    			jsr	__store_char_funct_arg
 2147  5AEC     A9 40       			lda	#64
 2148  5AEE     20 AA DA    			jsr	__store_char_funct_arg
 2149  5AF1     A9 05       			lda	#5
 2150  5AF3     20 AA DA    			jsr	__store_char_funct_arg
 2151  5AF6     A9 38       			lda	#56
 2152  5AF8     A2 8E       			ldx	#.low.&SysPicture
 2153  5AFA     86 26       			stx	__addr_reg
 2154  5AFC     A2 E7       			ldx	#.high.&SysPicture+1
 2155  5AFE     86 27       			stx	__addr_reg+1
  Tue Jan 13 23:03:19 2026                                                                                               Page   39




 2156                     			.bf_call
 2157  5B00     20 F6 D2    			jsr	__banked_function_call
 2158  5B03     08          			php
 2159  5B04     78          			sei
 2160  5B05     18          			clc
 2161  5B06     A5 28       			lda	__stack_ptr
 2162  5B08     69 06       			adc	#.low.6
 2163  5B0A     85 28       			sta	__stack_ptr
 2164  5B0C     A5 29       			lda	__stack_ptr+1
 2165  5B0E     69 00       			adc	#.high.6
 2166  5B10     85 29       			sta	__stack_ptr+1
 2167  5B12     28          			plp
 2168                     			.c_end	012c6h,164
 2169                     	;SysPicture(75,5,83,14,GameMTChar[1],0)
 2170                     			.c_start  012cah,165
 2171  5B13     A9 4E       			lda	#.low._GameMTChar+20
 2172  5B15     85 20       			sta	__oper1
 2173  5B17     A9 B2       			lda	#.high._GameMTChar+20
 2174  5B19     85 21       			sta	__oper1+1
 2175  5B1B     A0 09       			ldy	#+0+?LSC1
 2176  5B1D     A5 20       			lda	__oper1
 2177  5B1F     91 28       			sta	(__stack_ptr),y
 2178  5B21     C8          			iny
 2179  5B22     A5 21       			lda	__oper1+1
 2180  5B24     91 28       			sta	(__stack_ptr),y
 2181  5B26     A9 00       			lda	#0
 2182  5B28     20 AA DA    			jsr	__store_char_funct_arg
 2183  5B2B     A0 0A       			ldy	#+0+?LSC1+1
 2184  5B2D     B1 28       			lda	(__stack_ptr),y
 2185  5B2F     85 20       			sta	__oper1
 2186  5B31     C8          			iny
 2187  5B32     B1 28       			lda	(__stack_ptr),y
 2188  5B34     85 21       			sta	__oper1+1
 2189  5B36     20 CA DA    			jsr	__store_int_funct_arg
 2190  5B39     A9 0E       			lda	#14
 2191  5B3B     20 AA DA    			jsr	__store_char_funct_arg
 2192  5B3E     A9 53       			lda	#83
 2193  5B40     20 AA DA    			jsr	__store_char_funct_arg
 2194  5B43     A9 05       			lda	#5
 2195  5B45     20 AA DA    			jsr	__store_char_funct_arg
 2196  5B48     A9 4B       			lda	#75
 2197  5B4A     A2 8E       			ldx	#.low.&SysPicture
 2198  5B4C     86 26       			stx	__addr_reg
 2199  5B4E     A2 E7       			ldx	#.high.&SysPicture+1
 2200  5B50     86 27       			stx	__addr_reg+1
 2201                     			.bf_call
 2202  5B52     20 F6 D2    			jsr	__banked_function_call
 2203  5B55     08          			php
 2204  5B56     78          			sei
 2205  5B57     18          			clc
 2206  5B58     A5 28       			lda	__stack_ptr
 2207  5B5A     69 06       			adc	#.low.6
 2208  5B5C     85 28       			sta	__stack_ptr
 2209  5B5E     A5 29       			lda	__stack_ptr+1
 2210  5B60     69 00       			adc	#.high.6
 2211  5B62     85 29       			sta	__stack_ptr+1
 2212  5B64     28          			plp
  Tue Jan 13 23:03:19 2026                                                                                               Page   40




 2213                     			.c_end	012f0h,165
 2214                     	;SysPicture(92,5,100,14,GameMTChar[2],0)
 2215                     			.c_start  012f4h,166
 2216  5B65     A9 62       			lda	#.low._GameMTChar+40
 2217  5B67     85 20       			sta	__oper1
 2218  5B69     A9 B2       			lda	#.high._GameMTChar+40
 2219  5B6B     85 21       			sta	__oper1+1
 2220  5B6D     A0 09       			ldy	#+0+?LSC1
 2221  5B6F     A5 20       			lda	__oper1
 2222  5B71     91 28       			sta	(__stack_ptr),y
 2223  5B73     C8          			iny
 2224  5B74     A5 21       			lda	__oper1+1
 2225  5B76     91 28       			sta	(__stack_ptr),y
 2226  5B78     A9 00       			lda	#0
 2227  5B7A     20 AA DA    			jsr	__store_char_funct_arg
 2228  5B7D     A0 0A       			ldy	#+0+?LSC1+1
 2229  5B7F     B1 28       			lda	(__stack_ptr),y
 2230  5B81     85 20       			sta	__oper1
 2231  5B83     C8          			iny
 2232  5B84     B1 28       			lda	(__stack_ptr),y
 2233  5B86     85 21       			sta	__oper1+1
 2234  5B88     20 CA DA    			jsr	__store_int_funct_arg
 2235  5B8B     A9 0E       			lda	#14
 2236  5B8D     20 AA DA    			jsr	__store_char_funct_arg
 2237  5B90     A9 64       			lda	#100
 2238  5B92     20 AA DA    			jsr	__store_char_funct_arg
 2239  5B95     A9 05       			lda	#5
 2240  5B97     20 AA DA    			jsr	__store_char_funct_arg
 2241  5B9A     A9 5C       			lda	#92
 2242  5B9C     A2 8E       			ldx	#.low.&SysPicture
 2243  5B9E     86 26       			stx	__addr_reg
 2244  5BA0     A2 E7       			ldx	#.high.&SysPicture+1
 2245  5BA2     86 27       			stx	__addr_reg+1
 2246                     			.bf_call
 2247  5BA4     20 F6 D2    			jsr	__banked_function_call
 2248  5BA7     08          			php
 2249  5BA8     78          			sei
 2250  5BA9     18          			clc
 2251  5BAA     A5 28       			lda	__stack_ptr
 2252  5BAC     69 06       			adc	#.low.6
 2253  5BAE     85 28       			sta	__stack_ptr
 2254  5BB0     A5 29       			lda	__stack_ptr+1
 2255  5BB2     69 00       			adc	#.high.6
 2256  5BB4     85 29       			sta	__stack_ptr+1
 2257  5BB6     28          			plp
 2258                     			.c_end	0131bh,166
 2259                     	;SysPicture(107,5,115,14,GameMTChar[3],0)
 2260                     			.c_start  0131fh,167
 2261  5BB7     A9 76       			lda	#.low._GameMTChar+60
 2262  5BB9     85 20       			sta	__oper1
 2263  5BBB     A9 B2       			lda	#.high._GameMTChar+60
 2264  5BBD     85 21       			sta	__oper1+1
 2265  5BBF     A0 09       			ldy	#+0+?LSC1
 2266  5BC1     A5 20       			lda	__oper1
 2267  5BC3     91 28       			sta	(__stack_ptr),y
 2268  5BC5     C8          			iny
 2269  5BC6     A5 21       			lda	__oper1+1
  Tue Jan 13 23:03:19 2026                                                                                               Page   41




 2270  5BC8     91 28       			sta	(__stack_ptr),y
 2271  5BCA     A9 00       			lda	#0
 2272  5BCC     20 AA DA    			jsr	__store_char_funct_arg
 2273  5BCF     A0 0A       			ldy	#+0+?LSC1+1
 2274  5BD1     B1 28       			lda	(__stack_ptr),y
 2275  5BD3     85 20       			sta	__oper1
 2276  5BD5     C8          			iny
 2277  5BD6     B1 28       			lda	(__stack_ptr),y
 2278  5BD8     85 21       			sta	__oper1+1
 2279  5BDA     20 CA DA    			jsr	__store_int_funct_arg
 2280  5BDD     A9 0E       			lda	#14
 2281  5BDF     20 AA DA    			jsr	__store_char_funct_arg
 2282  5BE2     A9 73       			lda	#115
 2283  5BE4     20 AA DA    			jsr	__store_char_funct_arg
 2284  5BE7     A9 05       			lda	#5
 2285  5BE9     20 AA DA    			jsr	__store_char_funct_arg
 2286  5BEC     A9 6B       			lda	#107
 2287  5BEE     A2 8E       			ldx	#.low.&SysPicture
 2288  5BF0     86 26       			stx	__addr_reg
 2289  5BF2     A2 E7       			ldx	#.high.&SysPicture+1
 2290  5BF4     86 27       			stx	__addr_reg+1
 2291                     			.bf_call
 2292  5BF6     20 F6 D2    			jsr	__banked_function_call
 2293  5BF9     08          			php
 2294  5BFA     78          			sei
 2295  5BFB     18          			clc
 2296  5BFC     A5 28       			lda	__stack_ptr
 2297  5BFE     69 06       			adc	#.low.6
 2298  5C00     85 28       			sta	__stack_ptr
 2299  5C02     A5 29       			lda	__stack_ptr+1
 2300  5C04     69 00       			adc	#.high.6
 2301  5C06     85 29       			sta	__stack_ptr+1
 2302  5C08     28          			plp
 2303                     			.c_end	01347h,167
 2304                     	;SysPicture(120,5,128,14,GameMTChar[4],0)
 2305                     			.c_start  0134bh,168
 2306  5C09     A9 8A       			lda	#.low._GameMTChar+80
 2307  5C0B     85 20       			sta	__oper1
 2308  5C0D     A9 B2       			lda	#.high._GameMTChar+80
 2309  5C0F     85 21       			sta	__oper1+1
 2310  5C11     A0 09       			ldy	#+0+?LSC1
 2311  5C13     A5 20       			lda	__oper1
 2312  5C15     91 28       			sta	(__stack_ptr),y
 2313  5C17     C8          			iny
 2314  5C18     A5 21       			lda	__oper1+1
 2315  5C1A     91 28       			sta	(__stack_ptr),y
 2316  5C1C     A9 00       			lda	#0
 2317  5C1E     20 AA DA    			jsr	__store_char_funct_arg
 2318  5C21     A0 0A       			ldy	#+0+?LSC1+1
 2319  5C23     B1 28       			lda	(__stack_ptr),y
 2320  5C25     85 20       			sta	__oper1
 2321  5C27     C8          			iny
 2322  5C28     B1 28       			lda	(__stack_ptr),y
 2323  5C2A     85 21       			sta	__oper1+1
 2324  5C2C     20 CA DA    			jsr	__store_int_funct_arg
 2325  5C2F     A9 0E       			lda	#14
 2326  5C31     20 AA DA    			jsr	__store_char_funct_arg
  Tue Jan 13 23:03:19 2026                                                                                               Page   42




 2327  5C34     A9 80       			lda	#.low.128
 2328  5C36     85 20       			sta	__oper1
 2329  5C38     A9 00       			lda	#.high.128
 2330  5C3A     85 21       			sta	__oper1+1
 2331  5C3C     A5 20       			lda	__oper1
 2332  5C3E     20 AA DA    			jsr	__store_char_funct_arg
 2333  5C41     A9 05       			lda	#5
 2334  5C43     20 AA DA    			jsr	__store_char_funct_arg
 2335  5C46     A9 78       			lda	#120
 2336  5C48     A2 8E       			ldx	#.low.&SysPicture
 2337  5C4A     86 26       			stx	__addr_reg
 2338  5C4C     A2 E7       			ldx	#.high.&SysPicture+1
 2339  5C4E     86 27       			stx	__addr_reg+1
 2340                     			.bf_call
 2341  5C50     20 F6 D2    			jsr	__banked_function_call
 2342  5C53     08          			php
 2343  5C54     78          			sei
 2344  5C55     18          			clc
 2345  5C56     A5 28       			lda	__stack_ptr
 2346  5C58     69 06       			adc	#.low.6
 2347  5C5A     85 28       			sta	__stack_ptr
 2348  5C5C     A5 29       			lda	__stack_ptr+1
 2349  5C5E     69 00       			adc	#.high.6
 2350  5C60     85 29       			sta	__stack_ptr+1
 2351  5C62     28          			plp
 2352                     			.c_end	01373h,168
 2353                     	;SysPicture(133,5,141,14,GameMTChar[5],0)
 2354                     			.c_start  01377h,169
 2355  5C63     A9 9E       			lda	#.low._GameMTChar+100
 2356  5C65     85 20       			sta	__oper1
 2357  5C67     A9 B2       			lda	#.high._GameMTChar+100
 2358  5C69     85 21       			sta	__oper1+1
 2359  5C6B     A0 09       			ldy	#+0+?LSC1
 2360  5C6D     A5 20       			lda	__oper1
 2361  5C6F     91 28       			sta	(__stack_ptr),y
 2362  5C71     C8          			iny
 2363  5C72     A5 21       			lda	__oper1+1
 2364  5C74     91 28       			sta	(__stack_ptr),y
 2365  5C76     A9 00       			lda	#0
 2366  5C78     20 AA DA    			jsr	__store_char_funct_arg
 2367  5C7B     A0 0A       			ldy	#+0+?LSC1+1
 2368  5C7D     B1 28       			lda	(__stack_ptr),y
 2369  5C7F     85 20       			sta	__oper1
 2370  5C81     C8          			iny
 2371  5C82     B1 28       			lda	(__stack_ptr),y
 2372  5C84     85 21       			sta	__oper1+1
 2373  5C86     20 CA DA    			jsr	__store_int_funct_arg
 2374  5C89     A9 0E       			lda	#14
 2375  5C8B     20 AA DA    			jsr	__store_char_funct_arg
 2376  5C8E     A9 8D       			lda	#.low.141
 2377  5C90     85 20       			sta	__oper1
 2378  5C92     A9 00       			lda	#.high.141
 2379  5C94     85 21       			sta	__oper1+1
 2380  5C96     A5 20       			lda	__oper1
 2381  5C98     20 AA DA    			jsr	__store_char_funct_arg
 2382  5C9B     A9 05       			lda	#5
 2383  5C9D     20 AA DA    			jsr	__store_char_funct_arg
  Tue Jan 13 23:03:19 2026                                                                                               Page   43




 2384  5CA0     A9 85       			lda	#.low.133
 2385  5CA2     85 20       			sta	__oper1
 2386  5CA4     A9 00       			lda	#.high.133
 2387  5CA6     85 21       			sta	__oper1+1
 2388  5CA8     A5 20       			lda	__oper1
 2389  5CAA     A2 8E       			ldx	#.low.&SysPicture
 2390  5CAC     86 26       			stx	__addr_reg
 2391  5CAE     A2 E7       			ldx	#.high.&SysPicture+1
 2392  5CB0     86 27       			stx	__addr_reg+1
 2393                     			.bf_call
 2394  5CB2     20 F6 D2    			jsr	__banked_function_call
 2395  5CB5     08          			php
 2396  5CB6     78          			sei
 2397  5CB7     18          			clc
 2398  5CB8     A5 28       			lda	__stack_ptr
 2399  5CBA     69 06       			adc	#.low.6
 2400  5CBC     85 28       			sta	__stack_ptr
 2401  5CBE     A5 29       			lda	__stack_ptr+1
 2402  5CC0     69 00       			adc	#.high.6
 2403  5CC2     85 29       			sta	__stack_ptr+1
 2404  5CC4     28          			plp
 2405                     			.c_end	0139fh,169
 2406                     	;SysPicture(144,5,152,14,GameMTChar[6],0)
 2407                     			.c_start  013a3h,170
 2408  5CC5     A9 B2       			lda	#.low._GameMTChar+120
 2409  5CC7     85 20       			sta	__oper1
 2410  5CC9     A9 B2       			lda	#.high._GameMTChar+120
 2411  5CCB     85 21       			sta	__oper1+1
 2412  5CCD     A0 09       			ldy	#+0+?LSC1
 2413  5CCF     A5 20       			lda	__oper1
 2414  5CD1     91 28       			sta	(__stack_ptr),y
 2415  5CD3     C8          			iny
 2416  5CD4     A5 21       			lda	__oper1+1
 2417  5CD6     91 28       			sta	(__stack_ptr),y
 2418  5CD8     A9 00       			lda	#0
 2419  5CDA     20 AA DA    			jsr	__store_char_funct_arg
 2420  5CDD     A0 0A       			ldy	#+0+?LSC1+1
 2421  5CDF     B1 28       			lda	(__stack_ptr),y
 2422  5CE1     85 20       			sta	__oper1
 2423  5CE3     C8          			iny
 2424  5CE4     B1 28       			lda	(__stack_ptr),y
 2425  5CE6     85 21       			sta	__oper1+1
 2426  5CE8     20 CA DA    			jsr	__store_int_funct_arg
 2427  5CEB     A9 0E       			lda	#14
 2428  5CED     20 AA DA    			jsr	__store_char_funct_arg
 2429  5CF0     A9 98       			lda	#.low.152
 2430  5CF2     85 20       			sta	__oper1
 2431  5CF4     A9 00       			lda	#.high.152
 2432  5CF6     85 21       			sta	__oper1+1
 2433  5CF8     A5 20       			lda	__oper1
 2434  5CFA     20 AA DA    			jsr	__store_char_funct_arg
 2435  5CFD     A9 05       			lda	#5
 2436  5CFF     20 AA DA    			jsr	__store_char_funct_arg
 2437  5D02     A9 90       			lda	#.low.144
 2438  5D04     85 20       			sta	__oper1
 2439  5D06     A9 00       			lda	#.high.144
 2440  5D08     85 21       			sta	__oper1+1
  Tue Jan 13 23:03:19 2026                                                                                               Page   44




 2441  5D0A     A5 20       			lda	__oper1
 2442  5D0C     A2 8E       			ldx	#.low.&SysPicture
 2443  5D0E     86 26       			stx	__addr_reg
 2444  5D10     A2 E7       			ldx	#.high.&SysPicture+1
 2445  5D12     86 27       			stx	__addr_reg+1
 2446                     			.bf_call
 2447  5D14     20 F6 D2    			jsr	__banked_function_call
 2448  5D17     08          			php
 2449  5D18     78          			sei
 2450  5D19     18          			clc
 2451  5D1A     A5 28       			lda	__stack_ptr
 2452  5D1C     69 06       			adc	#.low.6
 2453  5D1E     85 28       			sta	__stack_ptr
 2454  5D20     A5 29       			lda	__stack_ptr+1
 2455  5D22     69 00       			adc	#.high.6
 2456  5D24     85 29       			sta	__stack_ptr+1
 2457  5D26     28          			plp
 2458                     			.c_end	013cbh,170
 2459                     	;SysPicture(24,5,32,14,GameMTChar[7],0)
 2460                     			.c_start  013cfh,171
 2461  5D27     A9 C6       			lda	#.low._GameMTChar+140
 2462  5D29     85 20       			sta	__oper1
 2463  5D2B     A9 B2       			lda	#.high._GameMTChar+140
 2464  5D2D     85 21       			sta	__oper1+1
 2465  5D2F     A0 09       			ldy	#+0+?LSC1
 2466  5D31     A5 20       			lda	__oper1
 2467  5D33     91 28       			sta	(__stack_ptr),y
 2468  5D35     C8          			iny
 2469  5D36     A5 21       			lda	__oper1+1
 2470  5D38     91 28       			sta	(__stack_ptr),y
 2471  5D3A     A9 00       			lda	#0
 2472  5D3C     20 AA DA    			jsr	__store_char_funct_arg
 2473  5D3F     A0 0A       			ldy	#+0+?LSC1+1
 2474  5D41     B1 28       			lda	(__stack_ptr),y
 2475  5D43     85 20       			sta	__oper1
 2476  5D45     C8          			iny
 2477  5D46     B1 28       			lda	(__stack_ptr),y
 2478  5D48     85 21       			sta	__oper1+1
 2479  5D4A     20 CA DA    			jsr	__store_int_funct_arg
 2480  5D4D     A9 0E       			lda	#14
 2481  5D4F     20 AA DA    			jsr	__store_char_funct_arg
 2482  5D52     A9 20       			lda	#32
 2483  5D54     20 AA DA    			jsr	__store_char_funct_arg
 2484  5D57     A9 05       			lda	#5
 2485  5D59     20 AA DA    			jsr	__store_char_funct_arg
 2486  5D5C     A9 18       			lda	#24
 2487  5D5E     A2 8E       			ldx	#.low.&SysPicture
 2488  5D60     86 26       			stx	__addr_reg
 2489  5D62     A2 E7       			ldx	#.high.&SysPicture+1
 2490  5D64     86 27       			stx	__addr_reg+1
 2491                     			.bf_call
 2492  5D66     20 F6 D2    			jsr	__banked_function_call
 2493  5D69     08          			php
 2494  5D6A     78          			sei
 2495  5D6B     18          			clc
 2496  5D6C     A5 28       			lda	__stack_ptr
 2497  5D6E     69 06       			adc	#.low.6
  Tue Jan 13 23:03:19 2026                                                                                               Page   45




 2498  5D70     85 28       			sta	__stack_ptr
 2499  5D72     A5 29       			lda	__stack_ptr+1
 2500  5D74     69 00       			adc	#.high.6
 2501  5D76     85 29       			sta	__stack_ptr+1
 2502  5D78     28          			plp
 2503                     			.c_end	013f5h,171
 2504                     	;SysPicture(34,5,42,14,GameMTChar[8],0)
 2505                     			.c_start  013f9h,172
 2506  5D79     A9 DA       			lda	#.low._GameMTChar+160
 2507  5D7B     85 20       			sta	__oper1
 2508  5D7D     A9 B2       			lda	#.high._GameMTChar+160
 2509  5D7F     85 21       			sta	__oper1+1
 2510  5D81     A0 09       			ldy	#+0+?LSC1
 2511  5D83     A5 20       			lda	__oper1
 2512  5D85     91 28       			sta	(__stack_ptr),y
 2513  5D87     C8          			iny
 2514  5D88     A5 21       			lda	__oper1+1
 2515  5D8A     91 28       			sta	(__stack_ptr),y
 2516  5D8C     A9 00       			lda	#0
 2517  5D8E     20 AA DA    			jsr	__store_char_funct_arg
 2518  5D91     A0 0A       			ldy	#+0+?LSC1+1
 2519  5D93     B1 28       			lda	(__stack_ptr),y
 2520  5D95     85 20       			sta	__oper1
 2521  5D97     C8          			iny
 2522  5D98     B1 28       			lda	(__stack_ptr),y
 2523  5D9A     85 21       			sta	__oper1+1
 2524  5D9C     20 CA DA    			jsr	__store_int_funct_arg
 2525  5D9F     A9 0E       			lda	#14
 2526  5DA1     20 AA DA    			jsr	__store_char_funct_arg
 2527  5DA4     A9 2A       			lda	#42
 2528  5DA6     20 AA DA    			jsr	__store_char_funct_arg
 2529  5DA9     A9 05       			lda	#5
 2530  5DAB     20 AA DA    			jsr	__store_char_funct_arg
 2531  5DAE     A9 22       			lda	#34
 2532  5DB0     A2 8E       			ldx	#.low.&SysPicture
 2533  5DB2     86 26       			stx	__addr_reg
 2534  5DB4     A2 E7       			ldx	#.high.&SysPicture+1
 2535  5DB6     86 27       			stx	__addr_reg+1
 2536                     			.bf_call
 2537  5DB8     20 F6 D2    			jsr	__banked_function_call
 2538  5DBB     08          			php
 2539  5DBC     78          			sei
 2540  5DBD     18          			clc
 2541  5DBE     A5 28       			lda	__stack_ptr
 2542  5DC0     69 06       			adc	#.low.6
 2543  5DC2     85 28       			sta	__stack_ptr
 2544  5DC4     A5 29       			lda	__stack_ptr+1
 2545  5DC6     69 00       			adc	#.high.6
 2546  5DC8     85 29       			sta	__stack_ptr+1
 2547  5DCA     28          			plp
 2548                     			.c_end	0141fh,172
 2549                     	;g_GameMTHeroDamige=temp2
 2550                     			.c_start  01423h,173
 2551  5DCB     A0 00       			ldy	#-9+?LSC1
 2552  5DCD     B1 28       			lda	(__stack_ptr),y
 2553  5DCF     85 20       			sta	__oper1
 2554  5DD1     C8          			iny
  Tue Jan 13 23:03:19 2026                                                                                               Page   46




 2555  5DD2     B1 28       			lda	(__stack_ptr),y
 2556  5DD4     85 21       			sta	__oper1+1
 2557  5DD6     A5 20       			lda	__oper1
 2558  5DD8     8D 9E 1F    			sta	_g_GameMTHeroDamige
 2559  5DDB     A5 21       			lda	__oper1+1
 2560  5DDD     8D 9F 1F    			sta	_g_GameMTHeroDamige+1
 2561                     			.c_end	0143bh,173
 2562                     	;GameMTListMon(scoll)
 2563                     			.c_start  0143fh,174
 2564  5DE0     A0 05       			ldy	#-4+?LSC1
 2565  5DE2     B1 28       			lda	(__stack_ptr),y
 2566  5DE4     A2 4E       			ldx	#.low.&GameMTListMon
 2567  5DE6     86 26       			stx	__addr_reg
 2568  5DE8     A2 90       			ldx	#.high.&GameMTListMon+1
 2569  5DEA     86 27       			stx	__addr_reg+1
 2570                     			.bf_call
 2571  5DEC     20 F6 D2    			jsr	__banked_function_call
 2572                     			.c_end	01453h,174
 2573                     	;while
 2574         4426 5DEF   	?TOL37:		.equal	$
 2575                     	;(1)
 2576                     	;	
 2577                     			.whi_top  01457h,?BOL37,1,175
 2578  5DEF     A9 01       			lda	#1
 2579  5DF1     D0 03       			bne	+3
 2580  5DF3     4C 70 61    			jmp	?BOL37
 2581         3427 5DF6   	?PLC28:		.equal	$
 2582                     			.c_end	01460h,176
 2583                     	;GameMTGetInput()
 2584                     			.c_start  01467h,177
 2585  5DF6     A2 2D       			ldx	#.low.&GameMTGetInput
 2586  5DF8     86 26       			stx	__addr_reg
 2587  5DFA     A2 90       			ldx	#.high.&GameMTGetInput+1
 2588  5DFC     86 27       			stx	__addr_reg+1
 2589                     			.bf_call
 2590  5DFE     20 F6 D2    			jsr	__banked_function_call
 2591                     			.c_end	01477h,177
 2592                     	;(g_GameMTQuit)
 2593                     			.if_top	01478h,?BOL38,2,177
 2594  5E01     AD 05 18    			lda	_g_GameMTQuit
 2595  5E04     D0 03       			bne	+3
 2596  5E06     4C 0C 5E    			jmp	?BOL38
 2597         3711 5E09   	?PLC29:		.equal	$
 2598                     			.c_end	01487h,177
 2599                     	;break;
 2600                     	;		
 2601  5E09     4C 70 61    			jmp	?BOL37
 2602                     	;(g_GameMTReadKey==16)
 2603                     	;		
 2604         3A11 5E0C   	?BOL38:		.equal	$
 2605                     			.if_top	01492h,?BOL39,2,178
 2606  5E0C     AD 06 18    			lda	_g_GameMTReadKey
 2607  5E0F     38          			sec
 2608  5E10     E9 10       			sbc	#16
 2609  5E12     F0 03       			beq	+3
 2610  5E14     4C D0 60    			jmp	?BOL39
 2611         3512 5E17   	?PLC30:		.equal	$
  Tue Jan 13 23:03:19 2026                                                                                               Page   47




 2612                     			.c_end	014aah,179
 2613                     	;timeout++
 2614                     			.c_start  014b3h,180
 2615  5E17     A0 04       			ldy	#-5+?LSC1
 2616  5E19     B1 28       			lda	(__stack_ptr),y
 2617  5E1B     18          			clc
 2618  5E1C     69 01       			adc	#1
 2619  5E1E     91 28       			sta	(__stack_ptr),y
 2620                     			.c_end	014bch,180
 2621                     	;(timeout==5)
 2622                     	;			
 2623                     			.if_top	014c2h,?BOL40,3,181
 2624  5E20     A0 04       			ldy	#-5+?LSC1
 2625  5E22     B1 28       			lda	(__stack_ptr),y
 2626  5E24     38          			sec
 2627  5E25     E9 05       			sbc	#5
 2628  5E27     F0 03       			beq	+3
 2629  5E29     4C 75 5F    			jmp	?BOL40
 2630         3A13 5E2C   	?PLC31:		.equal	$
 2631                     			.c_end	014d1h,182
 2632                     	;SysLcdPartClear(7,8,13,11)
 2633                     			.c_start  014dch,183
 2634  5E2C     A9 0B       			lda	#11
 2635  5E2E     20 AA DA    			jsr	__store_char_funct_arg
 2636  5E31     A9 0D       			lda	#13
 2637  5E33     20 AA DA    			jsr	__store_char_funct_arg
 2638  5E36     A9 08       			lda	#8
 2639  5E38     20 AA DA    			jsr	__store_char_funct_arg
 2640  5E3B     A9 07       			lda	#7
 2641  5E3D     A2 5D       			ldx	#.low.&SysLcdPartClear
 2642  5E3F     86 26       			stx	__addr_reg
 2643  5E41     A2 E8       			ldx	#.high.&SysLcdPartClear+1
 2644  5E43     86 27       			stx	__addr_reg+1
 2645                     			.bf_call
 2646  5E45     20 F6 D2    			jsr	__banked_function_call
 2647  5E48     08          			php
 2648  5E49     78          			sei
 2649  5E4A     18          			clc
 2650  5E4B     A5 28       			lda	__stack_ptr
 2651  5E4D     69 03       			adc	#.low.3
 2652  5E4F     85 28       			sta	__stack_ptr
 2653  5E51     A5 29       			lda	__stack_ptr+1
 2654  5E53     69 00       			adc	#.high.3
 2655  5E55     85 29       			sta	__stack_ptr+1
 2656  5E57     28          			plp
 2657                     			.c_end	014f6h,183
 2658                     	;(scoll+1>1)
 2659                     			.if_top	014fdh,?BOL41,4,184
 2660  5E58     A0 05       			ldy	#-4+?LSC1
 2661  5E5A     B1 28       			lda	(__stack_ptr),y
 2662  5E5C     18          			clc
 2663  5E5D     69 01       			adc	#1
 2664  5E5F     38          			sec
 2665  5E60     E9 01       			sbc	#1
 2666  5E62     B0 03       			bcs	+3
 2667  5E64     4C A8 5E    			jmp	?BOL41
 2668  5E67     D0 03       			bne	+3
  Tue Jan 13 23:03:19 2026                                                                                               Page   48




 2669  5E69     4C A8 5E    			jmp	?BOL41
 2670         3A17 5E6C   	?PLC32:		.equal	$
 2671                     			.c_end	01509h,184
 2672                     	;SysPicture(7,9,13,12,GameMTNotice,0)
 2673                     			.c_start  014fdh,184
 2674  5E6C     A9 00       			lda	#0
 2675  5E6E     20 AA DA    			jsr	__store_char_funct_arg
 2676  5E71     A9 EE       			lda	#.low._GameMTNotice
 2677  5E73     85 20       			sta	__oper1
 2678  5E75     A9 B2       			lda	#.high._GameMTNotice
 2679  5E77     85 21       			sta	__oper1+1
 2680  5E79     20 CA DA    			jsr	__store_int_funct_arg
 2681  5E7C     A9 0C       			lda	#12
 2682  5E7E     20 AA DA    			jsr	__store_char_funct_arg
 2683  5E81     A9 0D       			lda	#13
 2684  5E83     20 AA DA    			jsr	__store_char_funct_arg
 2685  5E86     A9 09       			lda	#9
 2686  5E88     20 AA DA    			jsr	__store_char_funct_arg
 2687  5E8B     A9 07       			lda	#7
 2688  5E8D     A2 8E       			ldx	#.low.&SysPicture
 2689  5E8F     86 26       			stx	__addr_reg
 2690  5E91     A2 E7       			ldx	#.high.&SysPicture+1
 2691  5E93     86 27       			stx	__addr_reg+1
 2692                     			.bf_call
 2693  5E95     20 F6 D2    			jsr	__banked_function_call
 2694  5E98     08          			php
 2695  5E99     78          			sei
 2696  5E9A     18          			clc
 2697  5E9B     A5 28       			lda	__stack_ptr
 2698  5E9D     69 06       			adc	#.low.6
 2699  5E9F     85 28       			sta	__stack_ptr
 2700  5EA1     A5 29       			lda	__stack_ptr+1
 2701  5EA3     69 00       			adc	#.high.6
 2702  5EA5     85 29       			sta	__stack_ptr+1
 2703  5EA7     28          			plp
 2704                     			.c_end	0152eh,184
 2705                     	;;
 2706                     	;				
 2707                     	;SysLcdPartClear(7,89,13,92)
 2708         3822 5EA8   	?BOL41:		.equal	$
 2709                     			.c_start  01535h,185
 2710  5EA8     A9 5C       			lda	#92
 2711  5EAA     20 AA DA    			jsr	__store_char_funct_arg
 2712  5EAD     A9 0D       			lda	#13
 2713  5EAF     20 AA DA    			jsr	__store_char_funct_arg
 2714  5EB2     A9 59       			lda	#89
 2715  5EB4     20 AA DA    			jsr	__store_char_funct_arg
 2716  5EB7     A9 07       			lda	#7
 2717  5EB9     A2 5D       			ldx	#.low.&SysLcdPartClear
 2718  5EBB     86 26       			stx	__addr_reg
 2719  5EBD     A2 E8       			ldx	#.high.&SysLcdPartClear+1
 2720  5EBF     86 27       			stx	__addr_reg+1
 2721                     			.bf_call
 2722  5EC1     20 F6 D2    			jsr	__banked_function_call
 2723  5EC4     08          			php
 2724  5EC5     78          			sei
 2725  5EC6     18          			clc
  Tue Jan 13 23:03:19 2026                                                                                               Page   49




 2726  5EC7     A5 28       			lda	__stack_ptr
 2727  5EC9     69 03       			adc	#.low.3
 2728  5ECB     85 28       			sta	__stack_ptr
 2729  5ECD     A5 29       			lda	__stack_ptr+1
 2730  5ECF     69 00       			adc	#.high.3
 2731  5ED1     85 29       			sta	__stack_ptr+1
 2732  5ED3     28          			plp
 2733                     			.c_end	01550h,185
 2734                     	;(scoll<4&&g_GameMTCheck[scoll+4]+1>1)
 2735                     			.if_top	01557h,?BOL42,4,186
 2736  5ED4     A0 05       			ldy	#-4+?LSC1
 2737  5ED6     B1 28       			lda	(__stack_ptr),y
 2738  5ED8     38          			sec
 2739  5ED9     E9 04       			sbc	#4
 2740  5EDB     90 03       			bcc	+3
 2741  5EDD     4C 75 5F    			jmp	?BOL42
 2742         4525 5EE0   	?ACC4:		.equal	$
 2743  5EE0     A0 05       			ldy	#-4+?LSC1
 2744  5EE2     B1 28       			lda	(__stack_ptr),y
 2745  5EE4     18          			clc
 2746  5EE5     69 04       			adc	#4
 2747  5EE7     85 20       			sta	__oper1
 2748  5EE9     A9 00       			lda	#0
 2749  5EEB     85 21       			sta	__oper1+1
 2750  5EED     18          			clc
 2751  5EEE     A5 20       			lda	__oper1
 2752  5EF0     69 96       			adc	#.low._g_GameMTCheck
 2753  5EF2     85 20       			sta	__oper1
 2754  5EF4     A5 21       			lda	__oper1+1
 2755  5EF6     69 1F       			adc	#.high._g_GameMTCheck
 2756  5EF8     85 21       			sta	__oper1+1
 2757  5EFA     A0 00       			ldy	#0
 2758  5EFC     B1 20       			lda	(__oper1),y
 2759  5EFE     18          			clc
 2760  5EFF     69 01       			adc	#1
 2761  5F01     38          			sec
 2762  5F02     E9 01       			sbc	#1
 2763  5F04     B0 03       			bcs	+3
 2764  5F06     4C 75 5F    			jmp	?BOL42
 2765  5F09     D0 03       			bne	+3
 2766  5F0B     4C 75 5F    			jmp	?BOL42
 2767         4311 5F0E   	?PLC33:		.equal	$
 2768                     			.c_end	0157dh,186
 2769                     	;SysPicture(7,88,13,91,GameMTNotice+4,0)
 2770                     			.c_start  01557h,186
 2771  5F0E     A9 04       			lda	#.low.4
 2772  5F10     85 23       			sta	__oper2
 2773  5F12     A9 00       			lda	#.high.4
 2774  5F14     85 24       			sta	__oper2+1
 2775  5F16     A9 EE       			lda	#.low._GameMTNotice
 2776  5F18     85 20       			sta	__oper1
 2777  5F1A     A9 B2       			lda	#.high._GameMTNotice
 2778  5F1C     85 21       			sta	__oper1+1
 2779  5F1E     18          			clc
 2780  5F1F     A5 20       			lda	__oper1
 2781  5F21     65 23       			adc	__oper2
 2782  5F23     85 20       			sta	__oper1
  Tue Jan 13 23:03:19 2026                                                                                               Page   50




 2783  5F25     A5 21       			lda	__oper1+1
 2784  5F27     65 24       			adc	__oper2+1
 2785  5F29     85 21       			sta	__oper1+1
 2786  5F2B     A0 09       			ldy	#+0+?LSC1
 2787  5F2D     A5 20       			lda	__oper1
 2788  5F2F     91 28       			sta	(__stack_ptr),y
 2789  5F31     C8          			iny
 2790  5F32     A5 21       			lda	__oper1+1
 2791  5F34     91 28       			sta	(__stack_ptr),y
 2792  5F36     A9 00       			lda	#0
 2793  5F38     20 AA DA    			jsr	__store_char_funct_arg
 2794  5F3B     A0 0A       			ldy	#+0+?LSC1+1
 2795  5F3D     B1 28       			lda	(__stack_ptr),y
 2796  5F3F     85 20       			sta	__oper1
 2797  5F41     C8          			iny
 2798  5F42     B1 28       			lda	(__stack_ptr),y
 2799  5F44     85 21       			sta	__oper1+1
 2800  5F46     20 CA DA    			jsr	__store_int_funct_arg
 2801  5F49     A9 5B       			lda	#91
 2802  5F4B     20 AA DA    			jsr	__store_char_funct_arg
 2803  5F4E     A9 0D       			lda	#13
 2804  5F50     20 AA DA    			jsr	__store_char_funct_arg
 2805  5F53     A9 58       			lda	#88
 2806  5F55     20 AA DA    			jsr	__store_char_funct_arg
 2807  5F58     A9 07       			lda	#7
 2808  5F5A     A2 8E       			ldx	#.low.&SysPicture
 2809  5F5C     86 26       			stx	__addr_reg
 2810  5F5E     A2 E7       			ldx	#.high.&SysPicture+1
 2811  5F60     86 27       			stx	__addr_reg+1
 2812                     			.bf_call
 2813  5F62     20 F6 D2    			jsr	__banked_function_call
 2814  5F65     08          			php
 2815  5F66     78          			sei
 2816  5F67     18          			clc
 2817  5F68     A5 28       			lda	__stack_ptr
 2818  5F6A     69 06       			adc	#.low.6
 2819  5F6C     85 28       			sta	__stack_ptr
 2820  5F6E     A5 29       			lda	__stack_ptr+1
 2821  5F70     69 00       			adc	#.high.6
 2822  5F72     85 29       			sta	__stack_ptr+1
 2823  5F74     28          			plp
 2824                     			.c_end	015a5h,186
 2825                     	;;
 2826                     	;			
 2827                     	;
 2828         3518 5F75   	?BOL42:		.equal	$
 2829                     	;(timeout==10)
 2830                     	;			
 2831         35F9 5F75   	?BOL40:		.equal	$
 2832                     			.if_top	015b1h,?BOL43,3,188
 2833  5F75     A0 04       			ldy	#-5+?LSC1
 2834  5F77     B1 28       			lda	(__stack_ptr),y
 2835  5F79     38          			sec
 2836  5F7A     E9 0A       			sbc	#10
 2837  5F7C     F0 03       			beq	+3
 2838  5F7E     4C D0 60    			jmp	?BOL43
 2839         4618 5F81   	?PLC34:		.equal	$
  Tue Jan 13 23:03:19 2026                                                                                               Page   51




 2840                     			.c_end	015c1h,189
 2841                     	;SysLcdPartClear(7,9,13,12)
 2842                     			.c_start  015cch,190
 2843  5F81     A9 0C       			lda	#12
 2844  5F83     20 AA DA    			jsr	__store_char_funct_arg
 2845  5F86     A9 0D       			lda	#13
 2846  5F88     20 AA DA    			jsr	__store_char_funct_arg
 2847  5F8B     A9 09       			lda	#9
 2848  5F8D     20 AA DA    			jsr	__store_char_funct_arg
 2849  5F90     A9 07       			lda	#7
 2850  5F92     A2 5D       			ldx	#.low.&SysLcdPartClear
 2851  5F94     86 26       			stx	__addr_reg
 2852  5F96     A2 E8       			ldx	#.high.&SysLcdPartClear+1
 2853  5F98     86 27       			stx	__addr_reg+1
 2854                     			.bf_call
 2855  5F9A     20 F6 D2    			jsr	__banked_function_call
 2856  5F9D     08          			php
 2857  5F9E     78          			sei
 2858  5F9F     18          			clc
 2859  5FA0     A5 28       			lda	__stack_ptr
 2860  5FA2     69 03       			adc	#.low.3
 2861  5FA4     85 28       			sta	__stack_ptr
 2862  5FA6     A5 29       			lda	__stack_ptr+1
 2863  5FA8     69 00       			adc	#.high.3
 2864  5FAA     85 29       			sta	__stack_ptr+1
 2865  5FAC     28          			plp
 2866                     			.c_end	015e6h,190
 2867                     	;(scoll+1>1)
 2868                     			.if_top	015edh,?BOL44,4,191
 2869  5FAD     A0 05       			ldy	#-4+?LSC1
 2870  5FAF     B1 28       			lda	(__stack_ptr),y
 2871  5FB1     18          			clc
 2872  5FB2     69 01       			adc	#1
 2873  5FB4     38          			sec
 2874  5FB5     E9 01       			sbc	#1
 2875  5FB7     B0 03       			bcs	+3
 2876  5FB9     4C FD 5F    			jmp	?BOL44
 2877  5FBC     D0 03       			bne	+3
 2878  5FBE     4C FD 5F    			jmp	?BOL44
 2879         4623 5FC1   	?PLC35:		.equal	$
 2880                     			.c_end	015f9h,191
 2881                     	;SysPicture(7,8,13,11,GameMTNotice,0)
 2882                     			.c_start  015edh,191
 2883  5FC1     A9 00       			lda	#0
 2884  5FC3     20 AA DA    			jsr	__store_char_funct_arg
 2885  5FC6     A9 EE       			lda	#.low._GameMTNotice
 2886  5FC8     85 20       			sta	__oper1
 2887  5FCA     A9 B2       			lda	#.high._GameMTNotice
 2888  5FCC     85 21       			sta	__oper1+1
 2889  5FCE     20 CA DA    			jsr	__store_int_funct_arg
 2890  5FD1     A9 0B       			lda	#11
 2891  5FD3     20 AA DA    			jsr	__store_char_funct_arg
 2892  5FD6     A9 0D       			lda	#13
 2893  5FD8     20 AA DA    			jsr	__store_char_funct_arg
 2894  5FDB     A9 08       			lda	#8
 2895  5FDD     20 AA DA    			jsr	__store_char_funct_arg
 2896  5FE0     A9 07       			lda	#7
  Tue Jan 13 23:03:19 2026                                                                                               Page   52




 2897  5FE2     A2 8E       			ldx	#.low.&SysPicture
 2898  5FE4     86 26       			stx	__addr_reg
 2899  5FE6     A2 E7       			ldx	#.high.&SysPicture+1
 2900  5FE8     86 27       			stx	__addr_reg+1
 2901                     			.bf_call
 2902  5FEA     20 F6 D2    			jsr	__banked_function_call
 2903  5FED     08          			php
 2904  5FEE     78          			sei
 2905  5FEF     18          			clc
 2906  5FF0     A5 28       			lda	__stack_ptr
 2907  5FF2     69 06       			adc	#.low.6
 2908  5FF4     85 28       			sta	__stack_ptr
 2909  5FF6     A5 29       			lda	__stack_ptr+1
 2910  5FF8     69 00       			adc	#.high.6
 2911  5FFA     85 29       			sta	__stack_ptr+1
 2912  5FFC     28          			plp
 2913                     			.c_end	0161eh,191
 2914                     	;;
 2915                     	;				
 2916                     	;SysLcdPartClear(7,88,13,91)
 2917         4427 5FFD   	?BOL44:		.equal	$
 2918                     			.c_start  01625h,192
 2919  5FFD     A9 5B       			lda	#91
 2920  5FFF     20 AA DA    			jsr	__store_char_funct_arg
 2921  6002     A9 0D       			lda	#13
 2922  6004     20 AA DA    			jsr	__store_char_funct_arg
 2923  6007     A9 58       			lda	#88
 2924  6009     20 AA DA    			jsr	__store_char_funct_arg
 2925  600C     A9 07       			lda	#7
 2926  600E     A2 5D       			ldx	#.low.&SysLcdPartClear
 2927  6010     86 26       			stx	__addr_reg
 2928  6012     A2 E8       			ldx	#.high.&SysLcdPartClear+1
 2929  6014     86 27       			stx	__addr_reg+1
 2930                     			.bf_call
 2931  6016     20 F6 D2    			jsr	__banked_function_call
 2932  6019     08          			php
 2933  601A     78          			sei
 2934  601B     18          			clc
 2935  601C     A5 28       			lda	__stack_ptr
 2936  601E     69 03       			adc	#.low.3
 2937  6020     85 28       			sta	__stack_ptr
 2938  6022     A5 29       			lda	__stack_ptr+1
 2939  6024     69 00       			adc	#.high.3
 2940  6026     85 29       			sta	__stack_ptr+1
 2941  6028     28          			plp
 2942                     			.c_end	01640h,192
 2943                     	;(scoll<4&&g_GameMTCheck[scoll+4]+1>1)
 2944                     			.if_top	01647h,?BOL45,4,193
 2945  6029     A0 05       			ldy	#-4+?LSC1
 2946  602B     B1 28       			lda	(__stack_ptr),y
 2947  602D     38          			sec
 2948  602E     E9 04       			sbc	#4
 2949  6030     90 03       			bcc	+3
 2950  6032     4C CA 60    			jmp	?BOL45
 2951         3314 6035   	?ACC5:		.equal	$
 2952  6035     A0 05       			ldy	#-4+?LSC1
 2953  6037     B1 28       			lda	(__stack_ptr),y
  Tue Jan 13 23:03:19 2026                                                                                               Page   53




 2954  6039     18          			clc
 2955  603A     69 04       			adc	#4
 2956  603C     85 20       			sta	__oper1
 2957  603E     A9 00       			lda	#0
 2958  6040     85 21       			sta	__oper1+1
 2959  6042     18          			clc
 2960  6043     A5 20       			lda	__oper1
 2961  6045     69 96       			adc	#.low._g_GameMTCheck
 2962  6047     85 20       			sta	__oper1
 2963  6049     A5 21       			lda	__oper1+1
 2964  604B     69 1F       			adc	#.high._g_GameMTCheck
 2965  604D     85 21       			sta	__oper1+1
 2966  604F     A0 00       			ldy	#0
 2967  6051     B1 20       			lda	(__oper1),y
 2968  6053     18          			clc
 2969  6054     69 01       			adc	#1
 2970  6056     38          			sec
 2971  6057     E9 01       			sbc	#1
 2972  6059     B0 03       			bcs	+3
 2973  605B     4C CA 60    			jmp	?BOL45
 2974  605E     D0 03       			bne	+3
 2975  6060     4C CA 60    			jmp	?BOL45
 2976         3117 6063   	?PLC36:		.equal	$
 2977                     			.c_end	0166dh,193
 2978                     	;SysPicture(7,89,13,92,GameMTNotice+4,0)
 2979                     			.c_start  01647h,193
 2980  6063     A9 04       			lda	#.low.4
 2981  6065     85 23       			sta	__oper2
 2982  6067     A9 00       			lda	#.high.4
 2983  6069     85 24       			sta	__oper2+1
 2984  606B     A9 EE       			lda	#.low._GameMTNotice
 2985  606D     85 20       			sta	__oper1
 2986  606F     A9 B2       			lda	#.high._GameMTNotice
 2987  6071     85 21       			sta	__oper1+1
 2988  6073     18          			clc
 2989  6074     A5 20       			lda	__oper1
 2990  6076     65 23       			adc	__oper2
 2991  6078     85 20       			sta	__oper1
 2992  607A     A5 21       			lda	__oper1+1
 2993  607C     65 24       			adc	__oper2+1
 2994  607E     85 21       			sta	__oper1+1
 2995  6080     A0 09       			ldy	#+0+?LSC1
 2996  6082     A5 20       			lda	__oper1
 2997  6084     91 28       			sta	(__stack_ptr),y
 2998  6086     C8          			iny
 2999  6087     A5 21       			lda	__oper1+1
 3000  6089     91 28       			sta	(__stack_ptr),y
 3001  608B     A9 00       			lda	#0
 3002  608D     20 AA DA    			jsr	__store_char_funct_arg
 3003  6090     A0 0A       			ldy	#+0+?LSC1+1
 3004  6092     B1 28       			lda	(__stack_ptr),y
 3005  6094     85 20       			sta	__oper1
 3006  6096     C8          			iny
 3007  6097     B1 28       			lda	(__stack_ptr),y
 3008  6099     85 21       			sta	__oper1+1
 3009  609B     20 CA DA    			jsr	__store_int_funct_arg
 3010  609E     A9 5C       			lda	#92
  Tue Jan 13 23:03:19 2026                                                                                               Page   54




 3011  60A0     20 AA DA    			jsr	__store_char_funct_arg
 3012  60A3     A9 0D       			lda	#13
 3013  60A5     20 AA DA    			jsr	__store_char_funct_arg
 3014  60A8     A9 59       			lda	#89
 3015  60AA     20 AA DA    			jsr	__store_char_funct_arg
 3016  60AD     A9 07       			lda	#7
 3017  60AF     A2 8E       			ldx	#.low.&SysPicture
 3018  60B1     86 26       			stx	__addr_reg
 3019  60B3     A2 E7       			ldx	#.high.&SysPicture+1
 3020  60B5     86 27       			stx	__addr_reg+1
 3021                     			.bf_call
 3022  60B7     20 F6 D2    			jsr	__banked_function_call
 3023  60BA     08          			php
 3024  60BB     78          			sei
 3025  60BC     18          			clc
 3026  60BD     A5 28       			lda	__stack_ptr
 3027  60BF     69 06       			adc	#.low.6
 3028  60C1     85 28       			sta	__stack_ptr
 3029  60C3     A5 29       			lda	__stack_ptr+1
 3030  60C5     69 00       			adc	#.high.6
 3031  60C7     85 29       			sta	__stack_ptr+1
 3032  60C9     28          			plp
 3033                     			.c_end	01695h,193
 3034                     	;;
 3035                     	;				
 3036                     	;timeout=0
 3037         3A24 60CA   	?BOL45:		.equal	$
 3038                     			.c_start  0169ch,194
 3039  60CA     A0 04       			ldy	#-5+?LSC1
 3040  60CC     A9 00       			lda	#0
 3041  60CE     91 28       			sta	(__stack_ptr),y
 3042                     			.c_end	016a5h,194
 3043                     	;
 3044                     	;
 3045         4624 60D0   	?BOL43:		.equal	$
 3046                     	;(g_GameMTReadKey==7)
 3047         4705 60D0   	?BOL39:		.equal	$
 3048                     			.if_top	016b5h,?BOL46,2,197
 3049  60D0     AD 06 18    			lda	_g_GameMTReadKey
 3050  60D3     38          			sec
 3051  60D4     E9 07       			sbc	#7
 3052  60D6     F0 03       			beq	+3
 3053  60D8     4C DE 60    			jmp	?BOL46
 3054         3925 60DB   	?PLC37:		.equal	$
 3055                     			.c_end	016cah,197
 3056                     	;break;
 3057                     	;		
 3058  60DB     4C 70 61    			jmp	?BOL37
 3059                     	;(g_GameMTReadKey==3&&scoll+1>1)
 3060                     	;		
 3061         4325 60DE   	?BOL46:		.equal	$
 3062                     			.if_top	016d5h,?BOL47,2,198
 3063  60DE     AD 06 18    			lda	_g_GameMTReadKey
 3064  60E1     38          			sec
 3065  60E2     E9 03       			sbc	#3
 3066  60E4     F0 03       			beq	+3
 3067  60E6     4C 15 61    			jmp	?BOL47
  Tue Jan 13 23:03:19 2026                                                                                               Page   55




 3068         3726 60E9   	?ACC6:		.equal	$
 3069  60E9     A0 05       			ldy	#-4+?LSC1
 3070  60EB     B1 28       			lda	(__stack_ptr),y
 3071  60ED     18          			clc
 3072  60EE     69 01       			adc	#1
 3073  60F0     38          			sec
 3074  60F1     E9 01       			sbc	#1
 3075  60F3     B0 03       			bcs	+3
 3076  60F5     4C 15 61    			jmp	?BOL47
 3077  60F8     D0 03       			bne	+3
 3078  60FA     4C 15 61    			jmp	?BOL47
 3079         4227 60FD   	?PLC38:		.equal	$
 3080                     			.c_end	016f7h,199
 3081                     	;scoll--
 3082                     			.c_start  01700h,200
 3083  60FD     A0 05       			ldy	#-4+?LSC1
 3084  60FF     B1 28       			lda	(__stack_ptr),y
 3085  6101     38          			sec
 3086  6102     E9 01       			sbc	#1
 3087  6104     91 28       			sta	(__stack_ptr),y
 3088                     			.c_end	01707h,200
 3089                     	;GameMTListMon(scoll)
 3090                     			.c_start  0170dh,201
 3091  6106     A0 05       			ldy	#-4+?LSC1
 3092  6108     B1 28       			lda	(__stack_ptr),y
 3093  610A     A2 4E       			ldx	#.low.&GameMTListMon
 3094  610C     86 26       			stx	__addr_reg
 3095  610E     A2 90       			ldx	#.high.&GameMTListMon+1
 3096  6110     86 27       			stx	__addr_reg+1
 3097                     			.bf_call
 3098  6112     20 F6 D2    			jsr	__banked_function_call
 3099                     			.c_end	01721h,201
 3100                     	;
 3101                     	;(g_GameMTReadKey==4&&(scoll<4)&&(g_GameMTCheck[scoll+4]+1!=1))
 3102                     	;		
 3103         3312 6115   	?BOL47:		.equal	$
 3104                     			.if_top	0172bh,?BOL48,2,203
 3105  6115     AD 06 18    			lda	_g_GameMTReadKey
 3106  6118     38          			sec
 3107  6119     E9 04       			sbc	#4
 3108  611B     F0 03       			beq	+3
 3109  611D     4C 6D 61    			jmp	?BOL48
 3110         4512 6120   	?ACC7:		.equal	$
 3111  6120     A0 05       			ldy	#-4+?LSC1
 3112  6122     B1 28       			lda	(__stack_ptr),y
 3113  6124     38          			sec
 3114  6125     E9 04       			sbc	#4
 3115  6127     90 03       			bcc	+3
 3116  6129     4C 6D 61    			jmp	?BOL48
 3117         3A13 612C   	?ACC8:		.equal	$
 3118  612C     A0 05       			ldy	#-4+?LSC1
 3119  612E     B1 28       			lda	(__stack_ptr),y
 3120  6130     18          			clc
 3121  6131     69 04       			adc	#4
 3122  6133     85 20       			sta	__oper1
 3123  6135     A9 00       			lda	#0
 3124  6137     85 21       			sta	__oper1+1
  Tue Jan 13 23:03:19 2026                                                                                               Page   56




 3125  6139     18          			clc
 3126  613A     A5 20       			lda	__oper1
 3127  613C     69 96       			adc	#.low._g_GameMTCheck
 3128  613E     85 20       			sta	__oper1
 3129  6140     A5 21       			lda	__oper1+1
 3130  6142     69 1F       			adc	#.high._g_GameMTCheck
 3131  6144     85 21       			sta	__oper1+1
 3132  6146     A0 00       			ldy	#0
 3133  6148     B1 20       			lda	(__oper1),y
 3134  614A     18          			clc
 3135  614B     69 01       			adc	#1
 3136  614D     38          			sec
 3137  614E     E9 01       			sbc	#1
 3138  6150     D0 03       			bne	+3
 3139  6152     4C 6D 61    			jmp	?BOL48
 3140         3316 6155   	?PLC39:		.equal	$
 3141                     			.c_end	0176ch,204
 3142                     	;scoll++
 3143                     			.c_start  01775h,205
 3144  6155     A0 05       			ldy	#-4+?LSC1
 3145  6157     B1 28       			lda	(__stack_ptr),y
 3146  6159     18          			clc
 3147  615A     69 01       			adc	#1
 3148  615C     91 28       			sta	(__stack_ptr),y
 3149                     			.c_end	0177ch,205
 3150                     	;GameMTListMon(scoll)
 3151                     			.c_start  01782h,206
 3152  615E     A0 05       			ldy	#-4+?LSC1
 3153  6160     B1 28       			lda	(__stack_ptr),y
 3154  6162     A2 4E       			ldx	#.low.&GameMTListMon
 3155  6164     86 26       			stx	__addr_reg
 3156  6166     A2 90       			ldx	#.high.&GameMTListMon+1
 3157  6168     86 27       			stx	__addr_reg+1
 3158                     			.bf_call
 3159  616A     20 F6 D2    			jsr	__banked_function_call
 3160                     			.c_end	01796h,206
 3161                     	;
 3162                     	;
 3163         4217 616D   	?BOL48:		.equal	$
 3164                     			.whi_bot  1,208
 3165  616D     4C EF 5D    			jmp	?TOL37
 3166         4517 6170   	?BOL37:		.equal	$
 3167                     	;SysRestoreScreen(0,0,158,95,g_GameMTBuf)
 3168                     			.c_start  017a3h,209
 3169  6170     A9 13       			lda	#.low._g_GameMTBuf
 3170  6172     85 20       			sta	__oper1
 3171  6174     A9 18       			lda	#.high._g_GameMTBuf
 3172  6176     85 21       			sta	__oper1+1
 3173  6178     20 CA DA    			jsr	__store_int_funct_arg
 3174  617B     A9 5F       			lda	#95
 3175  617D     20 AA DA    			jsr	__store_char_funct_arg
 3176  6180     A9 9E       			lda	#.low.158
 3177  6182     85 20       			sta	__oper1
 3178  6184     A9 00       			lda	#.high.158
 3179  6186     85 21       			sta	__oper1+1
 3180  6188     A5 20       			lda	__oper1
 3181  618A     20 AA DA    			jsr	__store_char_funct_arg
  Tue Jan 13 23:03:19 2026                                                                                               Page   57




 3182  618D     A9 00       			lda	#0
 3183  618F     20 AA DA    			jsr	__store_char_funct_arg
 3184  6192     A9 00       			lda	#0
 3185  6194     A2 7A       			ldx	#.low.&SysRestoreScreen
 3186  6196     86 26       			stx	__addr_reg
 3187  6198     A2 E8       			ldx	#.high.&SysRestoreScreen+1
 3188  619A     86 27       			stx	__addr_reg+1
 3189                     			.bf_call
 3190  619C     20 F6 D2    			jsr	__banked_function_call
 3191  619F     08          			php
 3192  61A0     78          			sei
 3193  61A1     18          			clc
 3194  61A2     A5 28       			lda	__stack_ptr
 3195  61A4     69 05       			adc	#.low.5
 3196  61A6     85 28       			sta	__stack_ptr
 3197  61A8     A5 29       			lda	__stack_ptr+1
 3198  61AA     69 00       			adc	#.high.5
 3199  61AC     85 29       			sta	__stack_ptr+1
 3200  61AE     28          			plp
 3201                     			.c_end	017cbh,209
 3202                     	;g_GameMTHeroDamige=temp2
 3203                     			.c_start  017cfh,210
 3204  61AF     A0 00       			ldy	#-9+?LSC1
 3205  61B1     B1 28       			lda	(__stack_ptr),y
 3206  61B3     85 20       			sta	__oper1
 3207  61B5     C8          			iny
 3208  61B6     B1 28       			lda	(__stack_ptr),y
 3209  61B8     85 21       			sta	__oper1+1
 3210  61BA     A5 20       			lda	__oper1
 3211  61BC     8D 9E 1F    			sta	_g_GameMTHeroDamige
 3212  61BF     A5 21       			lda	__oper1+1
 3213  61C1     8D 9F 1F    			sta	_g_GameMTHeroDamige+1
 3214                     			.c_end	017e7h,210
 3215                     	;
 3216                     			.f_end	017eah,211
 3217         3224 61C4   	?BOF1:		.equal	$
 3218  61C4     08          			php
 3219  61C5     78          			sei
 3220  61C6     18          			clc
 3221  61C7     A5 28       			lda	__stack_ptr
 3222  61C9     69 0B       			adc	#.low.+?LSC1+?TSC1+0
 3223  61CB     85 28       			sta	__stack_ptr
 3224  61CD     A5 29       			lda	__stack_ptr+1
 3225  61CF     69 00       			adc	#.high.+?LSC1+?TSC1+0
 3226  61D1     85 29       			sta	__stack_ptr+1
 3227  61D3     28          			plp
 3228                     			.f_return
 3229  61D4     60          			rts
 3230                     	;
 3231                     			.f_start  019afh,223
 3232                     			.bank_table
 3233                     			.global	&GameMTListMon
 3234  904E     D5 61 E1    	&GameMTListMon:	.bankaddr	_GameMTListMon
 3235                     			.ends
 3236         4615 61D5   	_GameMTListMon:	.equal	$
 3237                     			.attrib	_GameMTListMon,224,f,b
 3238  61D5     20 AA DA    			jsr	__store_char_funct_arg
  Tue Jan 13 23:03:19 2026                                                                                               Page   58




 3239                     	;
 3240                     	;
 3241         0000        	?ASC2:		.equal	0
 3242         0004        	?TSC2:		.equal	4
 3243         0001        	?LSC2:		.equal	1
 3244  61D8     08          			php
 3245  61D9     78          			sei
 3246  61DA     38          			sec
 3247  61DB     A5 28       			lda	__stack_ptr
 3248  61DD     E9 05       			sbc	#.low.+?LSC2+?TSC2
 3249  61DF     85 28       			sta	__stack_ptr
 3250  61E1     A5 29       			lda	__stack_ptr+1
 3251  61E3     E9 00       			sbc	#.high.+?LSC2+?TSC2
 3252  61E5     85 29       			sta	__stack_ptr+1
 3253  61E7     28          			plp
 3254                     	;{
 3255                     			.local	_scoll,224,v,c,u,d,d,d,d,0+?LSC2+?TSC2+0,00h
 3256                     	;unsigned char 	k;
 3257                     	;	
 3258                     			.local	_k,225,v,c,u,d,d,d,d,-1+?LSC2+0,00h
 3259                     	;k=0;
 3260                     			.c_start  019d4h,226
 3261  61E8     A0 00       			ldy	#-1+?LSC2
 3262  61EA     A9 00       			lda	#0
 3263  61EC     91 28       			sta	(__stack_ptr),y
 3264                     			.c_end	019dbh,226
 3265         4426 61EE   	?FLC49:		.equal	$
 3266                     	;k<4;
 3267                     			.for_top  019dch,?BOL49,?FLB49,?FLA49,1,226
 3268  61EE     A0 00       			ldy	#-1+?LSC2
 3269  61F0     B1 28       			lda	(__stack_ptr),y
 3270  61F2     38          			sec
 3271  61F3     E9 04       			sbc	#4
 3272  61F5     90 03       			bcc	+3
 3273  61F7     4C A2 6B    			jmp	?BOL49
 3274                     			.c_end	019dfh,226
 3275  61FA     4C 09 62    			jmp	?FLB49
 3276         4227 61FD   	?FLA49:		.equal	$
 3277                     	;k++)
 3278                     	;			
 3279                     			.for_adj  019e0h,226
 3280  61FD     A0 00       			ldy	#-1+?LSC2
 3281  61FF     B1 28       			lda	(__stack_ptr),y
 3282  6201     18          			clc
 3283  6202     69 01       			adc	#1
 3284  6204     91 28       			sta	(__stack_ptr),y
 3285                     			.c_end	019e5h,227
 3286  6206     4C EE 61    			jmp	?FLC49
 3287         3711 6209   	?FLB49:		.equal	$
 3288                     	;(g_GameMTCheck[k+scoll]+1>1)
 3289                     	;			
 3290                     			.if_top	019e9h,?BOL50,2,227
 3291  6209     A0 00       			ldy	#-1+?LSC2
 3292  620B     B1 28       			lda	(__stack_ptr),y
 3293  620D     A0 05       			ldy	#+0+?LSC2+?TSC2
 3294  620F     18          			clc
 3295  6210     71 28       			adc	(__stack_ptr),y
  Tue Jan 13 23:03:19 2026                                                                                               Page   59




 3296  6212     85 20       			sta	__oper1
 3297  6214     A9 00       			lda	#0
 3298  6216     85 21       			sta	__oper1+1
 3299  6218     18          			clc
 3300  6219     A5 20       			lda	__oper1
 3301  621B     69 96       			adc	#.low._g_GameMTCheck
 3302  621D     85 20       			sta	__oper1
 3303  621F     A5 21       			lda	__oper1+1
 3304  6221     69 1F       			adc	#.high._g_GameMTCheck
 3305  6223     85 21       			sta	__oper1+1
 3306  6225     A0 00       			ldy	#0
 3307  6227     B1 20       			lda	(__oper1),y
 3308  6229     18          			clc
 3309  622A     69 01       			adc	#1
 3310  622C     38          			sec
 3311  622D     E9 01       			sbc	#1
 3312  622F     B0 03       			bcs	+3
 3313  6231     4C 9F 6B    			jmp	?BOL50
 3314  6234     D0 03       			bne	+3
 3315  6236     4C 9F 6B    			jmp	?BOL50
 3316         3714 6239   	?PLC40:		.equal	$
 3317                     			.c_end	01a08h,228
 3318                     	;SysPicture(3,18*k+16,18,18*k+31,GameMTUnitPic[g_GameMTCheck[k+scoll]],0)
 3319                     			.c_start  01a13h,229
 3320  6239     A0 00       			ldy	#-1+?LSC2
 3321  623B     B1 28       			lda	(__stack_ptr),y
 3322  623D     85 23       			sta	__oper2
 3323  623F     A9 12       			lda	#18
 3324  6241     20 EF DC    			jsr	__uns_mult_char
 3325  6244     18          			clc
 3326  6245     69 10       			adc	#16
 3327  6247     A0 01       			ldy	#+0+?LSC2
 3328  6249     91 28       			sta	(__stack_ptr),y
 3329  624B     A0 00       			ldy	#-1+?LSC2
 3330  624D     B1 28       			lda	(__stack_ptr),y
 3331  624F     85 23       			sta	__oper2
 3332  6251     A9 12       			lda	#18
 3333  6253     20 EF DC    			jsr	__uns_mult_char
 3334  6256     18          			clc
 3335  6257     69 1F       			adc	#31
 3336  6259     A0 02       			ldy	#+1+?LSC2
 3337  625B     91 28       			sta	(__stack_ptr),y
 3338  625D     A0 00       			ldy	#-1+?LSC2
 3339  625F     B1 28       			lda	(__stack_ptr),y
 3340  6261     A0 05       			ldy	#+0+?LSC2+?TSC2
 3341  6263     18          			clc
 3342  6264     71 28       			adc	(__stack_ptr),y
 3343  6266     85 20       			sta	__oper1
 3344  6268     A9 00       			lda	#0
 3345  626A     85 21       			sta	__oper1+1
 3346  626C     18          			clc
 3347  626D     A5 20       			lda	__oper1
 3348  626F     69 96       			adc	#.low._g_GameMTCheck
 3349  6271     85 20       			sta	__oper1
 3350  6273     A5 21       			lda	__oper1+1
 3351  6275     69 1F       			adc	#.high._g_GameMTCheck
 3352  6277     85 21       			sta	__oper1+1
  Tue Jan 13 23:03:19 2026                                                                                               Page   60




 3353  6279     A0 00       			ldy	#0
 3354  627B     B1 20       			lda	(__oper1),y
 3355  627D     A0 03       			ldy	#+2+?LSC2
 3356  627F     91 28       			sta	(__stack_ptr),y
 3357  6281     A9 20       			lda	#.low.32
 3358  6283     85 23       			sta	__oper2
 3359  6285     A9 00       			lda	#.high.32
 3360  6287     85 24       			sta	__oper2+1
 3361  6289     A0 03       			ldy	#+2+?LSC2
 3362  628B     B1 28       			lda	(__stack_ptr),y
 3363  628D     85 20       			sta	__oper1
 3364  628F     A9 00       			lda	#0
 3365  6291     85 21       			sta	__oper1+1
 3366  6293     20 AF D6    			jsr	__mult_int
 3367  6296     18          			clc
 3368  6297     A5 20       			lda	__oper1
 3369  6299     69 40       			adc	#.low._GameMTUnitPic
 3370  629B     85 20       			sta	__oper1
 3371  629D     A5 21       			lda	__oper1+1
 3372  629F     69 B4       			adc	#.high._GameMTUnitPic
 3373  62A1     85 21       			sta	__oper1+1
 3374  62A3     A0 03       			ldy	#+2+?LSC2
 3375  62A5     A5 20       			lda	__oper1
 3376  62A7     91 28       			sta	(__stack_ptr),y
 3377  62A9     C8          			iny
 3378  62AA     A5 21       			lda	__oper1+1
 3379  62AC     91 28       			sta	(__stack_ptr),y
 3380  62AE     A9 00       			lda	#0
 3381  62B0     20 AA DA    			jsr	__store_char_funct_arg
 3382  62B3     A0 04       			ldy	#+2+?LSC2+1
 3383  62B5     B1 28       			lda	(__stack_ptr),y
 3384  62B7     85 20       			sta	__oper1
 3385  62B9     C8          			iny
 3386  62BA     B1 28       			lda	(__stack_ptr),y
 3387  62BC     85 21       			sta	__oper1+1
 3388  62BE     20 CA DA    			jsr	__store_int_funct_arg
 3389  62C1     A0 05       			ldy	#+1+?LSC2+3
 3390  62C3     B1 28       			lda	(__stack_ptr),y
 3391  62C5     20 AA DA    			jsr	__store_char_funct_arg
 3392  62C8     A9 12       			lda	#18
 3393  62CA     20 AA DA    			jsr	__store_char_funct_arg
 3394  62CD     A0 06       			ldy	#+0+?LSC2+5
 3395  62CF     B1 28       			lda	(__stack_ptr),y
 3396  62D1     20 AA DA    			jsr	__store_char_funct_arg
 3397  62D4     A9 03       			lda	#3
 3398  62D6     A2 8E       			ldx	#.low.&SysPicture
 3399  62D8     86 26       			stx	__addr_reg
 3400  62DA     A2 E7       			ldx	#.high.&SysPicture+1
 3401  62DC     86 27       			stx	__addr_reg+1
 3402                     			.bf_call
 3403  62DE     20 F6 D2    			jsr	__banked_function_call
 3404  62E1     08          			php
 3405  62E2     78          			sei
 3406  62E3     18          			clc
 3407  62E4     A5 28       			lda	__stack_ptr
 3408  62E6     69 06       			adc	#.low.6
 3409  62E8     85 28       			sta	__stack_ptr
  Tue Jan 13 23:03:19 2026                                                                                               Page   61




 3410  62EA     A5 29       			lda	__stack_ptr+1
 3411  62EC     69 00       			adc	#.high.6
 3412  62EE     85 29       			sta	__stack_ptr+1
 3413  62F0     28          			plp
 3414                     			.c_end	01a5bh,229
 3415                     	;SysLcdPartClear(19,18*k+16,156,18*k+31)
 3416                     			.c_start  01a62h,230
 3417  62F1     A0 00       			ldy	#-1+?LSC2
 3418  62F3     B1 28       			lda	(__stack_ptr),y
 3419  62F5     85 23       			sta	__oper2
 3420  62F7     A9 12       			lda	#18
 3421  62F9     20 EF DC    			jsr	__uns_mult_char
 3422  62FC     18          			clc
 3423  62FD     69 10       			adc	#16
 3424  62FF     A0 01       			ldy	#+0+?LSC2
 3425  6301     91 28       			sta	(__stack_ptr),y
 3426  6303     A0 00       			ldy	#-1+?LSC2
 3427  6305     B1 28       			lda	(__stack_ptr),y
 3428  6307     85 23       			sta	__oper2
 3429  6309     A9 12       			lda	#18
 3430  630B     20 EF DC    			jsr	__uns_mult_char
 3431  630E     18          			clc
 3432  630F     69 1F       			adc	#31
 3433  6311     20 AA DA    			jsr	__store_char_funct_arg
 3434  6314     A9 9C       			lda	#.low.156
 3435  6316     85 20       			sta	__oper1
 3436  6318     A9 00       			lda	#.high.156
 3437  631A     85 21       			sta	__oper1+1
 3438  631C     A5 20       			lda	__oper1
 3439  631E     20 AA DA    			jsr	__store_char_funct_arg
 3440  6321     A0 03       			ldy	#+0+?LSC2+2
 3441  6323     B1 28       			lda	(__stack_ptr),y
 3442  6325     20 AA DA    			jsr	__store_char_funct_arg
 3443  6328     A9 13       			lda	#19
 3444  632A     A2 5D       			ldx	#.low.&SysLcdPartClear
 3445  632C     86 26       			stx	__addr_reg
 3446  632E     A2 E8       			ldx	#.high.&SysLcdPartClear+1
 3447  6330     86 27       			stx	__addr_reg+1
 3448                     			.bf_call
 3449  6332     20 F6 D2    			jsr	__banked_function_call
 3450  6335     08          			php
 3451  6336     78          			sei
 3452  6337     18          			clc
 3453  6338     A5 28       			lda	__stack_ptr
 3454  633A     69 03       			adc	#.low.3
 3455  633C     85 28       			sta	__stack_ptr
 3456  633E     A5 29       			lda	__stack_ptr+1
 3457  6340     69 00       			adc	#.high.3
 3458  6342     85 29       			sta	__stack_ptr+1
 3459  6344     28          			plp
 3460                     			.c_end	01a89h,230
 3461                     	;SysPicture(20,18*k+19,50,18*k+28,GameMTMonName+(unsigned int )(g_GameMTCheck[k+scoll]-38)*40,0)
 3462                     			.c_start  01a90h,231
 3463  6345     A0 00       			ldy	#-1+?LSC2
 3464  6347     B1 28       			lda	(__stack_ptr),y
 3465  6349     85 23       			sta	__oper2
 3466  634B     A9 12       			lda	#18
  Tue Jan 13 23:03:19 2026                                                                                               Page   62




 3467  634D     20 EF DC    			jsr	__uns_mult_char
 3468  6350     18          			clc
 3469  6351     69 13       			adc	#19
 3470  6353     A0 01       			ldy	#+0+?LSC2
 3471  6355     91 28       			sta	(__stack_ptr),y
 3472  6357     A0 00       			ldy	#-1+?LSC2
 3473  6359     B1 28       			lda	(__stack_ptr),y
 3474  635B     85 23       			sta	__oper2
 3475  635D     A9 12       			lda	#18
 3476  635F     20 EF DC    			jsr	__uns_mult_char
 3477  6362     18          			clc
 3478  6363     69 1C       			adc	#28
 3479  6365     A0 02       			ldy	#+1+?LSC2
 3480  6367     91 28       			sta	(__stack_ptr),y
 3481  6369     A0 00       			ldy	#-1+?LSC2
 3482  636B     B1 28       			lda	(__stack_ptr),y
 3483  636D     A0 05       			ldy	#+0+?LSC2+?TSC2
 3484  636F     18          			clc
 3485  6370     71 28       			adc	(__stack_ptr),y
 3486  6372     85 20       			sta	__oper1
 3487  6374     A9 00       			lda	#0
 3488  6376     85 21       			sta	__oper1+1
 3489  6378     18          			clc
 3490  6379     A5 20       			lda	__oper1
 3491  637B     69 96       			adc	#.low._g_GameMTCheck
 3492  637D     85 20       			sta	__oper1
 3493  637F     A5 21       			lda	__oper1+1
 3494  6381     69 1F       			adc	#.high._g_GameMTCheck
 3495  6383     85 21       			sta	__oper1+1
 3496  6385     A0 00       			ldy	#0
 3497  6387     B1 20       			lda	(__oper1),y
 3498  6389     38          			sec
 3499  638A     E9 26       			sbc	#38
 3500  638C     85 20       			sta	__oper1
 3501  638E     A9 00       			lda	#0
 3502  6390     85 21       			sta	__oper1+1
 3503  6392     A9 28       			lda	#.low.40
 3504  6394     85 23       			sta	__oper2
 3505  6396     A9 00       			lda	#.high.40
 3506  6398     85 24       			sta	__oper2+1
 3507  639A     20 F4 DC    			jsr	__uns_mult_int
 3508  639D     A5 20       			lda	__oper1
 3509  639F     85 23       			sta	__oper2
 3510  63A1     A5 21       			lda	__oper1+1
 3511  63A3     85 24       			sta	__oper2+1
 3512  63A5     A9 33       			lda	#.low._GameMTMonName
 3513  63A7     85 20       			sta	__oper1
 3514  63A9     A9 BF       			lda	#.high._GameMTMonName
 3515  63AB     85 21       			sta	__oper1+1
 3516  63AD     18          			clc
 3517  63AE     A5 20       			lda	__oper1
 3518  63B0     65 23       			adc	__oper2
 3519  63B2     85 20       			sta	__oper1
 3520  63B4     A5 21       			lda	__oper1+1
 3521  63B6     65 24       			adc	__oper2+1
 3522  63B8     85 21       			sta	__oper1+1
 3523  63BA     A0 03       			ldy	#+2+?LSC2
  Tue Jan 13 23:03:19 2026                                                                                               Page   63




 3524  63BC     A5 20       			lda	__oper1
 3525  63BE     91 28       			sta	(__stack_ptr),y
 3526  63C0     C8          			iny
 3527  63C1     A5 21       			lda	__oper1+1
 3528  63C3     91 28       			sta	(__stack_ptr),y
 3529  63C5     A9 00       			lda	#0
 3530  63C7     20 AA DA    			jsr	__store_char_funct_arg
 3531  63CA     A0 04       			ldy	#+2+?LSC2+1
 3532  63CC     B1 28       			lda	(__stack_ptr),y
 3533  63CE     85 20       			sta	__oper1
 3534  63D0     C8          			iny
 3535  63D1     B1 28       			lda	(__stack_ptr),y
 3536  63D3     85 21       			sta	__oper1+1
 3537  63D5     20 CA DA    			jsr	__store_int_funct_arg
 3538  63D8     A0 05       			ldy	#+1+?LSC2+3
 3539  63DA     B1 28       			lda	(__stack_ptr),y
 3540  63DC     20 AA DA    			jsr	__store_char_funct_arg
 3541  63DF     A9 32       			lda	#50
 3542  63E1     20 AA DA    			jsr	__store_char_funct_arg
 3543  63E4     A0 06       			ldy	#+0+?LSC2+5
 3544  63E6     B1 28       			lda	(__stack_ptr),y
 3545  63E8     20 AA DA    			jsr	__store_char_funct_arg
 3546  63EB     A9 14       			lda	#20
 3547  63ED     A2 8E       			ldx	#.low.&SysPicture
 3548  63EF     86 26       			stx	__addr_reg
 3549  63F1     A2 E7       			ldx	#.high.&SysPicture+1
 3550  63F3     86 27       			stx	__addr_reg+1
 3551                     			.bf_call
 3552  63F5     20 F6 D2    			jsr	__banked_function_call
 3553  63F8     08          			php
 3554  63F9     78          			sei
 3555  63FA     18          			clc
 3556  63FB     A5 28       			lda	__stack_ptr
 3557  63FD     69 06       			adc	#.low.6
 3558  63FF     85 28       			sta	__stack_ptr
 3559  6401     A5 29       			lda	__stack_ptr+1
 3560  6403     69 00       			adc	#.high.6
 3561  6405     85 29       			sta	__stack_ptr+1
 3562  6407     28          			plp
 3563                     			.c_end	01ae5h,231
 3564                     	;(g_GameMTCheck[k+scoll]==57&&g_GameMTFloor==21)
 3565                     			.if_top	01aech,?BOL51,3,232
 3566  6408     A0 00       			ldy	#-1+?LSC2
 3567  640A     B1 28       			lda	(__stack_ptr),y
 3568  640C     A0 05       			ldy	#+0+?LSC2+?TSC2
 3569  640E     18          			clc
 3570  640F     71 28       			adc	(__stack_ptr),y
 3571  6411     85 20       			sta	__oper1
 3572  6413     A9 00       			lda	#0
 3573  6415     85 21       			sta	__oper1+1
 3574  6417     18          			clc
 3575  6418     A5 20       			lda	__oper1
 3576  641A     69 96       			adc	#.low._g_GameMTCheck
 3577  641C     85 20       			sta	__oper1
 3578  641E     A5 21       			lda	__oper1+1
 3579  6420     69 1F       			adc	#.high._g_GameMTCheck
 3580  6422     85 21       			sta	__oper1+1
  Tue Jan 13 23:03:19 2026                                                                                               Page   64




 3581  6424     A0 00       			ldy	#0
 3582  6426     B1 20       			lda	(__oper1),y
 3583  6428     38          			sec
 3584  6429     E9 39       			sbc	#57
 3585  642B     F0 03       			beq	+3
 3586  642D     4C 65 64    			jmp	?BOL51
 3587         4513 6430   	?ACC9:		.equal	$
 3588  6430     AD A7 1F    			lda	_g_GameMTFloor
 3589  6433     38          			sec
 3590  6434     E9 15       			sbc	#21
 3591  6436     F0 03       			beq	+3
 3592  6438     4C 65 64    			jmp	?BOL51
 3593         3914 643B   	?PLC41:		.equal	$
 3594                     			.c_end	01b1ch,232
 3595                     	;g_GameMTCheck[k+scoll]=70
 3596                     			.c_start  01aech,232
 3597  643B     A0 00       			ldy	#-1+?LSC2
 3598  643D     B1 28       			lda	(__stack_ptr),y
 3599  643F     A0 05       			ldy	#+0+?LSC2+?TSC2
 3600  6441     18          			clc
 3601  6442     71 28       			adc	(__stack_ptr),y
 3602  6444     85 20       			sta	__oper1
 3603  6446     A9 00       			lda	#0
 3604  6448     85 21       			sta	__oper1+1
 3605  644A     18          			clc
 3606  644B     A5 20       			lda	__oper1
 3607  644D     69 96       			adc	#.low._g_GameMTCheck
 3608  644F     85 20       			sta	__oper1
 3609  6451     A5 21       			lda	__oper1+1
 3610  6453     69 1F       			adc	#.high._g_GameMTCheck
 3611  6455     85 21       			sta	__oper1+1
 3612  6457     A5 20       			lda	__oper1
 3613  6459     85 23       			sta	__oper2
 3614  645B     A5 21       			lda	__oper1+1
 3615  645D     85 24       			sta	__oper2+1
 3616  645F     A9 46       			lda	#70
 3617  6461     A0 00       			ldy	#0
 3618  6463     91 23       			sta	(__oper2),y
 3619                     			.c_end	01b36h,232
 3620                     	;;
 3621                     	;				
 3622                     	;(g_GameMTCheck[k+scoll]==47&&g_GameMTFloor==19)
 3623         3417 6465   	?BOL51:		.equal	$
 3624                     			.if_top	01b3dh,?BOL52,3,233
 3625  6465     A0 00       			ldy	#-1+?LSC2
 3626  6467     B1 28       			lda	(__stack_ptr),y
 3627  6469     A0 05       			ldy	#+0+?LSC2+?TSC2
 3628  646B     18          			clc
 3629  646C     71 28       			adc	(__stack_ptr),y
 3630  646E     85 20       			sta	__oper1
 3631  6470     A9 00       			lda	#0
 3632  6472     85 21       			sta	__oper1+1
 3633  6474     18          			clc
 3634  6475     A5 20       			lda	__oper1
 3635  6477     69 96       			adc	#.low._g_GameMTCheck
 3636  6479     85 20       			sta	__oper1
 3637  647B     A5 21       			lda	__oper1+1
  Tue Jan 13 23:03:19 2026                                                                                               Page   65




 3638  647D     69 1F       			adc	#.high._g_GameMTCheck
 3639  647F     85 21       			sta	__oper1+1
 3640  6481     A0 00       			ldy	#0
 3641  6483     B1 20       			lda	(__oper1),y
 3642  6485     38          			sec
 3643  6486     E9 2F       			sbc	#47
 3644  6488     F0 03       			beq	+3
 3645  648A     4C C2 64    			jmp	?BOL52
 3646         4219 648D   	?ACC10:		.equal	$
 3647  648D     AD A7 1F    			lda	_g_GameMTFloor
 3648  6490     38          			sec
 3649  6491     E9 13       			sbc	#19
 3650  6493     F0 03       			beq	+3
 3651  6495     4C C2 64    			jmp	?BOL52
 3652         361A 6498   	?PLC42:		.equal	$
 3653                     			.c_end	01b6dh,233
 3654                     	;g_GameMTCheck[k+scoll]=69
 3655                     			.c_start  01b3dh,233
 3656  6498     A0 00       			ldy	#-1+?LSC2
 3657  649A     B1 28       			lda	(__stack_ptr),y
 3658  649C     A0 05       			ldy	#+0+?LSC2+?TSC2
 3659  649E     18          			clc
 3660  649F     71 28       			adc	(__stack_ptr),y
 3661  64A1     85 20       			sta	__oper1
 3662  64A3     A9 00       			lda	#0
 3663  64A5     85 21       			sta	__oper1+1
 3664  64A7     18          			clc
 3665  64A8     A5 20       			lda	__oper1
 3666  64AA     69 96       			adc	#.low._g_GameMTCheck
 3667  64AC     85 20       			sta	__oper1
 3668  64AE     A5 21       			lda	__oper1+1
 3669  64B0     69 1F       			adc	#.high._g_GameMTCheck
 3670  64B2     85 21       			sta	__oper1+1
 3671  64B4     A5 20       			lda	__oper1
 3672  64B6     85 23       			sta	__oper2
 3673  64B8     A5 21       			lda	__oper1+1
 3674  64BA     85 24       			sta	__oper2+1
 3675  64BC     A9 45       			lda	#69
 3676  64BE     A0 00       			ldy	#0
 3677  64C0     91 23       			sta	(__oper2),y
 3678                     			.c_end	01b87h,233
 3679                     	;;
 3680                     	;				
 3681                     	;GameMTPrintNum(1,(unsigned long )GameMTMonData[g_GameMTCheck[k+scoll]-38][0],59,18*k+19)
 3682         3124 64C2   	?BOL52:		.equal	$
 3683                     			.c_start  01b8eh,234
 3684  64C2     A0 00       			ldy	#-1+?LSC2
 3685  64C4     B1 28       			lda	(__stack_ptr),y
 3686  64C6     A0 05       			ldy	#+0+?LSC2+?TSC2
 3687  64C8     18          			clc
 3688  64C9     71 28       			adc	(__stack_ptr),y
 3689  64CB     85 20       			sta	__oper1
 3690  64CD     A9 00       			lda	#0
 3691  64CF     85 21       			sta	__oper1+1
 3692  64D1     18          			clc
 3693  64D2     A5 20       			lda	__oper1
 3694  64D4     69 96       			adc	#.low._g_GameMTCheck
  Tue Jan 13 23:03:19 2026                                                                                               Page   66




 3695  64D6     85 20       			sta	__oper1
 3696  64D8     A5 21       			lda	__oper1+1
 3697  64DA     69 1F       			adc	#.high._g_GameMTCheck
 3698  64DC     85 21       			sta	__oper1+1
 3699  64DE     A0 00       			ldy	#0
 3700  64E0     B1 20       			lda	(__oper1),y
 3701  64E2     38          			sec
 3702  64E3     E9 26       			sbc	#38
 3703  64E5     85 23       			sta	__oper2
 3704  64E7     A2 00       			ldx	#0
 3705  64E9     86 24       			stx	__oper2+1
 3706  64EB     A9 05       			lda	#.low.5
 3707  64ED     85 20       			sta	__oper1
 3708  64EF     A9 00       			lda	#.high.5
 3709  64F1     85 21       			sta	__oper1+1
 3710  64F3     20 AF D6    			jsr	__mult_int
 3711  64F6     06 20       			asl	__oper1
 3712  64F8     26 21       			rol	__oper1+1
 3713  64FA     18          			clc
 3714  64FB     A5 20       			lda	__oper1
 3715  64FD     69 F6       			adc	#.low._GameMTMonData
 3716  64FF     85 20       			sta	__oper1
 3717  6501     A5 21       			lda	__oper1+1
 3718  6503     69 B2       			adc	#.high._GameMTMonData
 3719  6505     85 21       			sta	__oper1+1
 3720  6507     A0 01       			ldy	#+0+?LSC2
 3721  6509     A5 20       			lda	__oper1
 3722  650B     91 28       			sta	(__stack_ptr),y
 3723  650D     C8          			iny
 3724  650E     A5 21       			lda	__oper1+1
 3725  6510     91 28       			sta	(__stack_ptr),y
 3726  6512     A0 01       			ldy	#+0+?LSC2
 3727  6514     B1 28       			lda	(__stack_ptr),y
 3728  6516     AA          			tax
 3729  6517     C8          			iny
 3730  6518     B1 28       			lda	(__stack_ptr),y
 3731  651A     85 27       			sta	__addr_reg+1
 3732  651C     86 26       			stx	__addr_reg
 3733  651E     A0 00       			ldy	#0
 3734  6520     B1 26       			lda	(__addr_reg),y
 3735  6522     AA          			tax
 3736  6523     C8          			iny
 3737  6524     B1 26       			lda	(__addr_reg),y
 3738  6526     85 21       			sta	__oper1+1
 3739  6528     86 20       			stx	__oper1
 3740  652A     20 38 DD    			jsr	__uns_oper1_int_to_long
 3741  652D     A5 20       			lda	__oper1
 3742  652F     85 23       			sta	__oper2
 3743  6531     A5 21       			lda	__oper1+1
 3744  6533     85 24       			sta	__oper2+1
 3745  6535     18          			clc
 3746  6536     A5 28       			lda	__stack_ptr
 3747  6538     69 01       			adc	#.low.+0+?LSC2
 3748  653A     85 20       			sta	__oper1
 3749  653C     A5 29       			lda	__stack_ptr+1
 3750  653E     69 00       			adc	#.high.+0+?LSC2
 3751  6540     85 21       			sta	__oper1+1
  Tue Jan 13 23:03:19 2026                                                                                               Page   67




 3752  6542     20 E6 DA    			jsr	__store_long
 3753  6545     A0 00       			ldy	#-1+?LSC2
 3754  6547     B1 28       			lda	(__stack_ptr),y
 3755  6549     85 23       			sta	__oper2
 3756  654B     A9 12       			lda	#18
 3757  654D     20 EF DC    			jsr	__uns_mult_char
 3758  6550     18          			clc
 3759  6551     69 13       			adc	#19
 3760  6553     20 AA DA    			jsr	__store_char_funct_arg
 3761  6556     A9 3B       			lda	#59
 3762  6558     20 AA DA    			jsr	__store_char_funct_arg
 3763  655B     18          			clc
 3764  655C     A5 28       			lda	__stack_ptr
 3765  655E     69 03       			adc	#.low.+0+?LSC2+2
 3766  6560     85 20       			sta	__oper1
 3767  6562     A5 29       			lda	__stack_ptr+1
 3768  6564     69 00       			adc	#.high.+0+?LSC2+2
 3769  6566     85 21       			sta	__oper1+1
 3770  6568     20 FC DA    			jsr	__store_long_funct_arg
 3771  656B     A9 01       			lda	#1
 3772  656D     A2 39       			ldx	#.low.&GameMTPrintNum
 3773  656F     86 26       			stx	__addr_reg
 3774  6571     A2 90       			ldx	#.high.&GameMTPrintNum+1
 3775  6573     86 27       			stx	__addr_reg+1
 3776                     			.bf_call
 3777  6575     20 F6 D2    			jsr	__banked_function_call
 3778  6578     08          			php
 3779  6579     78          			sei
 3780  657A     18          			clc
 3781  657B     A5 28       			lda	__stack_ptr
 3782  657D     69 06       			adc	#.low.6
 3783  657F     85 28       			sta	__stack_ptr
 3784  6581     A5 29       			lda	__stack_ptr+1
 3785  6583     69 00       			adc	#.high.6
 3786  6585     85 29       			sta	__stack_ptr+1
 3787  6587     28          			plp
 3788                     			.c_end	01bdbh,234
 3789                     	;GameMTPrintNum(1,(unsigned long )GameMTMonData[g_GameMTCheck[k+scoll]-38][1],78,18*k+19)
 3790                     			.c_start  01be2h,235
 3791  6588     A0 00       			ldy	#-1+?LSC2
 3792  658A     B1 28       			lda	(__stack_ptr),y
 3793  658C     A0 05       			ldy	#+0+?LSC2+?TSC2
 3794  658E     18          			clc
 3795  658F     71 28       			adc	(__stack_ptr),y
 3796  6591     85 20       			sta	__oper1
 3797  6593     A9 00       			lda	#0
 3798  6595     85 21       			sta	__oper1+1
 3799  6597     18          			clc
 3800  6598     A5 20       			lda	__oper1
 3801  659A     69 96       			adc	#.low._g_GameMTCheck
 3802  659C     85 20       			sta	__oper1
 3803  659E     A5 21       			lda	__oper1+1
 3804  65A0     69 1F       			adc	#.high._g_GameMTCheck
 3805  65A2     85 21       			sta	__oper1+1
 3806  65A4     A0 00       			ldy	#0
 3807  65A6     B1 20       			lda	(__oper1),y
 3808  65A8     38          			sec
  Tue Jan 13 23:03:19 2026                                                                                               Page   68




 3809  65A9     E9 26       			sbc	#38
 3810  65AB     85 23       			sta	__oper2
 3811  65AD     A2 00       			ldx	#0
 3812  65AF     86 24       			stx	__oper2+1
 3813  65B1     A9 05       			lda	#.low.5
 3814  65B3     85 20       			sta	__oper1
 3815  65B5     A9 00       			lda	#.high.5
 3816  65B7     85 21       			sta	__oper1+1
 3817  65B9     20 AF D6    			jsr	__mult_int
 3818  65BC     06 20       			asl	__oper1
 3819  65BE     26 21       			rol	__oper1+1
 3820  65C0     18          			clc
 3821  65C1     A5 20       			lda	__oper1
 3822  65C3     69 F6       			adc	#.low._GameMTMonData
 3823  65C5     85 20       			sta	__oper1
 3824  65C7     A5 21       			lda	__oper1+1
 3825  65C9     69 B2       			adc	#.high._GameMTMonData
 3826  65CB     85 21       			sta	__oper1+1
 3827  65CD     A0 01       			ldy	#+0+?LSC2
 3828  65CF     A5 20       			lda	__oper1
 3829  65D1     91 28       			sta	(__stack_ptr),y
 3830  65D3     C8          			iny
 3831  65D4     A5 21       			lda	__oper1+1
 3832  65D6     91 28       			sta	(__stack_ptr),y
 3833  65D8     A0 01       			ldy	#+0+?LSC2
 3834  65DA     B1 28       			lda	(__stack_ptr),y
 3835  65DC     AA          			tax
 3836  65DD     C8          			iny
 3837  65DE     B1 28       			lda	(__stack_ptr),y
 3838  65E0     85 27       			sta	__addr_reg+1
 3839  65E2     86 26       			stx	__addr_reg
 3840  65E4     A0 02       			ldy	#2
 3841  65E6     B1 26       			lda	(__addr_reg),y
 3842  65E8     AA          			tax
 3843  65E9     C8          			iny
 3844  65EA     B1 26       			lda	(__addr_reg),y
 3845  65EC     85 21       			sta	__oper1+1
 3846  65EE     86 20       			stx	__oper1
 3847  65F0     20 38 DD    			jsr	__uns_oper1_int_to_long
 3848  65F3     A5 20       			lda	__oper1
 3849  65F5     85 23       			sta	__oper2
 3850  65F7     A5 21       			lda	__oper1+1
 3851  65F9     85 24       			sta	__oper2+1
 3852  65FB     18          			clc
 3853  65FC     A5 28       			lda	__stack_ptr
 3854  65FE     69 01       			adc	#.low.+0+?LSC2
 3855  6600     85 20       			sta	__oper1
 3856  6602     A5 29       			lda	__stack_ptr+1
 3857  6604     69 00       			adc	#.high.+0+?LSC2
 3858  6606     85 21       			sta	__oper1+1
 3859  6608     20 E6 DA    			jsr	__store_long
 3860  660B     A0 00       			ldy	#-1+?LSC2
 3861  660D     B1 28       			lda	(__stack_ptr),y
 3862  660F     85 23       			sta	__oper2
 3863  6611     A9 12       			lda	#18
 3864  6613     20 EF DC    			jsr	__uns_mult_char
 3865  6616     18          			clc
  Tue Jan 13 23:03:19 2026                                                                                               Page   69




 3866  6617     69 13       			adc	#19
 3867  6619     20 AA DA    			jsr	__store_char_funct_arg
 3868  661C     A9 4E       			lda	#78
 3869  661E     20 AA DA    			jsr	__store_char_funct_arg
 3870  6621     18          			clc
 3871  6622     A5 28       			lda	__stack_ptr
 3872  6624     69 03       			adc	#.low.+0+?LSC2+2
 3873  6626     85 20       			sta	__oper1
 3874  6628     A5 29       			lda	__stack_ptr+1
 3875  662A     69 00       			adc	#.high.+0+?LSC2+2
 3876  662C     85 21       			sta	__oper1+1
 3877  662E     20 FC DA    			jsr	__store_long_funct_arg
 3878  6631     A9 01       			lda	#1
 3879  6633     A2 39       			ldx	#.low.&GameMTPrintNum
 3880  6635     86 26       			stx	__addr_reg
 3881  6637     A2 90       			ldx	#.high.&GameMTPrintNum+1
 3882  6639     86 27       			stx	__addr_reg+1
 3883                     			.bf_call
 3884  663B     20 F6 D2    			jsr	__banked_function_call
 3885  663E     08          			php
 3886  663F     78          			sei
 3887  6640     18          			clc
 3888  6641     A5 28       			lda	__stack_ptr
 3889  6643     69 06       			adc	#.low.6
 3890  6645     85 28       			sta	__stack_ptr
 3891  6647     A5 29       			lda	__stack_ptr+1
 3892  6649     69 00       			adc	#.high.6
 3893  664B     85 29       			sta	__stack_ptr+1
 3894  664D     28          			plp
 3895                     			.c_end	01c2fh,235
 3896                     	;GameMTPrintNum(1,(unsigned long )GameMTMonData[g_GameMTCheck[k+scoll]-38][2],95,18*k+19)
 3897                     			.c_start  01c36h,236
 3898  664E     A0 00       			ldy	#-1+?LSC2
 3899  6650     B1 28       			lda	(__stack_ptr),y
 3900  6652     A0 05       			ldy	#+0+?LSC2+?TSC2
 3901  6654     18          			clc
 3902  6655     71 28       			adc	(__stack_ptr),y
 3903  6657     85 20       			sta	__oper1
 3904  6659     A9 00       			lda	#0
 3905  665B     85 21       			sta	__oper1+1
 3906  665D     18          			clc
 3907  665E     A5 20       			lda	__oper1
 3908  6660     69 96       			adc	#.low._g_GameMTCheck
 3909  6662     85 20       			sta	__oper1
 3910  6664     A5 21       			lda	__oper1+1
 3911  6666     69 1F       			adc	#.high._g_GameMTCheck
 3912  6668     85 21       			sta	__oper1+1
 3913  666A     A0 00       			ldy	#0
 3914  666C     B1 20       			lda	(__oper1),y
 3915  666E     38          			sec
 3916  666F     E9 26       			sbc	#38
 3917  6671     85 23       			sta	__oper2
 3918  6673     A2 00       			ldx	#0
 3919  6675     86 24       			stx	__oper2+1
 3920  6677     A9 05       			lda	#.low.5
 3921  6679     85 20       			sta	__oper1
 3922  667B     A9 00       			lda	#.high.5
  Tue Jan 13 23:03:19 2026                                                                                               Page   70




 3923  667D     85 21       			sta	__oper1+1
 3924  667F     20 AF D6    			jsr	__mult_int
 3925  6682     06 20       			asl	__oper1
 3926  6684     26 21       			rol	__oper1+1
 3927  6686     18          			clc
 3928  6687     A5 20       			lda	__oper1
 3929  6689     69 F6       			adc	#.low._GameMTMonData
 3930  668B     85 20       			sta	__oper1
 3931  668D     A5 21       			lda	__oper1+1
 3932  668F     69 B2       			adc	#.high._GameMTMonData
 3933  6691     85 21       			sta	__oper1+1
 3934  6693     A0 01       			ldy	#+0+?LSC2
 3935  6695     A5 20       			lda	__oper1
 3936  6697     91 28       			sta	(__stack_ptr),y
 3937  6699     C8          			iny
 3938  669A     A5 21       			lda	__oper1+1
 3939  669C     91 28       			sta	(__stack_ptr),y
 3940  669E     A0 01       			ldy	#+0+?LSC2
 3941  66A0     B1 28       			lda	(__stack_ptr),y
 3942  66A2     AA          			tax
 3943  66A3     C8          			iny
 3944  66A4     B1 28       			lda	(__stack_ptr),y
 3945  66A6     85 27       			sta	__addr_reg+1
 3946  66A8     86 26       			stx	__addr_reg
 3947  66AA     A0 04       			ldy	#4
 3948  66AC     B1 26       			lda	(__addr_reg),y
 3949  66AE     AA          			tax
 3950  66AF     C8          			iny
 3951  66B0     B1 26       			lda	(__addr_reg),y
 3952  66B2     85 21       			sta	__oper1+1
 3953  66B4     86 20       			stx	__oper1
 3954  66B6     20 38 DD    			jsr	__uns_oper1_int_to_long
 3955  66B9     A5 20       			lda	__oper1
 3956  66BB     85 23       			sta	__oper2
 3957  66BD     A5 21       			lda	__oper1+1
 3958  66BF     85 24       			sta	__oper2+1
 3959  66C1     18          			clc
 3960  66C2     A5 28       			lda	__stack_ptr
 3961  66C4     69 01       			adc	#.low.+0+?LSC2
 3962  66C6     85 20       			sta	__oper1
 3963  66C8     A5 29       			lda	__stack_ptr+1
 3964  66CA     69 00       			adc	#.high.+0+?LSC2
 3965  66CC     85 21       			sta	__oper1+1
 3966  66CE     20 E6 DA    			jsr	__store_long
 3967  66D1     A0 00       			ldy	#-1+?LSC2
 3968  66D3     B1 28       			lda	(__stack_ptr),y
 3969  66D5     85 23       			sta	__oper2
 3970  66D7     A9 12       			lda	#18
 3971  66D9     20 EF DC    			jsr	__uns_mult_char
 3972  66DC     18          			clc
 3973  66DD     69 13       			adc	#19
 3974  66DF     20 AA DA    			jsr	__store_char_funct_arg
 3975  66E2     A9 5F       			lda	#95
 3976  66E4     20 AA DA    			jsr	__store_char_funct_arg
 3977  66E7     18          			clc
 3978  66E8     A5 28       			lda	__stack_ptr
 3979  66EA     69 03       			adc	#.low.+0+?LSC2+2
  Tue Jan 13 23:03:19 2026                                                                                               Page   71




 3980  66EC     85 20       			sta	__oper1
 3981  66EE     A5 29       			lda	__stack_ptr+1
 3982  66F0     69 00       			adc	#.high.+0+?LSC2+2
 3983  66F2     85 21       			sta	__oper1+1
 3984  66F4     20 FC DA    			jsr	__store_long_funct_arg
 3985  66F7     A9 01       			lda	#1
 3986  66F9     A2 39       			ldx	#.low.&GameMTPrintNum
 3987  66FB     86 26       			stx	__addr_reg
 3988  66FD     A2 90       			ldx	#.high.&GameMTPrintNum+1
 3989  66FF     86 27       			stx	__addr_reg+1
 3990                     			.bf_call
 3991  6701     20 F6 D2    			jsr	__banked_function_call
 3992  6704     08          			php
 3993  6705     78          			sei
 3994  6706     18          			clc
 3995  6707     A5 28       			lda	__stack_ptr
 3996  6709     69 06       			adc	#.low.6
 3997  670B     85 28       			sta	__stack_ptr
 3998  670D     A5 29       			lda	__stack_ptr+1
 3999  670F     69 00       			adc	#.high.6
 4000  6711     85 29       			sta	__stack_ptr+1
 4001  6713     28          			plp
 4002                     			.c_end	01c83h,236
 4003                     	;GameMTPrintNum(1,(unsigned long )GameMTMonData[g_GameMTCheck[k+scoll]-38][3],110,18*k+19)
 4004                     			.c_start  01c8ah,237
 4005  6714     A0 00       			ldy	#-1+?LSC2
 4006  6716     B1 28       			lda	(__stack_ptr),y
 4007  6718     A0 05       			ldy	#+0+?LSC2+?TSC2
 4008  671A     18          			clc
 4009  671B     71 28       			adc	(__stack_ptr),y
 4010  671D     85 20       			sta	__oper1
 4011  671F     A9 00       			lda	#0
 4012  6721     85 21       			sta	__oper1+1
 4013  6723     18          			clc
 4014  6724     A5 20       			lda	__oper1
 4015  6726     69 96       			adc	#.low._g_GameMTCheck
 4016  6728     85 20       			sta	__oper1
 4017  672A     A5 21       			lda	__oper1+1
 4018  672C     69 1F       			adc	#.high._g_GameMTCheck
 4019  672E     85 21       			sta	__oper1+1
 4020  6730     A0 00       			ldy	#0
 4021  6732     B1 20       			lda	(__oper1),y
 4022  6734     38          			sec
 4023  6735     E9 26       			sbc	#38
 4024  6737     85 23       			sta	__oper2
 4025  6739     A2 00       			ldx	#0
 4026  673B     86 24       			stx	__oper2+1
 4027  673D     A9 05       			lda	#.low.5
 4028  673F     85 20       			sta	__oper1
 4029  6741     A9 00       			lda	#.high.5
 4030  6743     85 21       			sta	__oper1+1
 4031  6745     20 AF D6    			jsr	__mult_int
 4032  6748     06 20       			asl	__oper1
 4033  674A     26 21       			rol	__oper1+1
 4034  674C     18          			clc
 4035  674D     A5 20       			lda	__oper1
 4036  674F     69 F6       			adc	#.low._GameMTMonData
  Tue Jan 13 23:03:19 2026                                                                                               Page   72




 4037  6751     85 20       			sta	__oper1
 4038  6753     A5 21       			lda	__oper1+1
 4039  6755     69 B2       			adc	#.high._GameMTMonData
 4040  6757     85 21       			sta	__oper1+1
 4041  6759     A0 01       			ldy	#+0+?LSC2
 4042  675B     A5 20       			lda	__oper1
 4043  675D     91 28       			sta	(__stack_ptr),y
 4044  675F     C8          			iny
 4045  6760     A5 21       			lda	__oper1+1
 4046  6762     91 28       			sta	(__stack_ptr),y
 4047  6764     A0 01       			ldy	#+0+?LSC2
 4048  6766     B1 28       			lda	(__stack_ptr),y
 4049  6768     AA          			tax
 4050  6769     C8          			iny
 4051  676A     B1 28       			lda	(__stack_ptr),y
 4052  676C     85 27       			sta	__addr_reg+1
 4053  676E     86 26       			stx	__addr_reg
 4054  6770     A0 06       			ldy	#6
 4055  6772     B1 26       			lda	(__addr_reg),y
 4056  6774     AA          			tax
 4057  6775     C8          			iny
 4058  6776     B1 26       			lda	(__addr_reg),y
 4059  6778     85 21       			sta	__oper1+1
 4060  677A     86 20       			stx	__oper1
 4061  677C     20 38 DD    			jsr	__uns_oper1_int_to_long
 4062  677F     A5 20       			lda	__oper1
 4063  6781     85 23       			sta	__oper2
 4064  6783     A5 21       			lda	__oper1+1
 4065  6785     85 24       			sta	__oper2+1
 4066  6787     18          			clc
 4067  6788     A5 28       			lda	__stack_ptr
 4068  678A     69 01       			adc	#.low.+0+?LSC2
 4069  678C     85 20       			sta	__oper1
 4070  678E     A5 29       			lda	__stack_ptr+1
 4071  6790     69 00       			adc	#.high.+0+?LSC2
 4072  6792     85 21       			sta	__oper1+1
 4073  6794     20 E6 DA    			jsr	__store_long
 4074  6797     A0 00       			ldy	#-1+?LSC2
 4075  6799     B1 28       			lda	(__stack_ptr),y
 4076  679B     85 23       			sta	__oper2
 4077  679D     A9 12       			lda	#18
 4078  679F     20 EF DC    			jsr	__uns_mult_char
 4079  67A2     18          			clc
 4080  67A3     69 13       			adc	#19
 4081  67A5     20 AA DA    			jsr	__store_char_funct_arg
 4082  67A8     A9 6E       			lda	#110
 4083  67AA     20 AA DA    			jsr	__store_char_funct_arg
 4084  67AD     18          			clc
 4085  67AE     A5 28       			lda	__stack_ptr
 4086  67B0     69 03       			adc	#.low.+0+?LSC2+2
 4087  67B2     85 20       			sta	__oper1
 4088  67B4     A5 29       			lda	__stack_ptr+1
 4089  67B6     69 00       			adc	#.high.+0+?LSC2+2
 4090  67B8     85 21       			sta	__oper1+1
 4091  67BA     20 FC DA    			jsr	__store_long_funct_arg
 4092  67BD     A9 01       			lda	#1
 4093  67BF     A2 39       			ldx	#.low.&GameMTPrintNum
  Tue Jan 13 23:03:19 2026                                                                                               Page   73




 4094  67C1     86 26       			stx	__addr_reg
 4095  67C3     A2 90       			ldx	#.high.&GameMTPrintNum+1
 4096  67C5     86 27       			stx	__addr_reg+1
 4097                     			.bf_call
 4098  67C7     20 F6 D2    			jsr	__banked_function_call
 4099  67CA     08          			php
 4100  67CB     78          			sei
 4101  67CC     18          			clc
 4102  67CD     A5 28       			lda	__stack_ptr
 4103  67CF     69 06       			adc	#.low.6
 4104  67D1     85 28       			sta	__stack_ptr
 4105  67D3     A5 29       			lda	__stack_ptr+1
 4106  67D5     69 00       			adc	#.high.6
 4107  67D7     85 29       			sta	__stack_ptr+1
 4108  67D9     28          			plp
 4109                     			.c_end	01cd8h,237
 4110                     	;GameMTPrintNum(1,(unsigned long )GameMTMonData[g_GameMTCheck[k+scoll]-38][4],123,18*k+19)
 4111                     			.c_start  01cdfh,238
 4112  67DA     A0 00       			ldy	#-1+?LSC2
 4113  67DC     B1 28       			lda	(__stack_ptr),y
 4114  67DE     A0 05       			ldy	#+0+?LSC2+?TSC2
 4115  67E0     18          			clc
 4116  67E1     71 28       			adc	(__stack_ptr),y
 4117  67E3     85 20       			sta	__oper1
 4118  67E5     A9 00       			lda	#0
 4119  67E7     85 21       			sta	__oper1+1
 4120  67E9     18          			clc
 4121  67EA     A5 20       			lda	__oper1
 4122  67EC     69 96       			adc	#.low._g_GameMTCheck
 4123  67EE     85 20       			sta	__oper1
 4124  67F0     A5 21       			lda	__oper1+1
 4125  67F2     69 1F       			adc	#.high._g_GameMTCheck
 4126  67F4     85 21       			sta	__oper1+1
 4127  67F6     A0 00       			ldy	#0
 4128  67F8     B1 20       			lda	(__oper1),y
 4129  67FA     38          			sec
 4130  67FB     E9 26       			sbc	#38
 4131  67FD     85 23       			sta	__oper2
 4132  67FF     A2 00       			ldx	#0
 4133  6801     86 24       			stx	__oper2+1
 4134  6803     A9 05       			lda	#.low.5
 4135  6805     85 20       			sta	__oper1
 4136  6807     A9 00       			lda	#.high.5
 4137  6809     85 21       			sta	__oper1+1
 4138  680B     20 AF D6    			jsr	__mult_int
 4139  680E     06 20       			asl	__oper1
 4140  6810     26 21       			rol	__oper1+1
 4141  6812     18          			clc
 4142  6813     A5 20       			lda	__oper1
 4143  6815     69 F6       			adc	#.low._GameMTMonData
 4144  6817     85 20       			sta	__oper1
 4145  6819     A5 21       			lda	__oper1+1
 4146  681B     69 B2       			adc	#.high._GameMTMonData
 4147  681D     85 21       			sta	__oper1+1
 4148  681F     A0 01       			ldy	#+0+?LSC2
 4149  6821     A5 20       			lda	__oper1
 4150  6823     91 28       			sta	(__stack_ptr),y
  Tue Jan 13 23:03:19 2026                                                                                               Page   74




 4151  6825     C8          			iny
 4152  6826     A5 21       			lda	__oper1+1
 4153  6828     91 28       			sta	(__stack_ptr),y
 4154  682A     A0 01       			ldy	#+0+?LSC2
 4155  682C     B1 28       			lda	(__stack_ptr),y
 4156  682E     AA          			tax
 4157  682F     C8          			iny
 4158  6830     B1 28       			lda	(__stack_ptr),y
 4159  6832     85 27       			sta	__addr_reg+1
 4160  6834     86 26       			stx	__addr_reg
 4161  6836     A0 08       			ldy	#8
 4162  6838     B1 26       			lda	(__addr_reg),y
 4163  683A     AA          			tax
 4164  683B     C8          			iny
 4165  683C     B1 26       			lda	(__addr_reg),y
 4166  683E     85 21       			sta	__oper1+1
 4167  6840     86 20       			stx	__oper1
 4168  6842     20 38 DD    			jsr	__uns_oper1_int_to_long
 4169  6845     A5 20       			lda	__oper1
 4170  6847     85 23       			sta	__oper2
 4171  6849     A5 21       			lda	__oper1+1
 4172  684B     85 24       			sta	__oper2+1
 4173  684D     18          			clc
 4174  684E     A5 28       			lda	__stack_ptr
 4175  6850     69 01       			adc	#.low.+0+?LSC2
 4176  6852     85 20       			sta	__oper1
 4177  6854     A5 29       			lda	__stack_ptr+1
 4178  6856     69 00       			adc	#.high.+0+?LSC2
 4179  6858     85 21       			sta	__oper1+1
 4180  685A     20 E6 DA    			jsr	__store_long
 4181  685D     A0 00       			ldy	#-1+?LSC2
 4182  685F     B1 28       			lda	(__stack_ptr),y
 4183  6861     85 23       			sta	__oper2
 4184  6863     A9 12       			lda	#18
 4185  6865     20 EF DC    			jsr	__uns_mult_char
 4186  6868     18          			clc
 4187  6869     69 13       			adc	#19
 4188  686B     20 AA DA    			jsr	__store_char_funct_arg
 4189  686E     A9 7B       			lda	#123
 4190  6870     20 AA DA    			jsr	__store_char_funct_arg
 4191  6873     18          			clc
 4192  6874     A5 28       			lda	__stack_ptr
 4193  6876     69 03       			adc	#.low.+0+?LSC2+2
 4194  6878     85 20       			sta	__oper1
 4195  687A     A5 29       			lda	__stack_ptr+1
 4196  687C     69 00       			adc	#.high.+0+?LSC2+2
 4197  687E     85 21       			sta	__oper1+1
 4198  6880     20 FC DA    			jsr	__store_long_funct_arg
 4199  6883     A9 01       			lda	#1
 4200  6885     A2 39       			ldx	#.low.&GameMTPrintNum
 4201  6887     86 26       			stx	__addr_reg
 4202  6889     A2 90       			ldx	#.high.&GameMTPrintNum+1
 4203  688B     86 27       			stx	__addr_reg+1
 4204                     			.bf_call
 4205  688D     20 F6 D2    			jsr	__banked_function_call
 4206  6890     08          			php
 4207  6891     78          			sei
  Tue Jan 13 23:03:19 2026                                                                                               Page   75




 4208  6892     18          			clc
 4209  6893     A5 28       			lda	__stack_ptr
 4210  6895     69 06       			adc	#.low.6
 4211  6897     85 28       			sta	__stack_ptr
 4212  6899     A5 29       			lda	__stack_ptr+1
 4213  689B     69 00       			adc	#.high.6
 4214  689D     85 29       			sta	__stack_ptr+1
 4215  689F     28          			plp
 4216                     			.c_end	01d2dh,238
 4217                     	;(GameMTMonData[g_GameMTCheck[k+scoll]-38][2]<g_GameMTHeroDamige)
 4218                     	;				
 4219                     			.if_top	01d34h,?BOL53,3,239
 4220  68A0     A0 00       			ldy	#-1+?LSC2
 4221  68A2     B1 28       			lda	(__stack_ptr),y
 4222  68A4     A0 05       			ldy	#+0+?LSC2+?TSC2
 4223  68A6     18          			clc
 4224  68A7     71 28       			adc	(__stack_ptr),y
 4225  68A9     85 20       			sta	__oper1
 4226  68AB     A9 00       			lda	#0
 4227  68AD     85 21       			sta	__oper1+1
 4228  68AF     18          			clc
 4229  68B0     A5 20       			lda	__oper1
 4230  68B2     69 96       			adc	#.low._g_GameMTCheck
 4231  68B4     85 20       			sta	__oper1
 4232  68B6     A5 21       			lda	__oper1+1
 4233  68B8     69 1F       			adc	#.high._g_GameMTCheck
 4234  68BA     85 21       			sta	__oper1+1
 4235  68BC     A0 00       			ldy	#0
 4236  68BE     B1 20       			lda	(__oper1),y
 4237  68C0     38          			sec
 4238  68C1     E9 26       			sbc	#38
 4239  68C3     85 23       			sta	__oper2
 4240  68C5     A2 00       			ldx	#0
 4241  68C7     86 24       			stx	__oper2+1
 4242  68C9     A9 05       			lda	#.low.5
 4243  68CB     85 20       			sta	__oper1
 4244  68CD     A9 00       			lda	#.high.5
 4245  68CF     85 21       			sta	__oper1+1
 4246  68D1     20 AF D6    			jsr	__mult_int
 4247  68D4     06 20       			asl	__oper1
 4248  68D6     26 21       			rol	__oper1+1
 4249  68D8     18          			clc
 4250  68D9     A5 20       			lda	__oper1
 4251  68DB     69 F6       			adc	#.low._GameMTMonData
 4252  68DD     85 20       			sta	__oper1
 4253  68DF     A5 21       			lda	__oper1+1
 4254  68E1     69 B2       			adc	#.high._GameMTMonData
 4255  68E3     85 21       			sta	__oper1+1
 4256  68E5     A0 01       			ldy	#+0+?LSC2
 4257  68E7     A5 20       			lda	__oper1
 4258  68E9     91 28       			sta	(__stack_ptr),y
 4259  68EB     C8          			iny
 4260  68EC     A5 21       			lda	__oper1+1
 4261  68EE     91 28       			sta	(__stack_ptr),y
 4262  68F0     A0 01       			ldy	#+0+?LSC2
 4263  68F2     B1 28       			lda	(__stack_ptr),y
 4264  68F4     AA          			tax
  Tue Jan 13 23:03:19 2026                                                                                               Page   76




 4265  68F5     C8          			iny
 4266  68F6     B1 28       			lda	(__stack_ptr),y
 4267  68F8     85 27       			sta	__addr_reg+1
 4268  68FA     86 26       			stx	__addr_reg
 4269  68FC     A0 04       			ldy	#4
 4270  68FE     B1 26       			lda	(__addr_reg),y
 4271  6900     AA          			tax
 4272  6901     C8          			iny
 4273  6902     B1 26       			lda	(__addr_reg),y
 4274  6904     85 21       			sta	__oper1+1
 4275  6906     86 20       			stx	__oper1
 4276  6908     AD 9E 1F    			lda	_g_GameMTHeroDamige
 4277  690B     85 23       			sta	__oper2
 4278  690D     AD 9F 1F    			lda	_g_GameMTHeroDamige+1
 4279  6910     85 24       			sta	__oper2+1
 4280  6912     20 40 D3    			jsr	__cmp_int
 4281  6915     90 03       			bcc	+3
 4282  6917     4C 2B 6B    			jmp	?BOL53
 4283         3812 691A   	?PLC43:		.equal	$
 4284                     			.c_end	01d77h,240
 4285                     	;(GameMTMonData[g_GameMTCheck[k+scoll]-38][1]>g_GameMTHeroDefence)
 4286                     	;					
 4287                     			.if_top	01d84h,?BOL54,4,241
 4288  691A     A0 00       			ldy	#-1+?LSC2
 4289  691C     B1 28       			lda	(__stack_ptr),y
 4290  691E     A0 05       			ldy	#+0+?LSC2+?TSC2
 4291  6920     18          			clc
 4292  6921     71 28       			adc	(__stack_ptr),y
 4293  6923     85 20       			sta	__oper1
 4294  6925     A9 00       			lda	#0
 4295  6927     85 21       			sta	__oper1+1
 4296  6929     18          			clc
 4297  692A     A5 20       			lda	__oper1
 4298  692C     69 96       			adc	#.low._g_GameMTCheck
 4299  692E     85 20       			sta	__oper1
 4300  6930     A5 21       			lda	__oper1+1
 4301  6932     69 1F       			adc	#.high._g_GameMTCheck
 4302  6934     85 21       			sta	__oper1+1
 4303  6936     A0 00       			ldy	#0
 4304  6938     B1 20       			lda	(__oper1),y
 4305  693A     38          			sec
 4306  693B     E9 26       			sbc	#38
 4307  693D     85 23       			sta	__oper2
 4308  693F     A2 00       			ldx	#0
 4309  6941     86 24       			stx	__oper2+1
 4310  6943     A9 05       			lda	#.low.5
 4311  6945     85 20       			sta	__oper1
 4312  6947     A9 00       			lda	#.high.5
 4313  6949     85 21       			sta	__oper1+1
 4314  694B     20 AF D6    			jsr	__mult_int
 4315  694E     06 20       			asl	__oper1
 4316  6950     26 21       			rol	__oper1+1
 4317  6952     18          			clc
 4318  6953     A5 20       			lda	__oper1
 4319  6955     69 F6       			adc	#.low._GameMTMonData
 4320  6957     85 20       			sta	__oper1
 4321  6959     A5 21       			lda	__oper1+1
  Tue Jan 13 23:03:19 2026                                                                                               Page   77




 4322  695B     69 B2       			adc	#.high._GameMTMonData
 4323  695D     85 21       			sta	__oper1+1
 4324  695F     A0 01       			ldy	#+0+?LSC2
 4325  6961     A5 20       			lda	__oper1
 4326  6963     91 28       			sta	(__stack_ptr),y
 4327  6965     C8          			iny
 4328  6966     A5 21       			lda	__oper1+1
 4329  6968     91 28       			sta	(__stack_ptr),y
 4330  696A     A0 01       			ldy	#+0+?LSC2
 4331  696C     B1 28       			lda	(__stack_ptr),y
 4332  696E     AA          			tax
 4333  696F     C8          			iny
 4334  6970     B1 28       			lda	(__stack_ptr),y
 4335  6972     85 27       			sta	__addr_reg+1
 4336  6974     86 26       			stx	__addr_reg
 4337  6976     A0 02       			ldy	#2
 4338  6978     B1 26       			lda	(__addr_reg),y
 4339  697A     AA          			tax
 4340  697B     C8          			iny
 4341  697C     B1 26       			lda	(__addr_reg),y
 4342  697E     85 21       			sta	__oper1+1
 4343  6980     86 20       			stx	__oper1
 4344  6982     AD A0 1F    			lda	_g_GameMTHeroDefence
 4345  6985     85 23       			sta	__oper2
 4346  6987     AD A1 1F    			lda	_g_GameMTHeroDefence+1
 4347  698A     85 24       			sta	__oper2+1
 4348  698C     20 40 D3    			jsr	__cmp_int
 4349  698F     B0 03       			bcs	+3
 4350  6991     4C E2 6A    			jmp	?BOL54
 4351  6994     D0 03       			bne	+3
 4352  6996     4C E2 6A    			jmp	?BOL54
 4353         371A 6999   	?PLC44:		.equal	$
 4354                     			.c_end	01dc8h,242
 4355                     	;(GameMTCountLose(g_GameMTCheck[k+scoll]-38)<100000)
 4356                     	;							
 4357                     			.if_top	01dd7h,?BOL55,5,243
 4358  6999     A0 00       			ldy	#-1+?LSC2
 4359  699B     B1 28       			lda	(__stack_ptr),y
 4360  699D     A0 05       			ldy	#+0+?LSC2+?TSC2
 4361  699F     18          			clc
 4362  69A0     71 28       			adc	(__stack_ptr),y
 4363  69A2     85 20       			sta	__oper1
 4364  69A4     A9 00       			lda	#0
 4365  69A6     85 21       			sta	__oper1+1
 4366  69A8     18          			clc
 4367  69A9     A5 20       			lda	__oper1
 4368  69AB     69 96       			adc	#.low._g_GameMTCheck
 4369  69AD     85 20       			sta	__oper1
 4370  69AF     A5 21       			lda	__oper1+1
 4371  69B1     69 1F       			adc	#.high._g_GameMTCheck
 4372  69B3     85 21       			sta	__oper1+1
 4373  69B5     A0 00       			ldy	#0
 4374  69B7     B1 20       			lda	(__oper1),y
 4375  69B9     38          			sec
 4376  69BA     E9 26       			sbc	#38
 4377  69BC     A2 51       			ldx	#.low.&GameMTCountLose
 4378  69BE     86 26       			stx	__addr_reg
  Tue Jan 13 23:03:19 2026                                                                                               Page   78




 4379  69C0     A2 90       			ldx	#.high.&GameMTCountLose+1
 4380  69C2     86 27       			stx	__addr_reg+1
 4381                     			.bf_call
 4382  69C4     20 F6 D2    			jsr	__banked_function_call
 4383                     			.const_data_psfar
 4384  8D93     A086 0100   	?CGL0:	.long	100000
 4385                     			.program_psfar
 4386  69C7     A2 93       			ldx	#.low.?CGL0
 4387  69C9     86 23       			stx	__oper2
 4388  69CB     A2 8D       			ldx	#.high.?CGL0
 4389  69CD     86 24       			stx	__oper2+1
 4390  69CF     20 62 D3    			jsr	__cmp_long
 4391  69D2     90 03       			bcc	+3
 4392  69D4     4C 6B 6A    			jmp	?BOL55
 4393         3525 69D7   	?PLC45:		.equal	$
 4394                     			.c_end	01e0dh,244
 4395                     	;GameMTPrintNum(1,GameMTCountLose(g_GameMTCheck[k+scoll]-38),143,18*k+19)
 4396                     			.c_start  01e15h,244
 4397  69D7     A0 00       			ldy	#-1+?LSC2
 4398  69D9     B1 28       			lda	(__stack_ptr),y
 4399  69DB     A0 05       			ldy	#+0+?LSC2+?TSC2
 4400  69DD     18          			clc
 4401  69DE     71 28       			adc	(__stack_ptr),y
 4402  69E0     85 20       			sta	__oper1
 4403  69E2     A9 00       			lda	#0
 4404  69E4     85 21       			sta	__oper1+1
 4405  69E6     18          			clc
 4406  69E7     A5 20       			lda	__oper1
 4407  69E9     69 96       			adc	#.low._g_GameMTCheck
 4408  69EB     85 20       			sta	__oper1
 4409  69ED     A5 21       			lda	__oper1+1
 4410  69EF     69 1F       			adc	#.high._g_GameMTCheck
 4411  69F1     85 21       			sta	__oper1+1
 4412  69F3     A0 00       			ldy	#0
 4413  69F5     B1 20       			lda	(__oper1),y
 4414  69F7     38          			sec
 4415  69F8     E9 26       			sbc	#38
 4416  69FA     A2 51       			ldx	#.low.&GameMTCountLose
 4417  69FC     86 26       			stx	__addr_reg
 4418  69FE     A2 90       			ldx	#.high.&GameMTCountLose+1
 4419  6A00     86 27       			stx	__addr_reg+1
 4420                     			.bf_call
 4421  6A02     20 F6 D2    			jsr	__banked_function_call
 4422  6A05     A5 20       			lda	__oper1
 4423  6A07     85 23       			sta	__oper2
 4424  6A09     A5 21       			lda	__oper1+1
 4425  6A0B     85 24       			sta	__oper2+1
 4426  6A0D     18          			clc
 4427  6A0E     A5 28       			lda	__stack_ptr
 4428  6A10     69 01       			adc	#.low.+0+?LSC2
 4429  6A12     85 20       			sta	__oper1
 4430  6A14     A5 29       			lda	__stack_ptr+1
 4431  6A16     69 00       			adc	#.high.+0+?LSC2
 4432  6A18     85 21       			sta	__oper1+1
 4433  6A1A     20 E6 DA    			jsr	__store_long
 4434  6A1D     A0 00       			ldy	#-1+?LSC2
 4435  6A1F     B1 28       			lda	(__stack_ptr),y
  Tue Jan 13 23:03:19 2026                                                                                               Page   79




 4436  6A21     85 23       			sta	__oper2
 4437  6A23     A9 12       			lda	#18
 4438  6A25     20 EF DC    			jsr	__uns_mult_char
 4439  6A28     18          			clc
 4440  6A29     69 13       			adc	#19
 4441  6A2B     20 AA DA    			jsr	__store_char_funct_arg
 4442  6A2E     A9 8F       			lda	#.low.143
 4443  6A30     85 20       			sta	__oper1
 4444  6A32     A9 00       			lda	#.high.143
 4445  6A34     85 21       			sta	__oper1+1
 4446  6A36     A5 20       			lda	__oper1
 4447  6A38     20 AA DA    			jsr	__store_char_funct_arg
 4448  6A3B     18          			clc
 4449  6A3C     A5 28       			lda	__stack_ptr
 4450  6A3E     69 03       			adc	#.low.+0+?LSC2+2
 4451  6A40     85 20       			sta	__oper1
 4452  6A42     A5 29       			lda	__stack_ptr+1
 4453  6A44     69 00       			adc	#.high.+0+?LSC2+2
 4454  6A46     85 21       			sta	__oper1+1
 4455  6A48     20 FC DA    			jsr	__store_long_funct_arg
 4456  6A4B     A9 01       			lda	#1
 4457  6A4D     A2 39       			ldx	#.low.&GameMTPrintNum
 4458  6A4F     86 26       			stx	__addr_reg
 4459  6A51     A2 90       			ldx	#.high.&GameMTPrintNum+1
 4460  6A53     86 27       			stx	__addr_reg+1
 4461                     			.bf_call
 4462  6A55     20 F6 D2    			jsr	__banked_function_call
 4463  6A58     08          			php
 4464  6A59     78          			sei
 4465  6A5A     18          			clc
 4466  6A5B     A5 28       			lda	__stack_ptr
 4467  6A5D     69 06       			adc	#.low.6
 4468  6A5F     85 28       			sta	__stack_ptr
 4469  6A61     A5 29       			lda	__stack_ptr+1
 4470  6A63     69 00       			adc	#.high.6
 4471  6A65     85 29       			sta	__stack_ptr+1
 4472  6A67     28          			plp
 4473                     			.c_end	01e5dh,244
 4474                     	;;
 4475                     	;						
 4476                     	;else 
 4477  6A68     4C DF 6A    			jmp	?EOI55
 4478                     			.if_else  ?EOI55,5,245
 4479         3917 6A6B   	?BOL55:		.equal	$
 4480                     	;SysPicture(131,18*k+19,153,18*k+27,GameMTUnknown,0)
 4481                     			.c_start  01e6bh,245
 4482  6A6B     A0 00       			ldy	#-1+?LSC2
 4483  6A6D     B1 28       			lda	(__stack_ptr),y
 4484  6A6F     85 23       			sta	__oper2
 4485  6A71     A9 12       			lda	#18
 4486  6A73     20 EF DC    			jsr	__uns_mult_char
 4487  6A76     18          			clc
 4488  6A77     69 13       			adc	#19
 4489  6A79     A0 01       			ldy	#+0+?LSC2
 4490  6A7B     91 28       			sta	(__stack_ptr),y
 4491  6A7D     A0 00       			ldy	#-1+?LSC2
 4492  6A7F     B1 28       			lda	(__stack_ptr),y
  Tue Jan 13 23:03:19 2026                                                                                               Page   80




 4493  6A81     85 23       			sta	__oper2
 4494  6A83     A9 12       			lda	#18
 4495  6A85     20 EF DC    			jsr	__uns_mult_char
 4496  6A88     18          			clc
 4497  6A89     69 1B       			adc	#27
 4498  6A8B     A0 02       			ldy	#+1+?LSC2
 4499  6A8D     91 28       			sta	(__stack_ptr),y
 4500  6A8F     A9 00       			lda	#0
 4501  6A91     20 AA DA    			jsr	__store_char_funct_arg
 4502  6A94     A9 18       			lda	#.low._GameMTUnknown
 4503  6A96     85 20       			sta	__oper1
 4504  6A98     A9 BF       			lda	#.high._GameMTUnknown
 4505  6A9A     85 21       			sta	__oper1+1
 4506  6A9C     20 CA DA    			jsr	__store_int_funct_arg
 4507  6A9F     A0 05       			ldy	#+1+?LSC2+3
 4508  6AA1     B1 28       			lda	(__stack_ptr),y
 4509  6AA3     20 AA DA    			jsr	__store_char_funct_arg
 4510  6AA6     A9 99       			lda	#.low.153
 4511  6AA8     85 20       			sta	__oper1
 4512  6AAA     A9 00       			lda	#.high.153
 4513  6AAC     85 21       			sta	__oper1+1
 4514  6AAE     A5 20       			lda	__oper1
 4515  6AB0     20 AA DA    			jsr	__store_char_funct_arg
 4516  6AB3     A0 06       			ldy	#+0+?LSC2+5
 4517  6AB5     B1 28       			lda	(__stack_ptr),y
 4518  6AB7     20 AA DA    			jsr	__store_char_funct_arg
 4519  6ABA     A9 83       			lda	#.low.131
 4520  6ABC     85 20       			sta	__oper1
 4521  6ABE     A9 00       			lda	#.high.131
 4522  6AC0     85 21       			sta	__oper1+1
 4523  6AC2     A5 20       			lda	__oper1
 4524  6AC4     A2 8E       			ldx	#.low.&SysPicture
 4525  6AC6     86 26       			stx	__addr_reg
 4526  6AC8     A2 E7       			ldx	#.high.&SysPicture+1
 4527  6ACA     86 27       			stx	__addr_reg+1
 4528                     			.bf_call
 4529  6ACC     20 F6 D2    			jsr	__banked_function_call
 4530  6ACF     08          			php
 4531  6AD0     78          			sei
 4532  6AD1     18          			clc
 4533  6AD2     A5 28       			lda	__stack_ptr
 4534  6AD4     69 06       			adc	#.low.6
 4535  6AD6     85 28       			sta	__stack_ptr
 4536  6AD8     A5 29       			lda	__stack_ptr+1
 4537  6ADA     69 00       			adc	#.high.6
 4538  6ADC     85 29       			sta	__stack_ptr+1
 4539  6ADE     28          			plp
 4540                     			.c_end	01e9eh,245
 4541                     	;;
 4542                     	;					
 4543         4625 6ADF   	?EOI55:		.equal	$
 4544                     	;
 4545                     	;else	
 4546  6ADF     4C 28 6B    			jmp	?EOI54
 4547                     			.if_else  ?EOI54,4,247
 4548         4725 6AE2   	?BOL54:		.equal	$
 4549                     	;GameMTPrintNum(1,0,143,18*k+19)
  Tue Jan 13 23:03:19 2026                                                                                               Page   81




 4550                     			.c_start  01eb3h,247
 4551  6AE2     A0 00       			ldy	#-1+?LSC2
 4552  6AE4     B1 28       			lda	(__stack_ptr),y
 4553  6AE6     85 23       			sta	__oper2
 4554  6AE8     A9 12       			lda	#18
 4555  6AEA     20 EF DC    			jsr	__uns_mult_char
 4556  6AED     18          			clc
 4557  6AEE     69 13       			adc	#19
 4558  6AF0     20 AA DA    			jsr	__store_char_funct_arg
 4559  6AF3     A9 8F       			lda	#.low.143
 4560  6AF5     85 20       			sta	__oper1
 4561  6AF7     A9 00       			lda	#.high.143
 4562  6AF9     85 21       			sta	__oper1+1
 4563  6AFB     A5 20       			lda	__oper1
 4564  6AFD     20 AA DA    			jsr	__store_char_funct_arg
 4565                     			.const_data_psfar
 4566  8D97     0000 0000   	?CGL1:	.long	0
 4567                     			.program_psfar
 4568  6B00     A9 97       			lda	#.low.?CGL1
 4569  6B02     85 20       			sta	__oper1
 4570  6B04     A9 8D       			lda	#.high.?CGL1
 4571  6B06     85 21       			sta	__oper1+1
 4572  6B08     20 FC DA    			jsr	__store_long_funct_arg
 4573  6B0B     A9 01       			lda	#1
 4574  6B0D     A2 39       			ldx	#.low.&GameMTPrintNum
 4575  6B0F     86 26       			stx	__addr_reg
 4576  6B11     A2 90       			ldx	#.high.&GameMTPrintNum+1
 4577  6B13     86 27       			stx	__addr_reg+1
 4578                     			.bf_call
 4579  6B15     20 F6 D2    			jsr	__banked_function_call
 4580  6B18     08          			php
 4581  6B19     78          			sei
 4582  6B1A     18          			clc
 4583  6B1B     A5 28       			lda	__stack_ptr
 4584  6B1D     69 06       			adc	#.low.6
 4585  6B1F     85 28       			sta	__stack_ptr
 4586  6B21     A5 29       			lda	__stack_ptr+1
 4587  6B23     69 00       			adc	#.high.6
 4588  6B25     85 29       			sta	__stack_ptr+1
 4589  6B27     28          			plp
 4590                     			.c_end	01ed2h,247
 4591                     	;;
 4592                     	;				
 4593         3813 6B28   	?EOI54:		.equal	$
 4594                     	;
 4595                     	;else	
 4596  6B28     4C 9F 6B    			jmp	?EOI53
 4597                     			.if_else  ?EOI53,3,249
 4598         3913 6B2B   	?BOL53:		.equal	$
 4599                     	;SysPicture(131,18*k+19,153,18*k+27,GameMTUnknown,0)
 4600                     			.c_start  01ee5h,249
 4601  6B2B     A0 00       			ldy	#-1+?LSC2
 4602  6B2D     B1 28       			lda	(__stack_ptr),y
 4603  6B2F     85 23       			sta	__oper2
 4604  6B31     A9 12       			lda	#18
 4605  6B33     20 EF DC    			jsr	__uns_mult_char
 4606  6B36     18          			clc
  Tue Jan 13 23:03:19 2026                                                                                               Page   82




 4607  6B37     69 13       			adc	#19
 4608  6B39     A0 01       			ldy	#+0+?LSC2
 4609  6B3B     91 28       			sta	(__stack_ptr),y
 4610  6B3D     A0 00       			ldy	#-1+?LSC2
 4611  6B3F     B1 28       			lda	(__stack_ptr),y
 4612  6B41     85 23       			sta	__oper2
 4613  6B43     A9 12       			lda	#18
 4614  6B45     20 EF DC    			jsr	__uns_mult_char
 4615  6B48     18          			clc
 4616  6B49     69 1B       			adc	#27
 4617  6B4B     A0 02       			ldy	#+1+?LSC2
 4618  6B4D     91 28       			sta	(__stack_ptr),y
 4619  6B4F     A9 00       			lda	#0
 4620  6B51     20 AA DA    			jsr	__store_char_funct_arg
 4621  6B54     A9 18       			lda	#.low._GameMTUnknown
 4622  6B56     85 20       			sta	__oper1
 4623  6B58     A9 BF       			lda	#.high._GameMTUnknown
 4624  6B5A     85 21       			sta	__oper1+1
 4625  6B5C     20 CA DA    			jsr	__store_int_funct_arg
 4626  6B5F     A0 05       			ldy	#+1+?LSC2+3
 4627  6B61     B1 28       			lda	(__stack_ptr),y
 4628  6B63     20 AA DA    			jsr	__store_char_funct_arg
 4629  6B66     A9 99       			lda	#.low.153
 4630  6B68     85 20       			sta	__oper1
 4631  6B6A     A9 00       			lda	#.high.153
 4632  6B6C     85 21       			sta	__oper1+1
 4633  6B6E     A5 20       			lda	__oper1
 4634  6B70     20 AA DA    			jsr	__store_char_funct_arg
 4635  6B73     A0 06       			ldy	#+0+?LSC2+5
 4636  6B75     B1 28       			lda	(__stack_ptr),y
 4637  6B77     20 AA DA    			jsr	__store_char_funct_arg
 4638  6B7A     A9 83       			lda	#.low.131
 4639  6B7C     85 20       			sta	__oper1
 4640  6B7E     A9 00       			lda	#.high.131
 4641  6B80     85 21       			sta	__oper1+1
 4642  6B82     A5 20       			lda	__oper1
 4643  6B84     A2 8E       			ldx	#.low.&SysPicture
 4644  6B86     86 26       			stx	__addr_reg
 4645  6B88     A2 E7       			ldx	#.high.&SysPicture+1
 4646  6B8A     86 27       			stx	__addr_reg+1
 4647                     			.bf_call
 4648  6B8C     20 F6 D2    			jsr	__banked_function_call
 4649  6B8F     08          			php
 4650  6B90     78          			sei
 4651  6B91     18          			clc
 4652  6B92     A5 28       			lda	__stack_ptr
 4653  6B94     69 06       			adc	#.low.6
 4654  6B96     85 28       			sta	__stack_ptr
 4655  6B98     A5 29       			lda	__stack_ptr+1
 4656  6B9A     69 00       			adc	#.high.6
 4657  6B9C     85 29       			sta	__stack_ptr+1
 4658  6B9E     28          			plp
 4659                     			.c_end	01f18h,249
 4660                     	;;
 4661                     	;			
 4662         461A 6B9F   	?EOI53:		.equal	$
 4663                     	;
  Tue Jan 13 23:03:19 2026                                                                                               Page   83




 4664         46FB 6B9F   	?BOL50:		.equal	$
 4665                     			.for_bot  1,250
 4666  6B9F     4C FD 61    			jmp	?FLA49
 4667         471A 6BA2   	?BOL49:		.equal	$
 4668                     	;(g_GameMTCheck[k+scoll]==70)
 4669                     			.if_top	01f24h,?BOL56,1,251
 4670  6BA2     A0 00       			ldy	#-1+?LSC2
 4671  6BA4     B1 28       			lda	(__stack_ptr),y
 4672  6BA6     A0 05       			ldy	#+0+?LSC2+?TSC2
 4673  6BA8     18          			clc
 4674  6BA9     71 28       			adc	(__stack_ptr),y
 4675  6BAB     85 20       			sta	__oper1
 4676  6BAD     A9 00       			lda	#0
 4677  6BAF     85 21       			sta	__oper1+1
 4678  6BB1     18          			clc
 4679  6BB2     A5 20       			lda	__oper1
 4680  6BB4     69 96       			adc	#.low._g_GameMTCheck
 4681  6BB6     85 20       			sta	__oper1
 4682  6BB8     A5 21       			lda	__oper1+1
 4683  6BBA     69 1F       			adc	#.high._g_GameMTCheck
 4684  6BBC     85 21       			sta	__oper1+1
 4685  6BBE     A0 00       			ldy	#0
 4686  6BC0     B1 20       			lda	(__oper1),y
 4687  6BC2     38          			sec
 4688  6BC3     E9 46       			sbc	#70
 4689  6BC5     F0 03       			beq	+3
 4690  6BC7     4C F4 6B    			jmp	?BOL56
 4691         3824 6BCA   	?PLC46:		.equal	$
 4692                     			.c_end	01f41h,251
 4693                     	;g_GameMTCheck[k+scoll]=57
 4694                     			.c_start  01f24h,251
 4695  6BCA     A0 00       			ldy	#-1+?LSC2
 4696  6BCC     B1 28       			lda	(__stack_ptr),y
 4697  6BCE     A0 05       			ldy	#+0+?LSC2+?TSC2
 4698  6BD0     18          			clc
 4699  6BD1     71 28       			adc	(__stack_ptr),y
 4700  6BD3     85 20       			sta	__oper1
 4701  6BD5     A9 00       			lda	#0
 4702  6BD7     85 21       			sta	__oper1+1
 4703  6BD9     18          			clc
 4704  6BDA     A5 20       			lda	__oper1
 4705  6BDC     69 96       			adc	#.low._g_GameMTCheck
 4706  6BDE     85 20       			sta	__oper1
 4707  6BE0     A5 21       			lda	__oper1+1
 4708  6BE2     69 1F       			adc	#.high._g_GameMTCheck
 4709  6BE4     85 21       			sta	__oper1+1
 4710  6BE6     A5 20       			lda	__oper1
 4711  6BE8     85 23       			sta	__oper2
 4712  6BEA     A5 21       			lda	__oper1+1
 4713  6BEC     85 24       			sta	__oper2+1
 4714  6BEE     A9 39       			lda	#57
 4715  6BF0     A0 00       			ldy	#0
 4716  6BF2     91 23       			sta	(__oper2),y
 4717                     			.c_end	01f5bh,251
 4718                     	;;
 4719                     	;			
 4720                     	;(g_GameMTCheck[k+scoll]==69)
  Tue Jan 13 23:03:19 2026                                                                                               Page   84




 4721         3327 6BF4   	?BOL56:		.equal	$
 4722                     			.if_top	01f61h,?BOL57,1,252
 4723  6BF4     A0 00       			ldy	#-1+?LSC2
 4724  6BF6     B1 28       			lda	(__stack_ptr),y
 4725  6BF8     A0 05       			ldy	#+0+?LSC2+?TSC2
 4726  6BFA     18          			clc
 4727  6BFB     71 28       			adc	(__stack_ptr),y
 4728  6BFD     85 20       			sta	__oper1
 4729  6BFF     A9 00       			lda	#0
 4730  6C01     85 21       			sta	__oper1+1
 4731  6C03     18          			clc
 4732  6C04     A5 20       			lda	__oper1
 4733  6C06     69 96       			adc	#.low._g_GameMTCheck
 4734  6C08     85 20       			sta	__oper1
 4735  6C0A     A5 21       			lda	__oper1+1
 4736  6C0C     69 1F       			adc	#.high._g_GameMTCheck
 4737  6C0E     85 21       			sta	__oper1+1
 4738  6C10     A0 00       			ldy	#0
 4739  6C12     B1 20       			lda	(__oper1),y
 4740  6C14     38          			sec
 4741  6C15     E9 45       			sbc	#69
 4742  6C17     F0 03       			beq	+3
 4743  6C19     4C 46 6C    			jmp	?BOL57
 4744         3A12 6C1C   	?PLC47:		.equal	$
 4745                     			.c_end	01f7eh,252
 4746                     	;g_GameMTCheck[k+scoll]=47
 4747                     			.c_start  01f61h,252
 4748  6C1C     A0 00       			ldy	#-1+?LSC2
 4749  6C1E     B1 28       			lda	(__stack_ptr),y
 4750  6C20     A0 05       			ldy	#+0+?LSC2+?TSC2
 4751  6C22     18          			clc
 4752  6C23     71 28       			adc	(__stack_ptr),y
 4753  6C25     85 20       			sta	__oper1
 4754  6C27     A9 00       			lda	#0
 4755  6C29     85 21       			sta	__oper1+1
 4756  6C2B     18          			clc
 4757  6C2C     A5 20       			lda	__oper1
 4758  6C2E     69 96       			adc	#.low._g_GameMTCheck
 4759  6C30     85 20       			sta	__oper1
 4760  6C32     A5 21       			lda	__oper1+1
 4761  6C34     69 1F       			adc	#.high._g_GameMTCheck
 4762  6C36     85 21       			sta	__oper1+1
 4763  6C38     A5 20       			lda	__oper1
 4764  6C3A     85 23       			sta	__oper2
 4765  6C3C     A5 21       			lda	__oper1+1
 4766  6C3E     85 24       			sta	__oper2+1
 4767  6C40     A9 2F       			lda	#47
 4768  6C42     A0 00       			ldy	#0
 4769  6C44     91 23       			sta	(__oper2),y
 4770                     			.c_end	01f98h,252
 4771                     	;;
 4772                     	;
 4773                     	;
 4774         3515 6C46   	?BOL57:		.equal	$
 4775                     			.f_end	01f9bh,253
 4776         35F6 6C46   	?BOF2:		.equal	$
 4777  6C46     08          			php
  Tue Jan 13 23:03:19 2026                                                                                               Page   85




 4778  6C47     78          			sei
 4779  6C48     18          			clc
 4780  6C49     A5 28       			lda	__stack_ptr
 4781  6C4B     69 06       			adc	#.low.+?LSC2+?TSC2+1
 4782  6C4D     85 28       			sta	__stack_ptr
 4783  6C4F     A5 29       			lda	__stack_ptr+1
 4784  6C51     69 00       			adc	#.high.+?LSC2+?TSC2+1
 4785  6C53     85 29       			sta	__stack_ptr+1
 4786  6C55     28          			plp
 4787                     			.f_return
 4788  6C56     60          			rts
 4789                     	;
 4790                     			.f_start  02167h,265
 4791                     			.bank_table
 4792                     			.global	&GameMTCountLose
 4793  9051     57 6C E1    	&GameMTCountLose:	.bankaddr	_GameMTCountLose
 4794                     			.ends
 4795         3216 6C57   	_GameMTCountLose:	.equal	$
 4796                     			.attrib	_GameMTCountLose,266,f,b
 4797  6C57     20 AA DA    			jsr	__store_char_funct_arg
 4798                     	;
 4799                     	;
 4800         0000        	?ASC3:		.equal	0
 4801         0006        	?TSC3:		.equal	6
 4802         0004        	?LSC3:		.equal	4
 4803  6C5A     08          			php
 4804  6C5B     78          			sei
 4805  6C5C     38          			sec
 4806  6C5D     A5 28       			lda	__stack_ptr
 4807  6C5F     E9 0A       			sbc	#.low.+?LSC3+?TSC3
 4808  6C61     85 28       			sta	__stack_ptr
 4809  6C63     A5 29       			lda	__stack_ptr+1
 4810  6C65     E9 00       			sbc	#.high.+?LSC3+?TSC3
 4811  6C67     85 29       			sta	__stack_ptr+1
 4812  6C69     28          			plp
 4813                     	;{
 4814                     			.local	_monster,266,v,c,u,d,d,d,d,0+?LSC3+?TSC3+0,00h
 4815                     	;unsigned long  count;
 4816                     	;		
 4817                     			.local	_count,267,v,l,u,d,d,d,d,-4+?LSC3+0,00h
 4818                     	;count=(unsigned long )(GameMTMonData[monster][0]/(g_GameMTHeroDamige-GameMTMonData[monster][2])-((GameMTMonData[mon
                            ster][0]%(g_GameMTHeroDamige-GameMTMonData[monster][2])+1)==1)+1)*(GameMTMonData[monster][1]-g_GameMTHer
                            oDefence)
 4819                     			.c_start  02196h,268
 4820  6C6A     A9 05       			lda	#.low.5
 4821  6C6C     85 23       			sta	__oper2
 4822  6C6E     A9 00       			lda	#.high.5
 4823  6C70     85 24       			sta	__oper2+1
 4824  6C72     A0 0A       			ldy	#+0+?LSC3+?TSC3
 4825  6C74     B1 28       			lda	(__stack_ptr),y
 4826  6C76     85 20       			sta	__oper1
 4827  6C78     A9 00       			lda	#0
 4828  6C7A     85 21       			sta	__oper1+1
 4829  6C7C     20 AF D6    			jsr	__mult_int
 4830  6C7F     06 20       			asl	__oper1
 4831  6C81     26 21       			rol	__oper1+1
 4832  6C83     18          			clc
  Tue Jan 13 23:03:19 2026                                                                                               Page   86




 4833  6C84     A5 20       			lda	__oper1
 4834  6C86     69 F6       			adc	#.low._GameMTMonData
 4835  6C88     85 20       			sta	__oper1
 4836  6C8A     A5 21       			lda	__oper1+1
 4837  6C8C     69 B2       			adc	#.high._GameMTMonData
 4838  6C8E     85 21       			sta	__oper1+1
 4839  6C90     A0 04       			ldy	#+0+?LSC3
 4840  6C92     A5 20       			lda	__oper1
 4841  6C94     91 28       			sta	(__stack_ptr),y
 4842  6C96     C8          			iny
 4843  6C97     A5 21       			lda	__oper1+1
 4844  6C99     91 28       			sta	(__stack_ptr),y
 4845  6C9B     A0 04       			ldy	#+0+?LSC3
 4846  6C9D     B1 28       			lda	(__stack_ptr),y
 4847  6C9F     AA          			tax
 4848  6CA0     C8          			iny
 4849  6CA1     B1 28       			lda	(__stack_ptr),y
 4850  6CA3     85 27       			sta	__addr_reg+1
 4851  6CA5     86 26       			stx	__addr_reg
 4852  6CA7     A0 00       			ldy	#0
 4853  6CA9     B1 26       			lda	(__addr_reg),y
 4854  6CAB     AA          			tax
 4855  6CAC     C8          			iny
 4856  6CAD     B1 26       			lda	(__addr_reg),y
 4857  6CAF     85 21       			sta	__oper1+1
 4858  6CB1     86 20       			stx	__oper1
 4859  6CB3     A0 04       			ldy	#+0+?LSC3
 4860  6CB5     A5 20       			lda	__oper1
 4861  6CB7     91 28       			sta	(__stack_ptr),y
 4862  6CB9     C8          			iny
 4863  6CBA     A5 21       			lda	__oper1+1
 4864  6CBC     91 28       			sta	(__stack_ptr),y
 4865  6CBE     A9 05       			lda	#.low.5
 4866  6CC0     85 23       			sta	__oper2
 4867  6CC2     A9 00       			lda	#.high.5
 4868  6CC4     85 24       			sta	__oper2+1
 4869  6CC6     A0 0A       			ldy	#+0+?LSC3+?TSC3
 4870  6CC8     B1 28       			lda	(__stack_ptr),y
 4871  6CCA     85 20       			sta	__oper1
 4872  6CCC     A9 00       			lda	#0
 4873  6CCE     85 21       			sta	__oper1+1
 4874  6CD0     20 AF D6    			jsr	__mult_int
 4875  6CD3     06 20       			asl	__oper1
 4876  6CD5     26 21       			rol	__oper1+1
 4877  6CD7     18          			clc
 4878  6CD8     A5 20       			lda	__oper1
 4879  6CDA     69 F6       			adc	#.low._GameMTMonData
 4880  6CDC     85 20       			sta	__oper1
 4881  6CDE     A5 21       			lda	__oper1+1
 4882  6CE0     69 B2       			adc	#.high._GameMTMonData
 4883  6CE2     85 21       			sta	__oper1+1
 4884  6CE4     A0 06       			ldy	#+2+?LSC3
 4885  6CE6     A5 20       			lda	__oper1
 4886  6CE8     91 28       			sta	(__stack_ptr),y
 4887  6CEA     C8          			iny
 4888  6CEB     A5 21       			lda	__oper1+1
 4889  6CED     91 28       			sta	(__stack_ptr),y
  Tue Jan 13 23:03:19 2026                                                                                               Page   87




 4890  6CEF     A0 06       			ldy	#+2+?LSC3
 4891  6CF1     B1 28       			lda	(__stack_ptr),y
 4892  6CF3     AA          			tax
 4893  6CF4     C8          			iny
 4894  6CF5     B1 28       			lda	(__stack_ptr),y
 4895  6CF7     85 27       			sta	__addr_reg+1
 4896  6CF9     86 26       			stx	__addr_reg
 4897  6CFB     A0 04       			ldy	#4
 4898  6CFD     B1 26       			lda	(__addr_reg),y
 4899  6CFF     AA          			tax
 4900  6D00     C8          			iny
 4901  6D01     B1 26       			lda	(__addr_reg),y
 4902  6D03     85 21       			sta	__oper1+1
 4903  6D05     86 20       			stx	__oper1
 4904  6D07     A5 20       			lda	__oper1
 4905  6D09     85 23       			sta	__oper2
 4906  6D0B     A5 21       			lda	__oper1+1
 4907  6D0D     85 24       			sta	__oper2+1
 4908  6D0F     AD 9E 1F    			lda	_g_GameMTHeroDamige
 4909  6D12     85 20       			sta	__oper1
 4910  6D14     AD 9F 1F    			lda	_g_GameMTHeroDamige+1
 4911  6D17     85 21       			sta	__oper1+1
 4912  6D19     38          			sec
 4913  6D1A     A5 20       			lda	__oper1
 4914  6D1C     E5 23       			sbc	__oper2
 4915  6D1E     85 20       			sta	__oper1
 4916  6D20     A5 21       			lda	__oper1+1
 4917  6D22     E5 24       			sbc	__oper2+1
 4918  6D24     85 21       			sta	__oper1+1
 4919  6D26     A5 20       			lda	__oper1
 4920  6D28     85 23       			sta	__oper2
 4921  6D2A     A5 21       			lda	__oper1+1
 4922  6D2C     85 24       			sta	__oper2+1
 4923  6D2E     A0 04       			ldy	#+0+?LSC3
 4924  6D30     B1 28       			lda	(__stack_ptr),y
 4925  6D32     85 20       			sta	__oper1
 4926  6D34     C8          			iny
 4927  6D35     B1 28       			lda	(__stack_ptr),y
 4928  6D37     85 21       			sta	__oper1+1
 4929  6D39     20 80 DC    			jsr	__uns_div_int
 4930  6D3C     A0 04       			ldy	#+0+?LSC3
 4931  6D3E     A5 20       			lda	__oper1
 4932  6D40     91 28       			sta	(__stack_ptr),y
 4933  6D42     C8          			iny
 4934  6D43     A5 21       			lda	__oper1+1
 4935  6D45     91 28       			sta	(__stack_ptr),y
 4936  6D47     A9 05       			lda	#.low.5
 4937  6D49     85 23       			sta	__oper2
 4938  6D4B     A9 00       			lda	#.high.5
 4939  6D4D     85 24       			sta	__oper2+1
 4940  6D4F     A0 0A       			ldy	#+0+?LSC3+?TSC3
 4941  6D51     B1 28       			lda	(__stack_ptr),y
 4942  6D53     85 20       			sta	__oper1
 4943  6D55     A9 00       			lda	#0
 4944  6D57     85 21       			sta	__oper1+1
 4945  6D59     20 AF D6    			jsr	__mult_int
 4946  6D5C     06 20       			asl	__oper1
  Tue Jan 13 23:03:19 2026                                                                                               Page   88




 4947  6D5E     26 21       			rol	__oper1+1
 4948  6D60     18          			clc
 4949  6D61     A5 20       			lda	__oper1
 4950  6D63     69 F6       			adc	#.low._GameMTMonData
 4951  6D65     85 20       			sta	__oper1
 4952  6D67     A5 21       			lda	__oper1+1
 4953  6D69     69 B2       			adc	#.high._GameMTMonData
 4954  6D6B     85 21       			sta	__oper1+1
 4955  6D6D     A0 06       			ldy	#+2+?LSC3
 4956  6D6F     A5 20       			lda	__oper1
 4957  6D71     91 28       			sta	(__stack_ptr),y
 4958  6D73     C8          			iny
 4959  6D74     A5 21       			lda	__oper1+1
 4960  6D76     91 28       			sta	(__stack_ptr),y
 4961  6D78     A0 06       			ldy	#+2+?LSC3
 4962  6D7A     B1 28       			lda	(__stack_ptr),y
 4963  6D7C     AA          			tax
 4964  6D7D     C8          			iny
 4965  6D7E     B1 28       			lda	(__stack_ptr),y
 4966  6D80     85 27       			sta	__addr_reg+1
 4967  6D82     86 26       			stx	__addr_reg
 4968  6D84     A0 00       			ldy	#0
 4969  6D86     B1 26       			lda	(__addr_reg),y
 4970  6D88     AA          			tax
 4971  6D89     C8          			iny
 4972  6D8A     B1 26       			lda	(__addr_reg),y
 4973  6D8C     85 21       			sta	__oper1+1
 4974  6D8E     86 20       			stx	__oper1
 4975  6D90     A0 06       			ldy	#+2+?LSC3
 4976  6D92     A5 20       			lda	__oper1
 4977  6D94     91 28       			sta	(__stack_ptr),y
 4978  6D96     C8          			iny
 4979  6D97     A5 21       			lda	__oper1+1
 4980  6D99     91 28       			sta	(__stack_ptr),y
 4981  6D9B     A9 05       			lda	#.low.5
 4982  6D9D     85 23       			sta	__oper2
 4983  6D9F     A9 00       			lda	#.high.5
 4984  6DA1     85 24       			sta	__oper2+1
 4985  6DA3     A0 0A       			ldy	#+0+?LSC3+?TSC3
 4986  6DA5     B1 28       			lda	(__stack_ptr),y
 4987  6DA7     85 20       			sta	__oper1
 4988  6DA9     A9 00       			lda	#0
 4989  6DAB     85 21       			sta	__oper1+1
 4990  6DAD     20 AF D6    			jsr	__mult_int
 4991  6DB0     06 20       			asl	__oper1
 4992  6DB2     26 21       			rol	__oper1+1
 4993  6DB4     18          			clc
 4994  6DB5     A5 20       			lda	__oper1
 4995  6DB7     69 F6       			adc	#.low._GameMTMonData
 4996  6DB9     85 20       			sta	__oper1
 4997  6DBB     A5 21       			lda	__oper1+1
 4998  6DBD     69 B2       			adc	#.high._GameMTMonData
 4999  6DBF     85 21       			sta	__oper1+1
 5000  6DC1     A0 08       			ldy	#+4+?LSC3
 5001  6DC3     A5 20       			lda	__oper1
 5002  6DC5     91 28       			sta	(__stack_ptr),y
 5003  6DC7     C8          			iny
  Tue Jan 13 23:03:19 2026                                                                                               Page   89




 5004  6DC8     A5 21       			lda	__oper1+1
 5005  6DCA     91 28       			sta	(__stack_ptr),y
 5006  6DCC     A0 08       			ldy	#+4+?LSC3
 5007  6DCE     B1 28       			lda	(__stack_ptr),y
 5008  6DD0     AA          			tax
 5009  6DD1     C8          			iny
 5010  6DD2     B1 28       			lda	(__stack_ptr),y
 5011  6DD4     85 27       			sta	__addr_reg+1
 5012  6DD6     86 26       			stx	__addr_reg
 5013  6DD8     A0 04       			ldy	#4
 5014  6DDA     B1 26       			lda	(__addr_reg),y
 5015  6DDC     AA          			tax
 5016  6DDD     C8          			iny
 5017  6DDE     B1 26       			lda	(__addr_reg),y
 5018  6DE0     85 21       			sta	__oper1+1
 5019  6DE2     86 20       			stx	__oper1
 5020  6DE4     A5 20       			lda	__oper1
 5021  6DE6     85 23       			sta	__oper2
 5022  6DE8     A5 21       			lda	__oper1+1
 5023  6DEA     85 24       			sta	__oper2+1
 5024  6DEC     AD 9E 1F    			lda	_g_GameMTHeroDamige
 5025  6DEF     85 20       			sta	__oper1
 5026  6DF1     AD 9F 1F    			lda	_g_GameMTHeroDamige+1
 5027  6DF4     85 21       			sta	__oper1+1
 5028  6DF6     38          			sec
 5029  6DF7     A5 20       			lda	__oper1
 5030  6DF9     E5 23       			sbc	__oper2
 5031  6DFB     85 20       			sta	__oper1
 5032  6DFD     A5 21       			lda	__oper1+1
 5033  6DFF     E5 24       			sbc	__oper2+1
 5034  6E01     85 21       			sta	__oper1+1
 5035  6E03     A5 20       			lda	__oper1
 5036  6E05     85 23       			sta	__oper2
 5037  6E07     A5 21       			lda	__oper1+1
 5038  6E09     85 24       			sta	__oper2+1
 5039  6E0B     A0 06       			ldy	#+2+?LSC3
 5040  6E0D     B1 28       			lda	(__stack_ptr),y
 5041  6E0F     85 20       			sta	__oper1
 5042  6E11     C8          			iny
 5043  6E12     B1 28       			lda	(__stack_ptr),y
 5044  6E14     85 21       			sta	__oper1+1
 5045  6E16     20 B1 DC    			jsr	__uns_mod_int
 5046  6E19     A5 20       			lda	__oper1
 5047  6E1B     18          			clc
 5048  6E1C     69 01       			adc	#.low.1
 5049  6E1E     85 20       			sta	__oper1
 5050  6E20     A5 21       			lda	__oper1+1
 5051  6E22     69 00       			adc	#.high.1
 5052  6E24     85 21       			sta	__oper1+1
 5053  6E26     A9 01       			lda	#.low.1
 5054  6E28     85 23       			sta	__oper2
 5055  6E2A     A9 00       			lda	#.high.1
 5056  6E2C     85 24       			sta	__oper2+1
 5057  6E2E     20 40 D3    			jsr	__cmp_int
 5058  6E31     D0 0B       			bne	+11
 5059  6E33     A9 01       			lda	#1
 5060  6E35     85 20       			sta	__oper1
  Tue Jan 13 23:03:19 2026                                                                                               Page   90




 5061  6E37     A9 00       			lda	#0
 5062  6E39     85 21       			sta	__oper1+1
 5063  6E3B     4C 44 6E    			jmp	$+9
 5064  6E3E     A9 00       			lda	#0
 5065  6E40     85 20       			sta	__oper1
 5066  6E42     85 21       			sta	__oper1+1
 5067  6E44     A0 06       			ldy	#+2+?LSC3
 5068  6E46     A5 20       			lda	__oper1
 5069  6E48     91 28       			sta	(__stack_ptr),y
 5070  6E4A     C8          			iny
 5071  6E4B     A5 21       			lda	__oper1+1
 5072  6E4D     91 28       			sta	(__stack_ptr),y
 5073  6E4F     A0 04       			ldy	#+0+?LSC3
 5074  6E51     B1 28       			lda	(__stack_ptr),y
 5075  6E53     85 20       			sta	__oper1
 5076  6E55     C8          			iny
 5077  6E56     B1 28       			lda	(__stack_ptr),y
 5078  6E58     85 21       			sta	__oper1+1
 5079  6E5A     A0 06       			ldy	#+2+?LSC3
 5080  6E5C     A5 20       			lda	__oper1
 5081  6E5E     38          			sec
 5082  6E5F     F1 28       			sbc	(__stack_ptr),y
 5083  6E61     85 20       			sta	__oper1
 5084  6E63     C8          			iny
 5085  6E64     A5 21       			lda	__oper1+1
 5086  6E66     F1 28       			sbc	(__stack_ptr),y
 5087  6E68     85 21       			sta	__oper1+1
 5088  6E6A     A5 20       			lda	__oper1
 5089  6E6C     18          			clc
 5090  6E6D     69 01       			adc	#.low.1
 5091  6E6F     85 20       			sta	__oper1
 5092  6E71     A5 21       			lda	__oper1+1
 5093  6E73     69 00       			adc	#.high.1
 5094  6E75     85 21       			sta	__oper1+1
 5095  6E77     20 38 DD    			jsr	__uns_oper1_int_to_long
 5096  6E7A     A5 20       			lda	__oper1
 5097  6E7C     85 23       			sta	__oper2
 5098  6E7E     A5 21       			lda	__oper1+1
 5099  6E80     85 24       			sta	__oper2+1
 5100  6E82     18          			clc
 5101  6E83     A5 28       			lda	__stack_ptr
 5102  6E85     69 04       			adc	#.low.+0+?LSC3
 5103  6E87     85 20       			sta	__oper1
 5104  6E89     A5 29       			lda	__stack_ptr+1
 5105  6E8B     69 00       			adc	#.high.+0+?LSC3
 5106  6E8D     85 21       			sta	__oper1+1
 5107  6E8F     20 E6 DA    			jsr	__store_long
 5108  6E92     A9 05       			lda	#.low.5
 5109  6E94     85 23       			sta	__oper2
 5110  6E96     A9 00       			lda	#.high.5
 5111  6E98     85 24       			sta	__oper2+1
 5112  6E9A     A0 0A       			ldy	#+0+?LSC3+?TSC3
 5113  6E9C     B1 28       			lda	(__stack_ptr),y
 5114  6E9E     85 20       			sta	__oper1
 5115  6EA0     A9 00       			lda	#0
 5116  6EA2     85 21       			sta	__oper1+1
 5117  6EA4     20 AF D6    			jsr	__mult_int
  Tue Jan 13 23:03:19 2026                                                                                               Page   91




 5118  6EA7     06 20       			asl	__oper1
 5119  6EA9     26 21       			rol	__oper1+1
 5120  6EAB     18          			clc
 5121  6EAC     A5 20       			lda	__oper1
 5122  6EAE     69 F6       			adc	#.low._GameMTMonData
 5123  6EB0     85 20       			sta	__oper1
 5124  6EB2     A5 21       			lda	__oper1+1
 5125  6EB4     69 B2       			adc	#.high._GameMTMonData
 5126  6EB6     85 21       			sta	__oper1+1
 5127  6EB8     A0 08       			ldy	#+4+?LSC3
 5128  6EBA     A5 20       			lda	__oper1
 5129  6EBC     91 28       			sta	(__stack_ptr),y
 5130  6EBE     C8          			iny
 5131  6EBF     A5 21       			lda	__oper1+1
 5132  6EC1     91 28       			sta	(__stack_ptr),y
 5133  6EC3     A0 08       			ldy	#+4+?LSC3
 5134  6EC5     B1 28       			lda	(__stack_ptr),y
 5135  6EC7     AA          			tax
 5136  6EC8     C8          			iny
 5137  6EC9     B1 28       			lda	(__stack_ptr),y
 5138  6ECB     85 27       			sta	__addr_reg+1
 5139  6ECD     86 26       			stx	__addr_reg
 5140  6ECF     A0 02       			ldy	#2
 5141  6ED1     B1 26       			lda	(__addr_reg),y
 5142  6ED3     AA          			tax
 5143  6ED4     C8          			iny
 5144  6ED5     B1 26       			lda	(__addr_reg),y
 5145  6ED7     85 21       			sta	__oper1+1
 5146  6ED9     86 20       			stx	__oper1
 5147  6EDB     A5 20       			lda	__oper1
 5148  6EDD     38          			sec
 5149  6EDE     ED A0 1F    			sbc	_g_GameMTHeroDefence
 5150  6EE1     85 20       			sta	__oper1
 5151  6EE3     A5 21       			lda	__oper1+1
 5152  6EE5     ED A1 1F    			sbc	_g_GameMTHeroDefence+1
 5153  6EE8     85 21       			sta	__oper1+1
 5154  6EEA     A5 20       			lda	__oper1
 5155  6EEC     85 23       			sta	__oper2
 5156  6EEE     A5 21       			lda	__oper1+1
 5157  6EF0     85 24       			sta	__oper2+1
 5158  6EF2     20 75 DD    			jsr	__uns_oper2_int_to_long
 5159  6EF5     18          			clc
 5160  6EF6     A5 28       			lda	__stack_ptr
 5161  6EF8     69 04       			adc	#.low.+0+?LSC3
 5162  6EFA     85 20       			sta	__oper1
 5163  6EFC     A5 29       			lda	__stack_ptr+1
 5164  6EFE     69 00       			adc	#.high.+0+?LSC3
 5165  6F00     85 21       			sta	__oper1+1
 5166  6F02     20 F7 DC    			jsr	__uns_mult_long
 5167  6F05     A5 20       			lda	__oper1
 5168  6F07     85 23       			sta	__oper2
 5169  6F09     A5 21       			lda	__oper1+1
 5170  6F0B     85 24       			sta	__oper2+1
 5171  6F0D     18          			clc
 5172  6F0E     A5 28       			lda	__stack_ptr
 5173  6F10     69 00       			adc	#.low.-4+?LSC3
 5174  6F12     85 20       			sta	__oper1
  Tue Jan 13 23:03:19 2026                                                                                               Page   92




 5175  6F14     A5 29       			lda	__stack_ptr+1
 5176  6F16     69 00       			adc	#.high.-4+?LSC3
 5177  6F18     85 21       			sta	__oper1+1
 5178  6F1A     20 E6 DA    			jsr	__store_long
 5179                     			.c_end	0226fh,268
 5180                     	;return	count
 5181                     			.c_start  02273h,269
 5182  6F1D     18          			clc
 5183  6F1E     A5 28       			lda	__stack_ptr
 5184  6F20     69 00       			adc	#.low.-4+?LSC3
 5185  6F22     85 20       			sta	__oper1
 5186  6F24     A5 29       			lda	__stack_ptr+1
 5187  6F26     69 00       			adc	#.high.-4+?LSC3
 5188  6F28     85 21       			sta	__oper1+1
 5189  6F2A     A5 20       			lda	__oper1
 5190  6F2C     85 23       			sta	__oper2
 5191  6F2E     A5 21       			lda	__oper1+1
 5192  6F30     85 24       			sta	__oper2+1
 5193  6F32     18          			clc
 5194  6F33     A5 2A       			lda	__lib_temp_ptr
 5195  6F35     69 00       			adc	#.low.__FUNCTION_RET_ADDR
 5196  6F37     85 20       			sta	__oper1
 5197  6F39     A5 2B       			lda	__lib_temp_ptr+1
 5198  6F3B     69 00       			adc	#.high.__FUNCTION_RET_ADDR
 5199  6F3D     85 21       			sta	__oper1+1
 5200  6F3F     20 E6 DA    			jsr	__store_long
 5201  6F42     4C 45 6F    			jmp	?BOF3
 5202                     			.c_end	0227fh,269
 5203                     	;
 5204                     			.f_end	02282h,270
 5205         3315 6F45   	?BOF3:		.equal	$
 5206  6F45     08          			php
 5207  6F46     78          			sei
 5208  6F47     A8          			tay
 5209  6F48     18          			clc
 5210  6F49     A5 28       			lda	__stack_ptr
 5211  6F4B     69 0B       			adc	#.low.+?LSC3+?TSC3+1
 5212  6F4D     85 28       			sta	__stack_ptr
 5213  6F4F     A5 29       			lda	__stack_ptr+1
 5214  6F51     69 00       			adc	#.high.+?LSC3+?TSC3+1
 5215  6F53     85 29       			sta	__stack_ptr+1
 5216  6F55     98          			tya
 5217  6F56     28          			plp
 5218                     			.f_return
 5219  6F57     60          			rts
 5220                     	;
 5221                     			.f_start  02447h,282
 5222                     			.bank_table
 5223                     			.global	&GameMTShop
 5224  9054     58 6F E1    	&GameMTShop:	.bankaddr	_GameMTShop
 5225                     			.ends
 5226         3516 6F58   	_GameMTShop:	.equal	$
 5227                     			.attrib	_GameMTShop,283,f,b
 5228  6F58     20 AA DA    			jsr	__store_char_funct_arg
 5229                     	;
 5230                     	;
 5231         0000        	?ASC4:		.equal	0
  Tue Jan 13 23:03:19 2026                                                                                               Page   93




 5232         0001        	?TSC4:		.equal	1
 5233         0016        	?LSC4:		.equal	22
 5234  6F5B     08          			php
 5235  6F5C     78          			sei
 5236  6F5D     38          			sec
 5237  6F5E     A5 28       			lda	__stack_ptr
 5238  6F60     E9 17       			sbc	#.low.+?LSC4+?TSC4
 5239  6F62     85 28       			sta	__stack_ptr
 5240  6F64     A5 29       			lda	__stack_ptr+1
 5241  6F66     E9 00       			sbc	#.high.+?LSC4+?TSC4
 5242  6F68     85 29       			sta	__stack_ptr+1
 5243  6F6A     28          			plp
 5244                     	;{
 5245                     			.local	_kind,283,v,c,u,d,d,d,d,0+?LSC4+?TSC4+0,00h
 5246                     	;unsigned char 	choice=temp[20]=flag;
 5247                     	;	
 5248                     			.local	_choice,284,v,c,u,d,d,d,d,-1+?LSC4+0,00h
 5249                     			.local	_temp,284,v,c,u,d,d,d,d,-21+?LSC4+0,014h,00h
 5250                     			.local	_flag,284,v,c,u,d,d,d,d,-22+?LSC4+0,00h
 5251                     	;choice=0
 5252                     			.c_start  024b7h,285
 5253  6F6B     A0 15       			ldy	#-1+?LSC4
 5254  6F6D     A9 00       			lda	#0
 5255  6F6F     91 28       			sta	(__stack_ptr),y
 5256                     			.c_end	024bfh,285
 5257                     	;(kind)
 5258                     	;	
 5259                     			.c_start  024c3h,286
 5260  6F71     A0 17       			ldy	#+0+?LSC4+?TSC4
 5261  6F73     B1 28       			lda	(__stack_ptr),y
 5262  6F75     85 23       			sta	__oper2
 5263  6F77     A2 00       			ldx	#0
 5264  6F79     86 24       			stx	__oper2+1
 5265         3A18 6F7B   	?PLC48:		.equal	$
 5266                     			.c_end	024d0h,287
 5267                     	;
 5268                     			.sw_start
 5269                     			.const_data_psfar
 5270  8D9B     0100        	?CGL2:	.word	1
 5271  8D9D     0200        			.word	2
 5272  8D9F     0300        			.word	3
 5273  8DA1     0400        			.word	4
 5274  8DA3     0500        			.word	5
 5275  8DA5     0600        			.word	6
 5276  8DA7     926F        	?CGL3:	.word	?SWL0
 5277                     			.sw_case ?SWL0
 5278  8DA9     926F        			.word	?SWL1
 5279                     			.sw_case ?SWL1
 5280  8DAB     C26F        			.word	?SWL2
 5281                     			.sw_case ?SWL2
 5282  8DAD     F26F        			.word	?SWL3
 5283                     			.sw_case ?SWL3
 5284  8DAF     2270        			.word	?SWL4
 5285                     			.sw_case ?SWL4
 5286  8DB1     5270        			.word	?SWL5
 5287                     			.sw_case ?SWL5
 5288                     			.program_psfar
  Tue Jan 13 23:03:19 2026                                                                                               Page   94




 5289  6F7B     A9 9B       			lda	#.low.?CGL2
 5290  6F7D     85 26       			sta	__addr_reg
 5291  6F7F     A9 8D       			lda	#.high.?CGL2
 5292  6F81     85 27       			sta	__addr_reg+1
 5293                     			.sw_case ?BOL58
 5294  6F83     A2 06       			ldx	#.low.6
 5295  6F85     A0 00       			ldy	#.high.6
 5296  6F87     A9 7F       			lda	#.low.?BOL58
 5297  6F89     85 20       			sta	__oper1
 5298  6F8B     A9 70       			lda	#.high.?BOL58
 5299  6F8D     85 21       			sta	__oper1+1
 5300  6F8F     4C 5C DB    			jmp	__switch_comparison
 5301                     			.sw_end
 5302                     	;case 1:
 5303                     	;		
 5304         4719 6F92   	?SWL0:		.equal	$
 5305                     	;case 2:
 5306                     	;			
 5307         47FA 6F92   	?SWL1:		.equal	$
 5308                     	;GameMTTalk(4,447,0)
 5309                     			.c_start  024eeh,290
 5310  6F92     A9 00       			lda	#0
 5311  6F94     20 AA DA    			jsr	__store_char_funct_arg
 5312  6F97     A9 BF       			lda	#.low.447
 5313  6F99     85 20       			sta	__oper1
 5314  6F9B     A9 01       			lda	#.high.447
 5315  6F9D     85 21       			sta	__oper1+1
 5316  6F9F     20 CA DA    			jsr	__store_int_funct_arg
 5317  6FA2     A9 04       			lda	#4
 5318  6FA4     A2 33       			ldx	#.low.&GameMTTalk
 5319  6FA6     86 26       			stx	__addr_reg
 5320  6FA8     A2 90       			ldx	#.high.&GameMTTalk+1
 5321  6FAA     86 27       			stx	__addr_reg+1
 5322                     			.bf_call
 5323  6FAC     20 F6 D2    			jsr	__banked_function_call
 5324  6FAF     08          			php
 5325  6FB0     78          			sei
 5326  6FB1     18          			clc
 5327  6FB2     A5 28       			lda	__stack_ptr
 5328  6FB4     69 03       			adc	#.low.3
 5329  6FB6     85 28       			sta	__stack_ptr
 5330  6FB8     A5 29       			lda	__stack_ptr+1
 5331  6FBA     69 00       			adc	#.high.3
 5332  6FBC     85 29       			sta	__stack_ptr+1
 5333  6FBE     28          			plp
 5334                     			.c_end	02501h,290
 5335                     	;break;
 5336                     	;		
 5337                     			.sw_break
 5338  6FBF     4C 7F 70    			jmp	?BOL58
 5339                     	;case 3:
 5340                     	;			
 5341         4723 6FC2   	?SWL2:		.equal	$
 5342                     	;GameMTTalk(3,458,0)
 5343                     			.c_start  0251dh,293
 5344  6FC2     A9 00       			lda	#0
 5345  6FC4     20 AA DA    			jsr	__store_char_funct_arg
  Tue Jan 13 23:03:19 2026                                                                                               Page   95




 5346  6FC7     A9 CA       			lda	#.low.458
 5347  6FC9     85 20       			sta	__oper1
 5348  6FCB     A9 01       			lda	#.high.458
 5349  6FCD     85 21       			sta	__oper1+1
 5350  6FCF     20 CA DA    			jsr	__store_int_funct_arg
 5351  6FD2     A9 03       			lda	#3
 5352  6FD4     A2 33       			ldx	#.low.&GameMTTalk
 5353  6FD6     86 26       			stx	__addr_reg
 5354  6FD8     A2 90       			ldx	#.high.&GameMTTalk+1
 5355  6FDA     86 27       			stx	__addr_reg+1
 5356                     			.bf_call
 5357  6FDC     20 F6 D2    			jsr	__banked_function_call
 5358  6FDF     08          			php
 5359  6FE0     78          			sei
 5360  6FE1     18          			clc
 5361  6FE2     A5 28       			lda	__stack_ptr
 5362  6FE4     69 03       			adc	#.low.3
 5363  6FE6     85 28       			sta	__stack_ptr
 5364  6FE8     A5 29       			lda	__stack_ptr+1
 5365  6FEA     69 00       			adc	#.high.3
 5366  6FEC     85 29       			sta	__stack_ptr+1
 5367  6FEE     28          			plp
 5368                     			.c_end	02530h,293
 5369                     	;break;
 5370                     	;		
 5371                     			.sw_break
 5372  6FEF     4C 7F 70    			jmp	?BOL58
 5373                     	;case 4:
 5374                     	;			
 5375         4726 6FF2   	?SWL3:		.equal	$
 5376                     	;GameMTTalk(3,464,0)
 5377                     			.c_start  0254ch,296
 5378  6FF2     A9 00       			lda	#0
 5379  6FF4     20 AA DA    			jsr	__store_char_funct_arg
 5380  6FF7     A9 D0       			lda	#.low.464
 5381  6FF9     85 20       			sta	__oper1
 5382  6FFB     A9 01       			lda	#.high.464
 5383  6FFD     85 21       			sta	__oper1+1
 5384  6FFF     20 CA DA    			jsr	__store_int_funct_arg
 5385  7002     A9 03       			lda	#3
 5386  7004     A2 33       			ldx	#.low.&GameMTTalk
 5387  7006     86 26       			stx	__addr_reg
 5388  7008     A2 90       			ldx	#.high.&GameMTTalk+1
 5389  700A     86 27       			stx	__addr_reg+1
 5390                     			.bf_call
 5391  700C     20 F6 D2    			jsr	__banked_function_call
 5392  700F     08          			php
 5393  7010     78          			sei
 5394  7011     18          			clc
 5395  7012     A5 28       			lda	__stack_ptr
 5396  7014     69 03       			adc	#.low.3
 5397  7016     85 28       			sta	__stack_ptr
 5398  7018     A5 29       			lda	__stack_ptr+1
 5399  701A     69 00       			adc	#.high.3
 5400  701C     85 29       			sta	__stack_ptr+1
 5401  701E     28          			plp
 5402                     			.c_end	0255fh,296
  Tue Jan 13 23:03:19 2026                                                                                               Page   96




 5403                     	;break;
 5404                     	;		
 5405                     			.sw_break
 5406  701F     4C 7F 70    			jmp	?BOL58
 5407                     	;case 5:
 5408                     	;			
 5409         4712 7022   	?SWL4:		.equal	$
 5410                     	;GameMTTalk(3,470,0)
 5411                     			.c_start  0257bh,299
 5412  7022     A9 00       			lda	#0
 5413  7024     20 AA DA    			jsr	__store_char_funct_arg
 5414  7027     A9 D6       			lda	#.low.470
 5415  7029     85 20       			sta	__oper1
 5416  702B     A9 01       			lda	#.high.470
 5417  702D     85 21       			sta	__oper1+1
 5418  702F     20 CA DA    			jsr	__store_int_funct_arg
 5419  7032     A9 03       			lda	#3
 5420  7034     A2 33       			ldx	#.low.&GameMTTalk
 5421  7036     86 26       			stx	__addr_reg
 5422  7038     A2 90       			ldx	#.high.&GameMTTalk+1
 5423  703A     86 27       			stx	__addr_reg+1
 5424                     			.bf_call
 5425  703C     20 F6 D2    			jsr	__banked_function_call
 5426  703F     08          			php
 5427  7040     78          			sei
 5428  7041     18          			clc
 5429  7042     A5 28       			lda	__stack_ptr
 5430  7044     69 03       			adc	#.low.3
 5431  7046     85 28       			sta	__stack_ptr
 5432  7048     A5 29       			lda	__stack_ptr+1
 5433  704A     69 00       			adc	#.high.3
 5434  704C     85 29       			sta	__stack_ptr+1
 5435  704E     28          			plp
 5436                     			.c_end	0258eh,299
 5437                     	;break;
 5438                     	;		
 5439                     			.sw_break
 5440  704F     4C 7F 70    			jmp	?BOL58
 5441                     	;case 6:
 5442                     	;			
 5443         4715 7052   	?SWL5:		.equal	$
 5444                     	;GameMTTalk(4,476,0)
 5445                     			.c_start  025aah,302
 5446  7052     A9 00       			lda	#0
 5447  7054     20 AA DA    			jsr	__store_char_funct_arg
 5448  7057     A9 DC       			lda	#.low.476
 5449  7059     85 20       			sta	__oper1
 5450  705B     A9 01       			lda	#.high.476
 5451  705D     85 21       			sta	__oper1+1
 5452  705F     20 CA DA    			jsr	__store_int_funct_arg
 5453  7062     A9 04       			lda	#4
 5454  7064     A2 33       			ldx	#.low.&GameMTTalk
 5455  7066     86 26       			stx	__addr_reg
 5456  7068     A2 90       			ldx	#.high.&GameMTTalk+1
 5457  706A     86 27       			stx	__addr_reg+1
 5458                     			.bf_call
 5459  706C     20 F6 D2    			jsr	__banked_function_call
  Tue Jan 13 23:03:19 2026                                                                                               Page   97




 5460  706F     08          			php
 5461  7070     78          			sei
 5462  7071     18          			clc
 5463  7072     A5 28       			lda	__stack_ptr
 5464  7074     69 03       			adc	#.low.3
 5465  7076     85 28       			sta	__stack_ptr
 5466  7078     A5 29       			lda	__stack_ptr+1
 5467  707A     69 00       			adc	#.high.3
 5468  707C     85 29       			sta	__stack_ptr+1
 5469  707E     28          			plp
 5470                     			.c_end	025bdh,302
 5471                     	;
 5472         4618 707F   	?BOL58:		.equal	$
 5473                     	;
 5474                     	;SysSaveScreen(0,5,158,89,g_GameMTBuf)
 5475                     			.c_start  025c5h,304
 5476  707F     A9 13       			lda	#.low._g_GameMTBuf
 5477  7081     85 20       			sta	__oper1
 5478  7083     A9 18       			lda	#.high._g_GameMTBuf
 5479  7085     85 21       			sta	__oper1+1
 5480  7087     20 CA DA    			jsr	__store_int_funct_arg
 5481  708A     A9 59       			lda	#89
 5482  708C     20 AA DA    			jsr	__store_char_funct_arg
 5483  708F     A9 9E       			lda	#.low.158
 5484  7091     85 20       			sta	__oper1
 5485  7093     A9 00       			lda	#.high.158
 5486  7095     85 21       			sta	__oper1+1
 5487  7097     A5 20       			lda	__oper1
 5488  7099     20 AA DA    			jsr	__store_char_funct_arg
 5489  709C     A9 05       			lda	#5
 5490  709E     20 AA DA    			jsr	__store_char_funct_arg
 5491  70A1     A9 00       			lda	#0
 5492  70A3     A2 77       			ldx	#.low.&SysSaveScreen
 5493  70A5     86 26       			stx	__addr_reg
 5494  70A7     A2 E8       			ldx	#.high.&SysSaveScreen+1
 5495  70A9     86 27       			stx	__addr_reg+1
 5496                     			.bf_call
 5497  70AB     20 F6 D2    			jsr	__banked_function_call
 5498  70AE     08          			php
 5499  70AF     78          			sei
 5500  70B0     18          			clc
 5501  70B1     A5 28       			lda	__stack_ptr
 5502  70B3     69 05       			adc	#.low.5
 5503  70B5     85 28       			sta	__stack_ptr
 5504  70B7     A5 29       			lda	__stack_ptr+1
 5505  70B9     69 00       			adc	#.high.5
 5506  70BB     85 29       			sta	__stack_ptr+1
 5507  70BD     28          			plp
 5508                     			.c_end	025eah,304
 5509                     	;SysLcdPartClear(0,5,158,89)
 5510                     			.c_start  025eeh,305
 5511  70BE     A9 59       			lda	#89
 5512  70C0     20 AA DA    			jsr	__store_char_funct_arg
 5513  70C3     A9 9E       			lda	#.low.158
 5514  70C5     85 20       			sta	__oper1
 5515  70C7     A9 00       			lda	#.high.158
 5516  70C9     85 21       			sta	__oper1+1
  Tue Jan 13 23:03:19 2026                                                                                               Page   98




 5517  70CB     A5 20       			lda	__oper1
 5518  70CD     20 AA DA    			jsr	__store_char_funct_arg
 5519  70D0     A9 05       			lda	#5
 5520  70D2     20 AA DA    			jsr	__store_char_funct_arg
 5521  70D5     A9 00       			lda	#0
 5522  70D7     A2 5D       			ldx	#.low.&SysLcdPartClear
 5523  70D9     86 26       			stx	__addr_reg
 5524  70DB     A2 E8       			ldx	#.high.&SysLcdPartClear+1
 5525  70DD     86 27       			stx	__addr_reg+1
 5526                     			.bf_call
 5527  70DF     20 F6 D2    			jsr	__banked_function_call
 5528  70E2     08          			php
 5529  70E3     78          			sei
 5530  70E4     18          			clc
 5531  70E5     A5 28       			lda	__stack_ptr
 5532  70E7     69 03       			adc	#.low.3
 5533  70E9     85 28       			sta	__stack_ptr
 5534  70EB     A5 29       			lda	__stack_ptr+1
 5535  70ED     69 00       			adc	#.high.3
 5536  70EF     85 29       			sta	__stack_ptr+1
 5537  70F1     28          			plp
 5538                     			.c_end	02609h,305
 5539                     	;SysRect(0,5,158,89)
 5540                     			.c_start  0260dh,306
 5541  70F2     A9 59       			lda	#89
 5542  70F4     20 AA DA    			jsr	__store_char_funct_arg
 5543  70F7     A9 9E       			lda	#.low.158
 5544  70F9     85 20       			sta	__oper1
 5545  70FB     A9 00       			lda	#.high.158
 5546  70FD     85 21       			sta	__oper1+1
 5547  70FF     A5 20       			lda	__oper1
 5548  7101     20 AA DA    			jsr	__store_char_funct_arg
 5549  7104     A9 05       			lda	#5
 5550  7106     20 AA DA    			jsr	__store_char_funct_arg
 5551  7109     A9 00       			lda	#0
 5552  710B     A2 97       			ldx	#.low.&SysRect
 5553  710D     86 26       			stx	__addr_reg
 5554  710F     A2 E7       			ldx	#.high.&SysRect+1
 5555  7111     86 27       			stx	__addr_reg+1
 5556                     			.bf_call
 5557  7113     20 F6 D2    			jsr	__banked_function_call
 5558  7116     08          			php
 5559  7117     78          			sei
 5560  7118     18          			clc
 5561  7119     A5 28       			lda	__stack_ptr
 5562  711B     69 03       			adc	#.low.3
 5563  711D     85 28       			sta	__stack_ptr
 5564  711F     A5 29       			lda	__stack_ptr+1
 5565  7121     69 00       			adc	#.high.3
 5566  7123     85 29       			sta	__stack_ptr+1
 5567  7125     28          			plp
 5568                     			.c_end	02620h,306
 5569                     	;SysRect(2,7,156,87)
 5570                     			.c_start  02624h,307
 5571  7126     A9 57       			lda	#87
 5572  7128     20 AA DA    			jsr	__store_char_funct_arg
 5573  712B     A9 9C       			lda	#.low.156
  Tue Jan 13 23:03:19 2026                                                                                               Page   99




 5574  712D     85 20       			sta	__oper1
 5575  712F     A9 00       			lda	#.high.156
 5576  7131     85 21       			sta	__oper1+1
 5577  7133     A5 20       			lda	__oper1
 5578  7135     20 AA DA    			jsr	__store_char_funct_arg
 5579  7138     A9 07       			lda	#7
 5580  713A     20 AA DA    			jsr	__store_char_funct_arg
 5581  713D     A9 02       			lda	#2
 5582  713F     A2 97       			ldx	#.low.&SysRect
 5583  7141     86 26       			stx	__addr_reg
 5584  7143     A2 E7       			ldx	#.high.&SysRect+1
 5585  7145     86 27       			stx	__addr_reg+1
 5586                     			.bf_call
 5587  7147     20 F6 D2    			jsr	__banked_function_call
 5588  714A     08          			php
 5589  714B     78          			sei
 5590  714C     18          			clc
 5591  714D     A5 28       			lda	__stack_ptr
 5592  714F     69 03       			adc	#.low.3
 5593  7151     85 28       			sta	__stack_ptr
 5594  7153     A5 29       			lda	__stack_ptr+1
 5595  7155     69 00       			adc	#.high.3
 5596  7157     85 29       			sta	__stack_ptr+1
 5597  7159     28          			plp
 5598                     			.c_end	02637h,307
 5599                     	;(kind)
 5600                     	;	
 5601                     			.c_start  0263bh,308
 5602  715A     A0 17       			ldy	#+0+?LSC4+?TSC4
 5603  715C     B1 28       			lda	(__stack_ptr),y
 5604  715E     85 23       			sta	__oper2
 5605  7160     A2 00       			ldx	#0
 5606  7162     86 24       			stx	__oper2+1
 5607         3317 7164   	?PLC49:		.equal	$
 5608                     			.c_end	02648h,309
 5609                     	;
 5610                     			.sw_start
 5611                     			.const_data_psfar
 5612  8DB3     0100        	?CGL4:	.word	1
 5613  8DB5     0200        			.word	2
 5614  8DB7     0300        			.word	3
 5615  8DB9     0400        			.word	4
 5616  8DBB     0500        			.word	5
 5617  8DBD     0600        			.word	6
 5618  8DBF     7B71        	?CGL5:	.word	?SWL6
 5619                     			.sw_case ?SWL6
 5620  8DC1     B672        			.word	?SWL7
 5621                     			.sw_case ?SWL7
 5622  8DC3     F173        			.word	?SWL8
 5623                     			.sw_case ?SWL8
 5624  8DC5     2C75        			.word	?SWL9
 5625                     			.sw_case ?SWL9
 5626  8DC7     6776        			.word	?SWL10
 5627                     			.sw_case ?SWL10
 5628  8DC9     A277        			.word	?SWL11
 5629                     			.sw_case ?SWL11
 5630                     			.program_psfar
  Tue Jan 13 23:03:19 2026                                                                                               Page  100




 5631  7164     A9 B3       			lda	#.low.?CGL4
 5632  7166     85 26       			sta	__addr_reg
 5633  7168     A9 8D       			lda	#.high.?CGL4
 5634  716A     85 27       			sta	__addr_reg+1
 5635                     			.sw_case ?BOL59
 5636  716C     A2 06       			ldx	#.low.6
 5637  716E     A0 00       			ldy	#.high.6
 5638  7170     A9 DA       			lda	#.low.?BOL59
 5639  7172     85 20       			sta	__oper1
 5640  7174     A9 78       			lda	#.high.?BOL59
 5641  7176     85 21       			sta	__oper1+1
 5642  7178     4C 5C DB    			jmp	__switch_comparison
 5643                     			.sw_end
 5644                     	;case 1:
 5645                     	;			
 5646         3918 717B   	?SWL6:		.equal	$
 5647                     	;GameMTGetTalk(451,temp)
 5648                     			.c_start  0265bh,311
 5649  717B     18          			clc
 5650  717C     A5 28       			lda	__stack_ptr
 5651  717E     69 01       			adc	#.low.-21+?LSC4
 5652  7180     85 20       			sta	__oper1
 5653  7182     A5 29       			lda	__stack_ptr+1
 5654  7184     69 00       			adc	#.high.-21+?LSC4
 5655  7186     85 21       			sta	__oper1+1
 5656  7188     20 CA DA    			jsr	__store_int_funct_arg
 5657  718B     A9 C3       			lda	#.low.451
 5658  718D     85 20       			sta	__oper1
 5659  718F     A9 01       			lda	#.high.451
 5660  7191     85 21       			sta	__oper1+1
 5661  7193     20 CA DA    			jsr	__store_int_funct_arg
 5662  7196     A2 5A       			ldx	#.low.&GameMTGetTalk
 5663  7198     86 26       			stx	__addr_reg
 5664  719A     A2 90       			ldx	#.high.&GameMTGetTalk+1
 5665  719C     86 27       			stx	__addr_reg+1
 5666                     			.bf_call
 5667  719E     20 F6 D2    			jsr	__banked_function_call
 5668  71A1     08          			php
 5669  71A2     78          			sei
 5670  71A3     18          			clc
 5671  71A4     A5 28       			lda	__stack_ptr
 5672  71A6     69 04       			adc	#.low.4
 5673  71A8     85 28       			sta	__stack_ptr
 5674  71AA     A5 29       			lda	__stack_ptr+1
 5675  71AC     69 00       			adc	#.high.4
 5676  71AE     85 29       			sta	__stack_ptr+1
 5677  71B0     28          			plp
 5678                     			.c_end	02672h,311
 5679                     	;SysPrintString(6,11,temp)
 5680                     			.c_start  02673h,311
 5681  71B1     18          			clc
 5682  71B2     A5 28       			lda	__stack_ptr
 5683  71B4     69 01       			adc	#.low.-21+?LSC4
 5684  71B6     85 20       			sta	__oper1
 5685  71B8     A5 29       			lda	__stack_ptr+1
 5686  71BA     69 00       			adc	#.high.-21+?LSC4
 5687  71BC     85 21       			sta	__oper1+1
  Tue Jan 13 23:03:19 2026                                                                                               Page  101




 5688  71BE     20 CA DA    			jsr	__store_int_funct_arg
 5689  71C1     A9 0B       			lda	#11
 5690  71C3     20 AA DA    			jsr	__store_char_funct_arg
 5691  71C6     A9 06       			lda	#6
 5692  71C8     A2 9A       			ldx	#.low.&SysPrintString
 5693  71CA     86 26       			stx	__addr_reg
 5694  71CC     A2 E7       			ldx	#.high.&SysPrintString+1
 5695  71CE     86 27       			stx	__addr_reg+1
 5696                     			.bf_call
 5697  71D0     20 F6 D2    			jsr	__banked_function_call
 5698  71D3     08          			php
 5699  71D4     78          			sei
 5700  71D5     18          			clc
 5701  71D6     A5 28       			lda	__stack_ptr
 5702  71D8     69 03       			adc	#.low.3
 5703  71DA     85 28       			sta	__stack_ptr
 5704  71DC     A5 29       			lda	__stack_ptr+1
 5705  71DE     69 00       			adc	#.high.3
 5706  71E0     85 29       			sta	__stack_ptr+1
 5707  71E2     28          			plp
 5708                     			.c_end	0268ch,311
 5709                     	;GameMTGetTalk(452,temp)
 5710                     			.c_start  02692h,312
 5711  71E3     18          			clc
 5712  71E4     A5 28       			lda	__stack_ptr
 5713  71E6     69 01       			adc	#.low.-21+?LSC4
 5714  71E8     85 20       			sta	__oper1
 5715  71EA     A5 29       			lda	__stack_ptr+1
 5716  71EC     69 00       			adc	#.high.-21+?LSC4
 5717  71EE     85 21       			sta	__oper1+1
 5718  71F0     20 CA DA    			jsr	__store_int_funct_arg
 5719  71F3     A9 C4       			lda	#.low.452
 5720  71F5     85 20       			sta	__oper1
 5721  71F7     A9 01       			lda	#.high.452
 5722  71F9     85 21       			sta	__oper1+1
 5723  71FB     20 CA DA    			jsr	__store_int_funct_arg
 5724  71FE     A2 5A       			ldx	#.low.&GameMTGetTalk
 5725  7200     86 26       			stx	__addr_reg
 5726  7202     A2 90       			ldx	#.high.&GameMTGetTalk+1
 5727  7204     86 27       			stx	__addr_reg+1
 5728                     			.bf_call
 5729  7206     20 F6 D2    			jsr	__banked_function_call
 5730  7209     08          			php
 5731  720A     78          			sei
 5732  720B     18          			clc
 5733  720C     A5 28       			lda	__stack_ptr
 5734  720E     69 04       			adc	#.low.4
 5735  7210     85 28       			sta	__stack_ptr
 5736  7212     A5 29       			lda	__stack_ptr+1
 5737  7214     69 00       			adc	#.high.4
 5738  7216     85 29       			sta	__stack_ptr+1
 5739  7218     28          			plp
 5740                     			.c_end	026a9h,312
 5741                     	;SysPrintString(6,30,temp)
 5742                     			.c_start  026aah,312
 5743  7219     18          			clc
 5744  721A     A5 28       			lda	__stack_ptr
  Tue Jan 13 23:03:19 2026                                                                                               Page  102




 5745  721C     69 01       			adc	#.low.-21+?LSC4
 5746  721E     85 20       			sta	__oper1
 5747  7220     A5 29       			lda	__stack_ptr+1
 5748  7222     69 00       			adc	#.high.-21+?LSC4
 5749  7224     85 21       			sta	__oper1+1
 5750  7226     20 CA DA    			jsr	__store_int_funct_arg
 5751  7229     A9 1E       			lda	#30
 5752  722B     20 AA DA    			jsr	__store_char_funct_arg
 5753  722E     A9 06       			lda	#6
 5754  7230     A2 9A       			ldx	#.low.&SysPrintString
 5755  7232     86 26       			stx	__addr_reg
 5756  7234     A2 E7       			ldx	#.high.&SysPrintString+1
 5757  7236     86 27       			stx	__addr_reg+1
 5758                     			.bf_call
 5759  7238     20 F6 D2    			jsr	__banked_function_call
 5760  723B     08          			php
 5761  723C     78          			sei
 5762  723D     18          			clc
 5763  723E     A5 28       			lda	__stack_ptr
 5764  7240     69 03       			adc	#.low.3
 5765  7242     85 28       			sta	__stack_ptr
 5766  7244     A5 29       			lda	__stack_ptr+1
 5767  7246     69 00       			adc	#.high.3
 5768  7248     85 29       			sta	__stack_ptr+1
 5769  724A     28          			plp
 5770                     			.c_end	026c3h,312
 5771                     	;GameMTGetTalk(453,temp)
 5772                     			.c_start  026c9h,313
 5773  724B     18          			clc
 5774  724C     A5 28       			lda	__stack_ptr
 5775  724E     69 01       			adc	#.low.-21+?LSC4
 5776  7250     85 20       			sta	__oper1
 5777  7252     A5 29       			lda	__stack_ptr+1
 5778  7254     69 00       			adc	#.high.-21+?LSC4
 5779  7256     85 21       			sta	__oper1+1
 5780  7258     20 CA DA    			jsr	__store_int_funct_arg
 5781  725B     A9 C5       			lda	#.low.453
 5782  725D     85 20       			sta	__oper1
 5783  725F     A9 01       			lda	#.high.453
 5784  7261     85 21       			sta	__oper1+1
 5785  7263     20 CA DA    			jsr	__store_int_funct_arg
 5786  7266     A2 5A       			ldx	#.low.&GameMTGetTalk
 5787  7268     86 26       			stx	__addr_reg
 5788  726A     A2 90       			ldx	#.high.&GameMTGetTalk+1
 5789  726C     86 27       			stx	__addr_reg+1
 5790                     			.bf_call
 5791  726E     20 F6 D2    			jsr	__banked_function_call
 5792  7271     08          			php
 5793  7272     78          			sei
 5794  7273     18          			clc
 5795  7274     A5 28       			lda	__stack_ptr
 5796  7276     69 04       			adc	#.low.4
 5797  7278     85 28       			sta	__stack_ptr
 5798  727A     A5 29       			lda	__stack_ptr+1
 5799  727C     69 00       			adc	#.high.4
 5800  727E     85 29       			sta	__stack_ptr+1
 5801  7280     28          			plp
  Tue Jan 13 23:03:19 2026                                                                                               Page  103




 5802                     			.c_end	026e0h,313
 5803                     	;SysPrintString(6,49,temp)
 5804                     			.c_start  026e1h,313
 5805  7281     18          			clc
 5806  7282     A5 28       			lda	__stack_ptr
 5807  7284     69 01       			adc	#.low.-21+?LSC4
 5808  7286     85 20       			sta	__oper1
 5809  7288     A5 29       			lda	__stack_ptr+1
 5810  728A     69 00       			adc	#.high.-21+?LSC4
 5811  728C     85 21       			sta	__oper1+1
 5812  728E     20 CA DA    			jsr	__store_int_funct_arg
 5813  7291     A9 31       			lda	#49
 5814  7293     20 AA DA    			jsr	__store_char_funct_arg
 5815  7296     A9 06       			lda	#6
 5816  7298     A2 9A       			ldx	#.low.&SysPrintString
 5817  729A     86 26       			stx	__addr_reg
 5818  729C     A2 E7       			ldx	#.high.&SysPrintString+1
 5819  729E     86 27       			stx	__addr_reg+1
 5820                     			.bf_call
 5821  72A0     20 F6 D2    			jsr	__banked_function_call
 5822  72A3     08          			php
 5823  72A4     78          			sei
 5824  72A5     18          			clc
 5825  72A6     A5 28       			lda	__stack_ptr
 5826  72A8     69 03       			adc	#.low.3
 5827  72AA     85 28       			sta	__stack_ptr
 5828  72AC     A5 29       			lda	__stack_ptr+1
 5829  72AE     69 00       			adc	#.high.3
 5830  72B0     85 29       			sta	__stack_ptr+1
 5831  72B2     28          			plp
 5832                     			.c_end	026fah,313
 5833                     	;break;
 5834                     	;		
 5835                     			.sw_break
 5836  72B3     4C DA 78    			jmp	?BOL59
 5837                     	;case 2:
 5838                     	;			
 5839         3423 72B6   	?SWL7:		.equal	$
 5840                     	;GameMTGetTalk(455,temp)
 5841                     			.c_start  02716h,316
 5842  72B6     18          			clc
 5843  72B7     A5 28       			lda	__stack_ptr
 5844  72B9     69 01       			adc	#.low.-21+?LSC4
 5845  72BB     85 20       			sta	__oper1
 5846  72BD     A5 29       			lda	__stack_ptr+1
 5847  72BF     69 00       			adc	#.high.-21+?LSC4
 5848  72C1     85 21       			sta	__oper1+1
 5849  72C3     20 CA DA    			jsr	__store_int_funct_arg
 5850  72C6     A9 C7       			lda	#.low.455
 5851  72C8     85 20       			sta	__oper1
 5852  72CA     A9 01       			lda	#.high.455
 5853  72CC     85 21       			sta	__oper1+1
 5854  72CE     20 CA DA    			jsr	__store_int_funct_arg
 5855  72D1     A2 5A       			ldx	#.low.&GameMTGetTalk
 5856  72D3     86 26       			stx	__addr_reg
 5857  72D5     A2 90       			ldx	#.high.&GameMTGetTalk+1
 5858  72D7     86 27       			stx	__addr_reg+1
  Tue Jan 13 23:03:19 2026                                                                                               Page  104




 5859                     			.bf_call
 5860  72D9     20 F6 D2    			jsr	__banked_function_call
 5861  72DC     08          			php
 5862  72DD     78          			sei
 5863  72DE     18          			clc
 5864  72DF     A5 28       			lda	__stack_ptr
 5865  72E1     69 04       			adc	#.low.4
 5866  72E3     85 28       			sta	__stack_ptr
 5867  72E5     A5 29       			lda	__stack_ptr+1
 5868  72E7     69 00       			adc	#.high.4
 5869  72E9     85 29       			sta	__stack_ptr+1
 5870  72EB     28          			plp
 5871                     			.c_end	0272dh,316
 5872                     	;SysPrintString(6,11,temp)
 5873                     			.c_start  0272eh,316
 5874  72EC     18          			clc
 5875  72ED     A5 28       			lda	__stack_ptr
 5876  72EF     69 01       			adc	#.low.-21+?LSC4
 5877  72F1     85 20       			sta	__oper1
 5878  72F3     A5 29       			lda	__stack_ptr+1
 5879  72F5     69 00       			adc	#.high.-21+?LSC4
 5880  72F7     85 21       			sta	__oper1+1
 5881  72F9     20 CA DA    			jsr	__store_int_funct_arg
 5882  72FC     A9 0B       			lda	#11
 5883  72FE     20 AA DA    			jsr	__store_char_funct_arg
 5884  7301     A9 06       			lda	#6
 5885  7303     A2 9A       			ldx	#.low.&SysPrintString
 5886  7305     86 26       			stx	__addr_reg
 5887  7307     A2 E7       			ldx	#.high.&SysPrintString+1
 5888  7309     86 27       			stx	__addr_reg+1
 5889                     			.bf_call
 5890  730B     20 F6 D2    			jsr	__banked_function_call
 5891  730E     08          			php
 5892  730F     78          			sei
 5893  7310     18          			clc
 5894  7311     A5 28       			lda	__stack_ptr
 5895  7313     69 03       			adc	#.low.3
 5896  7315     85 28       			sta	__stack_ptr
 5897  7317     A5 29       			lda	__stack_ptr+1
 5898  7319     69 00       			adc	#.high.3
 5899  731B     85 29       			sta	__stack_ptr+1
 5900  731D     28          			plp
 5901                     			.c_end	02747h,316
 5902                     	;GameMTGetTalk(456,temp)
 5903                     			.c_start  0274dh,317
 5904  731E     18          			clc
 5905  731F     A5 28       			lda	__stack_ptr
 5906  7321     69 01       			adc	#.low.-21+?LSC4
 5907  7323     85 20       			sta	__oper1
 5908  7325     A5 29       			lda	__stack_ptr+1
 5909  7327     69 00       			adc	#.high.-21+?LSC4
 5910  7329     85 21       			sta	__oper1+1
 5911  732B     20 CA DA    			jsr	__store_int_funct_arg
 5912  732E     A9 C8       			lda	#.low.456
 5913  7330     85 20       			sta	__oper1
 5914  7332     A9 01       			lda	#.high.456
 5915  7334     85 21       			sta	__oper1+1
  Tue Jan 13 23:03:19 2026                                                                                               Page  105




 5916  7336     20 CA DA    			jsr	__store_int_funct_arg
 5917  7339     A2 5A       			ldx	#.low.&GameMTGetTalk
 5918  733B     86 26       			stx	__addr_reg
 5919  733D     A2 90       			ldx	#.high.&GameMTGetTalk+1
 5920  733F     86 27       			stx	__addr_reg+1
 5921                     			.bf_call
 5922  7341     20 F6 D2    			jsr	__banked_function_call
 5923  7344     08          			php
 5924  7345     78          			sei
 5925  7346     18          			clc
 5926  7347     A5 28       			lda	__stack_ptr
 5927  7349     69 04       			adc	#.low.4
 5928  734B     85 28       			sta	__stack_ptr
 5929  734D     A5 29       			lda	__stack_ptr+1
 5930  734F     69 00       			adc	#.high.4
 5931  7351     85 29       			sta	__stack_ptr+1
 5932  7353     28          			plp
 5933                     			.c_end	02764h,317
 5934                     	;SysPrintString(6,30,temp)
 5935                     			.c_start  02765h,317
 5936  7354     18          			clc
 5937  7355     A5 28       			lda	__stack_ptr
 5938  7357     69 01       			adc	#.low.-21+?LSC4
 5939  7359     85 20       			sta	__oper1
 5940  735B     A5 29       			lda	__stack_ptr+1
 5941  735D     69 00       			adc	#.high.-21+?LSC4
 5942  735F     85 21       			sta	__oper1+1
 5943  7361     20 CA DA    			jsr	__store_int_funct_arg
 5944  7364     A9 1E       			lda	#30
 5945  7366     20 AA DA    			jsr	__store_char_funct_arg
 5946  7369     A9 06       			lda	#6
 5947  736B     A2 9A       			ldx	#.low.&SysPrintString
 5948  736D     86 26       			stx	__addr_reg
 5949  736F     A2 E7       			ldx	#.high.&SysPrintString+1
 5950  7371     86 27       			stx	__addr_reg+1
 5951                     			.bf_call
 5952  7373     20 F6 D2    			jsr	__banked_function_call
 5953  7376     08          			php
 5954  7377     78          			sei
 5955  7378     18          			clc
 5956  7379     A5 28       			lda	__stack_ptr
 5957  737B     69 03       			adc	#.low.3
 5958  737D     85 28       			sta	__stack_ptr
 5959  737F     A5 29       			lda	__stack_ptr+1
 5960  7381     69 00       			adc	#.high.3
 5961  7383     85 29       			sta	__stack_ptr+1
 5962  7385     28          			plp
 5963                     			.c_end	0277eh,317
 5964                     	;GameMTGetTalk(457,temp)
 5965                     			.c_start  02784h,318
 5966  7386     18          			clc
 5967  7387     A5 28       			lda	__stack_ptr
 5968  7389     69 01       			adc	#.low.-21+?LSC4
 5969  738B     85 20       			sta	__oper1
 5970  738D     A5 29       			lda	__stack_ptr+1
 5971  738F     69 00       			adc	#.high.-21+?LSC4
 5972  7391     85 21       			sta	__oper1+1
  Tue Jan 13 23:03:19 2026                                                                                               Page  106




 5973  7393     20 CA DA    			jsr	__store_int_funct_arg
 5974  7396     A9 C9       			lda	#.low.457
 5975  7398     85 20       			sta	__oper1
 5976  739A     A9 01       			lda	#.high.457
 5977  739C     85 21       			sta	__oper1+1
 5978  739E     20 CA DA    			jsr	__store_int_funct_arg
 5979  73A1     A2 5A       			ldx	#.low.&GameMTGetTalk
 5980  73A3     86 26       			stx	__addr_reg
 5981  73A5     A2 90       			ldx	#.high.&GameMTGetTalk+1
 5982  73A7     86 27       			stx	__addr_reg+1
 5983                     			.bf_call
 5984  73A9     20 F6 D2    			jsr	__banked_function_call
 5985  73AC     08          			php
 5986  73AD     78          			sei
 5987  73AE     18          			clc
 5988  73AF     A5 28       			lda	__stack_ptr
 5989  73B1     69 04       			adc	#.low.4
 5990  73B3     85 28       			sta	__stack_ptr
 5991  73B5     A5 29       			lda	__stack_ptr+1
 5992  73B7     69 00       			adc	#.high.4
 5993  73B9     85 29       			sta	__stack_ptr+1
 5994  73BB     28          			plp
 5995                     			.c_end	0279bh,318
 5996                     	;SysPrintString(6,49,temp)
 5997                     			.c_start  0279ch,318
 5998  73BC     18          			clc
 5999  73BD     A5 28       			lda	__stack_ptr
 6000  73BF     69 01       			adc	#.low.-21+?LSC4
 6001  73C1     85 20       			sta	__oper1
 6002  73C3     A5 29       			lda	__stack_ptr+1
 6003  73C5     69 00       			adc	#.high.-21+?LSC4
 6004  73C7     85 21       			sta	__oper1+1
 6005  73C9     20 CA DA    			jsr	__store_int_funct_arg
 6006  73CC     A9 31       			lda	#49
 6007  73CE     20 AA DA    			jsr	__store_char_funct_arg
 6008  73D1     A9 06       			lda	#6
 6009  73D3     A2 9A       			ldx	#.low.&SysPrintString
 6010  73D5     86 26       			stx	__addr_reg
 6011  73D7     A2 E7       			ldx	#.high.&SysPrintString+1
 6012  73D9     86 27       			stx	__addr_reg+1
 6013                     			.bf_call
 6014  73DB     20 F6 D2    			jsr	__banked_function_call
 6015  73DE     08          			php
 6016  73DF     78          			sei
 6017  73E0     18          			clc
 6018  73E1     A5 28       			lda	__stack_ptr
 6019  73E3     69 03       			adc	#.low.3
 6020  73E5     85 28       			sta	__stack_ptr
 6021  73E7     A5 29       			lda	__stack_ptr+1
 6022  73E9     69 00       			adc	#.high.3
 6023  73EB     85 29       			sta	__stack_ptr+1
 6024  73ED     28          			plp
 6025                     			.c_end	027b5h,318
 6026                     	;break;
 6027                     	;		
 6028                     			.sw_break
 6029  73EE     4C DA 78    			jmp	?BOL59
  Tue Jan 13 23:03:19 2026                                                                                               Page  107




 6030                     	;case 3:
 6031                     	;			
 6032         4626 73F1   	?SWL8:		.equal	$
 6033                     	;GameMTGetTalk(461,temp)
 6034                     			.c_start  027d1h,321
 6035  73F1     18          			clc
 6036  73F2     A5 28       			lda	__stack_ptr
 6037  73F4     69 01       			adc	#.low.-21+?LSC4
 6038  73F6     85 20       			sta	__oper1
 6039  73F8     A5 29       			lda	__stack_ptr+1
 6040  73FA     69 00       			adc	#.high.-21+?LSC4
 6041  73FC     85 21       			sta	__oper1+1
 6042  73FE     20 CA DA    			jsr	__store_int_funct_arg
 6043  7401     A9 CD       			lda	#.low.461
 6044  7403     85 20       			sta	__oper1
 6045  7405     A9 01       			lda	#.high.461
 6046  7407     85 21       			sta	__oper1+1
 6047  7409     20 CA DA    			jsr	__store_int_funct_arg
 6048  740C     A2 5A       			ldx	#.low.&GameMTGetTalk
 6049  740E     86 26       			stx	__addr_reg
 6050  7410     A2 90       			ldx	#.high.&GameMTGetTalk+1
 6051  7412     86 27       			stx	__addr_reg+1
 6052                     			.bf_call
 6053  7414     20 F6 D2    			jsr	__banked_function_call
 6054  7417     08          			php
 6055  7418     78          			sei
 6056  7419     18          			clc
 6057  741A     A5 28       			lda	__stack_ptr
 6058  741C     69 04       			adc	#.low.4
 6059  741E     85 28       			sta	__stack_ptr
 6060  7420     A5 29       			lda	__stack_ptr+1
 6061  7422     69 00       			adc	#.high.4
 6062  7424     85 29       			sta	__stack_ptr+1
 6063  7426     28          			plp
 6064                     			.c_end	027e8h,321
 6065                     	;SysPrintString(6,11,temp)
 6066                     			.c_start  027e9h,321
 6067  7427     18          			clc
 6068  7428     A5 28       			lda	__stack_ptr
 6069  742A     69 01       			adc	#.low.-21+?LSC4
 6070  742C     85 20       			sta	__oper1
 6071  742E     A5 29       			lda	__stack_ptr+1
 6072  7430     69 00       			adc	#.high.-21+?LSC4
 6073  7432     85 21       			sta	__oper1+1
 6074  7434     20 CA DA    			jsr	__store_int_funct_arg
 6075  7437     A9 0B       			lda	#11
 6076  7439     20 AA DA    			jsr	__store_char_funct_arg
 6077  743C     A9 06       			lda	#6
 6078  743E     A2 9A       			ldx	#.low.&SysPrintString
 6079  7440     86 26       			stx	__addr_reg
 6080  7442     A2 E7       			ldx	#.high.&SysPrintString+1
 6081  7444     86 27       			stx	__addr_reg+1
 6082                     			.bf_call
 6083  7446     20 F6 D2    			jsr	__banked_function_call
 6084  7449     08          			php
 6085  744A     78          			sei
 6086  744B     18          			clc
  Tue Jan 13 23:03:19 2026                                                                                               Page  108




 6087  744C     A5 28       			lda	__stack_ptr
 6088  744E     69 03       			adc	#.low.3
 6089  7450     85 28       			sta	__stack_ptr
 6090  7452     A5 29       			lda	__stack_ptr+1
 6091  7454     69 00       			adc	#.high.3
 6092  7456     85 29       			sta	__stack_ptr+1
 6093  7458     28          			plp
 6094                     			.c_end	02802h,321
 6095                     	;GameMTGetTalk(462,temp)
 6096                     			.c_start  02808h,322
 6097  7459     18          			clc
 6098  745A     A5 28       			lda	__stack_ptr
 6099  745C     69 01       			adc	#.low.-21+?LSC4
 6100  745E     85 20       			sta	__oper1
 6101  7460     A5 29       			lda	__stack_ptr+1
 6102  7462     69 00       			adc	#.high.-21+?LSC4
 6103  7464     85 21       			sta	__oper1+1
 6104  7466     20 CA DA    			jsr	__store_int_funct_arg
 6105  7469     A9 CE       			lda	#.low.462
 6106  746B     85 20       			sta	__oper1
 6107  746D     A9 01       			lda	#.high.462
 6108  746F     85 21       			sta	__oper1+1
 6109  7471     20 CA DA    			jsr	__store_int_funct_arg
 6110  7474     A2 5A       			ldx	#.low.&GameMTGetTalk
 6111  7476     86 26       			stx	__addr_reg
 6112  7478     A2 90       			ldx	#.high.&GameMTGetTalk+1
 6113  747A     86 27       			stx	__addr_reg+1
 6114                     			.bf_call
 6115  747C     20 F6 D2    			jsr	__banked_function_call
 6116  747F     08          			php
 6117  7480     78          			sei
 6118  7481     18          			clc
 6119  7482     A5 28       			lda	__stack_ptr
 6120  7484     69 04       			adc	#.low.4
 6121  7486     85 28       			sta	__stack_ptr
 6122  7488     A5 29       			lda	__stack_ptr+1
 6123  748A     69 00       			adc	#.high.4
 6124  748C     85 29       			sta	__stack_ptr+1
 6125  748E     28          			plp
 6126                     			.c_end	0281fh,322
 6127                     	;SysPrintString(6,30,temp)
 6128                     			.c_start  02820h,322
 6129  748F     18          			clc
 6130  7490     A5 28       			lda	__stack_ptr
 6131  7492     69 01       			adc	#.low.-21+?LSC4
 6132  7494     85 20       			sta	__oper1
 6133  7496     A5 29       			lda	__stack_ptr+1
 6134  7498     69 00       			adc	#.high.-21+?LSC4
 6135  749A     85 21       			sta	__oper1+1
 6136  749C     20 CA DA    			jsr	__store_int_funct_arg
 6137  749F     A9 1E       			lda	#30
 6138  74A1     20 AA DA    			jsr	__store_char_funct_arg
 6139  74A4     A9 06       			lda	#6
 6140  74A6     A2 9A       			ldx	#.low.&SysPrintString
 6141  74A8     86 26       			stx	__addr_reg
 6142  74AA     A2 E7       			ldx	#.high.&SysPrintString+1
 6143  74AC     86 27       			stx	__addr_reg+1
  Tue Jan 13 23:03:19 2026                                                                                               Page  109




 6144                     			.bf_call
 6145  74AE     20 F6 D2    			jsr	__banked_function_call
 6146  74B1     08          			php
 6147  74B2     78          			sei
 6148  74B3     18          			clc
 6149  74B4     A5 28       			lda	__stack_ptr
 6150  74B6     69 03       			adc	#.low.3
 6151  74B8     85 28       			sta	__stack_ptr
 6152  74BA     A5 29       			lda	__stack_ptr+1
 6153  74BC     69 00       			adc	#.high.3
 6154  74BE     85 29       			sta	__stack_ptr+1
 6155  74C0     28          			plp
 6156                     			.c_end	02839h,322
 6157                     	;GameMTGetTalk(463,temp)
 6158                     			.c_start  0283fh,323
 6159  74C1     18          			clc
 6160  74C2     A5 28       			lda	__stack_ptr
 6161  74C4     69 01       			adc	#.low.-21+?LSC4
 6162  74C6     85 20       			sta	__oper1
 6163  74C8     A5 29       			lda	__stack_ptr+1
 6164  74CA     69 00       			adc	#.high.-21+?LSC4
 6165  74CC     85 21       			sta	__oper1+1
 6166  74CE     20 CA DA    			jsr	__store_int_funct_arg
 6167  74D1     A9 CF       			lda	#.low.463
 6168  74D3     85 20       			sta	__oper1
 6169  74D5     A9 01       			lda	#.high.463
 6170  74D7     85 21       			sta	__oper1+1
 6171  74D9     20 CA DA    			jsr	__store_int_funct_arg
 6172  74DC     A2 5A       			ldx	#.low.&GameMTGetTalk
 6173  74DE     86 26       			stx	__addr_reg
 6174  74E0     A2 90       			ldx	#.high.&GameMTGetTalk+1
 6175  74E2     86 27       			stx	__addr_reg+1
 6176                     			.bf_call
 6177  74E4     20 F6 D2    			jsr	__banked_function_call
 6178  74E7     08          			php
 6179  74E8     78          			sei
 6180  74E9     18          			clc
 6181  74EA     A5 28       			lda	__stack_ptr
 6182  74EC     69 04       			adc	#.low.4
 6183  74EE     85 28       			sta	__stack_ptr
 6184  74F0     A5 29       			lda	__stack_ptr+1
 6185  74F2     69 00       			adc	#.high.4
 6186  74F4     85 29       			sta	__stack_ptr+1
 6187  74F6     28          			plp
 6188                     			.c_end	02856h,323
 6189                     	;SysPrintString(6,49,temp)
 6190                     			.c_start  02857h,323
 6191  74F7     18          			clc
 6192  74F8     A5 28       			lda	__stack_ptr
 6193  74FA     69 01       			adc	#.low.-21+?LSC4
 6194  74FC     85 20       			sta	__oper1
 6195  74FE     A5 29       			lda	__stack_ptr+1
 6196  7500     69 00       			adc	#.high.-21+?LSC4
 6197  7502     85 21       			sta	__oper1+1
 6198  7504     20 CA DA    			jsr	__store_int_funct_arg
 6199  7507     A9 31       			lda	#49
 6200  7509     20 AA DA    			jsr	__store_char_funct_arg
  Tue Jan 13 23:03:19 2026                                                                                               Page  110




 6201  750C     A9 06       			lda	#6
 6202  750E     A2 9A       			ldx	#.low.&SysPrintString
 6203  7510     86 26       			stx	__addr_reg
 6204  7512     A2 E7       			ldx	#.high.&SysPrintString+1
 6205  7514     86 27       			stx	__addr_reg+1
 6206                     			.bf_call
 6207  7516     20 F6 D2    			jsr	__banked_function_call
 6208  7519     08          			php
 6209  751A     78          			sei
 6210  751B     18          			clc
 6211  751C     A5 28       			lda	__stack_ptr
 6212  751E     69 03       			adc	#.low.3
 6213  7520     85 28       			sta	__stack_ptr
 6214  7522     A5 29       			lda	__stack_ptr+1
 6215  7524     69 00       			adc	#.high.3
 6216  7526     85 29       			sta	__stack_ptr+1
 6217  7528     28          			plp
 6218                     			.c_end	02870h,323
 6219                     	;break;
 6220                     	;		
 6221                     			.sw_break
 6222  7529     4C DA 78    			jmp	?BOL59
 6223                     	;case 4:
 6224                     	;			
 6225         3A13 752C   	?SWL9:		.equal	$
 6226                     	;GameMTGetTalk(467,temp)
 6227                     			.c_start  0288ch,326
 6228  752C     18          			clc
 6229  752D     A5 28       			lda	__stack_ptr
 6230  752F     69 01       			adc	#.low.-21+?LSC4
 6231  7531     85 20       			sta	__oper1
 6232  7533     A5 29       			lda	__stack_ptr+1
 6233  7535     69 00       			adc	#.high.-21+?LSC4
 6234  7537     85 21       			sta	__oper1+1
 6235  7539     20 CA DA    			jsr	__store_int_funct_arg
 6236  753C     A9 D3       			lda	#.low.467
 6237  753E     85 20       			sta	__oper1
 6238  7540     A9 01       			lda	#.high.467
 6239  7542     85 21       			sta	__oper1+1
 6240  7544     20 CA DA    			jsr	__store_int_funct_arg
 6241  7547     A2 5A       			ldx	#.low.&GameMTGetTalk
 6242  7549     86 26       			stx	__addr_reg
 6243  754B     A2 90       			ldx	#.high.&GameMTGetTalk+1
 6244  754D     86 27       			stx	__addr_reg+1
 6245                     			.bf_call
 6246  754F     20 F6 D2    			jsr	__banked_function_call
 6247  7552     08          			php
 6248  7553     78          			sei
 6249  7554     18          			clc
 6250  7555     A5 28       			lda	__stack_ptr
 6251  7557     69 04       			adc	#.low.4
 6252  7559     85 28       			sta	__stack_ptr
 6253  755B     A5 29       			lda	__stack_ptr+1
 6254  755D     69 00       			adc	#.high.4
 6255  755F     85 29       			sta	__stack_ptr+1
 6256  7561     28          			plp
 6257                     			.c_end	028a3h,326
  Tue Jan 13 23:03:19 2026                                                                                               Page  111




 6258                     	;SysPrintString(6,11,temp)
 6259                     			.c_start  028a4h,326
 6260  7562     18          			clc
 6261  7563     A5 28       			lda	__stack_ptr
 6262  7565     69 01       			adc	#.low.-21+?LSC4
 6263  7567     85 20       			sta	__oper1
 6264  7569     A5 29       			lda	__stack_ptr+1
 6265  756B     69 00       			adc	#.high.-21+?LSC4
 6266  756D     85 21       			sta	__oper1+1
 6267  756F     20 CA DA    			jsr	__store_int_funct_arg
 6268  7572     A9 0B       			lda	#11
 6269  7574     20 AA DA    			jsr	__store_char_funct_arg
 6270  7577     A9 06       			lda	#6
 6271  7579     A2 9A       			ldx	#.low.&SysPrintString
 6272  757B     86 26       			stx	__addr_reg
 6273  757D     A2 E7       			ldx	#.high.&SysPrintString+1
 6274  757F     86 27       			stx	__addr_reg+1
 6275                     			.bf_call
 6276  7581     20 F6 D2    			jsr	__banked_function_call
 6277  7584     08          			php
 6278  7585     78          			sei
 6279  7586     18          			clc
 6280  7587     A5 28       			lda	__stack_ptr
 6281  7589     69 03       			adc	#.low.3
 6282  758B     85 28       			sta	__stack_ptr
 6283  758D     A5 29       			lda	__stack_ptr+1
 6284  758F     69 00       			adc	#.high.3
 6285  7591     85 29       			sta	__stack_ptr+1
 6286  7593     28          			plp
 6287                     			.c_end	028bdh,326
 6288                     	;GameMTGetTalk(468,temp)
 6289                     			.c_start  028c3h,327
 6290  7594     18          			clc
 6291  7595     A5 28       			lda	__stack_ptr
 6292  7597     69 01       			adc	#.low.-21+?LSC4
 6293  7599     85 20       			sta	__oper1
 6294  759B     A5 29       			lda	__stack_ptr+1
 6295  759D     69 00       			adc	#.high.-21+?LSC4
 6296  759F     85 21       			sta	__oper1+1
 6297  75A1     20 CA DA    			jsr	__store_int_funct_arg
 6298  75A4     A9 D4       			lda	#.low.468
 6299  75A6     85 20       			sta	__oper1
 6300  75A8     A9 01       			lda	#.high.468
 6301  75AA     85 21       			sta	__oper1+1
 6302  75AC     20 CA DA    			jsr	__store_int_funct_arg
 6303  75AF     A2 5A       			ldx	#.low.&GameMTGetTalk
 6304  75B1     86 26       			stx	__addr_reg
 6305  75B3     A2 90       			ldx	#.high.&GameMTGetTalk+1
 6306  75B5     86 27       			stx	__addr_reg+1
 6307                     			.bf_call
 6308  75B7     20 F6 D2    			jsr	__banked_function_call
 6309  75BA     08          			php
 6310  75BB     78          			sei
 6311  75BC     18          			clc
 6312  75BD     A5 28       			lda	__stack_ptr
 6313  75BF     69 04       			adc	#.low.4
 6314  75C1     85 28       			sta	__stack_ptr
  Tue Jan 13 23:03:19 2026                                                                                               Page  112




 6315  75C3     A5 29       			lda	__stack_ptr+1
 6316  75C5     69 00       			adc	#.high.4
 6317  75C7     85 29       			sta	__stack_ptr+1
 6318  75C9     28          			plp
 6319                     			.c_end	028dah,327
 6320                     	;SysPrintString(6,30,temp)
 6321                     			.c_start  028dbh,327
 6322  75CA     18          			clc
 6323  75CB     A5 28       			lda	__stack_ptr
 6324  75CD     69 01       			adc	#.low.-21+?LSC4
 6325  75CF     85 20       			sta	__oper1
 6326  75D1     A5 29       			lda	__stack_ptr+1
 6327  75D3     69 00       			adc	#.high.-21+?LSC4
 6328  75D5     85 21       			sta	__oper1+1
 6329  75D7     20 CA DA    			jsr	__store_int_funct_arg
 6330  75DA     A9 1E       			lda	#30
 6331  75DC     20 AA DA    			jsr	__store_char_funct_arg
 6332  75DF     A9 06       			lda	#6
 6333  75E1     A2 9A       			ldx	#.low.&SysPrintString
 6334  75E3     86 26       			stx	__addr_reg
 6335  75E5     A2 E7       			ldx	#.high.&SysPrintString+1
 6336  75E7     86 27       			stx	__addr_reg+1
 6337                     			.bf_call
 6338  75E9     20 F6 D2    			jsr	__banked_function_call
 6339  75EC     08          			php
 6340  75ED     78          			sei
 6341  75EE     18          			clc
 6342  75EF     A5 28       			lda	__stack_ptr
 6343  75F1     69 03       			adc	#.low.3
 6344  75F3     85 28       			sta	__stack_ptr
 6345  75F5     A5 29       			lda	__stack_ptr+1
 6346  75F7     69 00       			adc	#.high.3
 6347  75F9     85 29       			sta	__stack_ptr+1
 6348  75FB     28          			plp
 6349                     			.c_end	028f4h,327
 6350                     	;GameMTGetTalk(469,temp)
 6351                     			.c_start  028fah,328
 6352  75FC     18          			clc
 6353  75FD     A5 28       			lda	__stack_ptr
 6354  75FF     69 01       			adc	#.low.-21+?LSC4
 6355  7601     85 20       			sta	__oper1
 6356  7603     A5 29       			lda	__stack_ptr+1
 6357  7605     69 00       			adc	#.high.-21+?LSC4
 6358  7607     85 21       			sta	__oper1+1
 6359  7609     20 CA DA    			jsr	__store_int_funct_arg
 6360  760C     A9 D5       			lda	#.low.469
 6361  760E     85 20       			sta	__oper1
 6362  7610     A9 01       			lda	#.high.469
 6363  7612     85 21       			sta	__oper1+1
 6364  7614     20 CA DA    			jsr	__store_int_funct_arg
 6365  7617     A2 5A       			ldx	#.low.&GameMTGetTalk
 6366  7619     86 26       			stx	__addr_reg
 6367  761B     A2 90       			ldx	#.high.&GameMTGetTalk+1
 6368  761D     86 27       			stx	__addr_reg+1
 6369                     			.bf_call
 6370  761F     20 F6 D2    			jsr	__banked_function_call
 6371  7622     08          			php
  Tue Jan 13 23:03:19 2026                                                                                               Page  113




 6372  7623     78          			sei
 6373  7624     18          			clc
 6374  7625     A5 28       			lda	__stack_ptr
 6375  7627     69 04       			adc	#.low.4
 6376  7629     85 28       			sta	__stack_ptr
 6377  762B     A5 29       			lda	__stack_ptr+1
 6378  762D     69 00       			adc	#.high.4
 6379  762F     85 29       			sta	__stack_ptr+1
 6380  7631     28          			plp
 6381                     			.c_end	02911h,328
 6382                     	;SysPrintString(6,49,temp)
 6383                     			.c_start  02912h,328
 6384  7632     18          			clc
 6385  7633     A5 28       			lda	__stack_ptr
 6386  7635     69 01       			adc	#.low.-21+?LSC4
 6387  7637     85 20       			sta	__oper1
 6388  7639     A5 29       			lda	__stack_ptr+1
 6389  763B     69 00       			adc	#.high.-21+?LSC4
 6390  763D     85 21       			sta	__oper1+1
 6391  763F     20 CA DA    			jsr	__store_int_funct_arg
 6392  7642     A9 31       			lda	#49
 6393  7644     20 AA DA    			jsr	__store_char_funct_arg
 6394  7647     A9 06       			lda	#6
 6395  7649     A2 9A       			ldx	#.low.&SysPrintString
 6396  764B     86 26       			stx	__addr_reg
 6397  764D     A2 E7       			ldx	#.high.&SysPrintString+1
 6398  764F     86 27       			stx	__addr_reg+1
 6399                     			.bf_call
 6400  7651     20 F6 D2    			jsr	__banked_function_call
 6401  7654     08          			php
 6402  7655     78          			sei
 6403  7656     18          			clc
 6404  7657     A5 28       			lda	__stack_ptr
 6405  7659     69 03       			adc	#.low.3
 6406  765B     85 28       			sta	__stack_ptr
 6407  765D     A5 29       			lda	__stack_ptr+1
 6408  765F     69 00       			adc	#.high.3
 6409  7661     85 29       			sta	__stack_ptr+1
 6410  7663     28          			plp
 6411                     			.c_end	0292bh,328
 6412                     	;break;
 6413                     	;		
 6414                     			.sw_break
 6415  7664     4C DA 78    			jmp	?BOL59
 6416                     	;case 5:
 6417                     	;			
 6418         3517 7667   	?SWL10:		.equal	$
 6419                     	;GameMTGetTalk(473,temp)
 6420                     			.c_start  02947h,331
 6421  7667     18          			clc
 6422  7668     A5 28       			lda	__stack_ptr
 6423  766A     69 01       			adc	#.low.-21+?LSC4
 6424  766C     85 20       			sta	__oper1
 6425  766E     A5 29       			lda	__stack_ptr+1
 6426  7670     69 00       			adc	#.high.-21+?LSC4
 6427  7672     85 21       			sta	__oper1+1
 6428  7674     20 CA DA    			jsr	__store_int_funct_arg
  Tue Jan 13 23:03:19 2026                                                                                               Page  114




 6429  7677     A9 D9       			lda	#.low.473
 6430  7679     85 20       			sta	__oper1
 6431  767B     A9 01       			lda	#.high.473
 6432  767D     85 21       			sta	__oper1+1
 6433  767F     20 CA DA    			jsr	__store_int_funct_arg
 6434  7682     A2 5A       			ldx	#.low.&GameMTGetTalk
 6435  7684     86 26       			stx	__addr_reg
 6436  7686     A2 90       			ldx	#.high.&GameMTGetTalk+1
 6437  7688     86 27       			stx	__addr_reg+1
 6438                     			.bf_call
 6439  768A     20 F6 D2    			jsr	__banked_function_call
 6440  768D     08          			php
 6441  768E     78          			sei
 6442  768F     18          			clc
 6443  7690     A5 28       			lda	__stack_ptr
 6444  7692     69 04       			adc	#.low.4
 6445  7694     85 28       			sta	__stack_ptr
 6446  7696     A5 29       			lda	__stack_ptr+1
 6447  7698     69 00       			adc	#.high.4
 6448  769A     85 29       			sta	__stack_ptr+1
 6449  769C     28          			plp
 6450                     			.c_end	0295eh,331
 6451                     	;SysPrintString(6,11,temp)
 6452                     			.c_start  0295fh,331
 6453  769D     18          			clc
 6454  769E     A5 28       			lda	__stack_ptr
 6455  76A0     69 01       			adc	#.low.-21+?LSC4
 6456  76A2     85 20       			sta	__oper1
 6457  76A4     A5 29       			lda	__stack_ptr+1
 6458  76A6     69 00       			adc	#.high.-21+?LSC4
 6459  76A8     85 21       			sta	__oper1+1
 6460  76AA     20 CA DA    			jsr	__store_int_funct_arg
 6461  76AD     A9 0B       			lda	#11
 6462  76AF     20 AA DA    			jsr	__store_char_funct_arg
 6463  76B2     A9 06       			lda	#6
 6464  76B4     A2 9A       			ldx	#.low.&SysPrintString
 6465  76B6     86 26       			stx	__addr_reg
 6466  76B8     A2 E7       			ldx	#.high.&SysPrintString+1
 6467  76BA     86 27       			stx	__addr_reg+1
 6468                     			.bf_call
 6469  76BC     20 F6 D2    			jsr	__banked_function_call
 6470  76BF     08          			php
 6471  76C0     78          			sei
 6472  76C1     18          			clc
 6473  76C2     A5 28       			lda	__stack_ptr
 6474  76C4     69 03       			adc	#.low.3
 6475  76C6     85 28       			sta	__stack_ptr
 6476  76C8     A5 29       			lda	__stack_ptr+1
 6477  76CA     69 00       			adc	#.high.3
 6478  76CC     85 29       			sta	__stack_ptr+1
 6479  76CE     28          			plp
 6480                     			.c_end	02978h,331
 6481                     	;GameMTGetTalk(474,temp)
 6482                     			.c_start  0297eh,332
 6483  76CF     18          			clc
 6484  76D0     A5 28       			lda	__stack_ptr
 6485  76D2     69 01       			adc	#.low.-21+?LSC4
  Tue Jan 13 23:03:19 2026                                                                                               Page  115




 6486  76D4     85 20       			sta	__oper1
 6487  76D6     A5 29       			lda	__stack_ptr+1
 6488  76D8     69 00       			adc	#.high.-21+?LSC4
 6489  76DA     85 21       			sta	__oper1+1
 6490  76DC     20 CA DA    			jsr	__store_int_funct_arg
 6491  76DF     A9 DA       			lda	#.low.474
 6492  76E1     85 20       			sta	__oper1
 6493  76E3     A9 01       			lda	#.high.474
 6494  76E5     85 21       			sta	__oper1+1
 6495  76E7     20 CA DA    			jsr	__store_int_funct_arg
 6496  76EA     A2 5A       			ldx	#.low.&GameMTGetTalk
 6497  76EC     86 26       			stx	__addr_reg
 6498  76EE     A2 90       			ldx	#.high.&GameMTGetTalk+1
 6499  76F0     86 27       			stx	__addr_reg+1
 6500                     			.bf_call
 6501  76F2     20 F6 D2    			jsr	__banked_function_call
 6502  76F5     08          			php
 6503  76F6     78          			sei
 6504  76F7     18          			clc
 6505  76F8     A5 28       			lda	__stack_ptr
 6506  76FA     69 04       			adc	#.low.4
 6507  76FC     85 28       			sta	__stack_ptr
 6508  76FE     A5 29       			lda	__stack_ptr+1
 6509  7700     69 00       			adc	#.high.4
 6510  7702     85 29       			sta	__stack_ptr+1
 6511  7704     28          			plp
 6512                     			.c_end	02995h,332
 6513                     	;SysPrintString(6,30,temp)
 6514                     			.c_start  02996h,332
 6515  7705     18          			clc
 6516  7706     A5 28       			lda	__stack_ptr
 6517  7708     69 01       			adc	#.low.-21+?LSC4
 6518  770A     85 20       			sta	__oper1
 6519  770C     A5 29       			lda	__stack_ptr+1
 6520  770E     69 00       			adc	#.high.-21+?LSC4
 6521  7710     85 21       			sta	__oper1+1
 6522  7712     20 CA DA    			jsr	__store_int_funct_arg
 6523  7715     A9 1E       			lda	#30
 6524  7717     20 AA DA    			jsr	__store_char_funct_arg
 6525  771A     A9 06       			lda	#6
 6526  771C     A2 9A       			ldx	#.low.&SysPrintString
 6527  771E     86 26       			stx	__addr_reg
 6528  7720     A2 E7       			ldx	#.high.&SysPrintString+1
 6529  7722     86 27       			stx	__addr_reg+1
 6530                     			.bf_call
 6531  7724     20 F6 D2    			jsr	__banked_function_call
 6532  7727     08          			php
 6533  7728     78          			sei
 6534  7729     18          			clc
 6535  772A     A5 28       			lda	__stack_ptr
 6536  772C     69 03       			adc	#.low.3
 6537  772E     85 28       			sta	__stack_ptr
 6538  7730     A5 29       			lda	__stack_ptr+1
 6539  7732     69 00       			adc	#.high.3
 6540  7734     85 29       			sta	__stack_ptr+1
 6541  7736     28          			plp
 6542                     			.c_end	029afh,332
  Tue Jan 13 23:03:19 2026                                                                                               Page  116




 6543                     	;GameMTGetTalk(475,temp)
 6544                     			.c_start  029b5h,333
 6545  7737     18          			clc
 6546  7738     A5 28       			lda	__stack_ptr
 6547  773A     69 01       			adc	#.low.-21+?LSC4
 6548  773C     85 20       			sta	__oper1
 6549  773E     A5 29       			lda	__stack_ptr+1
 6550  7740     69 00       			adc	#.high.-21+?LSC4
 6551  7742     85 21       			sta	__oper1+1
 6552  7744     20 CA DA    			jsr	__store_int_funct_arg
 6553  7747     A9 DB       			lda	#.low.475
 6554  7749     85 20       			sta	__oper1
 6555  774B     A9 01       			lda	#.high.475
 6556  774D     85 21       			sta	__oper1+1
 6557  774F     20 CA DA    			jsr	__store_int_funct_arg
 6558  7752     A2 5A       			ldx	#.low.&GameMTGetTalk
 6559  7754     86 26       			stx	__addr_reg
 6560  7756     A2 90       			ldx	#.high.&GameMTGetTalk+1
 6561  7758     86 27       			stx	__addr_reg+1
 6562                     			.bf_call
 6563  775A     20 F6 D2    			jsr	__banked_function_call
 6564  775D     08          			php
 6565  775E     78          			sei
 6566  775F     18          			clc
 6567  7760     A5 28       			lda	__stack_ptr
 6568  7762     69 04       			adc	#.low.4
 6569  7764     85 28       			sta	__stack_ptr
 6570  7766     A5 29       			lda	__stack_ptr+1
 6571  7768     69 00       			adc	#.high.4
 6572  776A     85 29       			sta	__stack_ptr+1
 6573  776C     28          			plp
 6574                     			.c_end	029cch,333
 6575                     	;SysPrintString(6,49,temp)
 6576                     			.c_start  029cdh,333
 6577  776D     18          			clc
 6578  776E     A5 28       			lda	__stack_ptr
 6579  7770     69 01       			adc	#.low.-21+?LSC4
 6580  7772     85 20       			sta	__oper1
 6581  7774     A5 29       			lda	__stack_ptr+1
 6582  7776     69 00       			adc	#.high.-21+?LSC4
 6583  7778     85 21       			sta	__oper1+1
 6584  777A     20 CA DA    			jsr	__store_int_funct_arg
 6585  777D     A9 31       			lda	#49
 6586  777F     20 AA DA    			jsr	__store_char_funct_arg
 6587  7782     A9 06       			lda	#6
 6588  7784     A2 9A       			ldx	#.low.&SysPrintString
 6589  7786     86 26       			stx	__addr_reg
 6590  7788     A2 E7       			ldx	#.high.&SysPrintString+1
 6591  778A     86 27       			stx	__addr_reg+1
 6592                     			.bf_call
 6593  778C     20 F6 D2    			jsr	__banked_function_call
 6594  778F     08          			php
 6595  7790     78          			sei
 6596  7791     18          			clc
 6597  7792     A5 28       			lda	__stack_ptr
 6598  7794     69 03       			adc	#.low.3
 6599  7796     85 28       			sta	__stack_ptr
  Tue Jan 13 23:03:19 2026                                                                                               Page  117




 6600  7798     A5 29       			lda	__stack_ptr+1
 6601  779A     69 00       			adc	#.high.3
 6602  779C     85 29       			sta	__stack_ptr+1
 6603  779E     28          			plp
 6604                     			.c_end	029e6h,333
 6605                     	;break;
 6606                     	;		
 6607                     			.sw_break
 6608  779F     4C DA 78    			jmp	?BOL59
 6609                     	;case 6:
 6610                     	;			
 6611         471A 77A2   	?SWL11:		.equal	$
 6612                     	;GameMTGetTalk(480,temp)
 6613                     			.c_start  02a02h,336
 6614  77A2     18          			clc
 6615  77A3     A5 28       			lda	__stack_ptr
 6616  77A5     69 01       			adc	#.low.-21+?LSC4
 6617  77A7     85 20       			sta	__oper1
 6618  77A9     A5 29       			lda	__stack_ptr+1
 6619  77AB     69 00       			adc	#.high.-21+?LSC4
 6620  77AD     85 21       			sta	__oper1+1
 6621  77AF     20 CA DA    			jsr	__store_int_funct_arg
 6622  77B2     A9 E0       			lda	#.low.480
 6623  77B4     85 20       			sta	__oper1
 6624  77B6     A9 01       			lda	#.high.480
 6625  77B8     85 21       			sta	__oper1+1
 6626  77BA     20 CA DA    			jsr	__store_int_funct_arg
 6627  77BD     A2 5A       			ldx	#.low.&GameMTGetTalk
 6628  77BF     86 26       			stx	__addr_reg
 6629  77C1     A2 90       			ldx	#.high.&GameMTGetTalk+1
 6630  77C3     86 27       			stx	__addr_reg+1
 6631                     			.bf_call
 6632  77C5     20 F6 D2    			jsr	__banked_function_call
 6633  77C8     08          			php
 6634  77C9     78          			sei
 6635  77CA     18          			clc
 6636  77CB     A5 28       			lda	__stack_ptr
 6637  77CD     69 04       			adc	#.low.4
 6638  77CF     85 28       			sta	__stack_ptr
 6639  77D1     A5 29       			lda	__stack_ptr+1
 6640  77D3     69 00       			adc	#.high.4
 6641  77D5     85 29       			sta	__stack_ptr+1
 6642  77D7     28          			plp
 6643                     			.c_end	02a19h,336
 6644                     	;SysPrintString(6,11,temp)
 6645                     			.c_start  02a1ah,336
 6646  77D8     18          			clc
 6647  77D9     A5 28       			lda	__stack_ptr
 6648  77DB     69 01       			adc	#.low.-21+?LSC4
 6649  77DD     85 20       			sta	__oper1
 6650  77DF     A5 29       			lda	__stack_ptr+1
 6651  77E1     69 00       			adc	#.high.-21+?LSC4
 6652  77E3     85 21       			sta	__oper1+1
 6653  77E5     20 CA DA    			jsr	__store_int_funct_arg
 6654  77E8     A9 0B       			lda	#11
 6655  77EA     20 AA DA    			jsr	__store_char_funct_arg
 6656  77ED     A9 06       			lda	#6
  Tue Jan 13 23:03:19 2026                                                                                               Page  118




 6657  77EF     A2 9A       			ldx	#.low.&SysPrintString
 6658  77F1     86 26       			stx	__addr_reg
 6659  77F3     A2 E7       			ldx	#.high.&SysPrintString+1
 6660  77F5     86 27       			stx	__addr_reg+1
 6661                     			.bf_call
 6662  77F7     20 F6 D2    			jsr	__banked_function_call
 6663  77FA     08          			php
 6664  77FB     78          			sei
 6665  77FC     18          			clc
 6666  77FD     A5 28       			lda	__stack_ptr
 6667  77FF     69 03       			adc	#.low.3
 6668  7801     85 28       			sta	__stack_ptr
 6669  7803     A5 29       			lda	__stack_ptr+1
 6670  7805     69 00       			adc	#.high.3
 6671  7807     85 29       			sta	__stack_ptr+1
 6672  7809     28          			plp
 6673                     			.c_end	02a33h,336
 6674                     	;GameMTGetTalk(481,temp)
 6675                     			.c_start  02a39h,337
 6676  780A     18          			clc
 6677  780B     A5 28       			lda	__stack_ptr
 6678  780D     69 01       			adc	#.low.-21+?LSC4
 6679  780F     85 20       			sta	__oper1
 6680  7811     A5 29       			lda	__stack_ptr+1
 6681  7813     69 00       			adc	#.high.-21+?LSC4
 6682  7815     85 21       			sta	__oper1+1
 6683  7817     20 CA DA    			jsr	__store_int_funct_arg
 6684  781A     A9 E1       			lda	#.low.481
 6685  781C     85 20       			sta	__oper1
 6686  781E     A9 01       			lda	#.high.481
 6687  7820     85 21       			sta	__oper1+1
 6688  7822     20 CA DA    			jsr	__store_int_funct_arg
 6689  7825     A2 5A       			ldx	#.low.&GameMTGetTalk
 6690  7827     86 26       			stx	__addr_reg
 6691  7829     A2 90       			ldx	#.high.&GameMTGetTalk+1
 6692  782B     86 27       			stx	__addr_reg+1
 6693                     			.bf_call
 6694  782D     20 F6 D2    			jsr	__banked_function_call
 6695  7830     08          			php
 6696  7831     78          			sei
 6697  7832     18          			clc
 6698  7833     A5 28       			lda	__stack_ptr
 6699  7835     69 04       			adc	#.low.4
 6700  7837     85 28       			sta	__stack_ptr
 6701  7839     A5 29       			lda	__stack_ptr+1
 6702  783B     69 00       			adc	#.high.4
 6703  783D     85 29       			sta	__stack_ptr+1
 6704  783F     28          			plp
 6705                     			.c_end	02a50h,337
 6706                     	;SysPrintString(6,30,temp)
 6707                     			.c_start  02a51h,337
 6708  7840     18          			clc
 6709  7841     A5 28       			lda	__stack_ptr
 6710  7843     69 01       			adc	#.low.-21+?LSC4
 6711  7845     85 20       			sta	__oper1
 6712  7847     A5 29       			lda	__stack_ptr+1
 6713  7849     69 00       			adc	#.high.-21+?LSC4
  Tue Jan 13 23:03:19 2026                                                                                               Page  119




 6714  784B     85 21       			sta	__oper1+1
 6715  784D     20 CA DA    			jsr	__store_int_funct_arg
 6716  7850     A9 1E       			lda	#30
 6717  7852     20 AA DA    			jsr	__store_char_funct_arg
 6718  7855     A9 06       			lda	#6
 6719  7857     A2 9A       			ldx	#.low.&SysPrintString
 6720  7859     86 26       			stx	__addr_reg
 6721  785B     A2 E7       			ldx	#.high.&SysPrintString+1
 6722  785D     86 27       			stx	__addr_reg+1
 6723                     			.bf_call
 6724  785F     20 F6 D2    			jsr	__banked_function_call
 6725  7862     08          			php
 6726  7863     78          			sei
 6727  7864     18          			clc
 6728  7865     A5 28       			lda	__stack_ptr
 6729  7867     69 03       			adc	#.low.3
 6730  7869     85 28       			sta	__stack_ptr
 6731  786B     A5 29       			lda	__stack_ptr+1
 6732  786D     69 00       			adc	#.high.3
 6733  786F     85 29       			sta	__stack_ptr+1
 6734  7871     28          			plp
 6735                     			.c_end	02a6ah,337
 6736                     	;GameMTGetTalk(482,temp)
 6737                     			.c_start  02a70h,338
 6738  7872     18          			clc
 6739  7873     A5 28       			lda	__stack_ptr
 6740  7875     69 01       			adc	#.low.-21+?LSC4
 6741  7877     85 20       			sta	__oper1
 6742  7879     A5 29       			lda	__stack_ptr+1
 6743  787B     69 00       			adc	#.high.-21+?LSC4
 6744  787D     85 21       			sta	__oper1+1
 6745  787F     20 CA DA    			jsr	__store_int_funct_arg
 6746  7882     A9 E2       			lda	#.low.482
 6747  7884     85 20       			sta	__oper1
 6748  7886     A9 01       			lda	#.high.482
 6749  7888     85 21       			sta	__oper1+1
 6750  788A     20 CA DA    			jsr	__store_int_funct_arg
 6751  788D     A2 5A       			ldx	#.low.&GameMTGetTalk
 6752  788F     86 26       			stx	__addr_reg
 6753  7891     A2 90       			ldx	#.high.&GameMTGetTalk+1
 6754  7893     86 27       			stx	__addr_reg+1
 6755                     			.bf_call
 6756  7895     20 F6 D2    			jsr	__banked_function_call
 6757  7898     08          			php
 6758  7899     78          			sei
 6759  789A     18          			clc
 6760  789B     A5 28       			lda	__stack_ptr
 6761  789D     69 04       			adc	#.low.4
 6762  789F     85 28       			sta	__stack_ptr
 6763  78A1     A5 29       			lda	__stack_ptr+1
 6764  78A3     69 00       			adc	#.high.4
 6765  78A5     85 29       			sta	__stack_ptr+1
 6766  78A7     28          			plp
 6767                     			.c_end	02a87h,338
 6768                     	;SysPrintString(6,49,temp)
 6769                     			.c_start  02a88h,338
 6770  78A8     18          			clc
  Tue Jan 13 23:03:19 2026                                                                                               Page  120




 6771  78A9     A5 28       			lda	__stack_ptr
 6772  78AB     69 01       			adc	#.low.-21+?LSC4
 6773  78AD     85 20       			sta	__oper1
 6774  78AF     A5 29       			lda	__stack_ptr+1
 6775  78B1     69 00       			adc	#.high.-21+?LSC4
 6776  78B3     85 21       			sta	__oper1+1
 6777  78B5     20 CA DA    			jsr	__store_int_funct_arg
 6778  78B8     A9 31       			lda	#49
 6779  78BA     20 AA DA    			jsr	__store_char_funct_arg
 6780  78BD     A9 06       			lda	#6
 6781  78BF     A2 9A       			ldx	#.low.&SysPrintString
 6782  78C1     86 26       			stx	__addr_reg
 6783  78C3     A2 E7       			ldx	#.high.&SysPrintString+1
 6784  78C5     86 27       			stx	__addr_reg+1
 6785                     			.bf_call
 6786  78C7     20 F6 D2    			jsr	__banked_function_call
 6787  78CA     08          			php
 6788  78CB     78          			sei
 6789  78CC     18          			clc
 6790  78CD     A5 28       			lda	__stack_ptr
 6791  78CF     69 03       			adc	#.low.3
 6792  78D1     85 28       			sta	__stack_ptr
 6793  78D3     A5 29       			lda	__stack_ptr+1
 6794  78D5     69 00       			adc	#.high.3
 6795  78D7     85 29       			sta	__stack_ptr+1
 6796  78D9     28          			plp
 6797                     			.c_end	02aa1h,338
 6798                     	;
 6799         3A25 78DA   	?BOL59:		.equal	$
 6800                     	;
 6801                     	;GameMTGetTalk(454,temp)
 6802                     			.c_start  02aa9h,340
 6803  78DA     18          			clc
 6804  78DB     A5 28       			lda	__stack_ptr
 6805  78DD     69 01       			adc	#.low.-21+?LSC4
 6806  78DF     85 20       			sta	__oper1
 6807  78E1     A5 29       			lda	__stack_ptr+1
 6808  78E3     69 00       			adc	#.high.-21+?LSC4
 6809  78E5     85 21       			sta	__oper1+1
 6810  78E7     20 CA DA    			jsr	__store_int_funct_arg
 6811  78EA     A9 C6       			lda	#.low.454
 6812  78EC     85 20       			sta	__oper1
 6813  78EE     A9 01       			lda	#.high.454
 6814  78F0     85 21       			sta	__oper1+1
 6815  78F2     20 CA DA    			jsr	__store_int_funct_arg
 6816  78F5     A2 5A       			ldx	#.low.&GameMTGetTalk
 6817  78F7     86 26       			stx	__addr_reg
 6818  78F9     A2 90       			ldx	#.high.&GameMTGetTalk+1
 6819  78FB     86 27       			stx	__addr_reg+1
 6820                     			.bf_call
 6821  78FD     20 F6 D2    			jsr	__banked_function_call
 6822  7900     08          			php
 6823  7901     78          			sei
 6824  7902     18          			clc
 6825  7903     A5 28       			lda	__stack_ptr
 6826  7905     69 04       			adc	#.low.4
 6827  7907     85 28       			sta	__stack_ptr
  Tue Jan 13 23:03:19 2026                                                                                               Page  121




 6828  7909     A5 29       			lda	__stack_ptr+1
 6829  790B     69 00       			adc	#.high.4
 6830  790D     85 29       			sta	__stack_ptr+1
 6831  790F     28          			plp
 6832                     			.c_end	02ac0h,340
 6833                     	;SysPrintString(6,68,temp)
 6834                     			.c_start  02ac1h,340
 6835  7910     18          			clc
 6836  7911     A5 28       			lda	__stack_ptr
 6837  7913     69 01       			adc	#.low.-21+?LSC4
 6838  7915     85 20       			sta	__oper1
 6839  7917     A5 29       			lda	__stack_ptr+1
 6840  7919     69 00       			adc	#.high.-21+?LSC4
 6841  791B     85 21       			sta	__oper1+1
 6842  791D     20 CA DA    			jsr	__store_int_funct_arg
 6843  7920     A9 44       			lda	#68
 6844  7922     20 AA DA    			jsr	__store_char_funct_arg
 6845  7925     A9 06       			lda	#6
 6846  7927     A2 9A       			ldx	#.low.&SysPrintString
 6847  7929     86 26       			stx	__addr_reg
 6848  792B     A2 E7       			ldx	#.high.&SysPrintString+1
 6849  792D     86 27       			stx	__addr_reg+1
 6850                     			.bf_call
 6851  792F     20 F6 D2    			jsr	__banked_function_call
 6852  7932     08          			php
 6853  7933     78          			sei
 6854  7934     18          			clc
 6855  7935     A5 28       			lda	__stack_ptr
 6856  7937     69 03       			adc	#.low.3
 6857  7939     85 28       			sta	__stack_ptr
 6858  793B     A5 29       			lda	__stack_ptr+1
 6859  793D     69 00       			adc	#.high.3
 6860  793F     85 29       			sta	__stack_ptr+1
 6861  7941     28          			plp
 6862                     			.c_end	02adah,340
 6863                     	;SysRect(4,9,154,28)
 6864                     			.c_start  02adeh,341
 6865  7942     A9 1C       			lda	#28
 6866  7944     20 AA DA    			jsr	__store_char_funct_arg
 6867  7947     A9 9A       			lda	#.low.154
 6868  7949     85 20       			sta	__oper1
 6869  794B     A9 00       			lda	#.high.154
 6870  794D     85 21       			sta	__oper1+1
 6871  794F     A5 20       			lda	__oper1
 6872  7951     20 AA DA    			jsr	__store_char_funct_arg
 6873  7954     A9 09       			lda	#9
 6874  7956     20 AA DA    			jsr	__store_char_funct_arg
 6875  7959     A9 04       			lda	#4
 6876  795B     A2 97       			ldx	#.low.&SysRect
 6877  795D     86 26       			stx	__addr_reg
 6878  795F     A2 E7       			ldx	#.high.&SysRect+1
 6879  7961     86 27       			stx	__addr_reg+1
 6880                     			.bf_call
 6881  7963     20 F6 D2    			jsr	__banked_function_call
 6882  7966     08          			php
 6883  7967     78          			sei
 6884  7968     18          			clc
  Tue Jan 13 23:03:19 2026                                                                                               Page  122




 6885  7969     A5 28       			lda	__stack_ptr
 6886  796B     69 03       			adc	#.low.3
 6887  796D     85 28       			sta	__stack_ptr
 6888  796F     A5 29       			lda	__stack_ptr+1
 6889  7971     69 00       			adc	#.high.3
 6890  7973     85 29       			sta	__stack_ptr+1
 6891  7975     28          			plp
 6892                     			.c_end	02af1h,341
 6893                     	;while
 6894         3618 7976   	?TOL60:		.equal	$
 6895                     	;(1)
 6896                     	;	
 6897                     			.whi_top  02af5h,?BOL60,1,342
 6898  7976     A9 01       			lda	#1
 6899  7978     D0 03       			bne	+3
 6900  797A     4C 79 86    			jmp	?BOL60
 6901         4218 797D   	?PLC50:		.equal	$
 6902                     			.c_end	02afeh,343
 6903                     	;GameMTGetInput()
 6904                     			.c_start  02b05h,344
 6905  797D     A2 2D       			ldx	#.low.&GameMTGetInput
 6906  797F     86 26       			stx	__addr_reg
 6907  7981     A2 90       			ldx	#.high.&GameMTGetInput+1
 6908  7983     86 27       			stx	__addr_reg+1
 6909                     			.bf_call
 6910  7985     20 F6 D2    			jsr	__banked_function_call
 6911                     			.c_end	02b15h,344
 6912                     	;(g_GameMTQuit)
 6913                     			.if_top	02b16h,?BOL61,2,344
 6914  7988     AD 05 18    			lda	_g_GameMTQuit
 6915  798B     D0 03       			bne	+3
 6916  798D     4C 93 79    			jmp	?BOL61
 6917         4519 7990   	?PLC51:		.equal	$
 6918                     			.c_end	02b25h,344
 6919                     	;break;
 6920                     	;		
 6921  7990     4C 79 86    			jmp	?BOL60
 6922                     	;(g_GameMTReadKey==16)
 6923         311A 7993   	?BOL61:		.equal	$
 6924                     			.if_top	02b30h,?BOL62,2,345
 6925  7993     AD 06 18    			lda	_g_GameMTReadKey
 6926  7996     38          			sec
 6927  7997     E9 10       			sbc	#16
 6928  7999     F0 03       			beq	+3
 6929  799B     4C A1 79    			jmp	?BOL62
 6930         431A 799E   	?PLC52:		.equal	$
 6931                     			.c_end	02b46h,345
 6932                     	;continue;
 6933                     	;		
 6934  799E     4C 76 79    			jmp	?TOL60
 6935                     	;(g_GameMTReadKey==7)
 6936         461A 79A1   	?BOL62:		.equal	$
 6937                     			.if_top	02b54h,?BOL63,2,346
 6938  79A1     AD 06 18    			lda	_g_GameMTReadKey
 6939  79A4     38          			sec
 6940  79A5     E9 07       			sbc	#7
 6941  79A7     F0 03       			beq	+3
  Tue Jan 13 23:03:19 2026                                                                                               Page  123




 6942  79A9     4C AF 79    			jmp	?BOL63
 6943         3A22 79AC   	?PLC53:		.equal	$
 6944                     			.c_end	02b69h,346
 6945                     	;break;
 6946                     	;		
 6947  79AC     4C 79 86    			jmp	?BOL60
 6948                     	;(g_GameMTReadKey==3&&choice+1>1)
 6949                     	;		
 6950         4422 79AF   	?BOL63:		.equal	$
 6951                     			.if_top	02b74h,?BOL64,2,347
 6952  79AF     AD 06 18    			lda	_g_GameMTReadKey
 6953  79B2     38          			sec
 6954  79B3     E9 03       			sbc	#3
 6955  79B5     F0 03       			beq	+3
 6956  79B7     4C 7F 7A    			jmp	?BOL64
 6957         3823 79BA   	?ACC11:		.equal	$
 6958  79BA     A0 15       			ldy	#-1+?LSC4
 6959  79BC     B1 28       			lda	(__stack_ptr),y
 6960  79BE     18          			clc
 6961  79BF     69 01       			adc	#1
 6962  79C1     38          			sec
 6963  79C2     E9 01       			sbc	#1
 6964  79C4     B0 03       			bcs	+3
 6965  79C6     4C 7F 7A    			jmp	?BOL64
 6966  79C9     D0 03       			bne	+3
 6967  79CB     4C 7F 7A    			jmp	?BOL64
 6968         4324 79CE   	?PLC54:		.equal	$
 6969                     			.c_end	02b97h,348
 6970                     	;SysRectClear(4,9+choice*19,154,28+choice*19)
 6971                     			.c_start  02ba0h,349
 6972  79CE     A9 13       			lda	#19
 6973  79D0     85 23       			sta	__oper2
 6974  79D2     A0 15       			ldy	#-1+?LSC4
 6975  79D4     B1 28       			lda	(__stack_ptr),y
 6976  79D6     20 EF DC    			jsr	__uns_mult_char
 6977  79D9     18          			clc
 6978  79DA     69 09       			adc	#9
 6979  79DC     A0 16       			ldy	#+0+?LSC4
 6980  79DE     91 28       			sta	(__stack_ptr),y
 6981  79E0     A9 13       			lda	#19
 6982  79E2     85 23       			sta	__oper2
 6983  79E4     A0 15       			ldy	#-1+?LSC4
 6984  79E6     B1 28       			lda	(__stack_ptr),y
 6985  79E8     20 EF DC    			jsr	__uns_mult_char
 6986  79EB     18          			clc
 6987  79EC     69 1C       			adc	#28
 6988  79EE     20 AA DA    			jsr	__store_char_funct_arg
 6989  79F1     A9 9A       			lda	#.low.154
 6990  79F3     85 20       			sta	__oper1
 6991  79F5     A9 00       			lda	#.high.154
 6992  79F7     85 21       			sta	__oper1+1
 6993  79F9     A5 20       			lda	__oper1
 6994  79FB     20 AA DA    			jsr	__store_char_funct_arg
 6995  79FE     A0 18       			ldy	#+0+?LSC4+2
 6996  7A00     B1 28       			lda	(__stack_ptr),y
 6997  7A02     20 AA DA    			jsr	__store_char_funct_arg
 6998  7A05     A9 04       			lda	#4
  Tue Jan 13 23:03:19 2026                                                                                               Page  124




 6999  7A07     A2 BF       			ldx	#.low.&SysRectClear
 7000  7A09     86 26       			stx	__addr_reg
 7001  7A0B     A2 E8       			ldx	#.high.&SysRectClear+1
 7002  7A0D     86 27       			stx	__addr_reg+1
 7003                     			.bf_call
 7004  7A0F     20 F6 D2    			jsr	__banked_function_call
 7005  7A12     08          			php
 7006  7A13     78          			sei
 7007  7A14     18          			clc
 7008  7A15     A5 28       			lda	__stack_ptr
 7009  7A17     69 03       			adc	#.low.3
 7010  7A19     85 28       			sta	__stack_ptr
 7011  7A1B     A5 29       			lda	__stack_ptr+1
 7012  7A1D     69 00       			adc	#.high.3
 7013  7A1F     85 29       			sta	__stack_ptr+1
 7014  7A21     28          			plp
 7015                     			.c_end	02bcch,349
 7016                     	;choice--
 7017                     			.c_start  02bd2h,350
 7018  7A22     A0 15       			ldy	#-1+?LSC4
 7019  7A24     B1 28       			lda	(__stack_ptr),y
 7020  7A26     38          			sec
 7021  7A27     E9 01       			sbc	#1
 7022  7A29     91 28       			sta	(__stack_ptr),y
 7023                     			.c_end	02bdah,350
 7024                     	;SysRect(4,9+choice*19,154,28+choice*19)
 7025                     			.c_start  02be0h,351
 7026  7A2B     A9 13       			lda	#19
 7027  7A2D     85 23       			sta	__oper2
 7028  7A2F     A0 15       			ldy	#-1+?LSC4
 7029  7A31     B1 28       			lda	(__stack_ptr),y
 7030  7A33     20 EF DC    			jsr	__uns_mult_char
 7031  7A36     18          			clc
 7032  7A37     69 09       			adc	#9
 7033  7A39     A0 16       			ldy	#+0+?LSC4
 7034  7A3B     91 28       			sta	(__stack_ptr),y
 7035  7A3D     A9 13       			lda	#19
 7036  7A3F     85 23       			sta	__oper2
 7037  7A41     A0 15       			ldy	#-1+?LSC4
 7038  7A43     B1 28       			lda	(__stack_ptr),y
 7039  7A45     20 EF DC    			jsr	__uns_mult_char
 7040  7A48     18          			clc
 7041  7A49     69 1C       			adc	#28
 7042  7A4B     20 AA DA    			jsr	__store_char_funct_arg
 7043  7A4E     A9 9A       			lda	#.low.154
 7044  7A50     85 20       			sta	__oper1
 7045  7A52     A9 00       			lda	#.high.154
 7046  7A54     85 21       			sta	__oper1+1
 7047  7A56     A5 20       			lda	__oper1
 7048  7A58     20 AA DA    			jsr	__store_char_funct_arg
 7049  7A5B     A0 18       			ldy	#+0+?LSC4+2
 7050  7A5D     B1 28       			lda	(__stack_ptr),y
 7051  7A5F     20 AA DA    			jsr	__store_char_funct_arg
 7052  7A62     A9 04       			lda	#4
 7053  7A64     A2 97       			ldx	#.low.&SysRect
 7054  7A66     86 26       			stx	__addr_reg
 7055  7A68     A2 E7       			ldx	#.high.&SysRect+1
  Tue Jan 13 23:03:19 2026                                                                                               Page  125




 7056  7A6A     86 27       			stx	__addr_reg+1
 7057                     			.bf_call
 7058  7A6C     20 F6 D2    			jsr	__banked_function_call
 7059  7A6F     08          			php
 7060  7A70     78          			sei
 7061  7A71     18          			clc
 7062  7A72     A5 28       			lda	__stack_ptr
 7063  7A74     69 03       			adc	#.low.3
 7064  7A76     85 28       			sta	__stack_ptr
 7065  7A78     A5 29       			lda	__stack_ptr+1
 7066  7A7A     69 00       			adc	#.high.3
 7067  7A7C     85 29       			sta	__stack_ptr+1
 7068  7A7E     28          			plp
 7069                     			.c_end	02c07h,351
 7070                     	;
 7071                     	;(g_GameMTReadKey==4&&choice<3)
 7072                     	;		
 7073         4618 7A7F   	?BOL64:		.equal	$
 7074                     			.if_top	02c11h,?BOL65,2,353
 7075  7A7F     AD 06 18    			lda	_g_GameMTReadKey
 7076  7A82     38          			sec
 7077  7A83     E9 04       			sbc	#4
 7078  7A85     F0 03       			beq	+3
 7079  7A87     4C 47 7B    			jmp	?BOL65
 7080         3819 7A8A   	?ACC12:		.equal	$
 7081  7A8A     A0 15       			ldy	#-1+?LSC4
 7082  7A8C     B1 28       			lda	(__stack_ptr),y
 7083  7A8E     38          			sec
 7084  7A8F     E9 03       			sbc	#3
 7085  7A91     90 03       			bcc	+3
 7086  7A93     4C 47 7B    			jmp	?BOL65
 7087         341A 7A96   	?PLC55:		.equal	$
 7088                     			.c_end	02c32h,354
 7089                     	;SysRectClear(4,9+choice*19,154,28+choice*19)
 7090                     			.c_start  02c3bh,355
 7091  7A96     A9 13       			lda	#19
 7092  7A98     85 23       			sta	__oper2
 7093  7A9A     A0 15       			ldy	#-1+?LSC4
 7094  7A9C     B1 28       			lda	(__stack_ptr),y
 7095  7A9E     20 EF DC    			jsr	__uns_mult_char
 7096  7AA1     18          			clc
 7097  7AA2     69 09       			adc	#9
 7098  7AA4     A0 16       			ldy	#+0+?LSC4
 7099  7AA6     91 28       			sta	(__stack_ptr),y
 7100  7AA8     A9 13       			lda	#19
 7101  7AAA     85 23       			sta	__oper2
 7102  7AAC     A0 15       			ldy	#-1+?LSC4
 7103  7AAE     B1 28       			lda	(__stack_ptr),y
 7104  7AB0     20 EF DC    			jsr	__uns_mult_char
 7105  7AB3     18          			clc
 7106  7AB4     69 1C       			adc	#28
 7107  7AB6     20 AA DA    			jsr	__store_char_funct_arg
 7108  7AB9     A9 9A       			lda	#.low.154
 7109  7ABB     85 20       			sta	__oper1
 7110  7ABD     A9 00       			lda	#.high.154
 7111  7ABF     85 21       			sta	__oper1+1
 7112  7AC1     A5 20       			lda	__oper1
  Tue Jan 13 23:03:19 2026                                                                                               Page  126




 7113  7AC3     20 AA DA    			jsr	__store_char_funct_arg
 7114  7AC6     A0 18       			ldy	#+0+?LSC4+2
 7115  7AC8     B1 28       			lda	(__stack_ptr),y
 7116  7ACA     20 AA DA    			jsr	__store_char_funct_arg
 7117  7ACD     A9 04       			lda	#4
 7118  7ACF     A2 BF       			ldx	#.low.&SysRectClear
 7119  7AD1     86 26       			stx	__addr_reg
 7120  7AD3     A2 E8       			ldx	#.high.&SysRectClear+1
 7121  7AD5     86 27       			stx	__addr_reg+1
 7122                     			.bf_call
 7123  7AD7     20 F6 D2    			jsr	__banked_function_call
 7124  7ADA     08          			php
 7125  7ADB     78          			sei
 7126  7ADC     18          			clc
 7127  7ADD     A5 28       			lda	__stack_ptr
 7128  7ADF     69 03       			adc	#.low.3
 7129  7AE1     85 28       			sta	__stack_ptr
 7130  7AE3     A5 29       			lda	__stack_ptr+1
 7131  7AE5     69 00       			adc	#.high.3
 7132  7AE7     85 29       			sta	__stack_ptr+1
 7133  7AE9     28          			plp
 7134                     			.c_end	02c67h,355
 7135                     	;choice++
 7136                     			.c_start  02c6dh,356
 7137  7AEA     A0 15       			ldy	#-1+?LSC4
 7138  7AEC     B1 28       			lda	(__stack_ptr),y
 7139  7AEE     18          			clc
 7140  7AEF     69 01       			adc	#1
 7141  7AF1     91 28       			sta	(__stack_ptr),y
 7142                     			.c_end	02c75h,356
 7143                     	;SysRect(4,9+choice*19,154,28+choice*19)
 7144                     			.c_start  02c7bh,357
 7145  7AF3     A9 13       			lda	#19
 7146  7AF5     85 23       			sta	__oper2
 7147  7AF7     A0 15       			ldy	#-1+?LSC4
 7148  7AF9     B1 28       			lda	(__stack_ptr),y
 7149  7AFB     20 EF DC    			jsr	__uns_mult_char
 7150  7AFE     18          			clc
 7151  7AFF     69 09       			adc	#9
 7152  7B01     A0 16       			ldy	#+0+?LSC4
 7153  7B03     91 28       			sta	(__stack_ptr),y
 7154  7B05     A9 13       			lda	#19
 7155  7B07     85 23       			sta	__oper2
 7156  7B09     A0 15       			ldy	#-1+?LSC4
 7157  7B0B     B1 28       			lda	(__stack_ptr),y
 7158  7B0D     20 EF DC    			jsr	__uns_mult_char
 7159  7B10     18          			clc
 7160  7B11     69 1C       			adc	#28
 7161  7B13     20 AA DA    			jsr	__store_char_funct_arg
 7162  7B16     A9 9A       			lda	#.low.154
 7163  7B18     85 20       			sta	__oper1
 7164  7B1A     A9 00       			lda	#.high.154
 7165  7B1C     85 21       			sta	__oper1+1
 7166  7B1E     A5 20       			lda	__oper1
 7167  7B20     20 AA DA    			jsr	__store_char_funct_arg
 7168  7B23     A0 18       			ldy	#+0+?LSC4+2
 7169  7B25     B1 28       			lda	(__stack_ptr),y
  Tue Jan 13 23:03:19 2026                                                                                               Page  127




 7170  7B27     20 AA DA    			jsr	__store_char_funct_arg
 7171  7B2A     A9 04       			lda	#4
 7172  7B2C     A2 97       			ldx	#.low.&SysRect
 7173  7B2E     86 26       			stx	__addr_reg
 7174  7B30     A2 E7       			ldx	#.high.&SysRect+1
 7175  7B32     86 27       			stx	__addr_reg+1
 7176                     			.bf_call
 7177  7B34     20 F6 D2    			jsr	__banked_function_call
 7178  7B37     08          			php
 7179  7B38     78          			sei
 7180  7B39     18          			clc
 7181  7B3A     A5 28       			lda	__stack_ptr
 7182  7B3C     69 03       			adc	#.low.3
 7183  7B3E     85 28       			sta	__stack_ptr
 7184  7B40     A5 29       			lda	__stack_ptr+1
 7185  7B42     69 00       			adc	#.high.3
 7186  7B44     85 29       			sta	__stack_ptr+1
 7187  7B46     28          			plp
 7188                     			.c_end	02ca2h,357
 7189                     	;
 7190                     	;(g_GameMTReadKey==6)
 7191                     	;		
 7192         3715 7B47   	?BOL65:		.equal	$
 7193                     			.if_top	02cach,?BOL66,2,359
 7194  7B47     AD 06 18    			lda	_g_GameMTReadKey
 7195  7B4A     38          			sec
 7196  7B4B     E9 06       			sbc	#6
 7197  7B4D     F0 03       			beq	+3
 7198  7B4F     4C 76 86    			jmp	?BOL66
 7199         4715 7B52   	?PLC56:		.equal	$
 7200                     			.c_end	02cc3h,360
 7201                     	;flag=0
 7202                     			.c_start  02ccch,361
 7203  7B52     A0 00       			ldy	#-22+?LSC4
 7204  7B54     A9 00       			lda	#0
 7205  7B56     91 28       			sta	(__stack_ptr),y
 7206                     			.c_end	02cd2h,361
 7207                     	;(choice+1==1)
 7208                     	;			
 7209                     			.if_top	02cd8h,?BOL67,3,362
 7210  7B58     A0 15       			ldy	#-1+?LSC4
 7211  7B5A     B1 28       			lda	(__stack_ptr),y
 7212  7B5C     18          			clc
 7213  7B5D     69 01       			adc	#1
 7214  7B5F     38          			sec
 7215  7B60     E9 01       			sbc	#1
 7216  7B62     F0 03       			beq	+3
 7217  7B64     4C D7 7E    			jmp	?BOL67
 7218         3517 7B67   	?PLC57:		.equal	$
 7219                     			.c_end	02ce8h,363
 7220                     	;(kind)
 7221                     	;				
 7222                     			.c_start  02cf3h,364
 7223  7B67     A0 17       			ldy	#+0+?LSC4+?TSC4
 7224  7B69     B1 28       			lda	(__stack_ptr),y
 7225  7B6B     85 23       			sta	__oper2
 7226  7B6D     A2 00       			ldx	#0
  Tue Jan 13 23:03:19 2026                                                                                               Page  128




 7227  7B6F     86 24       			stx	__oper2+1
 7228         4717 7B71   	?PLC58:		.equal	$
 7229                     			.c_end	02d00h,365
 7230                     	;
 7231                     			.sw_start
 7232                     			.const_data_psfar
 7233  8DCB     0100        	?CGL6:	.word	1
 7234  8DCD     0200        			.word	2
 7235  8DCF     0300        			.word	3
 7236  8DD1     0400        			.word	4
 7237  8DD3     0500        			.word	5
 7238  8DD5     0600        			.word	6
 7239  8DD7     887B        	?CGL7:	.word	?SWL12
 7240                     			.sw_case ?SWL12
 7241  8DD9     4B7C        			.word	?SWL13
 7242                     			.sw_case ?SWL13
 7243  8DDB     0E7D        			.word	?SWL14
 7244                     			.sw_case ?SWL14
 7245  8DDD     827D        			.word	?SWL15
 7246                     			.sw_case ?SWL15
 7247  8DDF     EA7D        			.word	?SWL16
 7248                     			.sw_case ?SWL16
 7249  8DE1     627E        			.word	?SWL17
 7250                     			.sw_case ?SWL17
 7251                     			.program_psfar
 7252  7B71     A9 CB       			lda	#.low.?CGL6
 7253  7B73     85 26       			sta	__addr_reg
 7254  7B75     A9 8D       			lda	#.high.?CGL6
 7255  7B77     85 27       			sta	__addr_reg+1
 7256                     			.sw_case ?BOL68
 7257  7B79     A2 06       			ldx	#.low.6
 7258  7B7B     A0 00       			ldy	#.high.6
 7259  7B7D     A9 D7       			lda	#.low.?BOL68
 7260  7B7F     85 20       			sta	__oper1
 7261  7B81     A9 7E       			lda	#.high.?BOL68
 7262  7B83     85 21       			sta	__oper1+1
 7263  7B85     4C 5C DB    			jmp	__switch_comparison
 7264                     			.sw_end
 7265                     	;case 1:
 7266                     	;						
 7267         3619 7B88   	?SWL12:		.equal	$
 7268                     	;(g_GameMTHeroExp>99)
 7269                     	;						
 7270                     			.if_top	02d1ch,?BOL69,4,367
 7271  7B88     A9 63       			lda	#.low.99
 7272  7B8A     85 23       			sta	__oper2
 7273  7B8C     A9 00       			lda	#.high.99
 7274  7B8E     85 24       			sta	__oper2+1
 7275  7B90     AD A4 1F    			lda	_g_GameMTHeroExp
 7276  7B93     85 20       			sta	__oper1
 7277  7B95     AD A5 1F    			lda	_g_GameMTHeroExp+1
 7278  7B98     85 21       			sta	__oper1+1
 7279  7B9A     20 40 D3    			jsr	__cmp_int
 7280  7B9D     B0 03       			bcs	+3
 7281  7B9F     4C 42 7C    			jmp	?BOL69
 7282  7BA2     D0 03       			bne	+3
 7283  7BA4     4C 42 7C    			jmp	?BOL69
  Tue Jan 13 23:03:19 2026                                                                                               Page  129




 7284         3522 7BA7   	?PLC59:		.equal	$
 7285                     			.c_end	02d33h,368
 7286                     	;g_GameMTHeroLv+=1
 7287                     			.c_start  02d44h,369
 7288  7BA7     AD 09 18    			lda	_g_GameMTHeroLv
 7289  7BAA     18          			clc
 7290  7BAB     69 01       			adc	#1
 7291  7BAD     8D 09 18    			sta	_g_GameMTHeroLv
 7292                     			.c_end	02d55h,369
 7293                     	;g_GameMTHeroExp-=100
 7294                     			.c_start  02d5fh,370
 7295  7BB0     AD A4 1F    			lda	_g_GameMTHeroExp
 7296  7BB3     85 20       			sta	__oper1
 7297  7BB5     AD A5 1F    			lda	_g_GameMTHeroExp+1
 7298  7BB8     85 21       			sta	__oper1+1
 7299  7BBA     A5 20       			lda	__oper1
 7300  7BBC     38          			sec
 7301  7BBD     E9 64       			sbc	#.low.100
 7302  7BBF     85 20       			sta	__oper1
 7303  7BC1     A5 21       			lda	__oper1+1
 7304  7BC3     E9 00       			sbc	#.high.100
 7305  7BC5     85 21       			sta	__oper1+1
 7306  7BC7     A5 20       			lda	__oper1
 7307  7BC9     8D A4 1F    			sta	_g_GameMTHeroExp
 7308  7BCC     A5 21       			lda	__oper1+1
 7309  7BCE     8D A5 1F    			sta	_g_GameMTHeroExp+1
 7310                     			.c_end	02d73h,370
 7311                     	;g_GameMTHeroLife+=1000
 7312                     			.c_start  02d7dh,371
 7313                     			.const_data_psfar
 7314  8DE3     E803 0000   	?CGL8:	.long	1000
 7315                     			.program_psfar
 7316  7BD1     A2 E3       			ldx	#.low.?CGL8
 7317  7BD3     86 23       			stx	__oper2
 7318  7BD5     A2 8D       			ldx	#.high.?CGL8
 7319  7BD7     86 24       			stx	__oper2+1
 7320  7BD9     A9 AA       			lda	#.low._g_GameMTHeroLife
 7321  7BDB     85 20       			sta	__oper1
 7322  7BDD     A9 1F       			lda	#.high._g_GameMTHeroLife
 7323  7BDF     85 21       			sta	__oper1+1
 7324  7BE1     20 9D D2    			jsr	__add_long
 7325  7BE4     A5 20       			lda	__oper1
 7326  7BE6     85 23       			sta	__oper2
 7327  7BE8     A5 21       			lda	__oper1+1
 7328  7BEA     85 24       			sta	__oper2+1
 7329  7BEC     A9 AA       			lda	#.low._g_GameMTHeroLife
 7330  7BEE     85 20       			sta	__oper1
 7331  7BF0     A9 1F       			lda	#.high._g_GameMTHeroLife
 7332  7BF2     85 21       			sta	__oper1+1
 7333  7BF4     20 E6 DA    			jsr	__store_long
 7334                     			.c_end	02d93h,371
 7335                     	;g_GameMTHeroDamige+=7
 7336                     			.c_start  02d9dh,372
 7337  7BF7     AD 9E 1F    			lda	_g_GameMTHeroDamige
 7338  7BFA     85 20       			sta	__oper1
 7339  7BFC     AD 9F 1F    			lda	_g_GameMTHeroDamige+1
 7340  7BFF     85 21       			sta	__oper1+1
  Tue Jan 13 23:03:19 2026                                                                                               Page  130




 7341  7C01     A5 20       			lda	__oper1
 7342  7C03     18          			clc
 7343  7C04     69 07       			adc	#.low.7
 7344  7C06     85 20       			sta	__oper1
 7345  7C08     A5 21       			lda	__oper1+1
 7346  7C0A     69 00       			adc	#.high.7
 7347  7C0C     85 21       			sta	__oper1+1
 7348  7C0E     A5 20       			lda	__oper1
 7349  7C10     8D 9E 1F    			sta	_g_GameMTHeroDamige
 7350  7C13     A5 21       			lda	__oper1+1
 7351  7C15     8D 9F 1F    			sta	_g_GameMTHeroDamige+1
 7352                     			.c_end	02db2h,372
 7353                     	;g_GameMTHeroDefence+=7
 7354                     			.c_start  02dbch,373
 7355  7C18     AD A0 1F    			lda	_g_GameMTHeroDefence
 7356  7C1B     85 20       			sta	__oper1
 7357  7C1D     AD A1 1F    			lda	_g_GameMTHeroDefence+1
 7358  7C20     85 21       			sta	__oper1+1
 7359  7C22     A5 20       			lda	__oper1
 7360  7C24     18          			clc
 7361  7C25     69 07       			adc	#.low.7
 7362  7C27     85 20       			sta	__oper1
 7363  7C29     A5 21       			lda	__oper1+1
 7364  7C2B     69 00       			adc	#.high.7
 7365  7C2D     85 21       			sta	__oper1+1
 7366  7C2F     A5 20       			lda	__oper1
 7367  7C31     8D A0 1F    			sta	_g_GameMTHeroDefence
 7368  7C34     A5 21       			lda	__oper1+1
 7369  7C36     8D A1 1F    			sta	_g_GameMTHeroDefence+1
 7370                     			.c_end	02dd2h,373
 7371                     	;flag=1
 7372                     			.c_start  02ddch,374
 7373  7C39     A0 00       			ldy	#-22+?LSC4
 7374  7C3B     A9 01       			lda	#1
 7375  7C3D     91 28       			sta	(__stack_ptr),y
 7376                     			.c_end	02de2h,374
 7377                     	;
 7378                     	;else 
 7379  7C3F     4C 48 7C    			jmp	?EOI69
 7380                     			.if_else  ?EOI69,4,376
 7381         4714 7C42   	?BOL69:		.equal	$
 7382                     	;flag=2
 7383                     			.c_start  02df9h,376
 7384  7C42     A0 00       			ldy	#-22+?LSC4
 7385  7C44     A9 02       			lda	#2
 7386  7C46     91 28       			sta	(__stack_ptr),y
 7387                     			.c_end	02dffh,376
 7388                     	;;
 7389                     	;						
 7390         3715 7C48   	?EOI69:		.equal	$
 7391                     	;break;
 7392                     	;					
 7393                     			.sw_break
 7394  7C48     4C D7 7E    			jmp	?BOL68
 7395                     	;case 2:
 7396                     	;						
 7397         3915 7C4B   	?SWL13:		.equal	$
  Tue Jan 13 23:03:19 2026                                                                                               Page  131




 7398                     	;(g_GameMTHeroExp>269)
 7399                     	;						
 7400                     			.if_top	02e24h,?BOL70,4,379
 7401  7C4B     A9 0D       			lda	#.low.269
 7402  7C4D     85 23       			sta	__oper2
 7403  7C4F     A9 01       			lda	#.high.269
 7404  7C51     85 24       			sta	__oper2+1
 7405  7C53     AD A4 1F    			lda	_g_GameMTHeroExp
 7406  7C56     85 20       			sta	__oper1
 7407  7C58     AD A5 1F    			lda	_g_GameMTHeroExp+1
 7408  7C5B     85 21       			sta	__oper1+1
 7409  7C5D     20 40 D3    			jsr	__cmp_int
 7410  7C60     B0 03       			bcs	+3
 7411  7C62     4C 05 7D    			jmp	?BOL70
 7412  7C65     D0 03       			bne	+3
 7413  7C67     4C 05 7D    			jmp	?BOL70
 7414         3817 7C6A   	?PLC60:		.equal	$
 7415                     			.c_end	02e3ch,380
 7416                     	;g_GameMTHeroLv+=3
 7417                     			.c_start  02e4dh,381
 7418  7C6A     AD 09 18    			lda	_g_GameMTHeroLv
 7419  7C6D     18          			clc
 7420  7C6E     69 03       			adc	#3
 7421  7C70     8D 09 18    			sta	_g_GameMTHeroLv
 7422                     			.c_end	02e5eh,381
 7423                     	;g_GameMTHeroExp-=270
 7424                     			.c_start  02e68h,382
 7425  7C73     AD A4 1F    			lda	_g_GameMTHeroExp
 7426  7C76     85 20       			sta	__oper1
 7427  7C78     AD A5 1F    			lda	_g_GameMTHeroExp+1
 7428  7C7B     85 21       			sta	__oper1+1
 7429  7C7D     A5 20       			lda	__oper1
 7430  7C7F     38          			sec
 7431  7C80     E9 0E       			sbc	#.low.270
 7432  7C82     85 20       			sta	__oper1
 7433  7C84     A5 21       			lda	__oper1+1
 7434  7C86     E9 01       			sbc	#.high.270
 7435  7C88     85 21       			sta	__oper1+1
 7436  7C8A     A5 20       			lda	__oper1
 7437  7C8C     8D A4 1F    			sta	_g_GameMTHeroExp
 7438  7C8F     A5 21       			lda	__oper1+1
 7439  7C91     8D A5 1F    			sta	_g_GameMTHeroExp+1
 7440                     			.c_end	02e7ch,382
 7441                     	;g_GameMTHeroLife+=3000
 7442                     			.c_start  02e86h,383
 7443                     			.const_data_psfar
 7444  8DE7     B80B 0000   	?CGL9:	.long	3000
 7445                     			.program_psfar
 7446  7C94     A2 E7       			ldx	#.low.?CGL9
 7447  7C96     86 23       			stx	__oper2
 7448  7C98     A2 8D       			ldx	#.high.?CGL9
 7449  7C9A     86 24       			stx	__oper2+1
 7450  7C9C     A9 AA       			lda	#.low._g_GameMTHeroLife
 7451  7C9E     85 20       			sta	__oper1
 7452  7CA0     A9 1F       			lda	#.high._g_GameMTHeroLife
 7453  7CA2     85 21       			sta	__oper1+1
 7454  7CA4     20 9D D2    			jsr	__add_long
  Tue Jan 13 23:03:19 2026                                                                                               Page  132




 7455  7CA7     A5 20       			lda	__oper1
 7456  7CA9     85 23       			sta	__oper2
 7457  7CAB     A5 21       			lda	__oper1+1
 7458  7CAD     85 24       			sta	__oper2+1
 7459  7CAF     A9 AA       			lda	#.low._g_GameMTHeroLife
 7460  7CB1     85 20       			sta	__oper1
 7461  7CB3     A9 1F       			lda	#.high._g_GameMTHeroLife
 7462  7CB5     85 21       			sta	__oper1+1
 7463  7CB7     20 E6 DA    			jsr	__store_long
 7464                     			.c_end	02e9ch,383
 7465                     	;g_GameMTHeroDamige+=21
 7466                     			.c_start  02ea6h,384
 7467  7CBA     AD 9E 1F    			lda	_g_GameMTHeroDamige
 7468  7CBD     85 20       			sta	__oper1
 7469  7CBF     AD 9F 1F    			lda	_g_GameMTHeroDamige+1
 7470  7CC2     85 21       			sta	__oper1+1
 7471  7CC4     A5 20       			lda	__oper1
 7472  7CC6     18          			clc
 7473  7CC7     69 15       			adc	#.low.21
 7474  7CC9     85 20       			sta	__oper1
 7475  7CCB     A5 21       			lda	__oper1+1
 7476  7CCD     69 00       			adc	#.high.21
 7477  7CCF     85 21       			sta	__oper1+1
 7478  7CD1     A5 20       			lda	__oper1
 7479  7CD3     8D 9E 1F    			sta	_g_GameMTHeroDamige
 7480  7CD6     A5 21       			lda	__oper1+1
 7481  7CD8     8D 9F 1F    			sta	_g_GameMTHeroDamige+1
 7482                     			.c_end	02ebch,384
 7483                     	;g_GameMTHeroDefence+=21
 7484                     			.c_start  02ec6h,385
 7485  7CDB     AD A0 1F    			lda	_g_GameMTHeroDefence
 7486  7CDE     85 20       			sta	__oper1
 7487  7CE0     AD A1 1F    			lda	_g_GameMTHeroDefence+1
 7488  7CE3     85 21       			sta	__oper1+1
 7489  7CE5     A5 20       			lda	__oper1
 7490  7CE7     18          			clc
 7491  7CE8     69 15       			adc	#.low.21
 7492  7CEA     85 20       			sta	__oper1
 7493  7CEC     A5 21       			lda	__oper1+1
 7494  7CEE     69 00       			adc	#.high.21
 7495  7CF0     85 21       			sta	__oper1+1
 7496  7CF2     A5 20       			lda	__oper1
 7497  7CF4     8D A0 1F    			sta	_g_GameMTHeroDefence
 7498  7CF7     A5 21       			lda	__oper1+1
 7499  7CF9     8D A1 1F    			sta	_g_GameMTHeroDefence+1
 7500                     			.c_end	02eddh,385
 7501                     	;flag=1
 7502                     			.c_start  02ee7h,386
 7503  7CFC     A0 00       			ldy	#-22+?LSC4
 7504  7CFE     A9 01       			lda	#1
 7505  7D00     91 28       			sta	(__stack_ptr),y
 7506                     			.c_end	02eedh,386
 7507                     	;
 7508                     	;else 
 7509  7D02     4C 0B 7D    			jmp	?EOI70
 7510                     			.if_else  ?EOI70,4,388
 7511         3311 7D05   	?BOL70:		.equal	$
  Tue Jan 13 23:03:19 2026                                                                                               Page  133




 7512                     	;flag=2
 7513                     			.c_start  02f04h,388
 7514  7D05     A0 00       			ldy	#-22+?LSC4
 7515  7D07     A9 02       			lda	#2
 7516  7D09     91 28       			sta	(__stack_ptr),y
 7517                     			.c_end	02f0ah,388
 7518                     	;;
 7519                     	;						
 7520         3A11 7D0B   	?EOI70:		.equal	$
 7521                     	;break;
 7522                     	;					
 7523                     			.sw_break
 7524  7D0B     4C D7 7E    			jmp	?BOL68
 7525                     	;case 3:
 7526                     	;						
 7527         4311 7D0E   	?SWL14:		.equal	$
 7528                     	;(g_GameMTHeroMoney>9)
 7529                     	;						
 7530                     			.if_top	02f2fh,?BOL71,4,391
 7531  7D0E     A9 09       			lda	#.low.9
 7532  7D10     85 23       			sta	__oper2
 7533  7D12     A9 00       			lda	#.high.9
 7534  7D14     85 24       			sta	__oper2+1
 7535  7D16     AD A2 1F    			lda	_g_GameMTHeroMoney
 7536  7D19     85 20       			sta	__oper1
 7537  7D1B     AD A3 1F    			lda	_g_GameMTHeroMoney+1
 7538  7D1E     85 21       			sta	__oper1+1
 7539  7D20     20 40 D3    			jsr	__cmp_int
 7540  7D23     B0 03       			bcs	+3
 7541  7D25     4C 79 7D    			jmp	?BOL71
 7542  7D28     D0 03       			bne	+3
 7543  7D2A     4C 79 7D    			jmp	?BOL71
 7544         4213 7D2D   	?PLC61:		.equal	$
 7545                     			.c_end	02f47h,392
 7546                     	;g_GameMTHeroMoney-=10
 7547                     			.c_start  02f58h,393
 7548  7D2D     AD A2 1F    			lda	_g_GameMTHeroMoney
 7549  7D30     85 20       			sta	__oper1
 7550  7D32     AD A3 1F    			lda	_g_GameMTHeroMoney+1
 7551  7D35     85 21       			sta	__oper1+1
 7552  7D37     A5 20       			lda	__oper1
 7553  7D39     38          			sec
 7554  7D3A     E9 0A       			sbc	#.low.10
 7555  7D3C     85 20       			sta	__oper1
 7556  7D3E     A5 21       			lda	__oper1+1
 7557  7D40     E9 00       			sbc	#.high.10
 7558  7D42     85 21       			sta	__oper1+1
 7559  7D44     A5 20       			lda	__oper1
 7560  7D46     8D A2 1F    			sta	_g_GameMTHeroMoney
 7561  7D49     A5 21       			lda	__oper1+1
 7562  7D4B     8D A3 1F    			sta	_g_GameMTHeroMoney+1
 7563                     			.c_end	02f6dh,393
 7564                     	;g_GameMTKey[0]+=1
 7565                     			.c_start  02f77h,394
 7566  7D4E     AD 93 1F    			lda	_g_GameMTKey+0
 7567  7D51     18          			clc
 7568  7D52     69 01       			adc	#1
  Tue Jan 13 23:03:19 2026                                                                                               Page  134




 7569  7D54     A0 16       			ldy	#+0+?LSC4
 7570  7D56     91 28       			sta	(__stack_ptr),y
 7571  7D58     A9 93       			lda	#.low._g_GameMTKey+0
 7572  7D5A     85 20       			sta	__oper1
 7573  7D5C     A9 1F       			lda	#.high._g_GameMTKey+0
 7574  7D5E     85 21       			sta	__oper1+1
 7575  7D60     A5 20       			lda	__oper1
 7576  7D62     85 23       			sta	__oper2
 7577  7D64     A5 21       			lda	__oper1+1
 7578  7D66     85 24       			sta	__oper2+1
 7579  7D68     A0 16       			ldy	#+0+?LSC4
 7580  7D6A     B1 28       			lda	(__stack_ptr),y
 7581  7D6C     A0 00       			ldy	#0
 7582  7D6E     91 23       			sta	(__oper2),y
 7583                     			.c_end	02f88h,394
 7584                     	;flag=1
 7585                     			.c_start  02f92h,395
 7586  7D70     A0 00       			ldy	#-22+?LSC4
 7587  7D72     A9 01       			lda	#1
 7588  7D74     91 28       			sta	(__stack_ptr),y
 7589                     			.c_end	02f98h,395
 7590                     	;
 7591                     	;else 
 7592  7D76     4C 7F 7D    			jmp	?EOI71
 7593                     			.if_else  ?EOI71,4,397
 7594         3718 7D79   	?BOL71:		.equal	$
 7595                     	;flag=3
 7596                     			.c_start  02fafh,397
 7597  7D79     A0 00       			ldy	#-22+?LSC4
 7598  7D7B     A9 03       			lda	#3
 7599  7D7D     91 28       			sta	(__stack_ptr),y
 7600                     			.c_end	02fb5h,397
 7601                     	;;
 7602                     	;						
 7603         4518 7D7F   	?EOI71:		.equal	$
 7604                     	;break;
 7605                     	;					
 7606                     			.sw_break
 7607  7D7F     4C D7 7E    			jmp	?BOL68
 7608                     	;case 4:
 7609                     	;						
 7610         4718 7D82   	?SWL15:		.equal	$
 7611                     	;(g_GameMTKey[0]+1>1)
 7612                     	;						
 7613                     			.if_top	02fdah,?BOL72,4,400
 7614  7D82     AD 93 1F    			lda	_g_GameMTKey+0
 7615  7D85     18          			clc
 7616  7D86     69 01       			adc	#1
 7617  7D88     38          			sec
 7618  7D89     E9 01       			sbc	#1
 7619  7D8B     B0 03       			bcs	+3
 7620  7D8D     4C E1 7D    			jmp	?BOL72
 7621  7D90     D0 03       			bne	+3
 7622  7D92     4C E1 7D    			jmp	?BOL72
 7623         331A 7D95   	?PLC62:		.equal	$
 7624                     			.c_end	02ff1h,401
 7625                     	;g_GameMTHeroMoney+=7
  Tue Jan 13 23:03:19 2026                                                                                               Page  135




 7626                     			.c_start  03002h,402
 7627  7D95     AD A2 1F    			lda	_g_GameMTHeroMoney
 7628  7D98     85 20       			sta	__oper1
 7629  7D9A     AD A3 1F    			lda	_g_GameMTHeroMoney+1
 7630  7D9D     85 21       			sta	__oper1+1
 7631  7D9F     A5 20       			lda	__oper1
 7632  7DA1     18          			clc
 7633  7DA2     69 07       			adc	#.low.7
 7634  7DA4     85 20       			sta	__oper1
 7635  7DA6     A5 21       			lda	__oper1+1
 7636  7DA8     69 00       			adc	#.high.7
 7637  7DAA     85 21       			sta	__oper1+1
 7638  7DAC     A5 20       			lda	__oper1
 7639  7DAE     8D A2 1F    			sta	_g_GameMTHeroMoney
 7640  7DB1     A5 21       			lda	__oper1+1
 7641  7DB3     8D A3 1F    			sta	_g_GameMTHeroMoney+1
 7642                     			.c_end	03016h,402
 7643                     	;g_GameMTKey[0]-=1
 7644                     			.c_start  03020h,403
 7645  7DB6     AD 93 1F    			lda	_g_GameMTKey+0
 7646  7DB9     38          			sec
 7647  7DBA     E9 01       			sbc	#1
 7648  7DBC     A0 16       			ldy	#+0+?LSC4
 7649  7DBE     91 28       			sta	(__stack_ptr),y
 7650  7DC0     A9 93       			lda	#.low._g_GameMTKey+0
 7651  7DC2     85 20       			sta	__oper1
 7652  7DC4     A9 1F       			lda	#.high._g_GameMTKey+0
 7653  7DC6     85 21       			sta	__oper1+1
 7654  7DC8     A5 20       			lda	__oper1
 7655  7DCA     85 23       			sta	__oper2
 7656  7DCC     A5 21       			lda	__oper1+1
 7657  7DCE     85 24       			sta	__oper2+1
 7658  7DD0     A0 16       			ldy	#+0+?LSC4
 7659  7DD2     B1 28       			lda	(__stack_ptr),y
 7660  7DD4     A0 00       			ldy	#0
 7661  7DD6     91 23       			sta	(__oper2),y
 7662                     			.c_end	03031h,403
 7663                     	;flag=1
 7664                     			.c_start  0303bh,404
 7665  7DD8     A0 00       			ldy	#-22+?LSC4
 7666  7DDA     A9 01       			lda	#1
 7667  7DDC     91 28       			sta	(__stack_ptr),y
 7668                     			.c_end	03041h,404
 7669                     	;
 7670                     	;else 
 7671  7DDE     4C E7 7D    			jmp	?EOI72
 7672                     			.if_else  ?EOI72,4,406
 7673         4625 7DE1   	?BOL72:		.equal	$
 7674                     	;flag=4
 7675                     			.c_start  03058h,406
 7676  7DE1     A0 00       			ldy	#-22+?LSC4
 7677  7DE3     A9 04       			lda	#4
 7678  7DE5     91 28       			sta	(__stack_ptr),y
 7679                     			.c_end	0305eh,406
 7680                     	;;
 7681                     	;						
 7682         3626 7DE7   	?EOI72:		.equal	$
  Tue Jan 13 23:03:19 2026                                                                                               Page  136




 7683                     	;break;
 7684                     	;					
 7685                     			.sw_break
 7686  7DE7     4C D7 7E    			jmp	?BOL68
 7687                     	;case 5:
 7688                     	;						
 7689         3826 7DEA   	?SWL16:		.equal	$
 7690                     	;(g_GameMTHeroMoney>24)
 7691                     	;						
 7692                     			.if_top	03083h,?BOL73,4,409
 7693  7DEA     A9 18       			lda	#.low.24
 7694  7DEC     85 23       			sta	__oper2
 7695  7DEE     A9 00       			lda	#.high.24
 7696  7DF0     85 24       			sta	__oper2+1
 7697  7DF2     AD A2 1F    			lda	_g_GameMTHeroMoney
 7698  7DF5     85 20       			sta	__oper1
 7699  7DF7     AD A3 1F    			lda	_g_GameMTHeroMoney+1
 7700  7DFA     85 21       			sta	__oper1+1
 7701  7DFC     20 40 D3    			jsr	__cmp_int
 7702  7DFF     B0 03       			bcs	+3
 7703  7E01     4C 59 7E    			jmp	?BOL73
 7704  7E04     D0 03       			bne	+3
 7705  7E06     4C 59 7E    			jmp	?BOL73
 7706         3711 7E09   	?PLC63:		.equal	$
 7707                     			.c_end	0309ch,410
 7708                     	;g_GameMTHeroMoney-=25
 7709                     			.c_start  030adh,411
 7710  7E09     AD A2 1F    			lda	_g_GameMTHeroMoney
 7711  7E0C     85 20       			sta	__oper1
 7712  7E0E     AD A3 1F    			lda	_g_GameMTHeroMoney+1
 7713  7E11     85 21       			sta	__oper1+1
 7714  7E13     A5 20       			lda	__oper1
 7715  7E15     38          			sec
 7716  7E16     E9 19       			sbc	#.low.25
 7717  7E18     85 20       			sta	__oper1
 7718  7E1A     A5 21       			lda	__oper1+1
 7719  7E1C     E9 00       			sbc	#.high.25
 7720  7E1E     85 21       			sta	__oper1+1
 7721  7E20     A5 20       			lda	__oper1
 7722  7E22     8D A2 1F    			sta	_g_GameMTHeroMoney
 7723  7E25     A5 21       			lda	__oper1+1
 7724  7E27     8D A3 1F    			sta	_g_GameMTHeroMoney+1
 7725                     			.c_end	030c2h,411
 7726                     	;g_GameMTHeroLife+=800
 7727                     			.c_start  030cch,412
 7728                     			.const_data_psfar
 7729  8DEB     2003 0000   	?CGL10:	.long	800
 7730                     			.program_psfar
 7731  7E2A     A2 EB       			ldx	#.low.?CGL10
 7732  7E2C     86 23       			stx	__oper2
 7733  7E2E     A2 8D       			ldx	#.high.?CGL10
 7734  7E30     86 24       			stx	__oper2+1
 7735  7E32     A9 AA       			lda	#.low._g_GameMTHeroLife
 7736  7E34     85 20       			sta	__oper1
 7737  7E36     A9 1F       			lda	#.high._g_GameMTHeroLife
 7738  7E38     85 21       			sta	__oper1+1
 7739  7E3A     20 9D D2    			jsr	__add_long
  Tue Jan 13 23:03:19 2026                                                                                               Page  137




 7740  7E3D     A5 20       			lda	__oper1
 7741  7E3F     85 23       			sta	__oper2
 7742  7E41     A5 21       			lda	__oper1+1
 7743  7E43     85 24       			sta	__oper2+1
 7744  7E45     A9 AA       			lda	#.low._g_GameMTHeroLife
 7745  7E47     85 20       			sta	__oper1
 7746  7E49     A9 1F       			lda	#.high._g_GameMTHeroLife
 7747  7E4B     85 21       			sta	__oper1+1
 7748  7E4D     20 E6 DA    			jsr	__store_long
 7749                     			.c_end	030e1h,412
 7750                     	;flag=1
 7751                     			.c_start  030ebh,413
 7752  7E50     A0 00       			ldy	#-22+?LSC4
 7753  7E52     A9 01       			lda	#1
 7754  7E54     91 28       			sta	(__stack_ptr),y
 7755                     			.c_end	030f1h,413
 7756                     	;
 7757                     	;else 
 7758  7E56     4C 5F 7E    			jmp	?EOI73
 7759                     			.if_else  ?EOI73,4,415
 7760         3716 7E59   	?BOL73:		.equal	$
 7761                     	;flag=3
 7762                     			.c_start  03108h,415
 7763  7E59     A0 00       			ldy	#-22+?LSC4
 7764  7E5B     A9 03       			lda	#3
 7765  7E5D     91 28       			sta	(__stack_ptr),y
 7766                     			.c_end	0310eh,415
 7767                     	;;
 7768                     	;						
 7769         4516 7E5F   	?EOI73:		.equal	$
 7770                     	;break;
 7771                     	;					
 7772                     			.sw_break
 7773  7E5F     4C D7 7E    			jmp	?BOL68
 7774                     	;case 6:
 7775                     	;						
 7776         4716 7E62   	?SWL17:		.equal	$
 7777                     	;(g_GameMTHeroMoney>99)
 7778                     	;						
 7779                     			.if_top	03133h,?BOL74,4,418
 7780  7E62     A9 63       			lda	#.low.99
 7781  7E64     85 23       			sta	__oper2
 7782  7E66     A9 00       			lda	#.high.99
 7783  7E68     85 24       			sta	__oper2+1
 7784  7E6A     AD A2 1F    			lda	_g_GameMTHeroMoney
 7785  7E6D     85 20       			sta	__oper1
 7786  7E6F     AD A3 1F    			lda	_g_GameMTHeroMoney+1
 7787  7E72     85 21       			sta	__oper1+1
 7788  7E74     20 40 D3    			jsr	__cmp_int
 7789  7E77     B0 03       			bcs	+3
 7790  7E79     4C D1 7E    			jmp	?BOL74
 7791  7E7C     D0 03       			bne	+3
 7792  7E7E     4C D1 7E    			jmp	?BOL74
 7793         4618 7E81   	?PLC64:		.equal	$
 7794                     			.c_end	0314ch,419
 7795                     	;g_GameMTHeroMoney-=100
 7796                     			.c_start  0315dh,420
  Tue Jan 13 23:03:19 2026                                                                                               Page  138




 7797  7E81     AD A2 1F    			lda	_g_GameMTHeroMoney
 7798  7E84     85 20       			sta	__oper1
 7799  7E86     AD A3 1F    			lda	_g_GameMTHeroMoney+1
 7800  7E89     85 21       			sta	__oper1+1
 7801  7E8B     A5 20       			lda	__oper1
 7802  7E8D     38          			sec
 7803  7E8E     E9 64       			sbc	#.low.100
 7804  7E90     85 20       			sta	__oper1
 7805  7E92     A5 21       			lda	__oper1+1
 7806  7E94     E9 00       			sbc	#.high.100
 7807  7E96     85 21       			sta	__oper1+1
 7808  7E98     A5 20       			lda	__oper1
 7809  7E9A     8D A2 1F    			sta	_g_GameMTHeroMoney
 7810  7E9D     A5 21       			lda	__oper1+1
 7811  7E9F     8D A3 1F    			sta	_g_GameMTHeroMoney+1
 7812                     			.c_end	03173h,420
 7813                     	;g_GameMTHeroLife+=4000
 7814                     			.c_start  0317dh,421
 7815                     			.const_data_psfar
 7816  8DEF     A00F 0000   	?CGL11:	.long	4000
 7817                     			.program_psfar
 7818  7EA2     A2 EF       			ldx	#.low.?CGL11
 7819  7EA4     86 23       			stx	__oper2
 7820  7EA6     A2 8D       			ldx	#.high.?CGL11
 7821  7EA8     86 24       			stx	__oper2+1
 7822  7EAA     A9 AA       			lda	#.low._g_GameMTHeroLife
 7823  7EAC     85 20       			sta	__oper1
 7824  7EAE     A9 1F       			lda	#.high._g_GameMTHeroLife
 7825  7EB0     85 21       			sta	__oper1+1
 7826  7EB2     20 9D D2    			jsr	__add_long
 7827  7EB5     A5 20       			lda	__oper1
 7828  7EB7     85 23       			sta	__oper2
 7829  7EB9     A5 21       			lda	__oper1+1
 7830  7EBB     85 24       			sta	__oper2+1
 7831  7EBD     A9 AA       			lda	#.low._g_GameMTHeroLife
 7832  7EBF     85 20       			sta	__oper1
 7833  7EC1     A9 1F       			lda	#.high._g_GameMTHeroLife
 7834  7EC3     85 21       			sta	__oper1+1
 7835  7EC5     20 E6 DA    			jsr	__store_long
 7836                     			.c_end	03193h,421
 7837                     	;flag=1
 7838                     			.c_start  0319dh,422
 7839  7EC8     A0 00       			ldy	#-22+?LSC4
 7840  7ECA     A9 01       			lda	#1
 7841  7ECC     91 28       			sta	(__stack_ptr),y
 7842                     			.c_end	031a3h,422
 7843                     	;
 7844                     	;else 
 7845  7ECE     4C D7 7E    			jmp	?EOI74
 7846                     			.if_else  ?EOI74,4,424
 7847         4624 7ED1   	?BOL74:		.equal	$
 7848                     	;flag=3
 7849                     			.c_start  031bah,424
 7850  7ED1     A0 00       			ldy	#-22+?LSC4
 7851  7ED3     A9 03       			lda	#3
 7852  7ED5     91 28       			sta	(__stack_ptr),y
 7853                     			.c_end	031c0h,424
  Tue Jan 13 23:03:19 2026                                                                                               Page  139




 7854                     	;;
 7855                     	;				
 7856         3625 7ED7   	?EOI74:		.equal	$
 7857                     	;
 7858         3706 7ED7   	?BOL68:		.equal	$
 7859                     	;
 7860                     	;
 7861                     	;(choice==1)
 7862                     	;			
 7863         37E7 7ED7   	?BOL67:		.equal	$
 7864                     			.if_top	031d3h,?BOL75,3,427
 7865  7ED7     A0 15       			ldy	#-1+?LSC4
 7866  7ED9     B1 28       			lda	(__stack_ptr),y
 7867  7EDB     38          			sec
 7868  7EDC     E9 01       			sbc	#1
 7869  7EDE     F0 03       			beq	+3
 7870  7EE0     4C AC 81    			jmp	?BOL75
 7871         3126 7EE3   	?PLC65:		.equal	$
 7872                     			.c_end	031e1h,428
 7873                     	;(kind)
 7874                     	;				
 7875                     			.c_start  031ech,429
 7876  7EE3     A0 17       			ldy	#+0+?LSC4+?TSC4
 7877  7EE5     B1 28       			lda	(__stack_ptr),y
 7878  7EE7     85 23       			sta	__oper2
 7879  7EE9     A2 00       			ldx	#0
 7880  7EEB     86 24       			stx	__oper2+1
 7881         4326 7EED   	?PLC66:		.equal	$
 7882                     			.c_end	031f9h,430
 7883                     	;
 7884                     			.sw_start
 7885                     			.const_data_psfar
 7886  8DF3     0100        	?CGL12:	.word	1
 7887  8DF5     0200        			.word	2
 7888  8DF7     0300        			.word	3
 7889  8DF9     0400        			.word	4
 7890  8DFB     0500        			.word	5
 7891  8DFD     0600        			.word	6
 7892  8DFF     047F        	?CGL13:	.word	?SWL18
 7893                     			.sw_case ?SWL18
 7894  8E01     777F        			.word	?SWL19
 7895                     			.sw_case ?SWL19
 7896  8E03     EA7F        			.word	?SWL20
 7897                     			.sw_case ?SWL20
 7898  8E05     5E80        			.word	?SWL21
 7899                     			.sw_case ?SWL21
 7900  8E07     C680        			.word	?SWL22
 7901                     			.sw_case ?SWL22
 7902  8E09     3981        			.word	?SWL23
 7903                     			.sw_case ?SWL23
 7904                     			.program_psfar
 7905  7EED     A9 F3       			lda	#.low.?CGL12
 7906  7EEF     85 26       			sta	__addr_reg
 7907  7EF1     A9 8D       			lda	#.high.?CGL12
 7908  7EF3     85 27       			sta	__addr_reg+1
 7909                     			.sw_case ?BOL76
 7910  7EF5     A2 06       			ldx	#.low.6
  Tue Jan 13 23:03:19 2026                                                                                               Page  140




 7911  7EF7     A0 00       			ldy	#.high.6
 7912  7EF9     A9 AC       			lda	#.low.?BOL76
 7913  7EFB     85 20       			sta	__oper1
 7914  7EFD     A9 81       			lda	#.high.?BOL76
 7915  7EFF     85 21       			sta	__oper1+1
 7916  7F01     4C 5C DB    			jmp	__switch_comparison
 7917                     			.sw_end
 7918                     	;case 1:
 7919                     	;						
 7920         3211 7F04   	?SWL18:		.equal	$
 7921                     	;(g_GameMTHeroExp>29)
 7922                     	;						
 7923                     			.if_top	03215h,?BOL77,4,432
 7924  7F04     A9 1D       			lda	#.low.29
 7925  7F06     85 23       			sta	__oper2
 7926  7F08     A9 00       			lda	#.high.29
 7927  7F0A     85 24       			sta	__oper2+1
 7928  7F0C     AD A4 1F    			lda	_g_GameMTHeroExp
 7929  7F0F     85 20       			sta	__oper1
 7930  7F11     AD A5 1F    			lda	_g_GameMTHeroExp+1
 7931  7F14     85 21       			sta	__oper1+1
 7932  7F16     20 40 D3    			jsr	__cmp_int
 7933  7F19     B0 03       			bcs	+3
 7934  7F1B     4C 6E 7F    			jmp	?BOL77
 7935  7F1E     D0 03       			bne	+3
 7936  7F20     4C 6E 7F    			jmp	?BOL77
 7937         3113 7F23   	?PLC67:		.equal	$
 7938                     			.c_end	0322ch,433
 7939                     	;g_GameMTHeroExp-=30
 7940                     			.c_start  0323dh,434
 7941  7F23     AD A4 1F    			lda	_g_GameMTHeroExp
 7942  7F26     85 20       			sta	__oper1
 7943  7F28     AD A5 1F    			lda	_g_GameMTHeroExp+1
 7944  7F2B     85 21       			sta	__oper1+1
 7945  7F2D     A5 20       			lda	__oper1
 7946  7F2F     38          			sec
 7947  7F30     E9 1E       			sbc	#.low.30
 7948  7F32     85 20       			sta	__oper1
 7949  7F34     A5 21       			lda	__oper1+1
 7950  7F36     E9 00       			sbc	#.high.30
 7951  7F38     85 21       			sta	__oper1+1
 7952  7F3A     A5 20       			lda	__oper1
 7953  7F3C     8D A4 1F    			sta	_g_GameMTHeroExp
 7954  7F3F     A5 21       			lda	__oper1+1
 7955  7F41     8D A5 1F    			sta	_g_GameMTHeroExp+1
 7956                     			.c_end	03250h,434
 7957                     	;g_GameMTHeroDamige+=5
 7958                     			.c_start  0325ah,435
 7959  7F44     AD 9E 1F    			lda	_g_GameMTHeroDamige
 7960  7F47     85 20       			sta	__oper1
 7961  7F49     AD 9F 1F    			lda	_g_GameMTHeroDamige+1
 7962  7F4C     85 21       			sta	__oper1+1
 7963  7F4E     A5 20       			lda	__oper1
 7964  7F50     18          			clc
 7965  7F51     69 05       			adc	#.low.5
 7966  7F53     85 20       			sta	__oper1
 7967  7F55     A5 21       			lda	__oper1+1
  Tue Jan 13 23:03:19 2026                                                                                               Page  141




 7968  7F57     69 00       			adc	#.high.5
 7969  7F59     85 21       			sta	__oper1+1
 7970  7F5B     A5 20       			lda	__oper1
 7971  7F5D     8D 9E 1F    			sta	_g_GameMTHeroDamige
 7972  7F60     A5 21       			lda	__oper1+1
 7973  7F62     8D 9F 1F    			sta	_g_GameMTHeroDamige+1
 7974                     			.c_end	0326fh,435
 7975                     	;flag=1
 7976                     			.c_start  03279h,436
 7977  7F65     A0 00       			ldy	#-22+?LSC4
 7978  7F67     A9 01       			lda	#1
 7979  7F69     91 28       			sta	(__stack_ptr),y
 7980                     			.c_end	0327fh,436
 7981                     	;
 7982                     	;else 
 7983  7F6B     4C 74 7F    			jmp	?EOI77
 7984                     			.if_else  ?EOI77,4,438
 7985         4317 7F6E   	?BOL77:		.equal	$
 7986                     	;flag=2
 7987                     			.c_start  03296h,438
 7988  7F6E     A0 00       			ldy	#-22+?LSC4
 7989  7F70     A9 02       			lda	#2
 7990  7F72     91 28       			sta	(__stack_ptr),y
 7991                     			.c_end	0329ch,438
 7992                     	;;
 7993                     	;						
 7994         3318 7F74   	?EOI77:		.equal	$
 7995                     	;break;
 7996                     	;					
 7997                     			.sw_break
 7998  7F74     4C AC 81    			jmp	?BOL76
 7999                     	;case 2:
 8000                     	;						
 8001         3518 7F77   	?SWL19:		.equal	$
 8002                     	;(g_GameMTHeroExp>94)
 8003                     	;						
 8004                     			.if_top	032c1h,?BOL78,4,441
 8005  7F77     A9 5E       			lda	#.low.94
 8006  7F79     85 23       			sta	__oper2
 8007  7F7B     A9 00       			lda	#.high.94
 8008  7F7D     85 24       			sta	__oper2+1
 8009  7F7F     AD A4 1F    			lda	_g_GameMTHeroExp
 8010  7F82     85 20       			sta	__oper1
 8011  7F84     AD A5 1F    			lda	_g_GameMTHeroExp+1
 8012  7F87     85 21       			sta	__oper1+1
 8013  7F89     20 40 D3    			jsr	__cmp_int
 8014  7F8C     B0 03       			bcs	+3
 8015  7F8E     4C E1 7F    			jmp	?BOL78
 8016  7F91     D0 03       			bne	+3
 8017  7F93     4C E1 7F    			jmp	?BOL78
 8018         341A 7F96   	?PLC68:		.equal	$
 8019                     			.c_end	032d8h,442
 8020                     	;g_GameMTHeroExp-=95
 8021                     			.c_start  032e9h,443
 8022  7F96     AD A4 1F    			lda	_g_GameMTHeroExp
 8023  7F99     85 20       			sta	__oper1
 8024  7F9B     AD A5 1F    			lda	_g_GameMTHeroExp+1
  Tue Jan 13 23:03:19 2026                                                                                               Page  142




 8025  7F9E     85 21       			sta	__oper1+1
 8026  7FA0     A5 20       			lda	__oper1
 8027  7FA2     38          			sec
 8028  7FA3     E9 5F       			sbc	#.low.95
 8029  7FA5     85 20       			sta	__oper1
 8030  7FA7     A5 21       			lda	__oper1+1
 8031  7FA9     E9 00       			sbc	#.high.95
 8032  7FAB     85 21       			sta	__oper1+1
 8033  7FAD     A5 20       			lda	__oper1
 8034  7FAF     8D A4 1F    			sta	_g_GameMTHeroExp
 8035  7FB2     A5 21       			lda	__oper1+1
 8036  7FB4     8D A5 1F    			sta	_g_GameMTHeroExp+1
 8037                     			.c_end	032fch,443
 8038                     	;g_GameMTHeroDamige+=17
 8039                     			.c_start  03306h,444
 8040  7FB7     AD 9E 1F    			lda	_g_GameMTHeroDamige
 8041  7FBA     85 20       			sta	__oper1
 8042  7FBC     AD 9F 1F    			lda	_g_GameMTHeroDamige+1
 8043  7FBF     85 21       			sta	__oper1+1
 8044  7FC1     A5 20       			lda	__oper1
 8045  7FC3     18          			clc
 8046  7FC4     69 11       			adc	#.low.17
 8047  7FC6     85 20       			sta	__oper1
 8048  7FC8     A5 21       			lda	__oper1+1
 8049  7FCA     69 00       			adc	#.high.17
 8050  7FCC     85 21       			sta	__oper1+1
 8051  7FCE     A5 20       			lda	__oper1
 8052  7FD0     8D 9E 1F    			sta	_g_GameMTHeroDamige
 8053  7FD3     A5 21       			lda	__oper1+1
 8054  7FD5     8D 9F 1F    			sta	_g_GameMTHeroDamige+1
 8055                     			.c_end	0331ch,444
 8056                     	;flag=1
 8057                     			.c_start  03326h,445
 8058  7FD8     A0 00       			ldy	#-22+?LSC4
 8059  7FDA     A9 01       			lda	#1
 8060  7FDC     91 28       			sta	(__stack_ptr),y
 8061                     			.c_end	0332ch,445
 8062                     	;
 8063                     	;else 
 8064  7FDE     4C E7 7F    			jmp	?EOI78
 8065                     			.if_else  ?EOI78,4,447
 8066         4625 7FE1   	?BOL78:		.equal	$
 8067                     	;flag=2
 8068                     			.c_start  03343h,447
 8069  7FE1     A0 00       			ldy	#-22+?LSC4
 8070  7FE3     A9 02       			lda	#2
 8071  7FE5     91 28       			sta	(__stack_ptr),y
 8072                     			.c_end	03349h,447
 8073                     	;;
 8074                     	;						
 8075         3626 7FE7   	?EOI78:		.equal	$
 8076                     	;break;
 8077                     	;					
 8078                     			.sw_break
 8079  7FE7     4C AC 81    			jmp	?BOL76
 8080                     	;case 3:
 8081                     	;						
  Tue Jan 13 23:03:19 2026                                                                                               Page  143




 8082         3826 7FEA   	?SWL20:		.equal	$
 8083                     	;(g_GameMTHeroMoney>49)
 8084                     	;						
 8085                     			.if_top	0336eh,?BOL79,4,450
 8086  7FEA     A9 31       			lda	#.low.49
 8087  7FEC     85 23       			sta	__oper2
 8088  7FEE     A9 00       			lda	#.high.49
 8089  7FF0     85 24       			sta	__oper2+1
 8090  7FF2     AD A2 1F    			lda	_g_GameMTHeroMoney
 8091  7FF5     85 20       			sta	__oper1
 8092  7FF7     AD A3 1F    			lda	_g_GameMTHeroMoney+1
 8093  7FFA     85 21       			sta	__oper1+1
 8094  7FFC     20 40 D3    			jsr	__cmp_int
 8095  7FFF     B0 03       			bcs	+3
 8096  8001     4C 55 80    			jmp	?BOL79
 8097  8004     D0 03       			bne	+3
 8098  8006     4C 55 80    			jmp	?BOL79
 8099         3711 8009   	?PLC69:		.equal	$
 8100                     			.c_end	03387h,451
 8101                     	;g_GameMTHeroMoney-=50
 8102                     			.c_start  03398h,452
 8103  8009     AD A2 1F    			lda	_g_GameMTHeroMoney
 8104  800C     85 20       			sta	__oper1
 8105  800E     AD A3 1F    			lda	_g_GameMTHeroMoney+1
 8106  8011     85 21       			sta	__oper1+1
 8107  8013     A5 20       			lda	__oper1
 8108  8015     38          			sec
 8109  8016     E9 32       			sbc	#.low.50
 8110  8018     85 20       			sta	__oper1
 8111  801A     A5 21       			lda	__oper1+1
 8112  801C     E9 00       			sbc	#.high.50
 8113  801E     85 21       			sta	__oper1+1
 8114  8020     A5 20       			lda	__oper1
 8115  8022     8D A2 1F    			sta	_g_GameMTHeroMoney
 8116  8025     A5 21       			lda	__oper1+1
 8117  8027     8D A3 1F    			sta	_g_GameMTHeroMoney+1
 8118                     			.c_end	033adh,452
 8119                     	;g_GameMTKey[1]+=1
 8120                     			.c_start  033b7h,453
 8121  802A     AD 94 1F    			lda	_g_GameMTKey+1
 8122  802D     18          			clc
 8123  802E     69 01       			adc	#1
 8124  8030     A0 16       			ldy	#+0+?LSC4
 8125  8032     91 28       			sta	(__stack_ptr),y
 8126  8034     A9 94       			lda	#.low._g_GameMTKey+1
 8127  8036     85 20       			sta	__oper1
 8128  8038     A9 1F       			lda	#.high._g_GameMTKey+1
 8129  803A     85 21       			sta	__oper1+1
 8130  803C     A5 20       			lda	__oper1
 8131  803E     85 23       			sta	__oper2
 8132  8040     A5 21       			lda	__oper1+1
 8133  8042     85 24       			sta	__oper2+1
 8134  8044     A0 16       			ldy	#+0+?LSC4
 8135  8046     B1 28       			lda	(__stack_ptr),y
 8136  8048     A0 00       			ldy	#0
 8137  804A     91 23       			sta	(__oper2),y
 8138                     			.c_end	033c8h,453
  Tue Jan 13 23:03:19 2026                                                                                               Page  144




 8139                     	;flag=1
 8140                     			.c_start  033d2h,454
 8141  804C     A0 00       			ldy	#-22+?LSC4
 8142  804E     A9 01       			lda	#1
 8143  8050     91 28       			sta	(__stack_ptr),y
 8144                     			.c_end	033d8h,454
 8145                     	;
 8146                     	;else 
 8147  8052     4C 5B 80    			jmp	?EOI79
 8148                     			.if_else  ?EOI79,4,456
 8149         3316 8055   	?BOL79:		.equal	$
 8150                     	;flag=3
 8151                     			.c_start  033efh,456
 8152  8055     A0 00       			ldy	#-22+?LSC4
 8153  8057     A9 03       			lda	#3
 8154  8059     91 28       			sta	(__stack_ptr),y
 8155                     			.c_end	033f5h,456
 8156                     	;;
 8157                     	;						
 8158         3A16 805B   	?EOI79:		.equal	$
 8159                     	;break;
 8160                     	;					
 8161                     			.sw_break
 8162  805B     4C AC 81    			jmp	?BOL76
 8163                     	;case 4:
 8164                     	;						
 8165         4316 805E   	?SWL21:		.equal	$
 8166                     	;(g_GameMTKey[1]+1>1)
 8167                     	;						
 8168                     			.if_top	0341ah,?BOL80,4,459
 8169  805E     AD 94 1F    			lda	_g_GameMTKey+1
 8170  8061     18          			clc
 8171  8062     69 01       			adc	#1
 8172  8064     38          			sec
 8173  8065     E9 01       			sbc	#1
 8174  8067     B0 03       			bcs	+3
 8175  8069     4C BD 80    			jmp	?BOL80
 8176  806C     D0 03       			bne	+3
 8177  806E     4C BD 80    			jmp	?BOL80
 8178         4617 8071   	?PLC70:		.equal	$
 8179                     			.c_end	03431h,460
 8180                     	;g_GameMTHeroMoney+=35
 8181                     			.c_start  03442h,461
 8182  8071     AD A2 1F    			lda	_g_GameMTHeroMoney
 8183  8074     85 20       			sta	__oper1
 8184  8076     AD A3 1F    			lda	_g_GameMTHeroMoney+1
 8185  8079     85 21       			sta	__oper1+1
 8186  807B     A5 20       			lda	__oper1
 8187  807D     18          			clc
 8188  807E     69 23       			adc	#.low.35
 8189  8080     85 20       			sta	__oper1
 8190  8082     A5 21       			lda	__oper1+1
 8191  8084     69 00       			adc	#.high.35
 8192  8086     85 21       			sta	__oper1+1
 8193  8088     A5 20       			lda	__oper1
 8194  808A     8D A2 1F    			sta	_g_GameMTHeroMoney
 8195  808D     A5 21       			lda	__oper1+1
  Tue Jan 13 23:03:19 2026                                                                                               Page  145




 8196  808F     8D A3 1F    			sta	_g_GameMTHeroMoney+1
 8197                     			.c_end	03457h,461
 8198                     	;g_GameMTKey[1]-=1
 8199                     			.c_start  03461h,462
 8200  8092     AD 94 1F    			lda	_g_GameMTKey+1
 8201  8095     38          			sec
 8202  8096     E9 01       			sbc	#1
 8203  8098     A0 16       			ldy	#+0+?LSC4
 8204  809A     91 28       			sta	(__stack_ptr),y
 8205  809C     A9 94       			lda	#.low._g_GameMTKey+1
 8206  809E     85 20       			sta	__oper1
 8207  80A0     A9 1F       			lda	#.high._g_GameMTKey+1
 8208  80A2     85 21       			sta	__oper1+1
 8209  80A4     A5 20       			lda	__oper1
 8210  80A6     85 23       			sta	__oper2
 8211  80A8     A5 21       			lda	__oper1+1
 8212  80AA     85 24       			sta	__oper2+1
 8213  80AC     A0 16       			ldy	#+0+?LSC4
 8214  80AE     B1 28       			lda	(__stack_ptr),y
 8215  80B0     A0 00       			ldy	#0
 8216  80B2     91 23       			sta	(__oper2),y
 8217                     			.c_end	03472h,462
 8218                     	;flag=1
 8219                     			.c_start  0347ch,463
 8220  80B4     A0 00       			ldy	#-22+?LSC4
 8221  80B6     A9 01       			lda	#1
 8222  80B8     91 28       			sta	(__stack_ptr),y
 8223                     			.c_end	03482h,463
 8224                     	;
 8225                     	;else 
 8226  80BA     4C C3 80    			jmp	?EOI80
 8227                     			.if_else  ?EOI80,4,465
 8228         4223 80BD   	?BOL80:		.equal	$
 8229                     	;flag=4
 8230                     			.c_start  03499h,465
 8231  80BD     A0 00       			ldy	#-22+?LSC4
 8232  80BF     A9 04       			lda	#4
 8233  80C1     91 28       			sta	(__stack_ptr),y
 8234                     			.c_end	0349fh,465
 8235                     	;;
 8236                     	;						
 8237         3224 80C3   	?EOI80:		.equal	$
 8238                     	;break;
 8239                     	;					
 8240                     			.sw_break
 8241  80C3     4C AC 81    			jmp	?BOL76
 8242                     	;case 5:
 8243                     	;						
 8244         3424 80C6   	?SWL22:		.equal	$
 8245                     	;(g_GameMTHeroMoney>24)
 8246                     	;						
 8247                     			.if_top	034c4h,?BOL81,4,468
 8248  80C6     A9 18       			lda	#.low.24
 8249  80C8     85 23       			sta	__oper2
 8250  80CA     A9 00       			lda	#.high.24
 8251  80CC     85 24       			sta	__oper2+1
 8252  80CE     AD A2 1F    			lda	_g_GameMTHeroMoney
  Tue Jan 13 23:03:19 2026                                                                                               Page  146




 8253  80D1     85 20       			sta	__oper1
 8254  80D3     AD A3 1F    			lda	_g_GameMTHeroMoney+1
 8255  80D6     85 21       			sta	__oper1+1
 8256  80D8     20 40 D3    			jsr	__cmp_int
 8257  80DB     B0 03       			bcs	+3
 8258  80DD     4C 30 81    			jmp	?BOL81
 8259  80E0     D0 03       			bne	+3
 8260  80E2     4C 30 81    			jmp	?BOL81
 8261         3326 80E5   	?PLC71:		.equal	$
 8262                     			.c_end	034ddh,469
 8263                     	;g_GameMTHeroMoney-=25
 8264                     			.c_start  034eeh,470
 8265  80E5     AD A2 1F    			lda	_g_GameMTHeroMoney
 8266  80E8     85 20       			sta	__oper1
 8267  80EA     AD A3 1F    			lda	_g_GameMTHeroMoney+1
 8268  80ED     85 21       			sta	__oper1+1
 8269  80EF     A5 20       			lda	__oper1
 8270  80F1     38          			sec
 8271  80F2     E9 19       			sbc	#.low.25
 8272  80F4     85 20       			sta	__oper1
 8273  80F6     A5 21       			lda	__oper1+1
 8274  80F8     E9 00       			sbc	#.high.25
 8275  80FA     85 21       			sta	__oper1+1
 8276  80FC     A5 20       			lda	__oper1
 8277  80FE     8D A2 1F    			sta	_g_GameMTHeroMoney
 8278  8101     A5 21       			lda	__oper1+1
 8279  8103     8D A3 1F    			sta	_g_GameMTHeroMoney+1
 8280                     			.c_end	03503h,470
 8281                     	;g_GameMTHeroDamige+=4
 8282                     			.c_start  0350dh,471
 8283  8106     AD 9E 1F    			lda	_g_GameMTHeroDamige
 8284  8109     85 20       			sta	__oper1
 8285  810B     AD 9F 1F    			lda	_g_GameMTHeroDamige+1
 8286  810E     85 21       			sta	__oper1+1
 8287  8110     A5 20       			lda	__oper1
 8288  8112     18          			clc
 8289  8113     69 04       			adc	#.low.4
 8290  8115     85 20       			sta	__oper1
 8291  8117     A5 21       			lda	__oper1+1
 8292  8119     69 00       			adc	#.high.4
 8293  811B     85 21       			sta	__oper1+1
 8294  811D     A5 20       			lda	__oper1
 8295  811F     8D 9E 1F    			sta	_g_GameMTHeroDamige
 8296  8122     A5 21       			lda	__oper1+1
 8297  8124     8D 9F 1F    			sta	_g_GameMTHeroDamige+1
 8298                     			.c_end	03522h,471
 8299                     	;flag=1
 8300                     			.c_start  0352ch,472
 8301  8127     A0 00       			ldy	#-22+?LSC4
 8302  8129     A9 01       			lda	#1
 8303  812B     91 28       			sta	(__stack_ptr),y
 8304                     			.c_end	03532h,472
 8305                     	;
 8306                     	;else 
 8307  812D     4C 36 81    			jmp	?EOI81
 8308                     			.if_else  ?EOI81,4,474
 8309         4513 8130   	?BOL81:		.equal	$
  Tue Jan 13 23:03:19 2026                                                                                               Page  147




 8310                     	;flag=3
 8311                     			.c_start  03549h,474
 8312  8130     A0 00       			ldy	#-22+?LSC4
 8313  8132     A9 03       			lda	#3
 8314  8134     91 28       			sta	(__stack_ptr),y
 8315                     			.c_end	0354fh,474
 8316                     	;;
 8317                     	;						
 8318         3514 8136   	?EOI81:		.equal	$
 8319                     	;break;
 8320                     	;					
 8321                     			.sw_break
 8322  8136     4C AC 81    			jmp	?BOL76
 8323                     	;case 6:
 8324                     	;						
 8325         3714 8139   	?SWL23:		.equal	$
 8326                     	;(g_GameMTHeroMoney>99)
 8327                     	;						
 8328                     			.if_top	03574h,?BOL82,4,477
 8329  8139     A9 63       			lda	#.low.99
 8330  813B     85 23       			sta	__oper2
 8331  813D     A9 00       			lda	#.high.99
 8332  813F     85 24       			sta	__oper2+1
 8333  8141     AD A2 1F    			lda	_g_GameMTHeroMoney
 8334  8144     85 20       			sta	__oper1
 8335  8146     AD A3 1F    			lda	_g_GameMTHeroMoney+1
 8336  8149     85 21       			sta	__oper1+1
 8337  814B     20 40 D3    			jsr	__cmp_int
 8338  814E     B0 03       			bcs	+3
 8339  8150     4C A3 81    			jmp	?BOL82
 8340  8153     D0 03       			bne	+3
 8341  8155     4C A3 81    			jmp	?BOL82
 8342         3616 8158   	?PLC72:		.equal	$
 8343                     			.c_end	0358dh,478
 8344                     	;g_GameMTHeroMoney-=100
 8345                     			.c_start  0359eh,479
 8346  8158     AD A2 1F    			lda	_g_GameMTHeroMoney
 8347  815B     85 20       			sta	__oper1
 8348  815D     AD A3 1F    			lda	_g_GameMTHeroMoney+1
 8349  8160     85 21       			sta	__oper1+1
 8350  8162     A5 20       			lda	__oper1
 8351  8164     38          			sec
 8352  8165     E9 64       			sbc	#.low.100
 8353  8167     85 20       			sta	__oper1
 8354  8169     A5 21       			lda	__oper1+1
 8355  816B     E9 00       			sbc	#.high.100
 8356  816D     85 21       			sta	__oper1+1
 8357  816F     A5 20       			lda	__oper1
 8358  8171     8D A2 1F    			sta	_g_GameMTHeroMoney
 8359  8174     A5 21       			lda	__oper1+1
 8360  8176     8D A3 1F    			sta	_g_GameMTHeroMoney+1
 8361                     			.c_end	035b4h,479
 8362                     	;g_GameMTHeroDamige+=20
 8363                     			.c_start  035beh,480
 8364  8179     AD 9E 1F    			lda	_g_GameMTHeroDamige
 8365  817C     85 20       			sta	__oper1
 8366  817E     AD 9F 1F    			lda	_g_GameMTHeroDamige+1
  Tue Jan 13 23:03:19 2026                                                                                               Page  148




 8367  8181     85 21       			sta	__oper1+1
 8368  8183     A5 20       			lda	__oper1
 8369  8185     18          			clc
 8370  8186     69 14       			adc	#.low.20
 8371  8188     85 20       			sta	__oper1
 8372  818A     A5 21       			lda	__oper1+1
 8373  818C     69 00       			adc	#.high.20
 8374  818E     85 21       			sta	__oper1+1
 8375  8190     A5 20       			lda	__oper1
 8376  8192     8D 9E 1F    			sta	_g_GameMTHeroDamige
 8377  8195     A5 21       			lda	__oper1+1
 8378  8197     8D 9F 1F    			sta	_g_GameMTHeroDamige+1
 8379                     			.c_end	035d4h,480
 8380                     	;flag=1
 8381                     			.c_start  035deh,481
 8382  819A     A0 00       			ldy	#-22+?LSC4
 8383  819C     A9 01       			lda	#1
 8384  819E     91 28       			sta	(__stack_ptr),y
 8385                     			.c_end	035e4h,481
 8386                     	;
 8387                     	;else 
 8388  81A0     4C A9 81    			jmp	?EOI82
 8389                     			.if_else  ?EOI82,4,483
 8390         3122 81A3   	?BOL82:		.equal	$
 8391                     	;flag=3
 8392                     			.c_start  035fbh,483
 8393  81A3     A0 00       			ldy	#-22+?LSC4
 8394  81A5     A9 03       			lda	#3
 8395  81A7     91 28       			sta	(__stack_ptr),y
 8396                     			.c_end	03601h,483
 8397                     	;;
 8398                     	;						
 8399         3822 81A9   	?EOI82:		.equal	$
 8400                     	;break;
 8401                     	;				
 8402                     			.sw_break
 8403  81A9     4C AC 81    			jmp	?BOL76
 8404                     	;
 8405         3A22 81AC   	?BOL76:		.equal	$
 8406                     	;
 8407                     	;
 8408                     	;(choice==2)
 8409                     	;			
 8410         3B03 81AC   	?BOL75:		.equal	$
 8411                     			.if_top	03622h,?BOL83,3,487
 8412  81AC     A0 15       			ldy	#-1+?LSC4
 8413  81AE     B1 28       			lda	(__stack_ptr),y
 8414  81B0     38          			sec
 8415  81B1     E9 02       			sbc	#2
 8416  81B3     F0 03       			beq	+3
 8417  81B5     4C 7E 84    			jmp	?BOL83
 8418         3623 81B8   	?PLC73:		.equal	$
 8419                     			.c_end	03630h,488
 8420                     	;(kind)
 8421                     	;				
 8422                     			.c_start  0363bh,489
 8423  81B8     A0 17       			ldy	#+0+?LSC4+?TSC4
  Tue Jan 13 23:03:19 2026                                                                                               Page  149




 8424  81BA     B1 28       			lda	(__stack_ptr),y
 8425  81BC     85 23       			sta	__oper2
 8426  81BE     A2 00       			ldx	#0
 8427  81C0     86 24       			stx	__oper2+1
 8428         3124 81C2   	?PLC74:		.equal	$
 8429                     			.c_end	03648h,490
 8430                     	;
 8431                     			.sw_start
 8432                     			.const_data_psfar
 8433  8E0B     0100        	?CGL14:	.word	1
 8434  8E0D     0200        			.word	2
 8435  8E0F     0300        			.word	3
 8436  8E11     0400        			.word	4
 8437  8E13     0500        			.word	5
 8438  8E15     0600        			.word	6
 8439  8E17     D981        	?CGL15:	.word	?SWL24
 8440                     			.sw_case ?SWL24
 8441  8E19     4C82        			.word	?SWL25
 8442                     			.sw_case ?SWL25
 8443  8E1B     BF82        			.word	?SWL26
 8444                     			.sw_case ?SWL26
 8445  8E1D     3383        			.word	?SWL27
 8446                     			.sw_case ?SWL27
 8447  8E1F     9B83        			.word	?SWL28
 8448                     			.sw_case ?SWL28
 8449  8E21     0E84        			.word	?SWL29
 8450                     			.sw_case ?SWL29
 8451                     			.program_psfar
 8452  81C2     A9 0B       			lda	#.low.?CGL14
 8453  81C4     85 26       			sta	__addr_reg
 8454  81C6     A9 8E       			lda	#.high.?CGL14
 8455  81C8     85 27       			sta	__addr_reg+1
 8456                     			.sw_case ?BOL84
 8457  81CA     A2 06       			ldx	#.low.6
 8458  81CC     A0 00       			ldy	#.high.6
 8459  81CE     A9 7E       			lda	#.low.?BOL84
 8460  81D0     85 20       			sta	__oper1
 8461  81D2     A9 84       			lda	#.high.?BOL84
 8462  81D4     85 21       			sta	__oper1+1
 8463  81D6     4C 5C DB    			jmp	__switch_comparison
 8464                     			.sw_end
 8465                     	;case 1:
 8466                     	;						
 8467         3725 81D9   	?SWL24:		.equal	$
 8468                     	;(g_GameMTHeroExp>29)
 8469                     	;						
 8470                     			.if_top	03664h,?BOL85,4,492
 8471  81D9     A9 1D       			lda	#.low.29
 8472  81DB     85 23       			sta	__oper2
 8473  81DD     A9 00       			lda	#.high.29
 8474  81DF     85 24       			sta	__oper2+1
 8475  81E1     AD A4 1F    			lda	_g_GameMTHeroExp
 8476  81E4     85 20       			sta	__oper1
 8477  81E6     AD A5 1F    			lda	_g_GameMTHeroExp+1
 8478  81E9     85 21       			sta	__oper1+1
 8479  81EB     20 40 D3    			jsr	__cmp_int
 8480  81EE     B0 03       			bcs	+3
  Tue Jan 13 23:03:19 2026                                                                                               Page  150




 8481  81F0     4C 43 82    			jmp	?BOL85
 8482  81F3     D0 03       			bne	+3
 8483  81F5     4C 43 82    			jmp	?BOL85
 8484         3627 81F8   	?PLC75:		.equal	$
 8485                     			.c_end	0367bh,493
 8486                     	;g_GameMTHeroExp-=30
 8487                     			.c_start  0368ch,494
 8488  81F8     AD A4 1F    			lda	_g_GameMTHeroExp
 8489  81FB     85 20       			sta	__oper1
 8490  81FD     AD A5 1F    			lda	_g_GameMTHeroExp+1
 8491  8200     85 21       			sta	__oper1+1
 8492  8202     A5 20       			lda	__oper1
 8493  8204     38          			sec
 8494  8205     E9 1E       			sbc	#.low.30
 8495  8207     85 20       			sta	__oper1
 8496  8209     A5 21       			lda	__oper1+1
 8497  820B     E9 00       			sbc	#.high.30
 8498  820D     85 21       			sta	__oper1+1
 8499  820F     A5 20       			lda	__oper1
 8500  8211     8D A4 1F    			sta	_g_GameMTHeroExp
 8501  8214     A5 21       			lda	__oper1+1
 8502  8216     8D A5 1F    			sta	_g_GameMTHeroExp+1
 8503                     			.c_end	0369fh,494
 8504                     	;g_GameMTHeroDefence+=5
 8505                     			.c_start  036a9h,495
 8506  8219     AD A0 1F    			lda	_g_GameMTHeroDefence
 8507  821C     85 20       			sta	__oper1
 8508  821E     AD A1 1F    			lda	_g_GameMTHeroDefence+1
 8509  8221     85 21       			sta	__oper1+1
 8510  8223     A5 20       			lda	__oper1
 8511  8225     18          			clc
 8512  8226     69 05       			adc	#.low.5
 8513  8228     85 20       			sta	__oper1
 8514  822A     A5 21       			lda	__oper1+1
 8515  822C     69 00       			adc	#.high.5
 8516  822E     85 21       			sta	__oper1+1
 8517  8230     A5 20       			lda	__oper1
 8518  8232     8D A0 1F    			sta	_g_GameMTHeroDefence
 8519  8235     A5 21       			lda	__oper1+1
 8520  8237     8D A1 1F    			sta	_g_GameMTHeroDefence+1
 8521                     			.c_end	036bfh,495
 8522                     	;flag=1
 8523                     			.c_start  036c9h,496
 8524  823A     A0 00       			ldy	#-22+?LSC4
 8525  823C     A9 01       			lda	#1
 8526  823E     91 28       			sta	(__stack_ptr),y
 8527                     			.c_end	036cfh,496
 8528                     	;
 8529                     	;else 
 8530  8240     4C 49 82    			jmp	?EOI85
 8531                     			.if_else  ?EOI85,4,498
 8532         3115 8243   	?BOL85:		.equal	$
 8533                     	;flag=2
 8534                     			.c_start  036e6h,498
 8535  8243     A0 00       			ldy	#-22+?LSC4
 8536  8245     A9 02       			lda	#2
 8537  8247     91 28       			sta	(__stack_ptr),y
  Tue Jan 13 23:03:19 2026                                                                                               Page  151




 8538                     			.c_end	036ech,498
 8539                     	;;
 8540                     	;						
 8541         3815 8249   	?EOI85:		.equal	$
 8542                     	;break;
 8543                     	;					
 8544                     			.sw_break
 8545  8249     4C 7E 84    			jmp	?BOL84
 8546                     	;case 2:
 8547                     	;						
 8548         3A15 824C   	?SWL25:		.equal	$
 8549                     	;(g_GameMTHeroExp>94)
 8550                     	;						
 8551                     			.if_top	03711h,?BOL86,4,501
 8552  824C     A9 5E       			lda	#.low.94
 8553  824E     85 23       			sta	__oper2
 8554  8250     A9 00       			lda	#.high.94
 8555  8252     85 24       			sta	__oper2+1
 8556  8254     AD A4 1F    			lda	_g_GameMTHeroExp
 8557  8257     85 20       			sta	__oper1
 8558  8259     AD A5 1F    			lda	_g_GameMTHeroExp+1
 8559  825C     85 21       			sta	__oper1+1
 8560  825E     20 40 D3    			jsr	__cmp_int
 8561  8261     B0 03       			bcs	+3
 8562  8263     4C B6 82    			jmp	?BOL86
 8563  8266     D0 03       			bne	+3
 8564  8268     4C B6 82    			jmp	?BOL86
 8565         3917 826B   	?PLC76:		.equal	$
 8566                     			.c_end	03728h,502
 8567                     	;g_GameMTHeroExp-=95
 8568                     			.c_start  03739h,503
 8569  826B     AD A4 1F    			lda	_g_GameMTHeroExp
 8570  826E     85 20       			sta	__oper1
 8571  8270     AD A5 1F    			lda	_g_GameMTHeroExp+1
 8572  8273     85 21       			sta	__oper1+1
 8573  8275     A5 20       			lda	__oper1
 8574  8277     38          			sec
 8575  8278     E9 5F       			sbc	#.low.95
 8576  827A     85 20       			sta	__oper1
 8577  827C     A5 21       			lda	__oper1+1
 8578  827E     E9 00       			sbc	#.high.95
 8579  8280     85 21       			sta	__oper1+1
 8580  8282     A5 20       			lda	__oper1
 8581  8284     8D A4 1F    			sta	_g_GameMTHeroExp
 8582  8287     A5 21       			lda	__oper1+1
 8583  8289     8D A5 1F    			sta	_g_GameMTHeroExp+1
 8584                     			.c_end	0374ch,503
 8585                     	;g_GameMTHeroDefence+=17
 8586                     			.c_start  03756h,504
 8587  828C     AD A0 1F    			lda	_g_GameMTHeroDefence
 8588  828F     85 20       			sta	__oper1
 8589  8291     AD A1 1F    			lda	_g_GameMTHeroDefence+1
 8590  8294     85 21       			sta	__oper1+1
 8591  8296     A5 20       			lda	__oper1
 8592  8298     18          			clc
 8593  8299     69 11       			adc	#.low.17
 8594  829B     85 20       			sta	__oper1
  Tue Jan 13 23:03:19 2026                                                                                               Page  152




 8595  829D     A5 21       			lda	__oper1+1
 8596  829F     69 00       			adc	#.high.17
 8597  82A1     85 21       			sta	__oper1+1
 8598  82A3     A5 20       			lda	__oper1
 8599  82A5     8D A0 1F    			sta	_g_GameMTHeroDefence
 8600  82A8     A5 21       			lda	__oper1+1
 8601  82AA     8D A1 1F    			sta	_g_GameMTHeroDefence+1
 8602                     			.c_end	0376dh,504
 8603                     	;flag=1
 8604                     			.c_start  03777h,505
 8605  82AD     A0 00       			ldy	#-22+?LSC4
 8606  82AF     A9 01       			lda	#1
 8607  82B1     91 28       			sta	(__stack_ptr),y
 8608                     			.c_end	0377dh,505
 8609                     	;
 8610                     	;else 
 8611  82B3     4C BC 82    			jmp	?EOI86
 8612                     			.if_else  ?EOI86,4,507
 8613         3423 82B6   	?BOL86:		.equal	$
 8614                     	;flag=2
 8615                     			.c_start  03794h,507
 8616  82B6     A0 00       			ldy	#-22+?LSC4
 8617  82B8     A9 02       			lda	#2
 8618  82BA     91 28       			sta	(__stack_ptr),y
 8619                     			.c_end	0379ah,507
 8620                     	;;
 8621                     	;						
 8622         4223 82BC   	?EOI86:		.equal	$
 8623                     	;break;
 8624                     	;					
 8625                     			.sw_break
 8626  82BC     4C 7E 84    			jmp	?BOL84
 8627                     	;case 3:
 8628                     	;						
 8629         4423 82BF   	?SWL26:		.equal	$
 8630                     	;(g_GameMTHeroMoney>99)
 8631                     	;						
 8632                     			.if_top	037bfh,?BOL87,4,510
 8633  82BF     A9 63       			lda	#.low.99
 8634  82C1     85 23       			sta	__oper2
 8635  82C3     A9 00       			lda	#.high.99
 8636  82C5     85 24       			sta	__oper2+1
 8637  82C7     AD A2 1F    			lda	_g_GameMTHeroMoney
 8638  82CA     85 20       			sta	__oper1
 8639  82CC     AD A3 1F    			lda	_g_GameMTHeroMoney+1
 8640  82CF     85 21       			sta	__oper1+1
 8641  82D1     20 40 D3    			jsr	__cmp_int
 8642  82D4     B0 03       			bcs	+3
 8643  82D6     4C 2A 83    			jmp	?BOL87
 8644  82D9     D0 03       			bne	+3
 8645  82DB     4C 2A 83    			jmp	?BOL87
 8646         4325 82DE   	?PLC77:		.equal	$
 8647                     			.c_end	037d8h,511
 8648                     	;g_GameMTHeroMoney-=100
 8649                     			.c_start  037e9h,512
 8650  82DE     AD A2 1F    			lda	_g_GameMTHeroMoney
 8651  82E1     85 20       			sta	__oper1
  Tue Jan 13 23:03:19 2026                                                                                               Page  153




 8652  82E3     AD A3 1F    			lda	_g_GameMTHeroMoney+1
 8653  82E6     85 21       			sta	__oper1+1
 8654  82E8     A5 20       			lda	__oper1
 8655  82EA     38          			sec
 8656  82EB     E9 64       			sbc	#.low.100
 8657  82ED     85 20       			sta	__oper1
 8658  82EF     A5 21       			lda	__oper1+1
 8659  82F1     E9 00       			sbc	#.high.100
 8660  82F3     85 21       			sta	__oper1+1
 8661  82F5     A5 20       			lda	__oper1
 8662  82F7     8D A2 1F    			sta	_g_GameMTHeroMoney
 8663  82FA     A5 21       			lda	__oper1+1
 8664  82FC     8D A3 1F    			sta	_g_GameMTHeroMoney+1
 8665                     			.c_end	037ffh,512
 8666                     	;g_GameMTKey[2]+=1
 8667                     			.c_start  03809h,513
 8668  82FF     AD 95 1F    			lda	_g_GameMTKey+2
 8669  8302     18          			clc
 8670  8303     69 01       			adc	#1
 8671  8305     A0 16       			ldy	#+0+?LSC4
 8672  8307     91 28       			sta	(__stack_ptr),y
 8673  8309     A9 95       			lda	#.low._g_GameMTKey+2
 8674  830B     85 20       			sta	__oper1
 8675  830D     A9 1F       			lda	#.high._g_GameMTKey+2
 8676  830F     85 21       			sta	__oper1+1
 8677  8311     A5 20       			lda	__oper1
 8678  8313     85 23       			sta	__oper2
 8679  8315     A5 21       			lda	__oper1+1
 8680  8317     85 24       			sta	__oper2+1
 8681  8319     A0 16       			ldy	#+0+?LSC4
 8682  831B     B1 28       			lda	(__stack_ptr),y
 8683  831D     A0 00       			ldy	#0
 8684  831F     91 23       			sta	(__oper2),y
 8685                     			.c_end	0381ah,513
 8686                     	;flag=1
 8687                     			.c_start  03824h,514
 8688  8321     A0 00       			ldy	#-22+?LSC4
 8689  8323     A9 01       			lda	#1
 8690  8325     91 28       			sta	(__stack_ptr),y
 8691                     			.c_end	0382ah,514
 8692                     	;
 8693                     	;else 
 8694  8327     4C 30 83    			jmp	?EOI87
 8695                     			.if_else  ?EOI87,4,516
 8696         3813 832A   	?BOL87:		.equal	$
 8697                     	;flag=3
 8698                     			.c_start  03841h,516
 8699  832A     A0 00       			ldy	#-22+?LSC4
 8700  832C     A9 03       			lda	#3
 8701  832E     91 28       			sta	(__stack_ptr),y
 8702                     			.c_end	03847h,516
 8703                     	;;
 8704                     	;						
 8705         4613 8330   	?EOI87:		.equal	$
 8706                     	;break;
 8707                     	;					
 8708                     			.sw_break
  Tue Jan 13 23:03:19 2026                                                                                               Page  154




 8709  8330     4C 7E 84    			jmp	?BOL84
 8710                     	;case 4:
 8711                     	;						
 8712         3114 8333   	?SWL27:		.equal	$
 8713                     	;(g_GameMTKey[2]+1>1)
 8714                     	;						
 8715                     			.if_top	0386ch,?BOL88,4,519
 8716  8333     AD 95 1F    			lda	_g_GameMTKey+2
 8717  8336     18          			clc
 8718  8337     69 01       			adc	#1
 8719  8339     38          			sec
 8720  833A     E9 01       			sbc	#1
 8721  833C     B0 03       			bcs	+3
 8722  833E     4C 92 83    			jmp	?BOL88
 8723  8341     D0 03       			bne	+3
 8724  8343     4C 92 83    			jmp	?BOL88
 8725         3415 8346   	?PLC78:		.equal	$
 8726                     			.c_end	03883h,520
 8727                     	;g_GameMTHeroMoney+=70
 8728                     			.c_start  03894h,521
 8729  8346     AD A2 1F    			lda	_g_GameMTHeroMoney
 8730  8349     85 20       			sta	__oper1
 8731  834B     AD A3 1F    			lda	_g_GameMTHeroMoney+1
 8732  834E     85 21       			sta	__oper1+1
 8733  8350     A5 20       			lda	__oper1
 8734  8352     18          			clc
 8735  8353     69 46       			adc	#.low.70
 8736  8355     85 20       			sta	__oper1
 8737  8357     A5 21       			lda	__oper1+1
 8738  8359     69 00       			adc	#.high.70
 8739  835B     85 21       			sta	__oper1+1
 8740  835D     A5 20       			lda	__oper1
 8741  835F     8D A2 1F    			sta	_g_GameMTHeroMoney
 8742  8362     A5 21       			lda	__oper1+1
 8743  8364     8D A3 1F    			sta	_g_GameMTHeroMoney+1
 8744                     			.c_end	038a9h,521
 8745                     	;g_GameMTKey[2]-=1
 8746                     			.c_start  038b3h,522
 8747  8367     AD 95 1F    			lda	_g_GameMTKey+2
 8748  836A     38          			sec
 8749  836B     E9 01       			sbc	#1
 8750  836D     A0 16       			ldy	#+0+?LSC4
 8751  836F     91 28       			sta	(__stack_ptr),y
 8752  8371     A9 95       			lda	#.low._g_GameMTKey+2
 8753  8373     85 20       			sta	__oper1
 8754  8375     A9 1F       			lda	#.high._g_GameMTKey+2
 8755  8377     85 21       			sta	__oper1+1
 8756  8379     A5 20       			lda	__oper1
 8757  837B     85 23       			sta	__oper2
 8758  837D     A5 21       			lda	__oper1+1
 8759  837F     85 24       			sta	__oper2+1
 8760  8381     A0 16       			ldy	#+0+?LSC4
 8761  8383     B1 28       			lda	(__stack_ptr),y
 8762  8385     A0 00       			ldy	#0
 8763  8387     91 23       			sta	(__oper2),y
 8764                     			.c_end	038c4h,522
 8765                     	;flag=1
  Tue Jan 13 23:03:19 2026                                                                                               Page  155




 8766                     			.c_start  038ceh,523
 8767  8389     A0 00       			ldy	#-22+?LSC4
 8768  838B     A9 01       			lda	#1
 8769  838D     91 28       			sta	(__stack_ptr),y
 8770                     			.c_end	038d4h,523
 8771                     	;
 8772                     	;else 
 8773  838F     4C 98 83    			jmp	?EOI88
 8774                     			.if_else  ?EOI88,4,525
 8775         4719 8392   	?BOL88:		.equal	$
 8776                     	;flag=4
 8777                     			.c_start  038ebh,525
 8778  8392     A0 00       			ldy	#-22+?LSC4
 8779  8394     A9 04       			lda	#4
 8780  8396     91 28       			sta	(__stack_ptr),y
 8781                     			.c_end	038f1h,525
 8782                     	;;
 8783                     	;						
 8784         371A 8398   	?EOI88:		.equal	$
 8785                     	;break;
 8786                     	;					
 8787                     			.sw_break
 8788  8398     4C 7E 84    			jmp	?BOL84
 8789                     	;case 5:
 8790                     	;						
 8791         391A 839B   	?SWL28:		.equal	$
 8792                     	;(g_GameMTHeroMoney>24)
 8793                     	;						
 8794                     			.if_top	03916h,?BOL89,4,528
 8795  839B     A9 18       			lda	#.low.24
 8796  839D     85 23       			sta	__oper2
 8797  839F     A9 00       			lda	#.high.24
 8798  83A1     85 24       			sta	__oper2+1
 8799  83A3     AD A2 1F    			lda	_g_GameMTHeroMoney
 8800  83A6     85 20       			sta	__oper1
 8801  83A8     AD A3 1F    			lda	_g_GameMTHeroMoney+1
 8802  83AB     85 21       			sta	__oper1+1
 8803  83AD     20 40 D3    			jsr	__cmp_int
 8804  83B0     B0 03       			bcs	+3
 8805  83B2     4C 05 84    			jmp	?BOL89
 8806  83B5     D0 03       			bne	+3
 8807  83B7     4C 05 84    			jmp	?BOL89
 8808         3823 83BA   	?PLC79:		.equal	$
 8809                     			.c_end	0392fh,529
 8810                     	;g_GameMTHeroMoney-=25
 8811                     			.c_start  03940h,530
 8812  83BA     AD A2 1F    			lda	_g_GameMTHeroMoney
 8813  83BD     85 20       			sta	__oper1
 8814  83BF     AD A3 1F    			lda	_g_GameMTHeroMoney+1
 8815  83C2     85 21       			sta	__oper1+1
 8816  83C4     A5 20       			lda	__oper1
 8817  83C6     38          			sec
 8818  83C7     E9 19       			sbc	#.low.25
 8819  83C9     85 20       			sta	__oper1
 8820  83CB     A5 21       			lda	__oper1+1
 8821  83CD     E9 00       			sbc	#.high.25
 8822  83CF     85 21       			sta	__oper1+1
  Tue Jan 13 23:03:19 2026                                                                                               Page  156




 8823  83D1     A5 20       			lda	__oper1
 8824  83D3     8D A2 1F    			sta	_g_GameMTHeroMoney
 8825  83D6     A5 21       			lda	__oper1+1
 8826  83D8     8D A3 1F    			sta	_g_GameMTHeroMoney+1
 8827                     			.c_end	03955h,530
 8828                     	;g_GameMTHeroDefence+=4
 8829                     			.c_start  0395fh,531
 8830  83DB     AD A0 1F    			lda	_g_GameMTHeroDefence
 8831  83DE     85 20       			sta	__oper1
 8832  83E0     AD A1 1F    			lda	_g_GameMTHeroDefence+1
 8833  83E3     85 21       			sta	__oper1+1
 8834  83E5     A5 20       			lda	__oper1
 8835  83E7     18          			clc
 8836  83E8     69 04       			adc	#.low.4
 8837  83EA     85 20       			sta	__oper1
 8838  83EC     A5 21       			lda	__oper1+1
 8839  83EE     69 00       			adc	#.high.4
 8840  83F0     85 21       			sta	__oper1+1
 8841  83F2     A5 20       			lda	__oper1
 8842  83F4     8D A0 1F    			sta	_g_GameMTHeroDefence
 8843  83F7     A5 21       			lda	__oper1+1
 8844  83F9     8D A1 1F    			sta	_g_GameMTHeroDefence+1
 8845                     			.c_end	03975h,531
 8846                     	;flag=1
 8847                     			.c_start  0397fh,532
 8848  83FC     A0 00       			ldy	#-22+?LSC4
 8849  83FE     A9 01       			lda	#1
 8850  8400     91 28       			sta	(__stack_ptr),y
 8851                     			.c_end	03985h,532
 8852                     	;
 8853                     	;else 
 8854  8402     4C 0B 84    			jmp	?EOI89
 8855                     			.if_else  ?EOI89,4,534
 8856         3311 8405   	?BOL89:		.equal	$
 8857                     	;flag=3
 8858                     			.c_start  0399ch,534
 8859  8405     A0 00       			ldy	#-22+?LSC4
 8860  8407     A9 03       			lda	#3
 8861  8409     91 28       			sta	(__stack_ptr),y
 8862                     			.c_end	039a2h,534
 8863                     	;;
 8864                     	;						
 8865         3A11 840B   	?EOI89:		.equal	$
 8866                     	;break;
 8867                     	;					
 8868                     			.sw_break
 8869  840B     4C 7E 84    			jmp	?BOL84
 8870                     	;case 6:
 8871                     	;						
 8872         4311 840E   	?SWL29:		.equal	$
 8873                     	;(g_GameMTHeroMoney>99)
 8874                     	;						
 8875                     			.if_top	039c7h,?BOL90,4,537
 8876  840E     A9 63       			lda	#.low.99
 8877  8410     85 23       			sta	__oper2
 8878  8412     A9 00       			lda	#.high.99
 8879  8414     85 24       			sta	__oper2+1
  Tue Jan 13 23:03:19 2026                                                                                               Page  157




 8880  8416     AD A2 1F    			lda	_g_GameMTHeroMoney
 8881  8419     85 20       			sta	__oper1
 8882  841B     AD A3 1F    			lda	_g_GameMTHeroMoney+1
 8883  841E     85 21       			sta	__oper1+1
 8884  8420     20 40 D3    			jsr	__cmp_int
 8885  8423     B0 03       			bcs	+3
 8886  8425     4C 78 84    			jmp	?BOL90
 8887  8428     D0 03       			bne	+3
 8888  842A     4C 78 84    			jmp	?BOL90
 8889         4213 842D   	?PLC80:		.equal	$
 8890                     			.c_end	039e0h,538
 8891                     	;g_GameMTHeroMoney-=100
 8892                     			.c_start  039f1h,539
 8893  842D     AD A2 1F    			lda	_g_GameMTHeroMoney
 8894  8430     85 20       			sta	__oper1
 8895  8432     AD A3 1F    			lda	_g_GameMTHeroMoney+1
 8896  8435     85 21       			sta	__oper1+1
 8897  8437     A5 20       			lda	__oper1
 8898  8439     38          			sec
 8899  843A     E9 64       			sbc	#.low.100
 8900  843C     85 20       			sta	__oper1
 8901  843E     A5 21       			lda	__oper1+1
 8902  8440     E9 00       			sbc	#.high.100
 8903  8442     85 21       			sta	__oper1+1
 8904  8444     A5 20       			lda	__oper1
 8905  8446     8D A2 1F    			sta	_g_GameMTHeroMoney
 8906  8449     A5 21       			lda	__oper1+1
 8907  844B     8D A3 1F    			sta	_g_GameMTHeroMoney+1
 8908                     			.c_end	03a07h,539
 8909                     	;g_GameMTHeroDefence+=20
 8910                     			.c_start  03a11h,540
 8911  844E     AD A0 1F    			lda	_g_GameMTHeroDefence
 8912  8451     85 20       			sta	__oper1
 8913  8453     AD A1 1F    			lda	_g_GameMTHeroDefence+1
 8914  8456     85 21       			sta	__oper1+1
 8915  8458     A5 20       			lda	__oper1
 8916  845A     18          			clc
 8917  845B     69 14       			adc	#.low.20
 8918  845D     85 20       			sta	__oper1
 8919  845F     A5 21       			lda	__oper1+1
 8920  8461     69 00       			adc	#.high.20
 8921  8463     85 21       			sta	__oper1+1
 8922  8465     A5 20       			lda	__oper1
 8923  8467     8D A0 1F    			sta	_g_GameMTHeroDefence
 8924  846A     A5 21       			lda	__oper1+1
 8925  846C     8D A1 1F    			sta	_g_GameMTHeroDefence+1
 8926                     			.c_end	03a28h,540
 8927                     	;flag=1
 8928                     			.c_start  03a32h,541
 8929  846F     A0 00       			ldy	#-22+?LSC4
 8930  8471     A9 01       			lda	#1
 8931  8473     91 28       			sta	(__stack_ptr),y
 8932                     			.c_end	03a38h,541
 8933                     	;
 8934                     	;else 
 8935  8475     4C 7E 84    			jmp	?EOI90
 8936                     			.if_else  ?EOI90,4,543
  Tue Jan 13 23:03:19 2026                                                                                               Page  158




 8937         3618 8478   	?BOL90:		.equal	$
 8938                     	;flag=3
 8939                     			.c_start  03a4fh,543
 8940  8478     A0 00       			ldy	#-22+?LSC4
 8941  847A     A9 03       			lda	#3
 8942  847C     91 28       			sta	(__stack_ptr),y
 8943                     			.c_end	03a55h,543
 8944                     	;;
 8945                     	;				
 8946         4418 847E   	?EOI90:		.equal	$
 8947                     	;
 8948         44F9 847E   	?BOL84:		.equal	$
 8949                     	;
 8950                     	;
 8951                     	;(choice==3)
 8952         45DA 847E   	?BOL83:		.equal	$
 8953                     			.if_top	03a68h,?BOL91,3,546
 8954  847E     A0 15       			ldy	#-1+?LSC4
 8955  8480     B1 28       			lda	(__stack_ptr),y
 8956  8482     38          			sec
 8957  8483     E9 03       			sbc	#3
 8958  8485     F0 03       			beq	+3
 8959  8487     4C 8D 84    			jmp	?BOL91
 8960         3819 848A   	?PLC81:		.equal	$
 8961                     			.c_end	03a74h,546
 8962                     	;break;
 8963                     	;			
 8964  848A     4C 79 86    			jmp	?BOL60
 8965                     	;(flag)
 8966                     	;			
 8967         4219 848D   	?BOL91:		.equal	$
 8968                     			.c_start  03a80h,547
 8969  848D     A0 00       			ldy	#-22+?LSC4
 8970  848F     B1 28       			lda	(__stack_ptr),y
 8971  8491     85 23       			sta	__oper2
 8972  8493     A2 00       			ldx	#0
 8973  8495     86 24       			stx	__oper2+1
 8974         361A 8497   	?PLC82:		.equal	$
 8975                     			.c_end	03a8dh,548
 8976                     	;
 8977                     			.sw_start
 8978                     			.const_data_psfar
 8979  8E23     0100        	?CGL16:	.word	1
 8980  8E25     0200        			.word	2
 8981  8E27     0300        			.word	3
 8982  8E29     0400        			.word	4
 8983  8E2B     AE84        	?CGL17:	.word	?SWL30
 8984                     			.sw_case ?SWL30
 8985  8E2D     2085        			.word	?SWL31
 8986                     			.sw_case ?SWL31
 8987  8E2F     9285        			.word	?SWL32
 8988                     			.sw_case ?SWL32
 8989  8E31     0486        			.word	?SWL33
 8990                     			.sw_case ?SWL33
 8991                     			.program_psfar
 8992  8497     A9 23       			lda	#.low.?CGL16
 8993  8499     85 26       			sta	__addr_reg
  Tue Jan 13 23:03:19 2026                                                                                               Page  159




 8994  849B     A9 8E       			lda	#.high.?CGL16
 8995  849D     85 27       			sta	__addr_reg+1
 8996                     			.sw_case ?BOL92
 8997  849F     A2 04       			ldx	#.low.4
 8998  84A1     A0 00       			ldy	#.high.4
 8999  84A3     A9 76       			lda	#.low.?BOL92
 9000  84A5     85 20       			sta	__oper1
 9001  84A7     A9 86       			lda	#.high.?BOL92
 9002  84A9     85 21       			sta	__oper1+1
 9003  84AB     4C 5C DB    			jmp	__switch_comparison
 9004                     			.sw_end
 9005                     	;case 1:
 9006                     	;					
 9007         4322 84AE   	?SWL30:		.equal	$
 9008                     	;SysMemcpy(temp,"  !\0",14)
 9009                     			.c_start  03aa6h,550
 9010                     			.const_data_psfar
 9011  8E33     20 20 D7 B4 CC 	?PLC83:		.byte	"  !",0o,0
              AC D2 D1 B8 FC 
              B8 C4 21 00 00 
 9012                     			.program_psfar
 9013  84AE     A9 0E       			lda	#.low.14
 9014  84B0     85 20       			sta	__oper1
 9015  84B2     A9 00       			lda	#.high.14
 9016  84B4     85 21       			sta	__oper1+1
 9017  84B6     20 CA DA    			jsr	__store_int_funct_arg
 9018  84B9     A9 33       			lda	#.low.?PLC83
 9019  84BB     85 20       			sta	__oper1
 9020  84BD     A9 8E       			lda	#.high.?PLC83
 9021  84BF     85 21       			sta	__oper1+1
 9022  84C1     20 CA DA    			jsr	__store_int_funct_arg
 9023  84C4     18          			clc
 9024  84C5     A5 28       			lda	__stack_ptr
 9025  84C7     69 05       			adc	#.low.-21+?LSC4+4
 9026  84C9     85 20       			sta	__oper1
 9027  84CB     A5 29       			lda	__stack_ptr+1
 9028  84CD     69 00       			adc	#.high.-21+?LSC4+4
 9029  84CF     85 21       			sta	__oper1+1
 9030  84D1     20 CA DA    			jsr	__store_int_funct_arg
 9031                     			.f_call	_SysMemcpy
 9032  84D4     20 01 E9    			jsr	_SysMemcpy
 9033  84D7     08          			php
 9034  84D8     78          			sei
 9035  84D9     18          			clc
 9036  84DA     A5 28       			lda	__stack_ptr
 9037  84DC     69 06       			adc	#.low.6
 9038  84DE     85 28       			sta	__stack_ptr
 9039  84E0     A5 29       			lda	__stack_ptr+1
 9040  84E2     69 00       			adc	#.high.6
 9041  84E4     85 29       			sta	__stack_ptr+1
 9042  84E6     28          			plp
 9043                     			.c_end	03acah,550
 9044                     	;GuiMsgBox(temp,50)
 9045                     			.c_start  03ad2h,551
 9046  84E7     A9 32       			lda	#.low.50
 9047  84E9     85 20       			sta	__oper1
 9048  84EB     A9 00       			lda	#.high.50
  Tue Jan 13 23:03:19 2026                                                                                               Page  160




 9049  84ED     85 21       			sta	__oper1+1
 9050  84EF     20 CA DA    			jsr	__store_int_funct_arg
 9051  84F2     18          			clc
 9052  84F3     A5 28       			lda	__stack_ptr
 9053  84F5     69 03       			adc	#.low.-21+?LSC4+2
 9054  84F7     85 20       			sta	__oper1
 9055  84F9     A5 29       			lda	__stack_ptr+1
 9056  84FB     69 00       			adc	#.high.-21+?LSC4+2
 9057  84FD     85 21       			sta	__oper1+1
 9058  84FF     20 CA DA    			jsr	__store_int_funct_arg
 9059  8502     A2 53       			ldx	#.low.&GuiMsgBox
 9060  8504     86 26       			stx	__addr_reg
 9061  8506     A2 E9       			ldx	#.high.&GuiMsgBox+1
 9062  8508     86 27       			stx	__addr_reg+1
 9063                     			.bf_call
 9064  850A     20 F6 D2    			jsr	__banked_function_call
 9065  850D     08          			php
 9066  850E     78          			sei
 9067  850F     18          			clc
 9068  8510     A5 28       			lda	__stack_ptr
 9069  8512     69 04       			adc	#.low.4
 9070  8514     85 28       			sta	__stack_ptr
 9071  8516     A5 29       			lda	__stack_ptr+1
 9072  8518     69 00       			adc	#.high.4
 9073  851A     85 29       			sta	__stack_ptr+1
 9074  851C     28          			plp
 9075                     			.c_end	03ae4h,551
 9076                     	;break;
 9077                     	;				
 9078                     			.sw_break
 9079  851D     4C 76 86    			jmp	?BOL92
 9080                     	;case 2:
 9081                     	;					
 9082         4512 8520   	?SWL31:		.equal	$
 9083                     	;SysMemcpy(temp,"    !\0",14)
 9084                     			.c_start  03b06h,554
 9085                     			.const_data_psfar
 9086  8E42     20 20 20 20 BE 	?PLC84:		.byte	"    !",0o,0
              AD D1 E9 B2 BB 
              D7 E3 21 00 00 
 9087                     			.program_psfar
 9088  8520     A9 0E       			lda	#.low.14
 9089  8522     85 20       			sta	__oper1
 9090  8524     A9 00       			lda	#.high.14
 9091  8526     85 21       			sta	__oper1+1
 9092  8528     20 CA DA    			jsr	__store_int_funct_arg
 9093  852B     A9 42       			lda	#.low.?PLC84
 9094  852D     85 20       			sta	__oper1
 9095  852F     A9 8E       			lda	#.high.?PLC84
 9096  8531     85 21       			sta	__oper1+1
 9097  8533     20 CA DA    			jsr	__store_int_funct_arg
 9098  8536     18          			clc
 9099  8537     A5 28       			lda	__stack_ptr
 9100  8539     69 05       			adc	#.low.-21+?LSC4+4
 9101  853B     85 20       			sta	__oper1
 9102  853D     A5 29       			lda	__stack_ptr+1
 9103  853F     69 00       			adc	#.high.-21+?LSC4+4
  Tue Jan 13 23:03:19 2026                                                                                               Page  161




 9104  8541     85 21       			sta	__oper1+1
 9105  8543     20 CA DA    			jsr	__store_int_funct_arg
 9106                     			.f_call	_SysMemcpy
 9107  8546     20 01 E9    			jsr	_SysMemcpy
 9108  8549     08          			php
 9109  854A     78          			sei
 9110  854B     18          			clc
 9111  854C     A5 28       			lda	__stack_ptr
 9112  854E     69 06       			adc	#.low.6
 9113  8550     85 28       			sta	__stack_ptr
 9114  8552     A5 29       			lda	__stack_ptr+1
 9115  8554     69 00       			adc	#.high.6
 9116  8556     85 29       			sta	__stack_ptr+1
 9117  8558     28          			plp
 9118                     			.c_end	03b2ah,554
 9119                     	;GuiMsgBox(temp,50)
 9120                     			.c_start  03b32h,555
 9121  8559     A9 32       			lda	#.low.50
 9122  855B     85 20       			sta	__oper1
 9123  855D     A9 00       			lda	#.high.50
 9124  855F     85 21       			sta	__oper1+1
 9125  8561     20 CA DA    			jsr	__store_int_funct_arg
 9126  8564     18          			clc
 9127  8565     A5 28       			lda	__stack_ptr
 9128  8567     69 03       			adc	#.low.-21+?LSC4+2
 9129  8569     85 20       			sta	__oper1
 9130  856B     A5 29       			lda	__stack_ptr+1
 9131  856D     69 00       			adc	#.high.-21+?LSC4+2
 9132  856F     85 21       			sta	__oper1+1
 9133  8571     20 CA DA    			jsr	__store_int_funct_arg
 9134  8574     A2 53       			ldx	#.low.&GuiMsgBox
 9135  8576     86 26       			stx	__addr_reg
 9136  8578     A2 E9       			ldx	#.high.&GuiMsgBox+1
 9137  857A     86 27       			stx	__addr_reg+1
 9138                     			.bf_call
 9139  857C     20 F6 D2    			jsr	__banked_function_call
 9140  857F     08          			php
 9141  8580     78          			sei
 9142  8581     18          			clc
 9143  8582     A5 28       			lda	__stack_ptr
 9144  8584     69 04       			adc	#.low.4
 9145  8586     85 28       			sta	__stack_ptr
 9146  8588     A5 29       			lda	__stack_ptr+1
 9147  858A     69 00       			adc	#.high.4
 9148  858C     85 29       			sta	__stack_ptr+1
 9149  858E     28          			plp
 9150                     			.c_end	03b44h,555
 9151                     	;break;
 9152                     	;				
 9153                     			.sw_break
 9154  858F     4C 76 86    			jmp	?BOL92
 9155                     	;case 3:
 9156                     	;					
 9157         4719 8592   	?SWL32:		.equal	$
 9158                     	;SysMemcpy(temp,"    !\0",14)
 9159                     			.c_start  03b66h,558
 9160                     			.const_data_psfar
  Tue Jan 13 23:03:19 2026                                                                                               Page  162




 9161  8E51     20 20 20 20 BD 	?PLC85:		.byte	"    !",0o,0
              F0 B1 D2 B2 BB 
              D7 E3 21 00 00 
 9162                     			.program_psfar
 9163  8592     A9 0E       			lda	#.low.14
 9164  8594     85 20       			sta	__oper1
 9165  8596     A9 00       			lda	#.high.14
 9166  8598     85 21       			sta	__oper1+1
 9167  859A     20 CA DA    			jsr	__store_int_funct_arg
 9168  859D     A9 51       			lda	#.low.?PLC85
 9169  859F     85 20       			sta	__oper1
 9170  85A1     A9 8E       			lda	#.high.?PLC85
 9171  85A3     85 21       			sta	__oper1+1
 9172  85A5     20 CA DA    			jsr	__store_int_funct_arg
 9173  85A8     18          			clc
 9174  85A9     A5 28       			lda	__stack_ptr
 9175  85AB     69 05       			adc	#.low.-21+?LSC4+4
 9176  85AD     85 20       			sta	__oper1
 9177  85AF     A5 29       			lda	__stack_ptr+1
 9178  85B1     69 00       			adc	#.high.-21+?LSC4+4
 9179  85B3     85 21       			sta	__oper1+1
 9180  85B5     20 CA DA    			jsr	__store_int_funct_arg
 9181                     			.f_call	_SysMemcpy
 9182  85B8     20 01 E9    			jsr	_SysMemcpy
 9183  85BB     08          			php
 9184  85BC     78          			sei
 9185  85BD     18          			clc
 9186  85BE     A5 28       			lda	__stack_ptr
 9187  85C0     69 06       			adc	#.low.6
 9188  85C2     85 28       			sta	__stack_ptr
 9189  85C4     A5 29       			lda	__stack_ptr+1
 9190  85C6     69 00       			adc	#.high.6
 9191  85C8     85 29       			sta	__stack_ptr+1
 9192  85CA     28          			plp
 9193                     			.c_end	03b8ah,558
 9194                     	;GuiMsgBox(temp,50)
 9195                     			.c_start  03b92h,559
 9196  85CB     A9 32       			lda	#.low.50
 9197  85CD     85 20       			sta	__oper1
 9198  85CF     A9 00       			lda	#.high.50
 9199  85D1     85 21       			sta	__oper1+1
 9200  85D3     20 CA DA    			jsr	__store_int_funct_arg
 9201  85D6     18          			clc
 9202  85D7     A5 28       			lda	__stack_ptr
 9203  85D9     69 03       			adc	#.low.-21+?LSC4+2
 9204  85DB     85 20       			sta	__oper1
 9205  85DD     A5 29       			lda	__stack_ptr+1
 9206  85DF     69 00       			adc	#.high.-21+?LSC4+2
 9207  85E1     85 21       			sta	__oper1+1
 9208  85E3     20 CA DA    			jsr	__store_int_funct_arg
 9209  85E6     A2 53       			ldx	#.low.&GuiMsgBox
 9210  85E8     86 26       			stx	__addr_reg
 9211  85EA     A2 E9       			ldx	#.high.&GuiMsgBox+1
 9212  85EC     86 27       			stx	__addr_reg+1
 9213                     			.bf_call
 9214  85EE     20 F6 D2    			jsr	__banked_function_call
 9215  85F1     08          			php
  Tue Jan 13 23:03:19 2026                                                                                               Page  163




 9216  85F2     78          			sei
 9217  85F3     18          			clc
 9218  85F4     A5 28       			lda	__stack_ptr
 9219  85F6     69 04       			adc	#.low.4
 9220  85F8     85 28       			sta	__stack_ptr
 9221  85FA     A5 29       			lda	__stack_ptr+1
 9222  85FC     69 00       			adc	#.high.4
 9223  85FE     85 29       			sta	__stack_ptr+1
 9224  8600     28          			plp
 9225                     			.c_end	03ba4h,559
 9226                     	;break;
 9227                     	;				
 9228                     			.sw_break
 9229  8601     4C 76 86    			jmp	?BOL92
 9230                     	;case 4:
 9231                     	;					
 9232         3211 8604   	?SWL33:		.equal	$
 9233                     	;SysMemcpy(temp,"    !\0",14)
 9234                     			.c_start  03bc6h,562
 9235                     			.const_data_psfar
 9236  8E60     20 20 20 20 D4 	?PLC86:		.byte	"    !",0o,0
              BF B3 D7 B2 BB 
              D7 E3 21 00 00 
 9237                     			.program_psfar
 9238  8604     A9 0E       			lda	#.low.14
 9239  8606     85 20       			sta	__oper1
 9240  8608     A9 00       			lda	#.high.14
 9241  860A     85 21       			sta	__oper1+1
 9242  860C     20 CA DA    			jsr	__store_int_funct_arg
 9243  860F     A9 60       			lda	#.low.?PLC86
 9244  8611     85 20       			sta	__oper1
 9245  8613     A9 8E       			lda	#.high.?PLC86
 9246  8615     85 21       			sta	__oper1+1
 9247  8617     20 CA DA    			jsr	__store_int_funct_arg
 9248  861A     18          			clc
 9249  861B     A5 28       			lda	__stack_ptr
 9250  861D     69 05       			adc	#.low.-21+?LSC4+4
 9251  861F     85 20       			sta	__oper1
 9252  8621     A5 29       			lda	__stack_ptr+1
 9253  8623     69 00       			adc	#.high.-21+?LSC4+4
 9254  8625     85 21       			sta	__oper1+1
 9255  8627     20 CA DA    			jsr	__store_int_funct_arg
 9256                     			.f_call	_SysMemcpy
 9257  862A     20 01 E9    			jsr	_SysMemcpy
 9258  862D     08          			php
 9259  862E     78          			sei
 9260  862F     18          			clc
 9261  8630     A5 28       			lda	__stack_ptr
 9262  8632     69 06       			adc	#.low.6
 9263  8634     85 28       			sta	__stack_ptr
 9264  8636     A5 29       			lda	__stack_ptr+1
 9265  8638     69 00       			adc	#.high.6
 9266  863A     85 29       			sta	__stack_ptr+1
 9267  863C     28          			plp
 9268                     			.c_end	03beah,562
 9269                     	;GuiMsgBox(temp,50)
 9270                     			.c_start  03bf2h,563
  Tue Jan 13 23:03:19 2026                                                                                               Page  164




 9271  863D     A9 32       			lda	#.low.50
 9272  863F     85 20       			sta	__oper1
 9273  8641     A9 00       			lda	#.high.50
 9274  8643     85 21       			sta	__oper1+1
 9275  8645     20 CA DA    			jsr	__store_int_funct_arg
 9276  8648     18          			clc
 9277  8649     A5 28       			lda	__stack_ptr
 9278  864B     69 03       			adc	#.low.-21+?LSC4+2
 9279  864D     85 20       			sta	__oper1
 9280  864F     A5 29       			lda	__stack_ptr+1
 9281  8651     69 00       			adc	#.high.-21+?LSC4+2
 9282  8653     85 21       			sta	__oper1+1
 9283  8655     20 CA DA    			jsr	__store_int_funct_arg
 9284  8658     A2 53       			ldx	#.low.&GuiMsgBox
 9285  865A     86 26       			stx	__addr_reg
 9286  865C     A2 E9       			ldx	#.high.&GuiMsgBox+1
 9287  865E     86 27       			stx	__addr_reg+1
 9288                     			.bf_call
 9289  8660     20 F6 D2    			jsr	__banked_function_call
 9290  8663     08          			php
 9291  8664     78          			sei
 9292  8665     18          			clc
 9293  8666     A5 28       			lda	__stack_ptr
 9294  8668     69 04       			adc	#.low.4
 9295  866A     85 28       			sta	__stack_ptr
 9296  866C     A5 29       			lda	__stack_ptr+1
 9297  866E     69 00       			adc	#.high.4
 9298  8670     85 29       			sta	__stack_ptr+1
 9299  8672     28          			plp
 9300                     			.c_end	03c04h,563
 9301                     	;break;
 9302                     	;			
 9303                     			.sw_break
 9304  8673     4C 76 86    			jmp	?BOL92
 9305                     	;
 9306         3418 8676   	?BOL92:		.equal	$
 9307                     	;
 9308                     	;
 9309                     	;
 9310         34F9 8676   	?BOL66:		.equal	$
 9311                     			.whi_bot  1,567
 9312  8676     4C 76 79    			jmp	?TOL60
 9313         3718 8679   	?BOL60:		.equal	$
 9314                     	;SysRestoreScreen(0,5,158,89,g_GameMTBuf)
 9315                     			.c_start  03c24h,568
 9316  8679     A9 13       			lda	#.low._g_GameMTBuf
 9317  867B     85 20       			sta	__oper1
 9318  867D     A9 18       			lda	#.high._g_GameMTBuf
 9319  867F     85 21       			sta	__oper1+1
 9320  8681     20 CA DA    			jsr	__store_int_funct_arg
 9321  8684     A9 59       			lda	#89
 9322  8686     20 AA DA    			jsr	__store_char_funct_arg
 9323  8689     A9 9E       			lda	#.low.158
 9324  868B     85 20       			sta	__oper1
 9325  868D     A9 00       			lda	#.high.158
 9326  868F     85 21       			sta	__oper1+1
 9327  8691     A5 20       			lda	__oper1
  Tue Jan 13 23:03:19 2026                                                                                               Page  165




 9328  8693     20 AA DA    			jsr	__store_char_funct_arg
 9329  8696     A9 05       			lda	#5
 9330  8698     20 AA DA    			jsr	__store_char_funct_arg
 9331  869B     A9 00       			lda	#0
 9332  869D     A2 7A       			ldx	#.low.&SysRestoreScreen
 9333  869F     86 26       			stx	__addr_reg
 9334  86A1     A2 E8       			ldx	#.high.&SysRestoreScreen+1
 9335  86A3     86 27       			stx	__addr_reg+1
 9336                     			.bf_call
 9337  86A5     20 F6 D2    			jsr	__banked_function_call
 9338  86A8     08          			php
 9339  86A9     78          			sei
 9340  86AA     18          			clc
 9341  86AB     A5 28       			lda	__stack_ptr
 9342  86AD     69 05       			adc	#.low.5
 9343  86AF     85 28       			sta	__stack_ptr
 9344  86B1     A5 29       			lda	__stack_ptr+1
 9345  86B3     69 00       			adc	#.high.5
 9346  86B5     85 29       			sta	__stack_ptr+1
 9347  86B7     28          			plp
 9348                     			.c_end	03c4ch,568
 9349                     	;GameMTReNewR()
 9350                     			.c_start  03c50h,569
 9351  86B8     A2 57       			ldx	#.low.&GameMTReNewR
 9352  86BA     86 26       			stx	__addr_reg
 9353  86BC     A2 90       			ldx	#.high.&GameMTReNewR+1
 9354  86BE     86 27       			stx	__addr_reg+1
 9355                     			.bf_call
 9356  86C0     20 F6 D2    			jsr	__banked_function_call
 9357                     			.c_end	03c5eh,569
 9358                     	;
 9359                     			.f_end	03c61h,570
 9360         3124 86C3   	?BOF4:		.equal	$
 9361  86C3     08          			php
 9362  86C4     78          			sei
 9363  86C5     18          			clc
 9364  86C6     A5 28       			lda	__stack_ptr
 9365  86C8     69 18       			adc	#.low.+?LSC4+?TSC4+1
 9366  86CA     85 28       			sta	__stack_ptr
 9367  86CC     A5 29       			lda	__stack_ptr+1
 9368  86CE     69 00       			adc	#.high.+?LSC4+?TSC4+1
 9369  86D0     85 29       			sta	__stack_ptr+1
 9370  86D2     28          			plp
 9371                     			.f_return
 9372  86D3     60          			rts
 9373                     	;
 9374                     			.f_start  03e21h,582
 9375                     			.bank_table
 9376                     			.global	&GameMTReNewR
 9377  9057     D4 86 E1    	&GameMTReNewR:	.bankaddr	_GameMTReNewR
 9378                     			.ends
 9379         3816 86D4   	_GameMTReNewR:	.equal	$
 9380                     			.attrib	_GameMTReNewR,583,f,b
 9381                     	;
 9382                     	;
 9383         0000        	?ASC5:		.equal	0
 9384         0006        	?TSC5:		.equal	6
  Tue Jan 13 23:03:19 2026                                                                                               Page  166




 9385         0004        	?LSC5:		.equal	4
 9386  86D4     08          			php
 9387  86D5     78          			sei
 9388  86D6     38          			sec
 9389  86D7     A5 28       			lda	__stack_ptr
 9390  86D9     E9 0A       			sbc	#.low.+?LSC5+?TSC5
 9391  86DB     85 28       			sta	__stack_ptr
 9392  86DD     A5 29       			lda	__stack_ptr+1
 9393  86DF     E9 00       			sbc	#.high.+?LSC5+?TSC5
 9394  86E1     85 29       			sta	__stack_ptr+1
 9395  86E3     28          			plp
 9396                     	;unsigned char  i=temp[3];
 9397                     	;	
 9398                     			.local	_i,584,v,c,u,d,d,d,d,-1+?LSC5+0,00h
 9399                     			.local	_temp,584,v,c,u,d,d,d,d,-4+?LSC5+0,03h,00h
 9400                     	;(g_GameMTNearEnd)
 9401                     	;	
 9402                     			.if_top	03e45h,?BOL93,1,585
 9403  86E4     AD 00 18    			lda	_g_GameMTNearEnd
 9404  86E7     D0 03       			bne	+3
 9405  86E9     4C 10 88    			jmp	?BOL93
 9406         3A26 86EC   	?PLC87:		.equal	$
 9407                     			.c_end	03e59h,586
 9408                     	;(g_GameMTCurTime!=SysGetSecond())
 9409                     	;		
 9410                     			.if_top	03e60h,?BOL94,2,587
 9411  86EC     A2 D9       			ldx	#.low.&SysGetSecond
 9412  86EE     86 26       			stx	__addr_reg
 9413  86F0     A2 E7       			ldx	#.high.&SysGetSecond+1
 9414  86F2     86 27       			stx	__addr_reg+1
 9415                     			.bf_call
 9416  86F4     20 F6 D2    			jsr	__banked_function_call
 9417  86F7     85 23       			sta	__oper2
 9418  86F9     AD 0A 18    			lda	_g_GameMTCurTime
 9419  86FC     38          			sec
 9420  86FD     E5 23       			sbc	__oper2
 9421  86FF     D0 03       			bne	+3
 9422  8701     4C 15 87    			jmp	?BOL94
 9423         3211 8704   	?PLC88:		.equal	$
 9424                     			.c_end	03e84h,588
 9425                     	;g_GameMTCurTime=SysGetSecond()
 9426                     			.c_start  03e8dh,589
 9427  8704     A2 D9       			ldx	#.low.&SysGetSecond
 9428  8706     86 26       			stx	__addr_reg
 9429  8708     A2 E7       			ldx	#.high.&SysGetSecond+1
 9430  870A     86 27       			stx	__addr_reg+1
 9431                     			.bf_call
 9432  870C     20 F6 D2    			jsr	__banked_function_call
 9433  870F     8D 0A 18    			sta	_g_GameMTCurTime
 9434                     			.c_end	03eabh,589
 9435                     	;g_GameMTDeadLine--
 9436                     			.c_start  03eb1h,590
 9437  8712     CE 01 18    			dec	_g_GameMTDeadLine
 9438                     			.c_end	03ec3h,590
 9439                     	;
 9440                     	;temp[0]=g_GameMTDeadLine/10
 9441         3312 8715   	?BOL94:		.equal	$
  Tue Jan 13 23:03:19 2026                                                                                               Page  167




 9442                     			.c_start  03ecdh,592
 9443  8715     A9 0A       			lda	#10
 9444  8717     85 23       			sta	__oper2
 9445  8719     AD 01 18    			lda	_g_GameMTDeadLine
 9446  871C     20 7B DC    			jsr	__uns_div_char
 9447  871F     A0 04       			ldy	#+0+?LSC5
 9448  8721     91 28       			sta	(__stack_ptr),y
 9449  8723     18          			clc
 9450  8724     A5 28       			lda	__stack_ptr
 9451  8726     69 00       			adc	#.low.-4+0+?LSC5
 9452  8728     85 20       			sta	__oper1
 9453  872A     A5 29       			lda	__stack_ptr+1
 9454  872C     69 00       			adc	#.high.-4+0+?LSC5
 9455  872E     85 21       			sta	__oper1+1
 9456  8730     A5 20       			lda	__oper1
 9457  8732     85 23       			sta	__oper2
 9458  8734     A5 21       			lda	__oper1+1
 9459  8736     85 24       			sta	__oper2+1
 9460  8738     A0 04       			ldy	#+0+?LSC5
 9461  873A     B1 28       			lda	(__stack_ptr),y
 9462  873C     A0 00       			ldy	#0
 9463  873E     91 23       			sta	(__oper2),y
 9464                     			.c_end	03ee8h,592
 9465                     	;temp[1]=g_GameMTDeadLine-10*temp[0]+'0'
 9466                     			.c_start  03eedh,593
 9467  8740     A0 00       			ldy	#-4+0+?LSC5
 9468  8742     B1 28       			lda	(__stack_ptr),y
 9469  8744     85 23       			sta	__oper2
 9470  8746     A9 0A       			lda	#10
 9471  8748     20 EF DC    			jsr	__uns_mult_char
 9472  874B     85 23       			sta	__oper2
 9473  874D     AD 01 18    			lda	_g_GameMTDeadLine
 9474  8750     38          			sec
 9475  8751     E5 23       			sbc	__oper2
 9476  8753     18          			clc
 9477  8754     69 30       			adc	#48
 9478  8756     A0 04       			ldy	#+0+?LSC5
 9479  8758     91 28       			sta	(__stack_ptr),y
 9480  875A     18          			clc
 9481  875B     A5 28       			lda	__stack_ptr
 9482  875D     69 01       			adc	#.low.-4+1+?LSC5
 9483  875F     85 20       			sta	__oper1
 9484  8761     A5 29       			lda	__stack_ptr+1
 9485  8763     69 00       			adc	#.high.-4+1+?LSC5
 9486  8765     85 21       			sta	__oper1+1
 9487  8767     A5 20       			lda	__oper1
 9488  8769     85 23       			sta	__oper2
 9489  876B     A5 21       			lda	__oper1+1
 9490  876D     85 24       			sta	__oper2+1
 9491  876F     A0 04       			ldy	#+0+?LSC5
 9492  8771     B1 28       			lda	(__stack_ptr),y
 9493  8773     A0 00       			ldy	#0
 9494  8775     91 23       			sta	(__oper2),y
 9495                     			.c_end	03f14h,593
 9496                     	;temp[0]+='0'
 9497                     			.c_start  03f19h,594
 9498  8777     A0 00       			ldy	#-4+0+?LSC5
  Tue Jan 13 23:03:19 2026                                                                                               Page  168




 9499  8779     B1 28       			lda	(__stack_ptr),y
 9500  877B     18          			clc
 9501  877C     69 30       			adc	#48
 9502  877E     A0 04       			ldy	#+0+?LSC5
 9503  8780     91 28       			sta	(__stack_ptr),y
 9504  8782     18          			clc
 9505  8783     A5 28       			lda	__stack_ptr
 9506  8785     69 00       			adc	#.low.-4+0+?LSC5
 9507  8787     85 20       			sta	__oper1
 9508  8789     A5 29       			lda	__stack_ptr+1
 9509  878B     69 00       			adc	#.high.-4+0+?LSC5
 9510  878D     85 21       			sta	__oper1+1
 9511  878F     A5 20       			lda	__oper1
 9512  8791     85 23       			sta	__oper2
 9513  8793     A5 21       			lda	__oper1+1
 9514  8795     85 24       			sta	__oper2+1
 9515  8797     A0 04       			ldy	#+0+?LSC5
 9516  8799     B1 28       			lda	(__stack_ptr),y
 9517  879B     A0 00       			ldy	#0
 9518  879D     91 23       			sta	(__oper2),y
 9519                     			.c_end	03f25h,594
 9520                     	;temp[2]=0
 9521                     			.c_start  03f2ah,595
 9522  879F     18          			clc
 9523  87A0     A5 28       			lda	__stack_ptr
 9524  87A2     69 02       			adc	#.low.-4+2+?LSC5
 9525  87A4     85 20       			sta	__oper1
 9526  87A6     A5 29       			lda	__stack_ptr+1
 9527  87A8     69 00       			adc	#.high.-4+2+?LSC5
 9528  87AA     85 21       			sta	__oper1+1
 9529  87AC     A5 20       			lda	__oper1
 9530  87AE     85 23       			sta	__oper2
 9531  87B0     A5 21       			lda	__oper1+1
 9532  87B2     85 24       			sta	__oper2+1
 9533  87B4     A9 00       			lda	#0
 9534  87B6     A0 00       			ldy	#0
 9535  87B8     91 23       			sta	(__oper2),y
 9536                     			.c_end	03f33h,595
 9537                     	;SysPrintString(136,64,temp)
 9538                     			.c_start  03f38h,596
 9539  87BA     18          			clc
 9540  87BB     A5 28       			lda	__stack_ptr
 9541  87BD     69 00       			adc	#.low.-4+?LSC5
 9542  87BF     85 20       			sta	__oper1
 9543  87C1     A5 29       			lda	__stack_ptr+1
 9544  87C3     69 00       			adc	#.high.-4+?LSC5
 9545  87C5     85 21       			sta	__oper1+1
 9546  87C7     20 CA DA    			jsr	__store_int_funct_arg
 9547  87CA     A9 40       			lda	#64
 9548  87CC     20 AA DA    			jsr	__store_char_funct_arg
 9549  87CF     A9 88       			lda	#.low.136
 9550  87D1     85 20       			sta	__oper1
 9551  87D3     A9 00       			lda	#.high.136
 9552  87D5     85 21       			sta	__oper1+1
 9553  87D7     A5 20       			lda	__oper1
 9554  87D9     A2 9A       			ldx	#.low.&SysPrintString
 9555  87DB     86 26       			stx	__addr_reg
  Tue Jan 13 23:03:19 2026                                                                                               Page  169




 9556  87DD     A2 E7       			ldx	#.high.&SysPrintString+1
 9557  87DF     86 27       			stx	__addr_reg+1
 9558                     			.bf_call
 9559  87E1     20 F6 D2    			jsr	__banked_function_call
 9560  87E4     08          			php
 9561  87E5     78          			sei
 9562  87E6     18          			clc
 9563  87E7     A5 28       			lda	__stack_ptr
 9564  87E9     69 03       			adc	#.low.3
 9565  87EB     85 28       			sta	__stack_ptr
 9566  87ED     A5 29       			lda	__stack_ptr+1
 9567  87EF     69 00       			adc	#.high.3
 9568  87F1     85 29       			sta	__stack_ptr+1
 9569  87F3     28          			plp
 9570                     			.c_end	03f53h,596
 9571                     	;(g_GameMTDeadLine+1==1)
 9572                     			.if_top	03f58h,?BOL95,2,597
 9573  87F4     AD 01 18    			lda	_g_GameMTDeadLine
 9574  87F7     18          			clc
 9575  87F8     69 01       			adc	#1
 9576  87FA     38          			sec
 9577  87FB     E9 01       			sbc	#1
 9578  87FD     F0 03       			beq	+3
 9579  87FF     4C 0D 88    			jmp	?BOL95
 9580         4727 8802   	?PLC89:		.equal	$
 9581                     			.c_end	03f70h,597
 9582                     	;GameMTEnd()
 9583                     			.c_start  03f58h,597
 9584  8802     A2 66       			ldx	#.low.&GameMTEnd
 9585  8804     86 26       			stx	__addr_reg
 9586  8806     A2 90       			ldx	#.high.&GameMTEnd+1
 9587  8808     86 27       			stx	__addr_reg+1
 9588                     			.bf_call
 9589  880A     20 F6 D2    			jsr	__banked_function_call
 9590                     			.c_end	03f7ch,597
 9591                     	;;
 9592                     	;	
 9593                     	;
 9594         4211 880D   	?BOL95:		.equal	$
 9595                     	;else
 9596                     	;	
 9597  880D     4C 82 8D    			jmp	?EOI93
 9598                     			.if_else  ?EOI93,1,600
 9599         4511 8810   	?BOL93:		.equal	$
 9600                     	;i=0;
 9601                     			.c_start  03f90h,601
 9602  8810     A0 03       			ldy	#-1+?LSC5
 9603  8812     A9 00       			lda	#0
 9604  8814     91 28       			sta	(__stack_ptr),y
 9605                     			.c_end	03f97h,601
 9606         3512 8816   	?FLC96:		.equal	$
 9607                     	;i<3;
 9608                     			.for_top  03f98h,?BOL96,?FLB96,?FLA96,2,601
 9609  8816     A0 03       			ldy	#-1+?LSC5
 9610  8818     B1 28       			lda	(__stack_ptr),y
 9611  881A     38          			sec
 9612  881B     E9 03       			sbc	#3
  Tue Jan 13 23:03:19 2026                                                                                               Page  170




 9613  881D     90 03       			bcc	+3
 9614  881F     4C 81 89    			jmp	?BOL96
 9615                     			.c_end	03f9bh,601
 9616  8822     4C 31 88    			jmp	?FLB96
 9617         3313 8825   	?FLA96:		.equal	$
 9618                     	;i++)
 9619                     	;		
 9620                     			.for_adj  03f9ch,601
 9621  8825     A0 03       			ldy	#-1+?LSC5
 9622  8827     B1 28       			lda	(__stack_ptr),y
 9623  8829     18          			clc
 9624  882A     69 01       			adc	#1
 9625  882C     91 28       			sta	(__stack_ptr),y
 9626                     			.c_end	03fa1h,602
 9627  882E     4C 16 88    			jmp	?FLC96
 9628         4613 8831   	?FLB96:		.equal	$
 9629                     	;SysLcdPartClear(130+i*10,90,136+i*10,94)
 9630                     			.c_start  03faah,603
 9631  8831     A9 0A       			lda	#10
 9632  8833     85 23       			sta	__oper2
 9633  8835     A0 03       			ldy	#-1+?LSC5
 9634  8837     B1 28       			lda	(__stack_ptr),y
 9635  8839     20 EF DC    			jsr	__uns_mult_char
 9636  883C     85 23       			sta	__oper2
 9637  883E     A2 00       			ldx	#0
 9638  8840     86 24       			stx	__oper2+1
 9639  8842     A9 82       			lda	#.low.130
 9640  8844     85 20       			sta	__oper1
 9641  8846     A9 00       			lda	#.high.130
 9642  8848     85 21       			sta	__oper1+1
 9643  884A     18          			clc
 9644  884B     A5 20       			lda	__oper1
 9645  884D     65 23       			adc	__oper2
 9646  884F     85 20       			sta	__oper1
 9647  8851     A5 21       			lda	__oper1+1
 9648  8853     65 24       			adc	__oper2+1
 9649  8855     85 21       			sta	__oper1+1
 9650  8857     A0 04       			ldy	#+0+?LSC5
 9651  8859     A5 20       			lda	__oper1
 9652  885B     91 28       			sta	(__stack_ptr),y
 9653  885D     C8          			iny
 9654  885E     A5 21       			lda	__oper1+1
 9655  8860     91 28       			sta	(__stack_ptr),y
 9656  8862     A9 0A       			lda	#10
 9657  8864     85 23       			sta	__oper2
 9658  8866     A0 03       			ldy	#-1+?LSC5
 9659  8868     B1 28       			lda	(__stack_ptr),y
 9660  886A     20 EF DC    			jsr	__uns_mult_char
 9661  886D     85 23       			sta	__oper2
 9662  886F     A2 00       			ldx	#0
 9663  8871     86 24       			stx	__oper2+1
 9664  8873     A9 88       			lda	#.low.136
 9665  8875     85 20       			sta	__oper1
 9666  8877     A9 00       			lda	#.high.136
 9667  8879     85 21       			sta	__oper1+1
 9668  887B     18          			clc
 9669  887C     A5 20       			lda	__oper1
  Tue Jan 13 23:03:19 2026                                                                                               Page  171




 9670  887E     65 23       			adc	__oper2
 9671  8880     85 20       			sta	__oper1
 9672  8882     A5 21       			lda	__oper1+1
 9673  8884     65 24       			adc	__oper2+1
 9674  8886     85 21       			sta	__oper1+1
 9675  8888     A0 06       			ldy	#+2+?LSC5
 9676  888A     A5 20       			lda	__oper1
 9677  888C     91 28       			sta	(__stack_ptr),y
 9678  888E     C8          			iny
 9679  888F     A5 21       			lda	__oper1+1
 9680  8891     91 28       			sta	(__stack_ptr),y
 9681  8893     A9 5E       			lda	#94
 9682  8895     20 AA DA    			jsr	__store_char_funct_arg
 9683  8898     A0 07       			ldy	#+2+?LSC5+1
 9684  889A     B1 28       			lda	(__stack_ptr),y
 9685  889C     85 20       			sta	__oper1
 9686  889E     C8          			iny
 9687  889F     B1 28       			lda	(__stack_ptr),y
 9688  88A1     85 21       			sta	__oper1+1
 9689  88A3     A5 20       			lda	__oper1
 9690  88A5     20 AA DA    			jsr	__store_char_funct_arg
 9691  88A8     A9 5A       			lda	#90
 9692  88AA     20 AA DA    			jsr	__store_char_funct_arg
 9693  88AD     A0 07       			ldy	#+0+?LSC5+3
 9694  88AF     B1 28       			lda	(__stack_ptr),y
 9695  88B1     85 20       			sta	__oper1
 9696  88B3     C8          			iny
 9697  88B4     B1 28       			lda	(__stack_ptr),y
 9698  88B6     85 21       			sta	__oper1+1
 9699  88B8     A5 20       			lda	__oper1
 9700  88BA     A2 5D       			ldx	#.low.&SysLcdPartClear
 9701  88BC     86 26       			stx	__addr_reg
 9702  88BE     A2 E8       			ldx	#.high.&SysLcdPartClear+1
 9703  88C0     86 27       			stx	__addr_reg+1
 9704                     			.bf_call
 9705  88C2     20 F6 D2    			jsr	__banked_function_call
 9706  88C5     08          			php
 9707  88C6     78          			sei
 9708  88C7     18          			clc
 9709  88C8     A5 28       			lda	__stack_ptr
 9710  88CA     69 03       			adc	#.low.3
 9711  88CC     85 28       			sta	__stack_ptr
 9712  88CE     A5 29       			lda	__stack_ptr+1
 9713  88D0     69 00       			adc	#.high.3
 9714  88D2     85 29       			sta	__stack_ptr+1
 9715  88D4     28          			plp
 9716                     			.c_end	03fd2h,603
 9717                     	;GameMTPrintNum(0,(unsigned long )g_GameMTKey[i],133+i*10,90)
 9718                     			.c_start  03fd8h,604
 9719  88D5     A0 03       			ldy	#-1+?LSC5
 9720  88D7     B1 28       			lda	(__stack_ptr),y
 9721  88D9     85 20       			sta	__oper1
 9722  88DB     A9 00       			lda	#0
 9723  88DD     85 21       			sta	__oper1+1
 9724  88DF     18          			clc
 9725  88E0     A5 20       			lda	__oper1
 9726  88E2     69 93       			adc	#.low._g_GameMTKey
  Tue Jan 13 23:03:19 2026                                                                                               Page  172




 9727  88E4     85 20       			sta	__oper1
 9728  88E6     A5 21       			lda	__oper1+1
 9729  88E8     69 1F       			adc	#.high._g_GameMTKey
 9730  88EA     85 21       			sta	__oper1+1
 9731  88EC     A0 00       			ldy	#0
 9732  88EE     B1 20       			lda	(__oper1),y
 9733  88F0     20 1F DD    			jsr	__uns_oper1_char_to_long
 9734  88F3     A5 20       			lda	__oper1
 9735  88F5     85 23       			sta	__oper2
 9736  88F7     A5 21       			lda	__oper1+1
 9737  88F9     85 24       			sta	__oper2+1
 9738  88FB     18          			clc
 9739  88FC     A5 28       			lda	__stack_ptr
 9740  88FE     69 04       			adc	#.low.+0+?LSC5
 9741  8900     85 20       			sta	__oper1
 9742  8902     A5 29       			lda	__stack_ptr+1
 9743  8904     69 00       			adc	#.high.+0+?LSC5
 9744  8906     85 21       			sta	__oper1+1
 9745  8908     20 E6 DA    			jsr	__store_long
 9746  890B     A9 0A       			lda	#10
 9747  890D     85 23       			sta	__oper2
 9748  890F     A0 03       			ldy	#-1+?LSC5
 9749  8911     B1 28       			lda	(__stack_ptr),y
 9750  8913     20 EF DC    			jsr	__uns_mult_char
 9751  8916     85 23       			sta	__oper2
 9752  8918     A2 00       			ldx	#0
 9753  891A     86 24       			stx	__oper2+1
 9754  891C     A9 85       			lda	#.low.133
 9755  891E     85 20       			sta	__oper1
 9756  8920     A9 00       			lda	#.high.133
 9757  8922     85 21       			sta	__oper1+1
 9758  8924     18          			clc
 9759  8925     A5 20       			lda	__oper1
 9760  8927     65 23       			adc	__oper2
 9761  8929     85 20       			sta	__oper1
 9762  892B     A5 21       			lda	__oper1+1
 9763  892D     65 24       			adc	__oper2+1
 9764  892F     85 21       			sta	__oper1+1
 9765  8931     A0 08       			ldy	#+4+?LSC5
 9766  8933     A5 20       			lda	__oper1
 9767  8935     91 28       			sta	(__stack_ptr),y
 9768  8937     C8          			iny
 9769  8938     A5 21       			lda	__oper1+1
 9770  893A     91 28       			sta	(__stack_ptr),y
 9771  893C     A9 5A       			lda	#90
 9772  893E     20 AA DA    			jsr	__store_char_funct_arg
 9773  8941     A0 09       			ldy	#+4+?LSC5+1
 9774  8943     B1 28       			lda	(__stack_ptr),y
 9775  8945     85 20       			sta	__oper1
 9776  8947     C8          			iny
 9777  8948     B1 28       			lda	(__stack_ptr),y
 9778  894A     85 21       			sta	__oper1+1
 9779  894C     A5 20       			lda	__oper1
 9780  894E     20 AA DA    			jsr	__store_char_funct_arg
 9781  8951     18          			clc
 9782  8952     A5 28       			lda	__stack_ptr
 9783  8954     69 06       			adc	#.low.+0+?LSC5+2
  Tue Jan 13 23:03:19 2026                                                                                               Page  173




 9784  8956     85 20       			sta	__oper1
 9785  8958     A5 29       			lda	__stack_ptr+1
 9786  895A     69 00       			adc	#.high.+0+?LSC5+2
 9787  895C     85 21       			sta	__oper1+1
 9788  895E     20 FC DA    			jsr	__store_long_funct_arg
 9789  8961     A9 00       			lda	#0
 9790  8963     A2 39       			ldx	#.low.&GameMTPrintNum
 9791  8965     86 26       			stx	__addr_reg
 9792  8967     A2 90       			ldx	#.high.&GameMTPrintNum+1
 9793  8969     86 27       			stx	__addr_reg+1
 9794                     			.bf_call
 9795  896B     20 F6 D2    			jsr	__banked_function_call
 9796  896E     08          			php
 9797  896F     78          			sei
 9798  8970     18          			clc
 9799  8971     A5 28       			lda	__stack_ptr
 9800  8973     69 06       			adc	#.low.6
 9801  8975     85 28       			sta	__stack_ptr
 9802  8977     A5 29       			lda	__stack_ptr+1
 9803  8979     69 00       			adc	#.high.6
 9804  897B     85 29       			sta	__stack_ptr+1
 9805  897D     28          			plp
 9806                     			.c_end	04009h,604
 9807                     	;
 9808                     			.for_bot  2,605
 9809  897E     4C 25 88    			jmp	?FLA96
 9810         4618 8981   	?BOL96:		.equal	$
 9811                     	;i=0;
 9812                     			.c_start  04013h,606
 9813  8981     A0 03       			ldy	#-1+?LSC5
 9814  8983     A9 00       			lda	#0
 9815  8985     91 28       			sta	(__stack_ptr),y
 9816                     			.c_end	0401ah,606
 9817         3619 8987   	?FLC97:		.equal	$
 9818                     	;i<5;
 9819                     			.for_top  0401bh,?BOL97,?FLB97,?FLA97,2,606
 9820  8987     A0 03       			ldy	#-1+?LSC5
 9821  8989     B1 28       			lda	(__stack_ptr),y
 9822  898B     38          			sec
 9823  898C     E9 05       			sbc	#5
 9824  898E     90 03       			bcc	+3
 9825  8990     4C 50 8C    			jmp	?BOL97
 9826                     			.c_end	0401eh,606
 9827  8993     4C A2 89    			jmp	?FLB97
 9828         341A 8996   	?FLA97:		.equal	$
 9829                     	;i++)
 9830                     	;		
 9831                     			.for_adj  0401fh,606
 9832  8996     A0 03       			ldy	#-1+?LSC5
 9833  8998     B1 28       			lda	(__stack_ptr),y
 9834  899A     18          			clc
 9835  899B     69 01       			adc	#1
 9836  899D     91 28       			sta	(__stack_ptr),y
 9837                     			.c_end	04024h,607
 9838  899F     4C 87 89    			jmp	?FLC97
 9839         471A 89A2   	?FLB97:		.equal	$
 9840                     	;SysLcdPartClear(138,22+12*i,158,30+12*i)
  Tue Jan 13 23:03:19 2026                                                                                               Page  174




 9841                     			.c_start  0402dh,608
 9842  89A2     A0 03       			ldy	#-1+?LSC5
 9843  89A4     B1 28       			lda	(__stack_ptr),y
 9844  89A6     85 23       			sta	__oper2
 9845  89A8     A9 0C       			lda	#12
 9846  89AA     20 EF DC    			jsr	__uns_mult_char
 9847  89AD     18          			clc
 9848  89AE     69 16       			adc	#22
 9849  89B0     A0 04       			ldy	#+0+?LSC5
 9850  89B2     91 28       			sta	(__stack_ptr),y
 9851  89B4     A0 03       			ldy	#-1+?LSC5
 9852  89B6     B1 28       			lda	(__stack_ptr),y
 9853  89B8     85 23       			sta	__oper2
 9854  89BA     A9 0C       			lda	#12
 9855  89BC     20 EF DC    			jsr	__uns_mult_char
 9856  89BF     18          			clc
 9857  89C0     69 1E       			adc	#30
 9858  89C2     20 AA DA    			jsr	__store_char_funct_arg
 9859  89C5     A9 9E       			lda	#.low.158
 9860  89C7     85 20       			sta	__oper1
 9861  89C9     A9 00       			lda	#.high.158
 9862  89CB     85 21       			sta	__oper1+1
 9863  89CD     A5 20       			lda	__oper1
 9864  89CF     20 AA DA    			jsr	__store_char_funct_arg
 9865  89D2     A0 06       			ldy	#+0+?LSC5+2
 9866  89D4     B1 28       			lda	(__stack_ptr),y
 9867  89D6     20 AA DA    			jsr	__store_char_funct_arg
 9868  89D9     A9 8A       			lda	#.low.138
 9869  89DB     85 20       			sta	__oper1
 9870  89DD     A9 00       			lda	#.high.138
 9871  89DF     85 21       			sta	__oper1+1
 9872  89E1     A5 20       			lda	__oper1
 9873  89E3     A2 5D       			ldx	#.low.&SysLcdPartClear
 9874  89E5     86 26       			stx	__addr_reg
 9875  89E7     A2 E8       			ldx	#.high.&SysLcdPartClear+1
 9876  89E9     86 27       			stx	__addr_reg+1
 9877                     			.bf_call
 9878  89EB     20 F6 D2    			jsr	__banked_function_call
 9879  89EE     08          			php
 9880  89EF     78          			sei
 9881  89F0     18          			clc
 9882  89F1     A5 28       			lda	__stack_ptr
 9883  89F3     69 03       			adc	#.low.3
 9884  89F5     85 28       			sta	__stack_ptr
 9885  89F7     A5 29       			lda	__stack_ptr+1
 9886  89F9     69 00       			adc	#.high.3
 9887  89FB     85 29       			sta	__stack_ptr+1
 9888  89FD     28          			plp
 9889                     			.c_end	04055h,608
 9890                     	;(i+1)
 9891                     	;			
 9892                     			.c_start  0405bh,609
 9893  89FE     A0 03       			ldy	#-1+?LSC5
 9894  8A00     B1 28       			lda	(__stack_ptr),y
 9895  8A02     18          			clc
 9896  8A03     69 01       			adc	#1
 9897  8A05     85 23       			sta	__oper2
  Tue Jan 13 23:03:19 2026                                                                                               Page  175




 9898  8A07     A2 00       			ldx	#0
 9899  8A09     86 24       			stx	__oper2+1
 9900         3A11 8A0B   	?PLC90:		.equal	$
 9901                     			.c_end	04067h,610
 9902                     	;
 9903                     			.sw_start
 9904                     			.const_data_psfar
 9905  8E6F     0100        	?CGL18:	.word	1
 9906  8E71     0200        			.word	2
 9907  8E73     0300        			.word	3
 9908  8E75     0400        			.word	4
 9909  8E77     0500        			.word	5
 9910  8E79     228A        	?CGL19:	.word	?SWL34
 9911                     			.sw_case ?SWL34
 9912  8E7B     B48A        			.word	?SWL35
 9913                     			.sw_case ?SWL35
 9914  8E7D     1B8B        			.word	?SWL36
 9915                     			.sw_case ?SWL36
 9916  8E7F     828B        			.word	?SWL37
 9917                     			.sw_case ?SWL37
 9918  8E81     E98B        			.word	?SWL38
 9919                     			.sw_case ?SWL38
 9920                     			.program_psfar
 9921  8A0B     A9 6F       			lda	#.low.?CGL18
 9922  8A0D     85 26       			sta	__addr_reg
 9923  8A0F     A9 8E       			lda	#.high.?CGL18
 9924  8A11     85 27       			sta	__addr_reg+1
 9925                     			.sw_case ?BOL98
 9926  8A13     A2 05       			ldx	#.low.5
 9927  8A15     A0 00       			ldy	#.high.5
 9928  8A17     A9 4D       			lda	#.low.?BOL98
 9929  8A19     85 20       			sta	__oper1
 9930  8A1B     A9 8C       			lda	#.high.?BOL98
 9931  8A1D     85 21       			sta	__oper1+1
 9932  8A1F     4C 5C DB    			jmp	__switch_comparison
 9933                     			.sw_end
 9934                     	;case 1:
 9935                     	;					
 9936         4712 8A22   	?SWL34:		.equal	$
 9937                     	;(g_GameMTHeroLife<100000)
 9938                     			.if_top	04082h,?BOL99,3,612
 9939                     			.const_data_psfar
 9940  8E83     A086 0100   	?CGL20:	.long	100000
 9941                     			.program_psfar
 9942  8A22     A2 83       			ldx	#.low.?CGL20
 9943  8A24     86 23       			stx	__oper2
 9944  8A26     A2 8E       			ldx	#.high.?CGL20
 9945  8A28     86 24       			stx	__oper2+1
 9946  8A2A     A9 AA       			lda	#.low._g_GameMTHeroLife
 9947  8A2C     85 20       			sta	__oper1
 9948  8A2E     A9 1F       			lda	#.high._g_GameMTHeroLife
 9949  8A30     85 21       			sta	__oper1+1
 9950  8A32     20 62 D3    			jsr	__cmp_long
 9951  8A35     90 03       			bcc	+3
 9952  8A37     4C 77 8A    			jmp	?BOL99
 9953         3814 8A3A   	?PLC91:		.equal	$
 9954                     			.c_end	0409ch,612
  Tue Jan 13 23:03:19 2026                                                                                               Page  176




 9955                     	;GameMTPrintNum(1,g_GameMTHeroLife,148,22)
 9956                     			.c_start  04082h,612
 9957  8A3A     A9 16       			lda	#22
 9958  8A3C     20 AA DA    			jsr	__store_char_funct_arg
 9959  8A3F     A9 94       			lda	#.low.148
 9960  8A41     85 20       			sta	__oper1
 9961  8A43     A9 00       			lda	#.high.148
 9962  8A45     85 21       			sta	__oper1+1
 9963  8A47     A5 20       			lda	__oper1
 9964  8A49     20 AA DA    			jsr	__store_char_funct_arg
 9965  8A4C     A9 AA       			lda	#.low._g_GameMTHeroLife
 9966  8A4E     85 20       			sta	__oper1
 9967  8A50     A9 1F       			lda	#.high._g_GameMTHeroLife
 9968  8A52     85 21       			sta	__oper1+1
 9969  8A54     20 FC DA    			jsr	__store_long_funct_arg
 9970  8A57     A9 01       			lda	#1
 9971  8A59     A2 39       			ldx	#.low.&GameMTPrintNum
 9972  8A5B     86 26       			stx	__addr_reg
 9973  8A5D     A2 90       			ldx	#.high.&GameMTPrintNum+1
 9974  8A5F     86 27       			stx	__addr_reg+1
 9975                     			.bf_call
 9976  8A61     20 F6 D2    			jsr	__banked_function_call
 9977  8A64     08          			php
 9978  8A65     78          			sei
 9979  8A66     18          			clc
 9980  8A67     A5 28       			lda	__stack_ptr
 9981  8A69     69 06       			adc	#.low.6
 9982  8A6B     85 28       			sta	__stack_ptr
 9983  8A6D     A5 29       			lda	__stack_ptr+1
 9984  8A6F     69 00       			adc	#.high.6
 9985  8A71     85 29       			sta	__stack_ptr+1
 9986  8A73     28          			plp
 9987                     			.c_end	040c6h,612
 9988                     	;;
 9989                     	;						
 9990                     	;else 
 9991  8A74     4C B1 8A    			jmp	?EOI99
 9992                     			.if_else  ?EOI99,3,613
 9993         3518 8A77   	?BOL99:		.equal	$
 9994                     	;GameMTPrintNum(1,99999,148,22)
 9995                     			.c_start  040d4h,613
 9996  8A77     A9 16       			lda	#22
 9997  8A79     20 AA DA    			jsr	__store_char_funct_arg
 9998  8A7C     A9 94       			lda	#.low.148
 9999  8A7E     85 20       			sta	__oper1
10000  8A80     A9 00       			lda	#.high.148
10001  8A82     85 21       			sta	__oper1+1
10002  8A84     A5 20       			lda	__oper1
10003  8A86     20 AA DA    			jsr	__store_char_funct_arg
10004                     			.const_data_psfar
10005  8E87     9F86 0100   	?CGL21:	.long	99999
10006                     			.program_psfar
10007  8A89     A9 87       			lda	#.low.?CGL21
10008  8A8B     85 20       			sta	__oper1
10009  8A8D     A9 8E       			lda	#.high.?CGL21
10010  8A8F     85 21       			sta	__oper1+1
10011  8A91     20 FC DA    			jsr	__store_long_funct_arg
  Tue Jan 13 23:03:19 2026                                                                                               Page  177




10012  8A94     A9 01       			lda	#1
10013  8A96     A2 39       			ldx	#.low.&GameMTPrintNum
10014  8A98     86 26       			stx	__addr_reg
10015  8A9A     A2 90       			ldx	#.high.&GameMTPrintNum+1
10016  8A9C     86 27       			stx	__addr_reg+1
10017                     			.bf_call
10018  8A9E     20 F6 D2    			jsr	__banked_function_call
10019  8AA1     08          			php
10020  8AA2     78          			sei
10021  8AA3     18          			clc
10022  8AA4     A5 28       			lda	__stack_ptr
10023  8AA6     69 06       			adc	#.low.6
10024  8AA8     85 28       			sta	__stack_ptr
10025  8AAA     A5 29       			lda	__stack_ptr+1
10026  8AAC     69 00       			adc	#.high.6
10027  8AAE     85 29       			sta	__stack_ptr+1
10028  8AB0     28          			plp
10029                     			.c_end	040f2h,613
10030                     	;;
10031                     	;					
10032         3123 8AB1   	?EOI99:		.equal	$
10033                     	;break;
10034                     	;				
10035                     			.sw_break
10036  8AB1     4C 4D 8C    			jmp	?BOL98
10037                     	;case 2:
10038                     	;					
10039         3223 8AB4   	?SWL35:		.equal	$
10040                     	;GameMTPrintNum(1,(unsigned long )g_GameMTHeroDamige,148,34)
10041                     			.c_start  04114h,616
10042  8AB4     AD 9E 1F    			lda	_g_GameMTHeroDamige
10043  8AB7     85 20       			sta	__oper1
10044  8AB9     AD 9F 1F    			lda	_g_GameMTHeroDamige+1
10045  8ABC     85 21       			sta	__oper1+1
10046  8ABE     20 38 DD    			jsr	__uns_oper1_int_to_long
10047  8AC1     A5 20       			lda	__oper1
10048  8AC3     85 23       			sta	__oper2
10049  8AC5     A5 21       			lda	__oper1+1
10050  8AC7     85 24       			sta	__oper2+1
10051  8AC9     18          			clc
10052  8ACA     A5 28       			lda	__stack_ptr
10053  8ACC     69 04       			adc	#.low.+0+?LSC5
10054  8ACE     85 20       			sta	__oper1
10055  8AD0     A5 29       			lda	__stack_ptr+1
10056  8AD2     69 00       			adc	#.high.+0+?LSC5
10057  8AD4     85 21       			sta	__oper1+1
10058  8AD6     20 E6 DA    			jsr	__store_long
10059  8AD9     A9 22       			lda	#34
10060  8ADB     20 AA DA    			jsr	__store_char_funct_arg
10061  8ADE     A9 94       			lda	#.low.148
10062  8AE0     85 20       			sta	__oper1
10063  8AE2     A9 00       			lda	#.high.148
10064  8AE4     85 21       			sta	__oper1+1
10065  8AE6     A5 20       			lda	__oper1
10066  8AE8     20 AA DA    			jsr	__store_char_funct_arg
10067  8AEB     18          			clc
10068  8AEC     A5 28       			lda	__stack_ptr
  Tue Jan 13 23:03:19 2026                                                                                               Page  178




10069  8AEE     69 06       			adc	#.low.+0+?LSC5+2
10070  8AF0     85 20       			sta	__oper1
10071  8AF2     A5 29       			lda	__stack_ptr+1
10072  8AF4     69 00       			adc	#.high.+0+?LSC5+2
10073  8AF6     85 21       			sta	__oper1+1
10074  8AF8     20 FC DA    			jsr	__store_long_funct_arg
10075  8AFB     A9 01       			lda	#1
10076  8AFD     A2 39       			ldx	#.low.&GameMTPrintNum
10077  8AFF     86 26       			stx	__addr_reg
10078  8B01     A2 90       			ldx	#.high.&GameMTPrintNum+1
10079  8B03     86 27       			stx	__addr_reg+1
10080                     			.bf_call
10081  8B05     20 F6 D2    			jsr	__banked_function_call
10082  8B08     08          			php
10083  8B09     78          			sei
10084  8B0A     18          			clc
10085  8B0B     A5 28       			lda	__stack_ptr
10086  8B0D     69 06       			adc	#.low.6
10087  8B0F     85 28       			sta	__stack_ptr
10088  8B11     A5 29       			lda	__stack_ptr+1
10089  8B13     69 00       			adc	#.high.6
10090  8B15     85 29       			sta	__stack_ptr+1
10091  8B17     28          			plp
10092                     			.c_end	04144h,616
10093                     	;break;
10094                     	;				
10095                     			.sw_break
10096  8B18     4C 4D 8C    			jmp	?BOL98
10097                     	;case 3:
10098                     	;					
10099         3912 8B1B   	?SWL36:		.equal	$
10100                     	;GameMTPrintNum(1,(unsigned long )g_GameMTHeroDefence,148,46)
10101                     			.c_start  04166h,619
10102  8B1B     AD A0 1F    			lda	_g_GameMTHeroDefence
10103  8B1E     85 20       			sta	__oper1
10104  8B20     AD A1 1F    			lda	_g_GameMTHeroDefence+1
10105  8B23     85 21       			sta	__oper1+1
10106  8B25     20 38 DD    			jsr	__uns_oper1_int_to_long
10107  8B28     A5 20       			lda	__oper1
10108  8B2A     85 23       			sta	__oper2
10109  8B2C     A5 21       			lda	__oper1+1
10110  8B2E     85 24       			sta	__oper2+1
10111  8B30     18          			clc
10112  8B31     A5 28       			lda	__stack_ptr
10113  8B33     69 04       			adc	#.low.+0+?LSC5
10114  8B35     85 20       			sta	__oper1
10115  8B37     A5 29       			lda	__stack_ptr+1
10116  8B39     69 00       			adc	#.high.+0+?LSC5
10117  8B3B     85 21       			sta	__oper1+1
10118  8B3D     20 E6 DA    			jsr	__store_long
10119  8B40     A9 2E       			lda	#46
10120  8B42     20 AA DA    			jsr	__store_char_funct_arg
10121  8B45     A9 94       			lda	#.low.148
10122  8B47     85 20       			sta	__oper1
10123  8B49     A9 00       			lda	#.high.148
10124  8B4B     85 21       			sta	__oper1+1
10125  8B4D     A5 20       			lda	__oper1
  Tue Jan 13 23:03:19 2026                                                                                               Page  179




10126  8B4F     20 AA DA    			jsr	__store_char_funct_arg
10127  8B52     18          			clc
10128  8B53     A5 28       			lda	__stack_ptr
10129  8B55     69 06       			adc	#.low.+0+?LSC5+2
10130  8B57     85 20       			sta	__oper1
10131  8B59     A5 29       			lda	__stack_ptr+1
10132  8B5B     69 00       			adc	#.high.+0+?LSC5+2
10133  8B5D     85 21       			sta	__oper1+1
10134  8B5F     20 FC DA    			jsr	__store_long_funct_arg
10135  8B62     A9 01       			lda	#1
10136  8B64     A2 39       			ldx	#.low.&GameMTPrintNum
10137  8B66     86 26       			stx	__addr_reg
10138  8B68     A2 90       			ldx	#.high.&GameMTPrintNum+1
10139  8B6A     86 27       			stx	__addr_reg+1
10140                     			.bf_call
10141  8B6C     20 F6 D2    			jsr	__banked_function_call
10142  8B6F     08          			php
10143  8B70     78          			sei
10144  8B71     18          			clc
10145  8B72     A5 28       			lda	__stack_ptr
10146  8B74     69 06       			adc	#.low.6
10147  8B76     85 28       			sta	__stack_ptr
10148  8B78     A5 29       			lda	__stack_ptr+1
10149  8B7A     69 00       			adc	#.high.6
10150  8B7C     85 29       			sta	__stack_ptr+1
10151  8B7E     28          			plp
10152                     			.c_end	04197h,619
10153                     	;break;
10154                     	;				
10155                     			.sw_break
10156  8B7F     4C 4D 8C    			jmp	?BOL98
10157                     	;case 4:
10158                     	;					
10159         4718 8B82   	?SWL37:		.equal	$
10160                     	;GameMTPrintNum(1,(unsigned long )g_GameMTHeroMoney,148,58)
10161                     			.c_start  041b9h,622
10162  8B82     AD A2 1F    			lda	_g_GameMTHeroMoney
10163  8B85     85 20       			sta	__oper1
10164  8B87     AD A3 1F    			lda	_g_GameMTHeroMoney+1
10165  8B8A     85 21       			sta	__oper1+1
10166  8B8C     20 38 DD    			jsr	__uns_oper1_int_to_long
10167  8B8F     A5 20       			lda	__oper1
10168  8B91     85 23       			sta	__oper2
10169  8B93     A5 21       			lda	__oper1+1
10170  8B95     85 24       			sta	__oper2+1
10171  8B97     18          			clc
10172  8B98     A5 28       			lda	__stack_ptr
10173  8B9A     69 04       			adc	#.low.+0+?LSC5
10174  8B9C     85 20       			sta	__oper1
10175  8B9E     A5 29       			lda	__stack_ptr+1
10176  8BA0     69 00       			adc	#.high.+0+?LSC5
10177  8BA2     85 21       			sta	__oper1+1
10178  8BA4     20 E6 DA    			jsr	__store_long
10179  8BA7     A9 3A       			lda	#58
10180  8BA9     20 AA DA    			jsr	__store_char_funct_arg
10181  8BAC     A9 94       			lda	#.low.148
10182  8BAE     85 20       			sta	__oper1
  Tue Jan 13 23:03:19 2026                                                                                               Page  180




10183  8BB0     A9 00       			lda	#.high.148
10184  8BB2     85 21       			sta	__oper1+1
10185  8BB4     A5 20       			lda	__oper1
10186  8BB6     20 AA DA    			jsr	__store_char_funct_arg
10187  8BB9     18          			clc
10188  8BBA     A5 28       			lda	__stack_ptr
10189  8BBC     69 06       			adc	#.low.+0+?LSC5+2
10190  8BBE     85 20       			sta	__oper1
10191  8BC0     A5 29       			lda	__stack_ptr+1
10192  8BC2     69 00       			adc	#.high.+0+?LSC5+2
10193  8BC4     85 21       			sta	__oper1+1
10194  8BC6     20 FC DA    			jsr	__store_long_funct_arg
10195  8BC9     A9 01       			lda	#1
10196  8BCB     A2 39       			ldx	#.low.&GameMTPrintNum
10197  8BCD     86 26       			stx	__addr_reg
10198  8BCF     A2 90       			ldx	#.high.&GameMTPrintNum+1
10199  8BD1     86 27       			stx	__addr_reg+1
10200                     			.bf_call
10201  8BD3     20 F6 D2    			jsr	__banked_function_call
10202  8BD6     08          			php
10203  8BD7     78          			sei
10204  8BD8     18          			clc
10205  8BD9     A5 28       			lda	__stack_ptr
10206  8BDB     69 06       			adc	#.low.6
10207  8BDD     85 28       			sta	__stack_ptr
10208  8BDF     A5 29       			lda	__stack_ptr+1
10209  8BE1     69 00       			adc	#.high.6
10210  8BE3     85 29       			sta	__stack_ptr+1
10211  8BE5     28          			plp
10212                     			.c_end	041e8h,622
10213                     	;break;
10214                     	;				
10215                     			.sw_break
10216  8BE6     4C 4D 8C    			jmp	?BOL98
10217                     	;case 5:
10218                     	;					
10219         3726 8BE9   	?SWL38:		.equal	$
10220                     	;GameMTPrintNum(1,(unsigned long )g_GameMTHeroExp,148,70)
10221                     			.c_start  0420ah,625
10222  8BE9     AD A4 1F    			lda	_g_GameMTHeroExp
10223  8BEC     85 20       			sta	__oper1
10224  8BEE     AD A5 1F    			lda	_g_GameMTHeroExp+1
10225  8BF1     85 21       			sta	__oper1+1
10226  8BF3     20 38 DD    			jsr	__uns_oper1_int_to_long
10227  8BF6     A5 20       			lda	__oper1
10228  8BF8     85 23       			sta	__oper2
10229  8BFA     A5 21       			lda	__oper1+1
10230  8BFC     85 24       			sta	__oper2+1
10231  8BFE     18          			clc
10232  8BFF     A5 28       			lda	__stack_ptr
10233  8C01     69 04       			adc	#.low.+0+?LSC5
10234  8C03     85 20       			sta	__oper1
10235  8C05     A5 29       			lda	__stack_ptr+1
10236  8C07     69 00       			adc	#.high.+0+?LSC5
10237  8C09     85 21       			sta	__oper1+1
10238  8C0B     20 E6 DA    			jsr	__store_long
10239  8C0E     A9 46       			lda	#70
  Tue Jan 13 23:03:19 2026                                                                                               Page  181




10240  8C10     20 AA DA    			jsr	__store_char_funct_arg
10241  8C13     A9 94       			lda	#.low.148
10242  8C15     85 20       			sta	__oper1
10243  8C17     A9 00       			lda	#.high.148
10244  8C19     85 21       			sta	__oper1+1
10245  8C1B     A5 20       			lda	__oper1
10246  8C1D     20 AA DA    			jsr	__store_char_funct_arg
10247  8C20     18          			clc
10248  8C21     A5 28       			lda	__stack_ptr
10249  8C23     69 06       			adc	#.low.+0+?LSC5+2
10250  8C25     85 20       			sta	__oper1
10251  8C27     A5 29       			lda	__stack_ptr+1
10252  8C29     69 00       			adc	#.high.+0+?LSC5+2
10253  8C2B     85 21       			sta	__oper1+1
10254  8C2D     20 FC DA    			jsr	__store_long_funct_arg
10255  8C30     A9 01       			lda	#1
10256  8C32     A2 39       			ldx	#.low.&GameMTPrintNum
10257  8C34     86 26       			stx	__addr_reg
10258  8C36     A2 90       			ldx	#.high.&GameMTPrintNum+1
10259  8C38     86 27       			stx	__addr_reg+1
10260                     			.bf_call
10261  8C3A     20 F6 D2    			jsr	__banked_function_call
10262  8C3D     08          			php
10263  8C3E     78          			sei
10264  8C3F     18          			clc
10265  8C40     A5 28       			lda	__stack_ptr
10266  8C42     69 06       			adc	#.low.6
10267  8C44     85 28       			sta	__stack_ptr
10268  8C46     A5 29       			lda	__stack_ptr+1
10269  8C48     69 00       			adc	#.high.6
10270  8C4A     85 29       			sta	__stack_ptr+1
10271  8C4C     28          			plp
10272                     			.c_end	04237h,625
10273                     	;
10274         4415 8C4D   	?BOL98:		.equal	$
10275                     	;
10276                     	;
10277                     			.for_bot  2,627
10278  8C4D     4C 96 89    			jmp	?FLA97
10279         4515 8C50   	?BOL97:		.equal	$
10280                     	;SysLcdPartClear(138,1,150,8)
10281                     			.c_start  04247h,628
10282  8C50     A9 08       			lda	#8
10283  8C52     20 AA DA    			jsr	__store_char_funct_arg
10284  8C55     A9 96       			lda	#.low.150
10285  8C57     85 20       			sta	__oper1
10286  8C59     A9 00       			lda	#.high.150
10287  8C5B     85 21       			sta	__oper1+1
10288  8C5D     A5 20       			lda	__oper1
10289  8C5F     20 AA DA    			jsr	__store_char_funct_arg
10290  8C62     A9 01       			lda	#1
10291  8C64     20 AA DA    			jsr	__store_char_funct_arg
10292  8C67     A9 8A       			lda	#.low.138
10293  8C69     85 20       			sta	__oper1
10294  8C6B     A9 00       			lda	#.high.138
10295  8C6D     85 21       			sta	__oper1+1
10296  8C6F     A5 20       			lda	__oper1
  Tue Jan 13 23:03:19 2026                                                                                               Page  182




10297  8C71     A2 5D       			ldx	#.low.&SysLcdPartClear
10298  8C73     86 26       			stx	__addr_reg
10299  8C75     A2 E8       			ldx	#.high.&SysLcdPartClear+1
10300  8C77     86 27       			stx	__addr_reg+1
10301                     			.bf_call
10302  8C79     20 F6 D2    			jsr	__banked_function_call
10303  8C7C     08          			php
10304  8C7D     78          			sei
10305  8C7E     18          			clc
10306  8C7F     A5 28       			lda	__stack_ptr
10307  8C81     69 03       			adc	#.low.3
10308  8C83     85 28       			sta	__stack_ptr
10309  8C85     A5 29       			lda	__stack_ptr+1
10310  8C87     69 00       			adc	#.high.3
10311  8C89     85 29       			sta	__stack_ptr+1
10312  8C8B     28          			plp
10313                     			.c_end	04263h,628
10314                     	;SysLcdPartClear(130,11,146,18)
10315                     			.c_start  04268h,629
10316  8C8C     A9 12       			lda	#18
10317  8C8E     20 AA DA    			jsr	__store_char_funct_arg
10318  8C91     A9 92       			lda	#.low.146
10319  8C93     85 20       			sta	__oper1
10320  8C95     A9 00       			lda	#.high.146
10321  8C97     85 21       			sta	__oper1+1
10322  8C99     A5 20       			lda	__oper1
10323  8C9B     20 AA DA    			jsr	__store_char_funct_arg
10324  8C9E     A9 0B       			lda	#11
10325  8CA0     20 AA DA    			jsr	__store_char_funct_arg
10326  8CA3     A9 82       			lda	#.low.130
10327  8CA5     85 20       			sta	__oper1
10328  8CA7     A9 00       			lda	#.high.130
10329  8CA9     85 21       			sta	__oper1+1
10330  8CAB     A5 20       			lda	__oper1
10331  8CAD     A2 5D       			ldx	#.low.&SysLcdPartClear
10332  8CAF     86 26       			stx	__addr_reg
10333  8CB1     A2 E8       			ldx	#.high.&SysLcdPartClear+1
10334  8CB3     86 27       			stx	__addr_reg+1
10335                     			.bf_call
10336  8CB5     20 F6 D2    			jsr	__banked_function_call
10337  8CB8     08          			php
10338  8CB9     78          			sei
10339  8CBA     18          			clc
10340  8CBB     A5 28       			lda	__stack_ptr
10341  8CBD     69 03       			adc	#.low.3
10342  8CBF     85 28       			sta	__stack_ptr
10343  8CC1     A5 29       			lda	__stack_ptr+1
10344  8CC3     69 00       			adc	#.high.3
10345  8CC5     85 29       			sta	__stack_ptr+1
10346  8CC7     28          			plp
10347                     			.c_end	04286h,629
10348                     	;GameMTPrintNum(2,(unsigned long )g_GameMTFloor,142,1)
10349                     			.c_start  0428bh,630
10350  8CC8     AD A7 1F    			lda	_g_GameMTFloor
10351  8CCB     20 1F DD    			jsr	__uns_oper1_char_to_long
10352  8CCE     A5 20       			lda	__oper1
10353  8CD0     85 23       			sta	__oper2
  Tue Jan 13 23:03:19 2026                                                                                               Page  183




10354  8CD2     A5 21       			lda	__oper1+1
10355  8CD4     85 24       			sta	__oper2+1
10356  8CD6     18          			clc
10357  8CD7     A5 28       			lda	__stack_ptr
10358  8CD9     69 04       			adc	#.low.+0+?LSC5
10359  8CDB     85 20       			sta	__oper1
10360  8CDD     A5 29       			lda	__stack_ptr+1
10361  8CDF     69 00       			adc	#.high.+0+?LSC5
10362  8CE1     85 21       			sta	__oper1+1
10363  8CE3     20 E6 DA    			jsr	__store_long
10364  8CE6     A9 01       			lda	#1
10365  8CE8     20 AA DA    			jsr	__store_char_funct_arg
10366  8CEB     A9 8E       			lda	#.low.142
10367  8CED     85 20       			sta	__oper1
10368  8CEF     A9 00       			lda	#.high.142
10369  8CF1     85 21       			sta	__oper1+1
10370  8CF3     A5 20       			lda	__oper1
10371  8CF5     20 AA DA    			jsr	__store_char_funct_arg
10372  8CF8     18          			clc
10373  8CF9     A5 28       			lda	__stack_ptr
10374  8CFB     69 06       			adc	#.low.+0+?LSC5+2
10375  8CFD     85 20       			sta	__oper1
10376  8CFF     A5 29       			lda	__stack_ptr+1
10377  8D01     69 00       			adc	#.high.+0+?LSC5+2
10378  8D03     85 21       			sta	__oper1+1
10379  8D05     20 FC DA    			jsr	__store_long_funct_arg
10380  8D08     A9 02       			lda	#2
10381  8D0A     A2 39       			ldx	#.low.&GameMTPrintNum
10382  8D0C     86 26       			stx	__addr_reg
10383  8D0E     A2 90       			ldx	#.high.&GameMTPrintNum+1
10384  8D10     86 27       			stx	__addr_reg+1
10385                     			.bf_call
10386  8D12     20 F6 D2    			jsr	__banked_function_call
10387  8D15     08          			php
10388  8D16     78          			sei
10389  8D17     18          			clc
10390  8D18     A5 28       			lda	__stack_ptr
10391  8D1A     69 06       			adc	#.low.6
10392  8D1C     85 28       			sta	__stack_ptr
10393  8D1E     A5 29       			lda	__stack_ptr+1
10394  8D20     69 00       			adc	#.high.6
10395  8D22     85 29       			sta	__stack_ptr+1
10396  8D24     28          			plp
10397                     			.c_end	042b5h,630
10398                     	;GameMTPrintNum(2,(unsigned long )g_GameMTHeroLv,138,11)
10399                     			.c_start  042bah,631
10400  8D25     AD 09 18    			lda	_g_GameMTHeroLv
10401  8D28     20 1F DD    			jsr	__uns_oper1_char_to_long
10402  8D2B     A5 20       			lda	__oper1
10403  8D2D     85 23       			sta	__oper2
10404  8D2F     A5 21       			lda	__oper1+1
10405  8D31     85 24       			sta	__oper2+1
10406  8D33     18          			clc
10407  8D34     A5 28       			lda	__stack_ptr
10408  8D36     69 04       			adc	#.low.+0+?LSC5
10409  8D38     85 20       			sta	__oper1
10410  8D3A     A5 29       			lda	__stack_ptr+1
  Tue Jan 13 23:03:19 2026                                                                                               Page  184




10411  8D3C     69 00       			adc	#.high.+0+?LSC5
10412  8D3E     85 21       			sta	__oper1+1
10413  8D40     20 E6 DA    			jsr	__store_long
10414  8D43     A9 0B       			lda	#11
10415  8D45     20 AA DA    			jsr	__store_char_funct_arg
10416  8D48     A9 8A       			lda	#.low.138
10417  8D4A     85 20       			sta	__oper1
10418  8D4C     A9 00       			lda	#.high.138
10419  8D4E     85 21       			sta	__oper1+1
10420  8D50     A5 20       			lda	__oper1
10421  8D52     20 AA DA    			jsr	__store_char_funct_arg
10422  8D55     18          			clc
10423  8D56     A5 28       			lda	__stack_ptr
10424  8D58     69 06       			adc	#.low.+0+?LSC5+2
10425  8D5A     85 20       			sta	__oper1
10426  8D5C     A5 29       			lda	__stack_ptr+1
10427  8D5E     69 00       			adc	#.high.+0+?LSC5+2
10428  8D60     85 21       			sta	__oper1+1
10429  8D62     20 FC DA    			jsr	__store_long_funct_arg
10430  8D65     A9 02       			lda	#2
10431  8D67     A2 39       			ldx	#.low.&GameMTPrintNum
10432  8D69     86 26       			stx	__addr_reg
10433  8D6B     A2 90       			ldx	#.high.&GameMTPrintNum+1
10434  8D6D     86 27       			stx	__addr_reg+1
10435                     			.bf_call
10436  8D6F     20 F6 D2    			jsr	__banked_function_call
10437  8D72     08          			php
10438  8D73     78          			sei
10439  8D74     18          			clc
10440  8D75     A5 28       			lda	__stack_ptr
10441  8D77     69 06       			adc	#.low.6
10442  8D79     85 28       			sta	__stack_ptr
10443  8D7B     A5 29       			lda	__stack_ptr+1
10444  8D7D     69 00       			adc	#.high.6
10445  8D7F     85 29       			sta	__stack_ptr+1
10446  8D81     28          			plp
10447                     			.c_end	042e6h,631
10448                     	;
10449         3219 8D82   	?EOI93:		.equal	$
10450                     	;
10451                     			.f_end	042edh,633
10452         32FA 8D82   	?BOF5:		.equal	$
10453  8D82     08          			php
10454  8D83     78          			sei
10455  8D84     18          			clc
10456  8D85     A5 28       			lda	__stack_ptr
10457  8D87     69 0A       			adc	#.low.+?LSC5+?TSC5+0
10458  8D89     85 28       			sta	__stack_ptr
10459  8D8B     A5 29       			lda	__stack_ptr+1
10460  8D8D     69 00       			adc	#.high.+?LSC5+?TSC5+0
10461  8D8F     85 29       			sta	__stack_ptr+1
10462  8D91     28          			plp
10463                     			.f_return
10464  8D92     60          			rts
10465                     	
10466                     			.extern	_SysGetSecond, &SysGetSecond
10467                     			.extern	_GameMTTalk, &GameMTTalk
  Tue Jan 13 23:03:19 2026                                                                                               Page  185




10468                     			.global	_GameMTReNewR
10469                     			.extern	_GameMTTalkData
10470                     			.extern	_GameMTTalkSide
10471                     			.extern	_GameMTTalkDown
10472                     			.extern	_GameMTTalkUp
10473                     			.extern	_GameMTTalkSigh
10474                     			.extern	_GameMTUnknown
10475                     			.global	_GameMTShop
10476                     			.extern	_GameMTNotice
10477                     			.global	_GameMTChaFloor
10478                     			.extern	_GameMTDi
10479                     			.extern	_GameMTChar
10480                     			.extern	_GameMTNewFloor, &GameMTNewFloor
10481                     			.extern	_SysMemcpy
10482                     			.global	_GameMTCheckMon
10483                     			.extern	_GameMTEnd, &GameMTEnd
10484                     			.extern	_g_GameMTBuf
10485                     			.extern	_GameMTWorkPad
10486                     			.extern	_SysRectClear, &SysRectClear
10487                     			.extern	_SysLcdPartClear, &SysLcdPartClear
10488                     			.extern	_g_GameMTCurTime
10489                     			.extern	_g_GameMTCheck
10490                     			.extern	_g_GameMTCurMap
10491                     			.extern	_g_GameMTDeadLine
10492                     			.extern	_g_GameMTEnd
10493                     			.extern	_GameMTEagle
10494                     			.extern	_g_GameMTFloor
10495                     			.extern	_SysSaveScreen, &SysSaveScreen
10496                     			.extern	_g_GameMTGameOver
10497                     			.extern	_g_GameMTHeroLv
10498                     			.extern	_g_GameMTHeroX
10499                     			.extern	_g_GameMTHeroY
10500                     			.extern	_g_GameMTHeroDamige
10501                     			.extern	_g_GameMTHeroDefence
10502                     			.extern	_g_GameMTHeroMoney
10503                     			.extern	_g_GameMTHeroExp
10504                     			.extern	_g_GameMTHeroDir
10505                     			.extern	_g_GameMTHeroLife
10506                     			.extern	_SysRestoreScreen, &SysRestoreScreen
10507                     			.extern	_g_GameMTInit
10508                     			.extern	_g_GameMTJuidgeX
10509                     			.extern	_g_GameMTJuidgeY
10510                     			.extern	_g_GameMTJuidgeNow
10511                     			.extern	_GameMTCeng
10512                     			.extern	_g_GameMTKBState
10513                     			.extern	_g_GameMTKey
10514                     			.extern	_SysPicture, &SysPicture
10515                     			.extern	_g_GameMTMapX
10516                     			.extern	_g_GameMTMapY
10517                     			.extern	_GameMTStartPoint
10518                     			.extern	_g_GameMTNearEnd
10519                     			.extern	_GameMTBattlePad
10520                     			.extern	_GameMTMainFace
10521                     			.extern	_GameMTLiKai
10522                     			.extern	_SysPrintString, &SysPrintString
10523                     			.extern	_GameMTRefresh, &GameMTRefresh
10524                     			.global	_GameMTCountLose
  Tue Jan 13 23:03:19 2026                                                                                               Page  186




10525                     			.extern	_g_GameMTQuit
10526                     			.extern	_GameMTHappyEnd
10527                     			.extern	_GameMTPrintNum, &GameMTPrintNum
10528                     			.extern	_g_GameMTReadKey
10529                     			.extern	_GameMTVictory
10530                     			.extern	_GameMTHeroPic
10531                     			.extern	_GameMTGetInput, &GameMTGetInput
10532                     			.extern	_GameMTGetTalk, &GameMTGetTalk
10533                     			.extern	_g_GameMTTimeOut
10534                     			.extern	_g_GameMTTopFloor
10535                     			.extern	_GameMTNum39
10536                     			.extern	_GameMTNum35
10537                     			.extern	_GameMTNum78
10538                     			.extern	_GameMTMonData
10539                     			.extern	_GameMTMonName
10540                     			.extern	_GuiMsgBox, &GuiMsgBox
10541                     			.extern	_SysRect, &SysRect
10542                     			.extern	_GameMTUnitPic
10543                     			.global	_GameMTListMon
10544                     			.extern	__store_long
10545                     			.extern	__store_char_funct_arg
10546                     			.extern	__store_int_funct_arg
10547                     			.extern	__store_long_funct_arg
10548                     			.extern	__uns_oper1_char_to_long
10549                     			.extern	__uns_oper1_int_to_long
10550                     			.extern	__uns_oper2_int_to_long
10551                     			.extern	__switch_comparison
10552                     			.extern	__cmp_int
10553                     			.extern	__cmp_long
10554                     			.extern	__add_long
10555                     			.extern	__mult_int
10556                     			.extern	__uns_mult_char
10557                     			.extern	__uns_mult_int
10558                     			.extern	__uns_mult_long
10559                     			.extern	__uns_div_char
10560                     			.extern	__uns_div_int
10561                     			.extern	__uns_mod_char
10562                     			.extern	__uns_mod_int
10563                     			.extern	__FUNCTION_RET_ADDR
10564                     			.extern	__banked_function_call
10565                     	
10566                     			.end


             Lines Assembled : 10566                  Errors : 0


