  Wed Jan 14 21:35:33 2026                                                                                               Page    1







               2500 A.D. 6502 Macro Assembler  -  Version 5.02b
               ------------------------------------------------

                       Input  Filename : psnakefar3.asm
                       Output Filename : psnakefar3.obj
                       Listing Has Been Relocated                               


    1                     	program_psfar3:	.section
    2                     	const_data_psfar3:	.section
    3                     	init_data_psfar3:	.section
    4                     	uninit_data_psfar3:	.section
    5                     	bank_table:	.section
    6                     	bank_table:	.section
    7                     			.program_psfar3
    8  5000                 			.filetype	C
    9                     			.symbols
   10                     			.llchar		?
   11                     			.longchk	off
   12                     			.extern	page0	__oper1
   13                     			.extern	page0	__oper1_high8
   14                     			.extern	page0	__oper2
   15                     			.extern	page0	__oper2_high8
   16                     			.extern	page0	__addr_reg
   17                     			.extern	page0	__stack_ptr
   18                     			.extern	page0	__lib_temp_ptr
   19                     	;.filename psnakefar3.c
   20                     	;
   21                     			.filename	psnakefar3.c
   22                     	;.filename .\os\inc\dictsys.h
   23                     	;
   24                     			.filename	.\os\inc\dictsys.h
   25                     	;.filename .\os\inc\keytable.h
   26                     	;
   27                     			.filename	.\os\inc\keytable.h
   28                     	;.endinc .\os\inc\dictsys.h
   29                     			.filename	.\os\inc\dictsys.h
   30                     	;struct tagMsgType {
   31                     	;	
   32                     			.strname  _tagMsgType
   33                     	;unsigned char 		type;
   34                     	;	
   35                     			.strdef	_type,73,v,c,u,0,g,d,d,d,d,00h
   36                     	;unsigned int 		param;
   37                     	;
   38                     			.strdef	_param,74,v,i,u,1,g,d,d,d,d,00h
   39                     	;}
   40                     			.strend	_tagMsgType,3,2
   41                     	;struct tagMsgByteType {
   42                     	;	
   43                     			.strname  _tagMsgByteType
   44                     	;unsigned char 		type;
   45                     	;	
   46                     			.strdef	_type,78,v,c,u,0,g,d,d,d,d,00h
  Wed Jan 14 21:35:33 2026                                                                                               Page    2




   47                     	;unsigned char 		prmLow;
   48                     	;	
   49                     			.strdef	_prmLow,79,v,c,u,1,g,d,d,d,d,00h
   50                     	;unsigned char 		prmHi;
   51                     	;
   52                     			.strdef	_prmHi,80,v,c,u,2,g,d,d,d,d,00h
   53                     	;}
   54                     			.strend	_tagMsgByteType,3,3
   55                     	;struct tagDate {
   56                     	;	
   57                     			.strname  _tagDate
   58                     	;unsigned char 	day;
   59                     	;	
   60                     			.strdef	_day,115,v,c,u,0,g,d,d,d,d,00h
   61                     	;unsigned char 	month;
   62                     	;	
   63                     			.strdef	_month,116,v,c,u,1,g,d,d,d,d,00h
   64                     	;unsigned char 	year;
   65                     	;	
   66                     			.strdef	_year,117,v,c,u,2,g,d,d,d,d,00h
   67                     	;unsigned char 	wday;				
   68                     	;
   69                     			.strdef	_wday,118,v,c,u,3,g,d,d,d,d,00h
   70                     	;}
   71                     			.strend	_tagDate,4,4
   72                     	;struct tagTime {
   73                     	;	
   74                     			.strname  _tagTime
   75                     	;unsigned char 	second;
   76                     	;	
   77                     			.strdef	_second,123,v,c,u,0,g,d,d,d,d,00h
   78                     	;unsigned char 	minute;
   79                     	;	
   80                     			.strdef	_minute,124,v,c,u,1,g,d,d,d,d,00h
   81                     	;unsigned char 	hour;
   82                     	;
   83                     			.strdef	_hour,125,v,c,u,2,g,d,d,d,d,00h
   84                     	;}
   85                     			.strend	_tagTime,3,3
   86                     	;struct tagGuiMenuItemType {
   87                     	;	
   88                     			.strname  _tagGuiMenuItemType
   89                     	;unsigned char 		strLen;				
   90                     	;	
   91                     			.strdef	_strLen,143,v,c,u,0,g,d,d,d,d,00h
   92                     	;unsigned char 		*str;				
   93                     	;	
   94                     			.strdef	_str,144,v,pc1,u,1,g,d,d,d,d,00h
   95                     	;unsigned char 		*bmpData0;			
   96                     	;	
   97                     			.strdef	_bmpData0,145,v,pc1,u,3,g,d,d,d,d,00h
   98                     	;unsigned char 		*bmpData1;			
   99                     	;
  100                     			.strdef	_bmpData1,146,v,pc1,u,5,g,d,d,d,d,00h
  101                     	;}
  102                     			.strend	_tagGuiMenuItemType,7,4
  103                     	;struct tagGuiMenu {
  Wed Jan 14 21:35:33 2026                                                                                               Page    3




  104                     	;	
  105                     			.strname  _tagGuiMenu
  106                     	;unsigned char 					itemNum;			
  107                     	;	
  108                     			.strdef	_itemNum,151,v,c,u,0,g,d,d,d,d,00h
  109                     	;unsigned char 					colNum;				
  110                     	;	
  111                     			.strdef	_colNum,152,v,c,u,1,g,d,d,d,d,00h
  112                     	;unsigned char 					*colPos;			
  113                     	;	
  114                     			.strdef	_colPos,153,v,pc1,u,2,g,d,d,d,d,00h
  115                     	;unsigned char 					style;				
  116                     	;	
  117                     			.strdef	_style,154,v,c,u,4,g,d,d,d,d,00h
  118                     	;struct tagGuiMenuItemType *	*menuItems ;		
  119                     	;
  120                     			.strdef	_menuItems,155,v,ps2,_tagGuiMenuItemType,s,5,g,d,d,d,d,00h
  121                     	;}
  122                     			.strend	_tagGuiMenu,7,5
  123                     	;struct tagMenuEnv {
  124                     	;	
  125                     			.strname  _tagMenuEnv
  126                     	;unsigned char 		x0;					
  127                     	;	
  128                     			.strdef	_x0,160,v,c,u,0,g,d,d,d,d,00h
  129                     	;unsigned char 		x1;
  130                     	;	
  131                     			.strdef	_x1,161,v,c,u,1,g,d,d,d,d,00h
  132                     	;unsigned char 		y0;
  133                     	;	
  134                     			.strdef	_y0,162,v,c,u,2,g,d,d,d,d,00h
  135                     	;unsigned char 		y1;
  136                     	;	
  137                     			.strdef	_y1,163,v,c,u,3,g,d,d,d,d,00h
  138                     	;unsigned char 		startDispItem;		
  139                     	;
  140                     	;
  141                     	;	
  142                     			.strdef	_startDispItem,164,v,c,u,4,g,d,d,d,d,00h
  143                     	;unsigned char 		maxDispItem;		
  144                     	;	
  145                     			.strdef	_maxDispItem,167,v,c,u,5,g,d,d,d,d,00h
  146                     	;unsigned char 		dispItemNum;		
  147                     	;	
  148                     			.strdef	_dispItemNum,168,v,c,u,6,g,d,d,d,d,00h
  149                     	;unsigned char 		nFocus;				
  150                     	;
  151                     			.strdef	_nFocus,169,v,c,u,7,g,d,d,d,d,00h
  152                     	;}
  153                     			.strend	_tagMenuEnv,8,8
  154                     	;struct tagRect {
  155                     	;	
  156                     			.strname  _tagRect
  157                     	;unsigned char 		left;					
  158                     	;	
  159                     			.strdef	_left,174,v,c,u,0,g,d,d,d,d,00h
  160                     	;unsigned char 		top;					
  Wed Jan 14 21:35:33 2026                                                                                               Page    4




  161                     	;	
  162                     			.strdef	_top,175,v,c,u,1,g,d,d,d,d,00h
  163                     	;unsigned char 		height;					
  164                     	;	
  165                     			.strdef	_height,176,v,c,u,2,g,d,d,d,d,00h
  166                     	;unsigned char 		width;					
  167                     	;
  168                     			.strdef	_width,177,v,c,u,3,g,d,d,d,d,00h
  169                     	;}
  170                     			.strend	_tagRect,4,4
  171                     	;struct tagRandEnv {
  172                     	;	
  173                     			.strname  _tagRandEnv
  174                     	;unsigned long  next 	;
  175                     	; 	
  176                     			.strdef	_next,182,v,l,u,0,g,d,d,d,d,00h
  177                     	;unsigned int  randMax	;
  178                     	;
  179                     			.strdef	_randMax,183,v,i,u,4,g,d,d,d,d,00h
  180                     	;}
  181                     			.strend	_tagRandEnv,6,2
  182                     	;struct tagQryBoxBmp {
  183                     	;	
  184                     			.strname  _tagQryBoxBmp
  185                     	;unsigned char 		left;					
  186                     	;	
  187                     			.strdef	_left,188,v,c,u,0,g,d,d,d,d,00h
  188                     	;unsigned char 		top;					
  189                     	;	
  190                     			.strdef	_top,189,v,c,u,1,g,d,d,d,d,00h
  191                     	;unsigned char 		height;					
  192                     	;	
  193                     			.strdef	_height,190,v,c,u,2,g,d,d,d,d,00h
  194                     	;unsigned char 		width;					
  195                     	;	
  196                     			.strdef	_width,191,v,c,u,3,g,d,d,d,d,00h
  197                     	;unsigned char 		*bmpData;				
  198                     	;
  199                     			.strdef	_bmpData,192,v,pc1,u,4,g,d,d,d,d,00h
  200                     	;}
  201                     			.strend	_tagQryBoxBmp,6,5
  202                     	;struct tagAppSwitchInfo {
  203                     	;	
  204                     			.strname  _tagAppSwitchInfo
  205                     	;unsigned int 		currentAppID;							
  206                     	;	
  207                     			.strdef	_currentAppID,237,v,i,u,0,g,d,d,d,d,00h
  208                     	;unsigned int 		heirAppID;								
  209                     	;	
  210                     			.strdef	_heirAppID,238,v,i,u,2,g,d,d,d,d,00h
  211                     	;unsigned long 		downAppPhyAddr;							
  212                     	;	
  213                     			.strdef	_downAppPhyAddr,239,v,l,u,4,g,d,d,d,d,00h
  214                     	;unsigned char 		currentAppAttr;							
  215                     	;	
  216                     			.strdef	_currentAppAttr,240,v,c,u,8,g,d,d,d,d,00h
  217                     	;unsigned char 		heirAppAttr;
  Wed Jan 14 21:35:33 2026                                                                                               Page    5




  218                     	;
  219                     			.strdef	_heirAppAttr,241,v,c,u,9,g,d,d,d,d,00h
  220                     	;}
  221                     			.strend	_tagAppSwitchInfo,10,5
  222                     	;struct tagSysIconEnv {
  223                     	;	
  224                     			.strname  _tagSysIconEnv
  225                     	;unsigned char 		iconSaveBuf[12];
  226                     	;
  227                     			.strdef	_iconSaveBuf,327,v,c,u,0,g,d,d,d,d,0ch,00h
  228                     	;}
  229                     			.strend	_tagSysIconEnv,12,1
  230                     	;.macstart 19335,525
  231                     	;
  232                     			.c_start  04b87h,525
  233                     	;.asm
  234                     	;	
  235  5000                 			.CHIP	6502
  236                     			.LINKLIST
  237                     			.SYMBOLS
  238                     			.DEBUG	ASM
  239                     			.LIST	ON
  240                     	;.optimize	off
  241                     	;	
  242                     	;.endasm
  243                     	;
  244                     	;
  245                     	;.macend 19418,532
  246                     	;
  247                     			.c_end	04bdah,532
  248                     	;.endinc psnakefar3.c
  249                     			.filename	psnakefar3.c
  250                     	;.filename mtower.h
  251                     	;
  252                     			.filename	mtower.h
  253                     	;.endinc psnakefar3.c
  254                     			.filename	psnakefar3.c
  255                     	;
  256                     			.f_start  0706h,50
  257                     			.bank_table
  258                     			.global	&GameMTEvent
  259  9060     00 50 E3    	&GameMTEvent:	.bankaddr	_GameMTEvent
  260                     			.ends
  261         3119 5000   	_GameMTEvent:	.equal	$
  262                     			.attrib	_GameMTEvent,51,f,b
  263                     	;
  264                     	;
  265         0000        	?ASC0:		.equal	0
  266         0006        	?TSC0:		.equal	6
  267         0016        	?LSC0:		.equal	22
  268  5000     08          			php
  269  5001     78          			sei
  270  5002     38          			sec
  271  5003     A5 28       			lda	__stack_ptr
  272  5005     E9 1C       			sbc	#.low.+?LSC0+?TSC0
  273  5007     85 28       			sta	__stack_ptr
  274  5009     A5 29       			lda	__stack_ptr+1
  Wed Jan 14 21:35:33 2026                                                                                               Page    6




  275  500B     E9 00       			sbc	#.high.+?LSC0+?TSC0
  276  500D     85 29       			sta	__stack_ptr+1
  277  500F     28          			plp
  278                     	;unsigned char 	temp[20];
  279                     	;		
  280                     			.local	_temp,52,v,c,u,d,d,d,d,-20+?LSC0+0,014h,00h
  281                     	;unsigned char 	*g_GameMTJuidgeNow;
  282                     	;		
  283                     			.local	_g_GameMTJuidgeNow,53,v,pc1,u,f,d,f,d,-22+?LSC0+0,00h
  284                     	;GameMTGetInput()
  285                     			.c_start  0744h,54
  286  5010     A2 2D       			ldx	#.low.&GameMTGetInput
  287  5012     86 26       			stx	__addr_reg
  288  5014     A2 90       			ldx	#.high.&GameMTGetInput+1
  289  5016     86 27       			stx	__addr_reg+1
  290                     			.bf_call
  291  5018     20 F6 D2    			jsr	__banked_function_call
  292                     			.c_end	0754h,54
  293                     	;(g_GameMTQuit)
  294                     			.if_top	0759h,?BOL0,1,55
  295  501B     AD 05 18    			lda	_g_GameMTQuit
  296  501E     D0 03       			bne	+3
  297  5020     4C 26 50    			jmp	?BOL0
  298         3115 5023   	?PLC0:		.equal	$
  299                     			.c_end	0768h,55
  300                     	;return
  301                     			.c_start  0759h,55
  302  5023     4C DA 83    			jmp	?BOF0
  303                     			.c_end	076fh,55
  304                     	;;
  305                     	;		
  306                     	;(g_GameMTReadKey)
  307                     	;		
  308         3415 5026   	?BOL0:		.equal	$
  309                     			.c_start  0774h,56
  310  5026     AD 06 18    			lda	_g_GameMTReadKey
  311  5029     85 23       			sta	__oper2
  312  502B     A2 00       			ldx	#0
  313  502D     86 24       			stx	__oper2+1
  314         4515 502F   	?PLC1:		.equal	$
  315                     			.c_end	078ch,57
  316                     	;
  317                     			.sw_start
  318                     			.const_data_psfar3
  319  8CAA     0100        	?CGL0:	.word	1
  320  8CAC     0200        			.word	2
  321  8CAE     0300        			.word	3
  322  8CB0     0400        			.word	4
  323  8CB2     0600        			.word	6
  324  8CB4     0700        			.word	7
  325  8CB6     0800        			.word	8
  326  8CB8     1000        			.word	16
  327  8CBA     4650        	?CGL1:	.word	?SWL0
  328                     			.sw_case ?SWL0
  329  8CBC     4C51        			.word	?SWL1
  330                     			.sw_case ?SWL1
  331  8CBE     4A52        			.word	?SWL2
  Wed Jan 14 21:35:33 2026                                                                                               Page    7




  332                     			.sw_case ?SWL2
  333  8CC0     5353        			.word	?SWL3
  334                     			.sw_case ?SWL3
  335  8CC2     5154        			.word	?SWL4
  336                     			.sw_case ?SWL4
  337  8CC4     8254        			.word	?SWL5
  338                     			.sw_case ?SWL5
  339  8CC6     FF54        			.word	?SWL6
  340                     			.sw_case ?SWL6
  341  8CC8     2655        			.word	?SWL7
  342                     			.sw_case ?SWL7
  343                     			.program_psfar3
  344  502F     A9 AA       			lda	#.low.?CGL0
  345  5031     85 26       			sta	__addr_reg
  346  5033     A9 8C       			lda	#.high.?CGL0
  347  5035     85 27       			sta	__addr_reg+1
  348                     			.sw_case ?SWL8
  349  5037     A2 08       			ldx	#.low.8
  350  5039     A0 00       			ldy	#.high.8
  351  503B     A9 3C       			lda	#.low.?SWL8
  352  503D     85 20       			sta	__oper1
  353  503F     A9 55       			lda	#.high.?SWL8
  354  5041     85 21       			sta	__oper1+1
  355  5043     4C 5C DB    			jmp	__switch_comparison
  356                     			.sw_end
  357                     	;case	1:
  358                     	;					
  359         3417 5046   	?SWL0:		.equal	$
  360                     	;(g_GameMTHeroX+1>1)
  361                     	;					
  362                     			.if_top	07a3h,?BOL2,1,59
  363  5046     AD 0F 18    			lda	_g_GameMTHeroX
  364  5049     18          			clc
  365  504A     69 01       			adc	#1
  366  504C     38          			sec
  367  504D     E9 01       			sbc	#1
  368  504F     B0 03       			bcs	+3
  369  5051     4C 68 50    			jmp	?BOL2
  370  5054     D0 03       			bne	+3
  371  5056     4C 68 50    			jmp	?BOL2
  372         3718 5059   	?PLC2:		.equal	$
  373                     			.c_end	07b9h,60
  374                     	;g_GameMTJuidgeX=g_GameMTHeroX-1
  375                     			.c_start  07c8h,61
  376  5059     AD 0F 18    			lda	_g_GameMTHeroX
  377  505C     38          			sec
  378  505D     E9 01       			sbc	#1
  379  505F     8D 11 18    			sta	_g_GameMTJuidgeX
  380                     			.c_end	07e7h,61
  381                     	;g_GameMTJuidgeY=g_GameMTHeroY
  382                     			.c_start  07f0h,62
  383  5062     AD 10 18    			lda	_g_GameMTHeroY
  384  5065     8D 12 18    			sta	_g_GameMTJuidgeY
  385                     			.c_end	080dh,62
  386                     	;
  387                     	;(g_GameMTHeroDir==6)
  388         3619 5068   	?BOL2:		.equal	$
  Wed Jan 14 21:35:33 2026                                                                                               Page    8




  389                     			.if_top	081dh,?BOL3,1,64
  390  5068     AD A6 1F    			lda	_g_GameMTHeroDir
  391  506B     38          			sec
  392  506C     E9 06       			sbc	#6
  393  506E     F0 03       			beq	+3
  394  5070     4C 7B 50    			jmp	?BOL3
  395         311A 5073   	?PLC3:		.equal	$
  396                     			.c_end	0832h,64
  397                     	;g_GameMTHeroDir=7
  398                     			.c_start  081dh,64
  399  5073     A9 07       			lda	#7
  400  5075     8D A6 1F    			sta	_g_GameMTHeroDir
  401                     			.c_end	0844h,64
  402                     	;;
  403                     	;						
  404                     	;else	
  405  5078     4C 80 50    			jmp	?EOI3
  406                     			.if_else  ?EOI3,1,65
  407         391A 507B   	?BOL3:		.equal	$
  408                     	;g_GameMTHeroDir=6
  409                     			.c_start  0852h,65
  410  507B     A9 06       			lda	#6
  411  507D     8D A6 1F    			sta	_g_GameMTHeroDir
  412                     			.c_end	0863h,65
  413                     	;;
  414                     	;					
  415         451A 5080   	?EOI3:		.equal	$
  416                     	;SysPicture((g_GameMTHeroX-g_GameMTMapX)*16,(g_GameMTHeroY-g_GameMTMapY)*16,(g_GameMTHeroX-g_GameMTMapX)*16+15,(g_Ga
                            meMTHeroY-g_GameMTMapY)*16+15,GameMTHeroPic[g_GameMTHeroDir],0)
  417                     			.c_start  086bh,66
  418  5080     AD 0F 18    			lda	_g_GameMTHeroX
  419  5083     38          			sec
  420  5084     ED 0D 18    			sbc	_g_GameMTMapX
  421  5087     48          			pha
  422  5088     A9 10       			lda	#16
  423  508A     85 23       			sta	__oper2
  424  508C     68          			pla
  425  508D     20 EF DC    			jsr	__uns_mult_char
  426  5090     A0 16       			ldy	#+0+?LSC0
  427  5092     91 28       			sta	(__stack_ptr),y
  428  5094     AD 10 18    			lda	_g_GameMTHeroY
  429  5097     38          			sec
  430  5098     ED 0E 18    			sbc	_g_GameMTMapY
  431  509B     48          			pha
  432  509C     A9 10       			lda	#16
  433  509E     85 23       			sta	__oper2
  434  50A0     68          			pla
  435  50A1     20 EF DC    			jsr	__uns_mult_char
  436  50A4     A0 17       			ldy	#+1+?LSC0
  437  50A6     91 28       			sta	(__stack_ptr),y
  438  50A8     AD 0F 18    			lda	_g_GameMTHeroX
  439  50AB     38          			sec
  440  50AC     ED 0D 18    			sbc	_g_GameMTMapX
  441  50AF     48          			pha
  442  50B0     A9 10       			lda	#16
  443  50B2     85 23       			sta	__oper2
  444  50B4     68          			pla
  Wed Jan 14 21:35:33 2026                                                                                               Page    9




  445  50B5     20 EF DC    			jsr	__uns_mult_char
  446  50B8     18          			clc
  447  50B9     69 0F       			adc	#15
  448  50BB     A0 18       			ldy	#+2+?LSC0
  449  50BD     91 28       			sta	(__stack_ptr),y
  450  50BF     AD 10 18    			lda	_g_GameMTHeroY
  451  50C2     38          			sec
  452  50C3     ED 0E 18    			sbc	_g_GameMTMapY
  453  50C6     48          			pha
  454  50C7     A9 10       			lda	#16
  455  50C9     85 23       			sta	__oper2
  456  50CB     68          			pla
  457  50CC     20 EF DC    			jsr	__uns_mult_char
  458  50CF     18          			clc
  459  50D0     69 0F       			adc	#15
  460  50D2     A0 19       			ldy	#+3+?LSC0
  461  50D4     91 28       			sta	(__stack_ptr),y
  462  50D6     A9 20       			lda	#.low.32
  463  50D8     85 23       			sta	__oper2
  464  50DA     A9 00       			lda	#.high.32
  465  50DC     85 24       			sta	__oper2+1
  466  50DE     AD A6 1F    			lda	_g_GameMTHeroDir
  467  50E1     85 20       			sta	__oper1
  468  50E3     A9 00       			lda	#0
  469  50E5     85 21       			sta	__oper1+1
  470  50E7     20 AF D6    			jsr	__mult_int
  471  50EA     18          			clc
  472  50EB     A5 20       			lda	__oper1
  473  50ED     69 C8       			adc	#.low._GameMTHeroPic
  474  50EF     85 20       			sta	__oper1
  475  50F1     A5 21       			lda	__oper1+1
  476  50F3     69 90       			adc	#.high._GameMTHeroPic
  477  50F5     85 21       			sta	__oper1+1
  478  50F7     A0 1A       			ldy	#+4+?LSC0
  479  50F9     A5 20       			lda	__oper1
  480  50FB     91 28       			sta	(__stack_ptr),y
  481  50FD     C8          			iny
  482  50FE     A5 21       			lda	__oper1+1
  483  5100     91 28       			sta	(__stack_ptr),y
  484  5102     A9 00       			lda	#0
  485  5104     20 AA DA    			jsr	__store_char_funct_arg
  486  5107     A0 1B       			ldy	#+4+?LSC0+1
  487  5109     B1 28       			lda	(__stack_ptr),y
  488  510B     85 20       			sta	__oper1
  489  510D     C8          			iny
  490  510E     B1 28       			lda	(__stack_ptr),y
  491  5110     85 21       			sta	__oper1+1
  492  5112     20 CA DA    			jsr	__store_int_funct_arg
  493  5115     A0 1C       			ldy	#+3+?LSC0+3
  494  5117     B1 28       			lda	(__stack_ptr),y
  495  5119     20 AA DA    			jsr	__store_char_funct_arg
  496  511C     A0 1C       			ldy	#+2+?LSC0+4
  497  511E     B1 28       			lda	(__stack_ptr),y
  498  5120     20 AA DA    			jsr	__store_char_funct_arg
  499  5123     A0 1C       			ldy	#+1+?LSC0+5
  500  5125     B1 28       			lda	(__stack_ptr),y
  501  5127     20 AA DA    			jsr	__store_char_funct_arg
  Wed Jan 14 21:35:33 2026                                                                                               Page   10




  502  512A     A0 1C       			ldy	#+0+?LSC0+6
  503  512C     B1 28       			lda	(__stack_ptr),y
  504  512E     A2 8E       			ldx	#.low.&SysPicture
  505  5130     86 26       			stx	__addr_reg
  506  5132     A2 E7       			ldx	#.high.&SysPicture+1
  507  5134     86 27       			stx	__addr_reg+1
  508                     			.bf_call
  509  5136     20 F6 D2    			jsr	__banked_function_call
  510  5139     08          			php
  511  513A     78          			sei
  512  513B     18          			clc
  513  513C     A5 28       			lda	__stack_ptr
  514  513E     69 06       			adc	#.low.6
  515  5140     85 28       			sta	__stack_ptr
  516  5142     A5 29       			lda	__stack_ptr+1
  517  5144     69 00       			adc	#.high.6
  518  5146     85 29       			sta	__stack_ptr+1
  519  5148     28          			plp
  520                     			.c_end	091dh,66
  521                     	;break;
  522                     	;			
  523                     			.sw_break
  524  5149     4C 3F 55    			jmp	?BOL1
  525                     	;case	2:
  526                     	;					
  527         3A17 514C   	?SWL1:		.equal	$
  528                     	;(g_GameMTHeroX<10)
  529                     	;					
  530                     			.if_top	093eh,?BOL4,1,69
  531  514C     AD 0F 18    			lda	_g_GameMTHeroX
  532  514F     38          			sec
  533  5150     E9 0A       			sbc	#10
  534  5152     90 03       			bcc	+3
  535  5154     4C 66 51    			jmp	?BOL4
  536         3518 5157   	?PLC4:		.equal	$
  537                     			.c_end	0953h,70
  538                     	;g_GameMTJuidgeX=g_GameMTHeroX+1
  539                     			.c_start  0962h,71
  540  5157     AD 0F 18    			lda	_g_GameMTHeroX
  541  515A     18          			clc
  542  515B     69 01       			adc	#1
  543  515D     8D 11 18    			sta	_g_GameMTJuidgeX
  544                     			.c_end	0981h,71
  545                     	;g_GameMTJuidgeY=g_GameMTHeroY
  546                     			.c_start  098ah,72
  547  5160     AD 10 18    			lda	_g_GameMTHeroY
  548  5163     8D 12 18    			sta	_g_GameMTJuidgeY
  549                     			.c_end	09a7h,72
  550                     	;
  551                     	;(g_GameMTHeroDir==4)
  552         3419 5166   	?BOL4:		.equal	$
  553                     			.if_top	09b7h,?BOL5,1,74
  554  5166     AD A6 1F    			lda	_g_GameMTHeroDir
  555  5169     38          			sec
  556  516A     E9 04       			sbc	#4
  557  516C     F0 03       			beq	+3
  558  516E     4C 79 51    			jmp	?BOL5
  Wed Jan 14 21:35:33 2026                                                                                               Page   11




  559         4619 5171   	?PLC5:		.equal	$
  560                     			.c_end	09cch,74
  561                     	;g_GameMTHeroDir=5
  562                     			.c_start  09b7h,74
  563  5171     A9 05       			lda	#5
  564  5173     8D A6 1F    			sta	_g_GameMTHeroDir
  565                     			.c_end	09deh,74
  566                     	;;
  567                     	;						
  568                     	;else	
  569  5176     4C 7E 51    			jmp	?EOI5
  570                     			.if_else  ?EOI5,1,75
  571         371A 5179   	?BOL5:		.equal	$
  572                     	;g_GameMTHeroDir=4
  573                     			.c_start  09ech,75
  574  5179     A9 04       			lda	#4
  575  517B     8D A6 1F    			sta	_g_GameMTHeroDir
  576                     			.c_end	09fdh,75
  577                     	;;
  578                     	;					
  579         431A 517E   	?EOI5:		.equal	$
  580                     	;SysPicture((g_GameMTHeroX-g_GameMTMapX)*16,(g_GameMTHeroY-g_GameMTMapY)*16,(g_GameMTHeroX-g_GameMTMapX)*16+15,(g_Ga
                            meMTHeroY-g_GameMTMapY)*16+15,GameMTHeroPic[g_GameMTHeroDir],0)
  581                     			.c_start  0a05h,76
  582  517E     AD 0F 18    			lda	_g_GameMTHeroX
  583  5181     38          			sec
  584  5182     ED 0D 18    			sbc	_g_GameMTMapX
  585  5185     48          			pha
  586  5186     A9 10       			lda	#16
  587  5188     85 23       			sta	__oper2
  588  518A     68          			pla
  589  518B     20 EF DC    			jsr	__uns_mult_char
  590  518E     A0 16       			ldy	#+0+?LSC0
  591  5190     91 28       			sta	(__stack_ptr),y
  592  5192     AD 10 18    			lda	_g_GameMTHeroY
  593  5195     38          			sec
  594  5196     ED 0E 18    			sbc	_g_GameMTMapY
  595  5199     48          			pha
  596  519A     A9 10       			lda	#16
  597  519C     85 23       			sta	__oper2
  598  519E     68          			pla
  599  519F     20 EF DC    			jsr	__uns_mult_char
  600  51A2     A0 17       			ldy	#+1+?LSC0
  601  51A4     91 28       			sta	(__stack_ptr),y
  602  51A6     AD 0F 18    			lda	_g_GameMTHeroX
  603  51A9     38          			sec
  604  51AA     ED 0D 18    			sbc	_g_GameMTMapX
  605  51AD     48          			pha
  606  51AE     A9 10       			lda	#16
  607  51B0     85 23       			sta	__oper2
  608  51B2     68          			pla
  609  51B3     20 EF DC    			jsr	__uns_mult_char
  610  51B6     18          			clc
  611  51B7     69 0F       			adc	#15
  612  51B9     A0 18       			ldy	#+2+?LSC0
  613  51BB     91 28       			sta	(__stack_ptr),y
  614  51BD     AD 10 18    			lda	_g_GameMTHeroY
  Wed Jan 14 21:35:33 2026                                                                                               Page   12




  615  51C0     38          			sec
  616  51C1     ED 0E 18    			sbc	_g_GameMTMapY
  617  51C4     48          			pha
  618  51C5     A9 10       			lda	#16
  619  51C7     85 23       			sta	__oper2
  620  51C9     68          			pla
  621  51CA     20 EF DC    			jsr	__uns_mult_char
  622  51CD     18          			clc
  623  51CE     69 0F       			adc	#15
  624  51D0     A0 19       			ldy	#+3+?LSC0
  625  51D2     91 28       			sta	(__stack_ptr),y
  626  51D4     A9 20       			lda	#.low.32
  627  51D6     85 23       			sta	__oper2
  628  51D8     A9 00       			lda	#.high.32
  629  51DA     85 24       			sta	__oper2+1
  630  51DC     AD A6 1F    			lda	_g_GameMTHeroDir
  631  51DF     85 20       			sta	__oper1
  632  51E1     A9 00       			lda	#0
  633  51E3     85 21       			sta	__oper1+1
  634  51E5     20 AF D6    			jsr	__mult_int
  635  51E8     18          			clc
  636  51E9     A5 20       			lda	__oper1
  637  51EB     69 C8       			adc	#.low._GameMTHeroPic
  638  51ED     85 20       			sta	__oper1
  639  51EF     A5 21       			lda	__oper1+1
  640  51F1     69 90       			adc	#.high._GameMTHeroPic
  641  51F3     85 21       			sta	__oper1+1
  642  51F5     A0 1A       			ldy	#+4+?LSC0
  643  51F7     A5 20       			lda	__oper1
  644  51F9     91 28       			sta	(__stack_ptr),y
  645  51FB     C8          			iny
  646  51FC     A5 21       			lda	__oper1+1
  647  51FE     91 28       			sta	(__stack_ptr),y
  648  5200     A9 00       			lda	#0
  649  5202     20 AA DA    			jsr	__store_char_funct_arg
  650  5205     A0 1B       			ldy	#+4+?LSC0+1
  651  5207     B1 28       			lda	(__stack_ptr),y
  652  5209     85 20       			sta	__oper1
  653  520B     C8          			iny
  654  520C     B1 28       			lda	(__stack_ptr),y
  655  520E     85 21       			sta	__oper1+1
  656  5210     20 CA DA    			jsr	__store_int_funct_arg
  657  5213     A0 1C       			ldy	#+3+?LSC0+3
  658  5215     B1 28       			lda	(__stack_ptr),y
  659  5217     20 AA DA    			jsr	__store_char_funct_arg
  660  521A     A0 1C       			ldy	#+2+?LSC0+4
  661  521C     B1 28       			lda	(__stack_ptr),y
  662  521E     20 AA DA    			jsr	__store_char_funct_arg
  663  5221     A0 1C       			ldy	#+1+?LSC0+5
  664  5223     B1 28       			lda	(__stack_ptr),y
  665  5225     20 AA DA    			jsr	__store_char_funct_arg
  666  5228     A0 1C       			ldy	#+0+?LSC0+6
  667  522A     B1 28       			lda	(__stack_ptr),y
  668  522C     A2 8E       			ldx	#.low.&SysPicture
  669  522E     86 26       			stx	__addr_reg
  670  5230     A2 E7       			ldx	#.high.&SysPicture+1
  671  5232     86 27       			stx	__addr_reg+1
  Wed Jan 14 21:35:33 2026                                                                                               Page   13




  672                     			.bf_call
  673  5234     20 F6 D2    			jsr	__banked_function_call
  674  5237     08          			php
  675  5238     78          			sei
  676  5239     18          			clc
  677  523A     A5 28       			lda	__stack_ptr
  678  523C     69 06       			adc	#.low.6
  679  523E     85 28       			sta	__stack_ptr
  680  5240     A5 29       			lda	__stack_ptr+1
  681  5242     69 00       			adc	#.high.6
  682  5244     85 29       			sta	__stack_ptr+1
  683  5246     28          			plp
  684                     			.c_end	0ab7h,76
  685                     	;break;
  686                     	;			
  687                     			.sw_break
  688  5247     4C 3F 55    			jmp	?BOL1
  689                     	;case	3:
  690                     	;					
  691         3817 524A   	?SWL2:		.equal	$
  692                     	;(g_GameMTHeroY+1>1)
  693                     	;					
  694                     			.if_top	0ad8h,?BOL6,1,79
  695  524A     AD 10 18    			lda	_g_GameMTHeroY
  696  524D     18          			clc
  697  524E     69 01       			adc	#1
  698  5250     38          			sec
  699  5251     E9 01       			sbc	#1
  700  5253     B0 03       			bcs	+3
  701  5255     4C 6C 52    			jmp	?BOL6
  702  5258     D0 03       			bne	+3
  703  525A     4C 6C 52    			jmp	?BOL6
  704         4218 525D   	?PLC6:		.equal	$
  705                     			.c_end	0aeeh,80
  706                     	;g_GameMTJuidgeY=g_GameMTHeroY-1
  707                     			.c_start  0afdh,81
  708  525D     AD 10 18    			lda	_g_GameMTHeroY
  709  5260     38          			sec
  710  5261     E9 01       			sbc	#1
  711  5263     8D 12 18    			sta	_g_GameMTJuidgeY
  712                     			.c_end	0b1ch,81
  713                     	;g_GameMTJuidgeX=g_GameMTHeroX
  714                     			.c_start  0b25h,82
  715  5266     AD 0F 18    			lda	_g_GameMTHeroX
  716  5269     8D 11 18    			sta	_g_GameMTJuidgeX
  717                     			.c_end	0b42h,82
  718                     	;
  719                     	;(g_GameMTHeroDir+1==1)
  720         3A19 526C   	?BOL6:		.equal	$
  721                     			.if_top	0b52h,?BOL7,1,84
  722  526C     AD A6 1F    			lda	_g_GameMTHeroDir
  723  526F     18          			clc
  724  5270     69 01       			adc	#1
  725  5272     38          			sec
  726  5273     E9 01       			sbc	#1
  727  5275     F0 03       			beq	+3
  728  5277     4C 82 52    			jmp	?BOL7
  Wed Jan 14 21:35:33 2026                                                                                               Page   14




  729         381A 527A   	?PLC7:		.equal	$
  730                     			.c_end	0b69h,84
  731                     	;g_GameMTHeroDir=1
  732                     			.c_start  0b52h,84
  733  527A     A9 01       			lda	#1
  734  527C     8D A6 1F    			sta	_g_GameMTHeroDir
  735                     			.c_end	0b7bh,84
  736                     	;;
  737                     	;						
  738                     	;else	
  739  527F     4C 87 52    			jmp	?EOI7
  740                     			.if_else  ?EOI7,1,85
  741         471A 5282   	?BOL7:		.equal	$
  742                     	;g_GameMTHeroDir=0
  743                     			.c_start  0b89h,85
  744  5282     A9 00       			lda	#0
  745  5284     8D A6 1F    			sta	_g_GameMTHeroDir
  746                     			.c_end	0b9ah,85
  747                     	;;
  748                     	;					
  749         351B 5287   	?EOI7:		.equal	$
  750                     	;SysPicture((g_GameMTHeroX-g_GameMTMapX)*16,(g_GameMTHeroY-g_GameMTMapY)*16,(g_GameMTHeroX-g_GameMTMapX)*16+15,(g_Ga
                            meMTHeroY-g_GameMTMapY)*16+15,GameMTHeroPic[g_GameMTHeroDir],0)
  751                     			.c_start  0ba2h,86
  752  5287     AD 0F 18    			lda	_g_GameMTHeroX
  753  528A     38          			sec
  754  528B     ED 0D 18    			sbc	_g_GameMTMapX
  755  528E     48          			pha
  756  528F     A9 10       			lda	#16
  757  5291     85 23       			sta	__oper2
  758  5293     68          			pla
  759  5294     20 EF DC    			jsr	__uns_mult_char
  760  5297     A0 16       			ldy	#+0+?LSC0
  761  5299     91 28       			sta	(__stack_ptr),y
  762  529B     AD 10 18    			lda	_g_GameMTHeroY
  763  529E     38          			sec
  764  529F     ED 0E 18    			sbc	_g_GameMTMapY
  765  52A2     48          			pha
  766  52A3     A9 10       			lda	#16
  767  52A5     85 23       			sta	__oper2
  768  52A7     68          			pla
  769  52A8     20 EF DC    			jsr	__uns_mult_char
  770  52AB     A0 17       			ldy	#+1+?LSC0
  771  52AD     91 28       			sta	(__stack_ptr),y
  772  52AF     AD 0F 18    			lda	_g_GameMTHeroX
  773  52B2     38          			sec
  774  52B3     ED 0D 18    			sbc	_g_GameMTMapX
  775  52B6     48          			pha
  776  52B7     A9 10       			lda	#16
  777  52B9     85 23       			sta	__oper2
  778  52BB     68          			pla
  779  52BC     20 EF DC    			jsr	__uns_mult_char
  780  52BF     18          			clc
  781  52C0     69 0F       			adc	#15
  782  52C2     A0 18       			ldy	#+2+?LSC0
  783  52C4     91 28       			sta	(__stack_ptr),y
  784  52C6     AD 10 18    			lda	_g_GameMTHeroY
  Wed Jan 14 21:35:33 2026                                                                                               Page   15




  785  52C9     38          			sec
  786  52CA     ED 0E 18    			sbc	_g_GameMTMapY
  787  52CD     48          			pha
  788  52CE     A9 10       			lda	#16
  789  52D0     85 23       			sta	__oper2
  790  52D2     68          			pla
  791  52D3     20 EF DC    			jsr	__uns_mult_char
  792  52D6     18          			clc
  793  52D7     69 0F       			adc	#15
  794  52D9     A0 19       			ldy	#+3+?LSC0
  795  52DB     91 28       			sta	(__stack_ptr),y
  796  52DD     A9 20       			lda	#.low.32
  797  52DF     85 23       			sta	__oper2
  798  52E1     A9 00       			lda	#.high.32
  799  52E3     85 24       			sta	__oper2+1
  800  52E5     AD A6 1F    			lda	_g_GameMTHeroDir
  801  52E8     85 20       			sta	__oper1
  802  52EA     A9 00       			lda	#0
  803  52EC     85 21       			sta	__oper1+1
  804  52EE     20 AF D6    			jsr	__mult_int
  805  52F1     18          			clc
  806  52F2     A5 20       			lda	__oper1
  807  52F4     69 C8       			adc	#.low._GameMTHeroPic
  808  52F6     85 20       			sta	__oper1
  809  52F8     A5 21       			lda	__oper1+1
  810  52FA     69 90       			adc	#.high._GameMTHeroPic
  811  52FC     85 21       			sta	__oper1+1
  812  52FE     A0 1A       			ldy	#+4+?LSC0
  813  5300     A5 20       			lda	__oper1
  814  5302     91 28       			sta	(__stack_ptr),y
  815  5304     C8          			iny
  816  5305     A5 21       			lda	__oper1+1
  817  5307     91 28       			sta	(__stack_ptr),y
  818  5309     A9 00       			lda	#0
  819  530B     20 AA DA    			jsr	__store_char_funct_arg
  820  530E     A0 1B       			ldy	#+4+?LSC0+1
  821  5310     B1 28       			lda	(__stack_ptr),y
  822  5312     85 20       			sta	__oper1
  823  5314     C8          			iny
  824  5315     B1 28       			lda	(__stack_ptr),y
  825  5317     85 21       			sta	__oper1+1
  826  5319     20 CA DA    			jsr	__store_int_funct_arg
  827  531C     A0 1C       			ldy	#+3+?LSC0+3
  828  531E     B1 28       			lda	(__stack_ptr),y
  829  5320     20 AA DA    			jsr	__store_char_funct_arg
  830  5323     A0 1C       			ldy	#+2+?LSC0+4
  831  5325     B1 28       			lda	(__stack_ptr),y
  832  5327     20 AA DA    			jsr	__store_char_funct_arg
  833  532A     A0 1C       			ldy	#+1+?LSC0+5
  834  532C     B1 28       			lda	(__stack_ptr),y
  835  532E     20 AA DA    			jsr	__store_char_funct_arg
  836  5331     A0 1C       			ldy	#+0+?LSC0+6
  837  5333     B1 28       			lda	(__stack_ptr),y
  838  5335     A2 8E       			ldx	#.low.&SysPicture
  839  5337     86 26       			stx	__addr_reg
  840  5339     A2 E7       			ldx	#.high.&SysPicture+1
  841  533B     86 27       			stx	__addr_reg+1
  Wed Jan 14 21:35:33 2026                                                                                               Page   16




  842                     			.bf_call
  843  533D     20 F6 D2    			jsr	__banked_function_call
  844  5340     08          			php
  845  5341     78          			sei
  846  5342     18          			clc
  847  5343     A5 28       			lda	__stack_ptr
  848  5345     69 06       			adc	#.low.6
  849  5347     85 28       			sta	__stack_ptr
  850  5349     A5 29       			lda	__stack_ptr+1
  851  534B     69 00       			adc	#.high.6
  852  534D     85 29       			sta	__stack_ptr+1
  853  534F     28          			plp
  854                     			.c_end	0c54h,86
  855                     	;break;
  856                     	;			
  857                     			.sw_break
  858  5350     4C 3F 55    			jmp	?BOL1
  859                     	;case	4:
  860                     	;					
  861         3118 5353   	?SWL3:		.equal	$
  862                     	;(g_GameMTHeroY<10)
  863                     	;					
  864                     			.if_top	0c75h,?BOL8,1,89
  865  5353     AD 10 18    			lda	_g_GameMTHeroY
  866  5356     38          			sec
  867  5357     E9 0A       			sbc	#10
  868  5359     90 03       			bcc	+3
  869  535B     4C 6D 53    			jmp	?BOL8
  870         4318 535E   	?PLC8:		.equal	$
  871                     			.c_end	0c8ah,90
  872                     	;g_GameMTJuidgeY=g_GameMTHeroY+1
  873                     			.c_start  0c99h,91
  874  535E     AD 10 18    			lda	_g_GameMTHeroY
  875  5361     18          			clc
  876  5362     69 01       			adc	#1
  877  5364     8D 12 18    			sta	_g_GameMTJuidgeY
  878                     			.c_end	0cb8h,91
  879                     	;g_GameMTJuidgeX=g_GameMTHeroX
  880                     			.c_start  0cc1h,92
  881  5367     AD 0F 18    			lda	_g_GameMTHeroX
  882  536A     8D 11 18    			sta	_g_GameMTJuidgeX
  883                     			.c_end	0cdeh,92
  884                     	;
  885                     	;(g_GameMTHeroDir==2)
  886         4219 536D   	?BOL8:		.equal	$
  887                     			.if_top	0ceeh,?BOL9,1,94
  888  536D     AD A6 1F    			lda	_g_GameMTHeroDir
  889  5370     38          			sec
  890  5371     E9 02       			sbc	#2
  891  5373     F0 03       			beq	+3
  892  5375     4C 80 53    			jmp	?BOL9
  893         361A 5378   	?PLC9:		.equal	$
  894                     			.c_end	0d03h,94
  895                     	;g_GameMTHeroDir=3
  896                     			.c_start  0ceeh,94
  897  5378     A9 03       			lda	#3
  898  537A     8D A6 1F    			sta	_g_GameMTHeroDir
  Wed Jan 14 21:35:33 2026                                                                                               Page   17




  899                     			.c_end	0d15h,94
  900                     	;;
  901                     	;						
  902                     	;else	
  903  537D     4C 85 53    			jmp	?EOI9
  904                     			.if_else  ?EOI9,1,95
  905         451A 5380   	?BOL9:		.equal	$
  906                     	;g_GameMTHeroDir=2
  907                     			.c_start  0d23h,95
  908  5380     A9 02       			lda	#2
  909  5382     8D A6 1F    			sta	_g_GameMTHeroDir
  910                     			.c_end	0d34h,95
  911                     	;;
  912                     	;					
  913         331B 5385   	?EOI9:		.equal	$
  914                     	;SysPicture((g_GameMTHeroX-g_GameMTMapX)*16,(g_GameMTHeroY-g_GameMTMapY)*16,(g_GameMTHeroX-g_GameMTMapX)*16+15,(g_Ga
                            meMTHeroY-g_GameMTMapY)*16+15,GameMTHeroPic[g_GameMTHeroDir],0)
  915                     			.c_start  0d3ch,96
  916  5385     AD 0F 18    			lda	_g_GameMTHeroX
  917  5388     38          			sec
  918  5389     ED 0D 18    			sbc	_g_GameMTMapX
  919  538C     48          			pha
  920  538D     A9 10       			lda	#16
  921  538F     85 23       			sta	__oper2
  922  5391     68          			pla
  923  5392     20 EF DC    			jsr	__uns_mult_char
  924  5395     A0 16       			ldy	#+0+?LSC0
  925  5397     91 28       			sta	(__stack_ptr),y
  926  5399     AD 10 18    			lda	_g_GameMTHeroY
  927  539C     38          			sec
  928  539D     ED 0E 18    			sbc	_g_GameMTMapY
  929  53A0     48          			pha
  930  53A1     A9 10       			lda	#16
  931  53A3     85 23       			sta	__oper2
  932  53A5     68          			pla
  933  53A6     20 EF DC    			jsr	__uns_mult_char
  934  53A9     A0 17       			ldy	#+1+?LSC0
  935  53AB     91 28       			sta	(__stack_ptr),y
  936  53AD     AD 0F 18    			lda	_g_GameMTHeroX
  937  53B0     38          			sec
  938  53B1     ED 0D 18    			sbc	_g_GameMTMapX
  939  53B4     48          			pha
  940  53B5     A9 10       			lda	#16
  941  53B7     85 23       			sta	__oper2
  942  53B9     68          			pla
  943  53BA     20 EF DC    			jsr	__uns_mult_char
  944  53BD     18          			clc
  945  53BE     69 0F       			adc	#15
  946  53C0     A0 18       			ldy	#+2+?LSC0
  947  53C2     91 28       			sta	(__stack_ptr),y
  948  53C4     AD 10 18    			lda	_g_GameMTHeroY
  949  53C7     38          			sec
  950  53C8     ED 0E 18    			sbc	_g_GameMTMapY
  951  53CB     48          			pha
  952  53CC     A9 10       			lda	#16
  953  53CE     85 23       			sta	__oper2
  954  53D0     68          			pla
  Wed Jan 14 21:35:33 2026                                                                                               Page   18




  955  53D1     20 EF DC    			jsr	__uns_mult_char
  956  53D4     18          			clc
  957  53D5     69 0F       			adc	#15
  958  53D7     A0 19       			ldy	#+3+?LSC0
  959  53D9     91 28       			sta	(__stack_ptr),y
  960  53DB     A9 20       			lda	#.low.32
  961  53DD     85 23       			sta	__oper2
  962  53DF     A9 00       			lda	#.high.32
  963  53E1     85 24       			sta	__oper2+1
  964  53E3     AD A6 1F    			lda	_g_GameMTHeroDir
  965  53E6     85 20       			sta	__oper1
  966  53E8     A9 00       			lda	#0
  967  53EA     85 21       			sta	__oper1+1
  968  53EC     20 AF D6    			jsr	__mult_int
  969  53EF     18          			clc
  970  53F0     A5 20       			lda	__oper1
  971  53F2     69 C8       			adc	#.low._GameMTHeroPic
  972  53F4     85 20       			sta	__oper1
  973  53F6     A5 21       			lda	__oper1+1
  974  53F8     69 90       			adc	#.high._GameMTHeroPic
  975  53FA     85 21       			sta	__oper1+1
  976  53FC     A0 1A       			ldy	#+4+?LSC0
  977  53FE     A5 20       			lda	__oper1
  978  5400     91 28       			sta	(__stack_ptr),y
  979  5402     C8          			iny
  980  5403     A5 21       			lda	__oper1+1
  981  5405     91 28       			sta	(__stack_ptr),y
  982  5407     A9 00       			lda	#0
  983  5409     20 AA DA    			jsr	__store_char_funct_arg
  984  540C     A0 1B       			ldy	#+4+?LSC0+1
  985  540E     B1 28       			lda	(__stack_ptr),y
  986  5410     85 20       			sta	__oper1
  987  5412     C8          			iny
  988  5413     B1 28       			lda	(__stack_ptr),y
  989  5415     85 21       			sta	__oper1+1
  990  5417     20 CA DA    			jsr	__store_int_funct_arg
  991  541A     A0 1C       			ldy	#+3+?LSC0+3
  992  541C     B1 28       			lda	(__stack_ptr),y
  993  541E     20 AA DA    			jsr	__store_char_funct_arg
  994  5421     A0 1C       			ldy	#+2+?LSC0+4
  995  5423     B1 28       			lda	(__stack_ptr),y
  996  5425     20 AA DA    			jsr	__store_char_funct_arg
  997  5428     A0 1C       			ldy	#+1+?LSC0+5
  998  542A     B1 28       			lda	(__stack_ptr),y
  999  542C     20 AA DA    			jsr	__store_char_funct_arg
 1000  542F     A0 1C       			ldy	#+0+?LSC0+6
 1001  5431     B1 28       			lda	(__stack_ptr),y
 1002  5433     A2 8E       			ldx	#.low.&SysPicture
 1003  5435     86 26       			stx	__addr_reg
 1004  5437     A2 E7       			ldx	#.high.&SysPicture+1
 1005  5439     86 27       			stx	__addr_reg+1
 1006                     			.bf_call
 1007  543B     20 F6 D2    			jsr	__banked_function_call
 1008  543E     08          			php
 1009  543F     78          			sei
 1010  5440     18          			clc
 1011  5441     A5 28       			lda	__stack_ptr
  Wed Jan 14 21:35:33 2026                                                                                               Page   19




 1012  5443     69 06       			adc	#.low.6
 1013  5445     85 28       			sta	__stack_ptr
 1014  5447     A5 29       			lda	__stack_ptr+1
 1015  5449     69 00       			adc	#.high.6
 1016  544B     85 29       			sta	__stack_ptr+1
 1017  544D     28          			plp
 1018                     			.c_end	0deeh,96
 1019                     	;break;
 1020                     	;			
 1021                     			.sw_break
 1022  544E     4C 3F 55    			jmp	?BOL1
 1023                     	;case	6:
 1024                     	;					
 1025         4617 5451   	?SWL4:		.equal	$
 1026                     	;(g_GameMTCurMap[1089]!=18)
 1027                     			.if_top	0e0fh,?BOL10,1,99
 1028  5451     AD A8 1F    			lda	_g_GameMTCurMap
 1029  5454     85 20       			sta	__oper1
 1030  5456     AD A9 1F    			lda	_g_GameMTCurMap+1
 1031  5459     85 21       			sta	__oper1+1
 1032  545B     18          			clc
 1033  545C     A5 20       			lda	__oper1
 1034  545E     69 41       			adc	#.low.1089
 1035  5460     85 20       			sta	__oper1
 1036  5462     A5 21       			lda	__oper1+1
 1037  5464     69 04       			adc	#.high.1089
 1038  5466     85 21       			sta	__oper1+1
 1039  5468     A0 00       			ldy	#0
 1040  546A     B1 20       			lda	(__oper1),y
 1041  546C     38          			sec
 1042  546D     E9 12       			sbc	#18
 1043  546F     D0 03       			bne	+3
 1044  5471     4C 7F 54    			jmp	?BOL10
 1045         321A 5474   	?PLC10:		.equal	$
 1046                     			.c_end	0e2ah,99
 1047                     	;GameMTChaFloor()
 1048                     			.c_start  0e0fh,99
 1049  5474     A2 48       			ldx	#.low.&GameMTChaFloor
 1050  5476     86 26       			stx	__addr_reg
 1051  5478     A2 90       			ldx	#.high.&GameMTChaFloor+1
 1052  547A     86 27       			stx	__addr_reg+1
 1053                     			.bf_call
 1054  547C     20 F6 D2    			jsr	__banked_function_call
 1055                     			.c_end	0e3bh,99
 1056                     	;;
 1057                     	;					
 1058                     	;
 1059                     	;
 1060                     	;
 1061                     	;
 1062                     	;					
 1063                     	;return
 1064         441A 547F   	?BOL10:		.equal	$
 1065                     			.c_start  0ed3h,105
 1066  547F     4C DA 83    			jmp	?BOF0
 1067                     			.c_end	0ed9h,105
 1068                     	;case	7:
  Wed Jan 14 21:35:33 2026                                                                                               Page   20




 1069                     	;					
 1070         471A 5482   	?SWL5:		.equal	$
 1071                     	;SysMemcpy(temp,"   \0",12)
 1072                     			.c_start  0eedh,107
 1073                     			.const_data_psfar3
 1074  8CCA     C8 B7 20 B6 A8 	?PLC11:		.byte	"   ",0o,0
              20 CD CB 20 B3 
              F6 00 00 
 1075                     			.program_psfar3
 1076  5482     A9 0C       			lda	#.low.12
 1077  5484     85 20       			sta	__oper1
 1078  5486     A9 00       			lda	#.high.12
 1079  5488     85 21       			sta	__oper1+1
 1080  548A     20 CA DA    			jsr	__store_int_funct_arg
 1081  548D     A9 CA       			lda	#.low.?PLC11
 1082  548F     85 20       			sta	__oper1
 1083  5491     A9 8C       			lda	#.high.?PLC11
 1084  5493     85 21       			sta	__oper1+1
 1085  5495     20 CA DA    			jsr	__store_int_funct_arg
 1086  5498     18          			clc
 1087  5499     A5 28       			lda	__stack_ptr
 1088  549B     69 06       			adc	#.low.-20+?LSC0+4
 1089  549D     85 20       			sta	__oper1
 1090  549F     A5 29       			lda	__stack_ptr+1
 1091  54A1     69 00       			adc	#.high.-20+?LSC0+4
 1092  54A3     85 21       			sta	__oper1+1
 1093  54A5     20 CA DA    			jsr	__store_int_funct_arg
 1094                     			.f_call	_SysMemcpy
 1095  54A8     20 01 E9    			jsr	_SysMemcpy
 1096  54AB     08          			php
 1097  54AC     78          			sei
 1098  54AD     18          			clc
 1099  54AE     A5 28       			lda	__stack_ptr
 1100  54B0     69 06       			adc	#.low.6
 1101  54B2     85 28       			sta	__stack_ptr
 1102  54B4     A5 29       			lda	__stack_ptr+1
 1103  54B6     69 00       			adc	#.high.6
 1104  54B8     85 29       			sta	__stack_ptr+1
 1105  54BA     28          			plp
 1106                     			.c_end	0f0fh,107
 1107                     	;(!GuiQueryBox(0,0,temp))
 1108                     			.if_top	0f17h,?BOL11,1,108
 1109  54BB     18          			clc
 1110  54BC     A5 28       			lda	__stack_ptr
 1111  54BE     69 02       			adc	#.low.-20+?LSC0
 1112  54C0     85 20       			sta	__oper1
 1113  54C2     A5 29       			lda	__stack_ptr+1
 1114  54C4     69 00       			adc	#.high.-20+?LSC0
 1115  54C6     85 21       			sta	__oper1+1
 1116  54C8     20 CA DA    			jsr	__store_int_funct_arg
 1117  54CB     A9 00       			lda	#0
 1118  54CD     20 AA DA    			jsr	__store_char_funct_arg
 1119  54D0     A9 00       			lda	#0
 1120  54D2     A2 50       			ldx	#.low.&GuiQueryBox
 1121  54D4     86 26       			stx	__addr_reg
 1122  54D6     A2 E9       			ldx	#.high.&GuiQueryBox+1
 1123  54D8     86 27       			stx	__addr_reg+1
  Wed Jan 14 21:35:33 2026                                                                                               Page   21




 1124                     			.bf_call
 1125  54DA     20 F6 D2    			jsr	__banked_function_call
 1126  54DD     AA          			tax
 1127  54DE     08          			php
 1128  54DF     78          			sei
 1129  54E0     18          			clc
 1130  54E1     A5 28       			lda	__stack_ptr
 1131  54E3     69 03       			adc	#.low.3
 1132  54E5     85 28       			sta	__stack_ptr
 1133  54E7     A5 29       			lda	__stack_ptr+1
 1134  54E9     69 00       			adc	#.high.3
 1135  54EB     85 29       			sta	__stack_ptr+1
 1136  54ED     28          			plp
 1137  54EE     8A          			txa
 1138  54EF     38          			sec
 1139  54F0     E9 00       			sbc	#0
 1140  54F2     F0 03       			beq	+3
 1141  54F4     4C FC 54    			jmp	?BOL11
 1142         3529 54F7   	?PLC12:		.equal	$
 1143                     			.c_end	0f30h,108
 1144                     	;g_GameMTQuit=1
 1145                     			.c_start  0f2bh,108
 1146  54F7     A9 01       			lda	#1
 1147  54F9     8D 05 18    			sta	_g_GameMTQuit
 1148                     			.c_end	0f42h,108
 1149                     	;;
 1150                     	;					
 1151                     	;break;
 1152                     	;			
 1153         3A29 54FC   	?BOL11:		.equal	$
 1154                     			.sw_break
 1155  54FC     4C 3F 55    			jmp	?BOL1
 1156                     	;case	8:
 1157                     	;					
 1158         4429 54FF   	?SWL6:		.equal	$
 1159                     	;(g_GameMTCurMap[232]+1==1)
 1160                     			.if_top	0f63h,?BOL12,1,111
 1161  54FF     AE A8 1F    			ldx	_g_GameMTCurMap
 1162  5502     86 26       			stx	__addr_reg
 1163  5504     AE A9 1F    			ldx	_g_GameMTCurMap+1
 1164  5507     86 27       			stx	__addr_reg+1
 1165  5509     A0 E8       			ldy	#232
 1166  550B     B1 26       			lda	(__addr_reg),y
 1167  550D     18          			clc
 1168  550E     69 01       			adc	#1
 1169  5510     38          			sec
 1170  5511     E9 01       			sbc	#1
 1171  5513     F0 03       			beq	+3
 1172  5515     4C 23 55    			jmp	?BOL12
 1173         3614 5518   	?PLC13:		.equal	$
 1174                     			.c_end	0f7eh,111
 1175                     	;GameMTCheckMon()
 1176                     			.c_start  0f63h,111
 1177  5518     A2 4B       			ldx	#.low.&GameMTCheckMon
 1178  551A     86 26       			stx	__addr_reg
 1179  551C     A2 90       			ldx	#.high.&GameMTCheckMon+1
 1180  551E     86 27       			stx	__addr_reg+1
  Wed Jan 14 21:35:33 2026                                                                                               Page   22




 1181                     			.bf_call
 1182  5520     20 F6 D2    			jsr	__banked_function_call
 1183                     			.c_end	0f8fh,111
 1184                     	;;
 1185                     	;					
 1186                     	;return
 1187         3115 5523   	?BOL12:		.equal	$
 1188                     			.c_start  0f97h,112
 1189  5523     4C DA 83    			jmp	?BOF0
 1190                     			.c_end	0f9dh,112
 1191                     	;case	16:
 1192                     	;					
 1193         3415 5526   	?SWL7:		.equal	$
 1194                     	;(g_GameMTNearEnd)
 1195                     			.if_top	0fb2h,?BOL13,1,114
 1196  5526     AD 00 18    			lda	_g_GameMTNearEnd
 1197  5529     D0 03       			bne	+3
 1198  552B     4C 39 55    			jmp	?BOL13
 1199         4315 552E   	?PLC14:		.equal	$
 1200                     			.c_end	0fc4h,114
 1201                     	;GameMTReNewR()
 1202                     			.c_start  0fb2h,114
 1203  552E     A2 57       			ldx	#.low.&GameMTReNewR
 1204  5530     86 26       			stx	__addr_reg
 1205  5532     A2 90       			ldx	#.high.&GameMTReNewR+1
 1206  5534     86 27       			stx	__addr_reg+1
 1207                     			.bf_call
 1208  5536     20 F6 D2    			jsr	__banked_function_call
 1209                     			.c_end	0fd3h,114
 1210                     	;;
 1211                     	;					
 1212                     	;return
 1213         3716 5539   	?BOL13:		.equal	$
 1214                     			.c_start  0fdbh,115
 1215  5539     4C DA 83    			jmp	?BOF0
 1216                     			.c_end	0fe1h,115
 1217                     	;default:
 1218                     	;					
 1219         3A16 553C   	?SWL8:		.equal	$
 1220                     	;return
 1221                     			.c_start  0ff6h,117
 1222  553C     4C DA 83    			jmp	?BOF0
 1223                     			.c_end	0ffch,117
 1224                     	;
 1225         4416 553F   	?BOL1:		.equal	$
 1226                     	;
 1227                     	;g_GameMTJuidgeNow=&g_GameMTCurMap[(unsigned int )g_GameMTFloor*121+g_GameMTJuidgeY*11+g_GameMTJuidgeX]
 1228                     			.c_start  01006h,119
 1229  553F     AD A7 1F    			lda	_g_GameMTFloor
 1230  5542     85 20       			sta	__oper1
 1231  5544     A9 00       			lda	#0
 1232  5546     85 21       			sta	__oper1+1
 1233  5548     A9 79       			lda	#.low.121
 1234  554A     85 23       			sta	__oper2
 1235  554C     A9 00       			lda	#.high.121
 1236  554E     85 24       			sta	__oper2+1
 1237  5550     20 F4 DC    			jsr	__uns_mult_int
  Wed Jan 14 21:35:33 2026                                                                                               Page   23




 1238  5553     A0 16       			ldy	#+0+?LSC0
 1239  5555     A5 20       			lda	__oper1
 1240  5557     91 28       			sta	(__stack_ptr),y
 1241  5559     C8          			iny
 1242  555A     A5 21       			lda	__oper1+1
 1243  555C     91 28       			sta	(__stack_ptr),y
 1244  555E     A9 0B       			lda	#11
 1245  5560     85 23       			sta	__oper2
 1246  5562     AD 12 18    			lda	_g_GameMTJuidgeY
 1247  5565     20 EF DC    			jsr	__uns_mult_char
 1248  5568     85 23       			sta	__oper2
 1249  556A     A2 00       			ldx	#0
 1250  556C     86 24       			stx	__oper2+1
 1251  556E     A0 16       			ldy	#+0+?LSC0
 1252  5570     B1 28       			lda	(__stack_ptr),y
 1253  5572     85 20       			sta	__oper1
 1254  5574     C8          			iny
 1255  5575     B1 28       			lda	(__stack_ptr),y
 1256  5577     85 21       			sta	__oper1+1
 1257  5579     18          			clc
 1258  557A     A5 20       			lda	__oper1
 1259  557C     65 23       			adc	__oper2
 1260  557E     85 20       			sta	__oper1
 1261  5580     A5 21       			lda	__oper1+1
 1262  5582     65 24       			adc	__oper2+1
 1263  5584     85 21       			sta	__oper1+1
 1264  5586     A5 20       			lda	__oper1
 1265  5588     85 23       			sta	__oper2
 1266  558A     A5 21       			lda	__oper1+1
 1267  558C     85 24       			sta	__oper2+1
 1268  558E     AD 11 18    			lda	_g_GameMTJuidgeX
 1269  5591     85 20       			sta	__oper1
 1270  5593     A9 00       			lda	#0
 1271  5595     85 21       			sta	__oper1+1
 1272  5597     18          			clc
 1273  5598     A5 20       			lda	__oper1
 1274  559A     65 23       			adc	__oper2
 1275  559C     85 20       			sta	__oper1
 1276  559E     A5 21       			lda	__oper1+1
 1277  55A0     65 24       			adc	__oper2+1
 1278  55A2     85 21       			sta	__oper1+1
 1279  55A4     18          			clc
 1280  55A5     AD A8 1F    			lda	_g_GameMTCurMap
 1281  55A8     65 20       			adc	__oper1
 1282  55AA     85 20       			sta	__oper1
 1283  55AC     AD A9 1F    			lda	_g_GameMTCurMap+1
 1284  55AF     65 21       			adc	__oper1+1
 1285  55B1     85 21       			sta	__oper1+1
 1286  55B3     A0 16       			ldy	#+0+?LSC0
 1287  55B5     A5 20       			lda	__oper1
 1288  55B7     91 28       			sta	(__stack_ptr),y
 1289  55B9     C8          			iny
 1290  55BA     A5 21       			lda	__oper1+1
 1291  55BC     91 28       			sta	(__stack_ptr),y
 1292  55BE     A0 16       			ldy	#+0+?LSC0
 1293  55C0     B1 28       			lda	(__stack_ptr),y
 1294  55C2     85 20       			sta	__oper1
  Wed Jan 14 21:35:33 2026                                                                                               Page   24




 1295  55C4     C8          			iny
 1296  55C5     B1 28       			lda	(__stack_ptr),y
 1297  55C7     85 21       			sta	__oper1+1
 1298  55C9     A0 00       			ldy	#-22+?LSC0
 1299  55CB     A5 20       			lda	__oper1
 1300  55CD     91 28       			sta	(__stack_ptr),y
 1301  55CF     C8          			iny
 1302  55D0     A5 21       			lda	__oper1+1
 1303  55D2     91 28       			sta	(__stack_ptr),y
 1304                     			.c_end	01062h,119
 1305                     	;(*g_GameMTJuidgeNow)
 1306                     	;		
 1307                     			.c_start  01067h,120
 1308  55D4     A0 00       			ldy	#-22+?LSC0
 1309  55D6     B1 28       			lda	(__stack_ptr),y
 1310  55D8     AA          			tax
 1311  55D9     C8          			iny
 1312  55DA     B1 28       			lda	(__stack_ptr),y
 1313  55DC     85 27       			sta	__addr_reg+1
 1314  55DE     86 26       			stx	__addr_reg
 1315  55E0     A0 00       			ldy	#0
 1316  55E2     B1 26       			lda	(__addr_reg),y
 1317  55E4     85 23       			sta	__oper2
 1318  55E6     A2 00       			ldx	#0
 1319  55E8     86 24       			stx	__oper2+1
 1320         3928 55EA   	?PLC15:		.equal	$
 1321                     			.c_end	01082h,121
 1322                     	;
 1323                     			.sw_start
 1324                     			.const_data_psfar3
 1325  8CD7     0100        	?CGL2:	.word	1
 1326  8CD9     0200        			.word	2
 1327  8CDB     0300        			.word	3
 1328  8CDD     0400        			.word	4
 1329  8CDF     0500        			.word	5
 1330  8CE1     0600        			.word	6
 1331  8CE3     0700        			.word	7
 1332  8CE5     0800        			.word	8
 1333  8CE7     0900        			.word	9
 1334  8CE9     0A00        			.word	10
 1335  8CEB     0B00        			.word	11
 1336  8CED     0C00        			.word	12
 1337  8CEF     0D00        			.word	13
 1338  8CF1     0E00        			.word	14
 1339  8CF3     0F00        			.word	15
 1340  8CF5     1000        			.word	16
 1341  8CF7     1100        			.word	17
 1342  8CF9     1200        			.word	18
 1343  8CFB     1300        			.word	19
 1344  8CFD     1400        			.word	20
 1345  8CFF     1500        			.word	21
 1346  8D01     1600        			.word	22
 1347  8D03     1700        			.word	23
 1348  8D05     1800        			.word	24
 1349  8D07     1900        			.word	25
 1350  8D09     1A00        			.word	26
 1351  8D0B     1B00        			.word	27
  Wed Jan 14 21:35:33 2026                                                                                               Page   25




 1352  8D0D     1C00        			.word	28
 1353  8D0F     1D00        			.word	29
 1354  8D11     1E00        			.word	30
 1355  8D13     1F00        			.word	31
 1356  8D15     2000        			.word	32
 1357  8D17     2100        			.word	33
 1358  8D19     2200        			.word	34
 1359  8D1B     2300        			.word	35
 1360  8D1D     2400        			.word	36
 1361  8D1F     2500        			.word	37
 1362  8D21     3900        			.word	57
 1363  8D23     2F00        			.word	47
 1364  8D25     2600        			.word	38
 1365  8D27     2700        			.word	39
 1366  8D29     2800        			.word	40
 1367  8D2B     2900        			.word	41
 1368  8D2D     2A00        			.word	42
 1369  8D2F     2B00        			.word	43
 1370  8D31     2C00        			.word	44
 1371  8D33     2D00        			.word	45
 1372  8D35     2E00        			.word	46
 1373  8D37     3000        			.word	48
 1374  8D39     3100        			.word	49
 1375  8D3B     3200        			.word	50
 1376  8D3D     3300        			.word	51
 1377  8D3F     3400        			.word	52
 1378  8D41     3500        			.word	53
 1379  8D43     3600        			.word	54
 1380  8D45     3700        			.word	55
 1381  8D47     3800        			.word	56
 1382  8D49     3A00        			.word	58
 1383  8D4B     3B00        			.word	59
 1384  8D4D     3C00        			.word	60
 1385  8D4F     3D00        			.word	61
 1386  8D51     3E00        			.word	62
 1387  8D53     3F00        			.word	63
 1388  8D55     4000        			.word	64
 1389  8D57     4100        			.word	65
 1390  8D59     4200        			.word	66
 1391  8D5B     4300        			.word	67
 1392  8D5D     4400        			.word	68
 1393  8D5F     4500        			.word	69
 1394  8D61     4600        			.word	70
 1395  8D63     4700        			.word	71
 1396  8D65     0156        	?CGL3:	.word	?SWL9
 1397                     			.sw_case ?SWL9
 1398  8D67     C956        			.word	?SWL10
 1399                     			.sw_case ?SWL10
 1400  8D69     9157        			.word	?SWL11
 1401                     			.sw_case ?SWL11
 1402  8D6B     5958        			.word	?SWL12
 1403                     			.sw_case ?SWL12
 1404  8D6D     0A59        			.word	?SWL13
 1405                     			.sw_case ?SWL13
 1406  8D6F     0D59        			.word	?SWL14
 1407                     			.sw_case ?SWL14
 1408  8D71     3859        			.word	?SWL15
  Wed Jan 14 21:35:33 2026                                                                                               Page   26




 1409                     			.sw_case ?SWL15
 1410  8D73     3B59        			.word	?SWL16
 1411                     			.sw_case ?SWL16
 1412  8D75     6259        			.word	?SWL17
 1413                     			.sw_case ?SWL17
 1414  8D77     1D5A        			.word	?SWL18
 1415                     			.sw_case ?SWL18
 1416  8D79     1D5A        			.word	?SWL19
 1417                     			.sw_case ?SWL19
 1418  8D7B     205A        			.word	?SWL20
 1419                     			.sw_case ?SWL20
 1420  8D7D     2D5E        			.word	?SWL21
 1421                     			.sw_case ?SWL21
 1422  8D7F     D464        			.word	?SWL22
 1423                     			.sw_case ?SWL22
 1424  8D81     E768        			.word	?SWL23
 1425                     			.sw_case ?SWL23
 1426  8D83     466C        			.word	?SWL24
 1427                     			.sw_case ?SWL24
 1428  8D85     2A73        			.word	?SWL25
 1429                     			.sw_case ?SWL25
 1430  8D87     E673        			.word	?SWL26
 1431                     			.sw_case ?SWL26
 1432  8D89     2F74        			.word	?SWL27
 1433                     			.sw_case ?SWL27
 1434  8D8B     A474        			.word	?SWL28
 1435                     			.sw_case ?SWL28
 1436  8D8D     1975        			.word	?SWL29
 1437                     			.sw_case ?SWL29
 1438  8D8F     8E75        			.word	?SWL30
 1439                     			.sw_case ?SWL30
 1440  8D91     4576        			.word	?SWL31
 1441                     			.sw_case ?SWL31
 1442  8D93     FC76        			.word	?SWL32
 1443                     			.sw_case ?SWL32
 1444  8D95     4577        			.word	?SWL33
 1445                     			.sw_case ?SWL33
 1446  8D97     BF77        			.word	?SWL34
 1447                     			.sw_case ?SWL34
 1448  8D99     3478        			.word	?SWL35
 1449                     			.sw_case ?SWL35
 1450  8D9B     A978        			.word	?SWL36
 1451                     			.sw_case ?SWL36
 1452  8D9D     6E79        			.word	?SWL37
 1453                     			.sw_case ?SWL37
 1454  8D9F     2A7A        			.word	?SWL38
 1455                     			.sw_case ?SWL38
 1456  8DA1     9F7A        			.word	?SWL39
 1457                     			.sw_case ?SWL39
 1458  8DA3     E87A        			.word	?SWL40
 1459                     			.sw_case ?SWL40
 1460  8DA5     317B        			.word	?SWL41
 1461                     			.sw_case ?SWL41
 1462  8DA7     A77B        			.word	?SWL42
 1463                     			.sw_case ?SWL42
 1464  8DA9     1D7C        			.word	?SWL43
 1465                     			.sw_case ?SWL43
  Wed Jan 14 21:35:33 2026                                                                                               Page   27




 1466  8DAB     937C        			.word	?SWL44
 1467                     			.sw_case ?SWL44
 1468  8DAD     4D7D        			.word	?SWL45
 1469                     			.sw_case ?SWL45
 1470  8DAF     127E        			.word	?SWL46
 1471                     			.sw_case ?SWL46
 1472  8DB1     3882        			.word	?SWL47
 1473                     			.sw_case ?SWL47
 1474  8DB3     FB82        			.word	?SWL48
 1475                     			.sw_case ?SWL48
 1476  8DB5     FB82        			.word	?SWL49
 1477                     			.sw_case ?SWL49
 1478  8DB7     FB82        			.word	?SWL50
 1479                     			.sw_case ?SWL50
 1480  8DB9     FB82        			.word	?SWL51
 1481                     			.sw_case ?SWL51
 1482  8DBB     FB82        			.word	?SWL52
 1483                     			.sw_case ?SWL52
 1484  8DBD     FB82        			.word	?SWL53
 1485                     			.sw_case ?SWL53
 1486  8DBF     FB82        			.word	?SWL54
 1487                     			.sw_case ?SWL54
 1488  8DC1     FB82        			.word	?SWL55
 1489                     			.sw_case ?SWL55
 1490  8DC3     FB82        			.word	?SWL56
 1491                     			.sw_case ?SWL56
 1492  8DC5     FB82        			.word	?SWL57
 1493                     			.sw_case ?SWL57
 1494  8DC7     FB82        			.word	?SWL58
 1495                     			.sw_case ?SWL58
 1496  8DC9     FB82        			.word	?SWL59
 1497                     			.sw_case ?SWL59
 1498  8DCB     FB82        			.word	?SWL60
 1499                     			.sw_case ?SWL60
 1500  8DCD     FB82        			.word	?SWL61
 1501                     			.sw_case ?SWL61
 1502  8DCF     FB82        			.word	?SWL62
 1503                     			.sw_case ?SWL62
 1504  8DD1     FB82        			.word	?SWL63
 1505                     			.sw_case ?SWL63
 1506  8DD3     FB82        			.word	?SWL64
 1507                     			.sw_case ?SWL64
 1508  8DD5     FB82        			.word	?SWL65
 1509                     			.sw_case ?SWL65
 1510  8DD7     FB82        			.word	?SWL66
 1511                     			.sw_case ?SWL66
 1512  8DD9     FB82        			.word	?SWL67
 1513                     			.sw_case ?SWL67
 1514  8DDB     FB82        			.word	?SWL68
 1515                     			.sw_case ?SWL68
 1516  8DDD     FB82        			.word	?SWL69
 1517                     			.sw_case ?SWL69
 1518  8DDF     FB82        			.word	?SWL70
 1519                     			.sw_case ?SWL70
 1520  8DE1     FB82        			.word	?SWL71
 1521                     			.sw_case ?SWL71
 1522  8DE3     FB82        			.word	?SWL72
  Wed Jan 14 21:35:33 2026                                                                                               Page   28




 1523                     			.sw_case ?SWL72
 1524  8DE5     FB82        			.word	?SWL73
 1525                     			.sw_case ?SWL73
 1526  8DE7     FB82        			.word	?SWL74
 1527                     			.sw_case ?SWL74
 1528  8DE9     FB82        			.word	?SWL75
 1529                     			.sw_case ?SWL75
 1530  8DEB     FB82        			.word	?SWL76
 1531                     			.sw_case ?SWL76
 1532  8DED     1C83        			.word	?SWL77
 1533                     			.sw_case ?SWL77
 1534  8DEF     1F83        			.word	?SWL78
 1535                     			.sw_case ?SWL78
 1536  8DF1     4F83        			.word	?SWL79
 1537                     			.sw_case ?SWL79
 1538                     			.program_psfar3
 1539  55EA     A9 D7       			lda	#.low.?CGL2
 1540  55EC     85 26       			sta	__addr_reg
 1541  55EE     A9 8C       			lda	#.high.?CGL2
 1542  55F0     85 27       			sta	__addr_reg+1
 1543                     			.sw_case ?SWL80
 1544  55F2     A2 47       			ldx	#.low.71
 1545  55F4     A0 00       			ldy	#.high.71
 1546  55F6     A9 C4       			lda	#.low.?SWL80
 1547  55F8     85 20       			sta	__oper1
 1548  55FA     A9 83       			lda	#.high.?SWL80
 1549  55FC     85 21       			sta	__oper1+1
 1550  55FE     4C 5C DB    			jmp	__switch_comparison
 1551                     			.sw_end
 1552                     	;case	1:
 1553                     	;				
 1554         4629 5601   	?SWL9:		.equal	$
 1555                     	;(g_GameMTKey[0]+1>1)
 1556                     	;				
 1557                     			.if_top	01098h,?BOL15,1,123
 1558  5601     AD 93 1F    			lda	_g_GameMTKey+0
 1559  5604     18          			clc
 1560  5605     69 01       			adc	#1
 1561  5607     38          			sec
 1562  5608     E9 01       			sbc	#1
 1563  560A     B0 03       			bcs	+3
 1564  560C     4C 57 56    			jmp	?BOL15
 1565  560F     D0 03       			bne	+3
 1566  5611     4C 57 56    			jmp	?BOL15
 1567         3214 5614   	?PLC16:		.equal	$
 1568                     			.c_end	010afh,124
 1569                     	;GameMTOpenDoor()
 1570                     			.c_start  010bch,125
 1571  5614     A2 3F       			ldx	#.low.&GameMTOpenDoor
 1572  5616     86 26       			stx	__addr_reg
 1573  5618     A2 90       			ldx	#.high.&GameMTOpenDoor+1
 1574  561A     86 27       			stx	__addr_reg+1
 1575                     			.bf_call
 1576  561C     20 F6 D2    			jsr	__banked_function_call
 1577                     			.c_end	010cch,125
 1578                     	;g_GameMTKey[0]--
 1579                     			.c_start  010d4h,126
  Wed Jan 14 21:35:33 2026                                                                                               Page   29




 1580  561F     A9 93       			lda	#.low._g_GameMTKey+0
 1581  5621     85 20       			sta	__oper1
 1582  5623     A9 1F       			lda	#.high._g_GameMTKey+0
 1583  5625     85 21       			sta	__oper1+1
 1584  5627     A0 00       			ldy	#0
 1585  5629     B1 20       			lda	(__oper1),y
 1586  562B     38          			sec
 1587  562C     E9 01       			sbc	#1
 1588  562E     91 20       			sta	(__oper1),y
 1589                     			.c_end	010e4h,126
 1590                     	;*g_GameMTJuidgeNow=0
 1591                     			.c_start  010ech,127
 1592  5630     A0 00       			ldy	#-22+?LSC0
 1593  5632     B1 28       			lda	(__stack_ptr),y
 1594  5634     85 20       			sta	__oper1
 1595  5636     C8          			iny
 1596  5637     B1 28       			lda	(__stack_ptr),y
 1597  5639     85 21       			sta	__oper1+1
 1598  563B     A5 20       			lda	__oper1
 1599  563D     85 23       			sta	__oper2
 1600  563F     A5 21       			lda	__oper1+1
 1601  5641     85 24       			sta	__oper2+1
 1602  5643     A9 00       			lda	#0
 1603  5645     A0 00       			ldy	#0
 1604  5647     91 23       			sta	(__oper2),y
 1605                     			.c_end	01100h,127
 1606                     	;GameMTReNewR()
 1607                     			.c_start  01108h,128
 1608  5649     A2 57       			ldx	#.low.&GameMTReNewR
 1609  564B     86 26       			stx	__addr_reg
 1610  564D     A2 90       			ldx	#.high.&GameMTReNewR+1
 1611  564F     86 27       			stx	__addr_reg+1
 1612                     			.bf_call
 1613  5651     20 F6 D2    			jsr	__banked_function_call
 1614                     			.c_end	01116h,128
 1615                     	;
 1616                     	;else
 1617                     	;				
 1618  5654     4C C6 56    			jmp	?EOI15
 1619                     			.if_else  ?EOI15,1,131
 1620         3518 5657   	?BOL15:		.equal	$
 1621                     	;SysMemcpy(temp,"  1\0",14)
 1622                     			.c_start  01136h,132
 1623                     			.const_data_psfar3
 1624  8DF3     20 20 D0 E8 D2 	?PLC17:		.byte	"  1",0o,0
              AA 31 BA C5 D4 
              BF B3 D7 00 00 
 1625                     			.program_psfar3
 1626  5657     A9 0E       			lda	#.low.14
 1627  5659     85 20       			sta	__oper1
 1628  565B     A9 00       			lda	#.high.14
 1629  565D     85 21       			sta	__oper1+1
 1630  565F     20 CA DA    			jsr	__store_int_funct_arg
 1631  5662     A9 F3       			lda	#.low.?PLC17
 1632  5664     85 20       			sta	__oper1
 1633  5666     A9 8D       			lda	#.high.?PLC17
 1634  5668     85 21       			sta	__oper1+1
  Wed Jan 14 21:35:33 2026                                                                                               Page   30




 1635  566A     20 CA DA    			jsr	__store_int_funct_arg
 1636  566D     18          			clc
 1637  566E     A5 28       			lda	__stack_ptr
 1638  5670     69 06       			adc	#.low.-20+?LSC0+4
 1639  5672     85 20       			sta	__oper1
 1640  5674     A5 29       			lda	__stack_ptr+1
 1641  5676     69 00       			adc	#.high.-20+?LSC0+4
 1642  5678     85 21       			sta	__oper1+1
 1643  567A     20 CA DA    			jsr	__store_int_funct_arg
 1644                     			.f_call	_SysMemcpy
 1645  567D     20 01 E9    			jsr	_SysMemcpy
 1646  5680     08          			php
 1647  5681     78          			sei
 1648  5682     18          			clc
 1649  5683     A5 28       			lda	__stack_ptr
 1650  5685     69 06       			adc	#.low.6
 1651  5687     85 28       			sta	__stack_ptr
 1652  5689     A5 29       			lda	__stack_ptr+1
 1653  568B     69 00       			adc	#.high.6
 1654  568D     85 29       			sta	__stack_ptr+1
 1655  568F     28          			plp
 1656                     			.c_end	0115ah,132
 1657                     	;GuiMsgBox(temp,50)
 1658                     			.c_start  01162h,133
 1659  5690     A9 32       			lda	#.low.50
 1660  5692     85 20       			sta	__oper1
 1661  5694     A9 00       			lda	#.high.50
 1662  5696     85 21       			sta	__oper1+1
 1663  5698     20 CA DA    			jsr	__store_int_funct_arg
 1664  569B     18          			clc
 1665  569C     A5 28       			lda	__stack_ptr
 1666  569E     69 04       			adc	#.low.-20+?LSC0+2
 1667  56A0     85 20       			sta	__oper1
 1668  56A2     A5 29       			lda	__stack_ptr+1
 1669  56A4     69 00       			adc	#.high.-20+?LSC0+2
 1670  56A6     85 21       			sta	__oper1+1
 1671  56A8     20 CA DA    			jsr	__store_int_funct_arg
 1672  56AB     A2 53       			ldx	#.low.&GuiMsgBox
 1673  56AD     86 26       			stx	__addr_reg
 1674  56AF     A2 E9       			ldx	#.high.&GuiMsgBox+1
 1675  56B1     86 27       			stx	__addr_reg+1
 1676                     			.bf_call
 1677  56B3     20 F6 D2    			jsr	__banked_function_call
 1678  56B6     08          			php
 1679  56B7     78          			sei
 1680  56B8     18          			clc
 1681  56B9     A5 28       			lda	__stack_ptr
 1682  56BB     69 04       			adc	#.low.4
 1683  56BD     85 28       			sta	__stack_ptr
 1684  56BF     A5 29       			lda	__stack_ptr+1
 1685  56C1     69 00       			adc	#.high.4
 1686  56C3     85 29       			sta	__stack_ptr+1
 1687  56C5     28          			plp
 1688                     			.c_end	01174h,133
 1689                     	;
 1690         3626 56C6   	?EOI15:		.equal	$
 1691                     	;break;
  Wed Jan 14 21:35:33 2026                                                                                               Page   31




 1692                     	;			
 1693                     			.sw_break
 1694  56C6     4C CF 83    			jmp	?BOL14
 1695                     	;case	2:
 1696                     	;				
 1697         3726 56C9   	?SWL10:		.equal	$
 1698                     	;(g_GameMTKey[1]+1>1)
 1699                     	;				
 1700                     			.if_top	0119ah,?BOL16,1,137
 1701  56C9     AD 94 1F    			lda	_g_GameMTKey+1
 1702  56CC     18          			clc
 1703  56CD     69 01       			adc	#1
 1704  56CF     38          			sec
 1705  56D0     E9 01       			sbc	#1
 1706  56D2     B0 03       			bcs	+3
 1707  56D4     4C 1F 57    			jmp	?BOL16
 1708  56D7     D0 03       			bne	+3
 1709  56D9     4C 1F 57    			jmp	?BOL16
 1710         3A27 56DC   	?PLC18:		.equal	$
 1711                     			.c_end	011b1h,138
 1712                     	;GameMTOpenDoor()
 1713                     			.c_start  011beh,139
 1714  56DC     A2 3F       			ldx	#.low.&GameMTOpenDoor
 1715  56DE     86 26       			stx	__addr_reg
 1716  56E0     A2 90       			ldx	#.high.&GameMTOpenDoor+1
 1717  56E2     86 27       			stx	__addr_reg+1
 1718                     			.bf_call
 1719  56E4     20 F6 D2    			jsr	__banked_function_call
 1720                     			.c_end	011ceh,139
 1721                     	;g_GameMTKey[1]--
 1722                     			.c_start  011d6h,140
 1723  56E7     A9 94       			lda	#.low._g_GameMTKey+1
 1724  56E9     85 20       			sta	__oper1
 1725  56EB     A9 1F       			lda	#.high._g_GameMTKey+1
 1726  56ED     85 21       			sta	__oper1+1
 1727  56EF     A0 00       			ldy	#0
 1728  56F1     B1 20       			lda	(__oper1),y
 1729  56F3     38          			sec
 1730  56F4     E9 01       			sbc	#1
 1731  56F6     91 20       			sta	(__oper1),y
 1732                     			.c_end	011e6h,140
 1733                     	;*g_GameMTJuidgeNow=0
 1734                     			.c_start  011eeh,141
 1735  56F8     A0 00       			ldy	#-22+?LSC0
 1736  56FA     B1 28       			lda	(__stack_ptr),y
 1737  56FC     85 20       			sta	__oper1
 1738  56FE     C8          			iny
 1739  56FF     B1 28       			lda	(__stack_ptr),y
 1740  5701     85 21       			sta	__oper1+1
 1741  5703     A5 20       			lda	__oper1
 1742  5705     85 23       			sta	__oper2
 1743  5707     A5 21       			lda	__oper1+1
 1744  5709     85 24       			sta	__oper2+1
 1745  570B     A9 00       			lda	#0
 1746  570D     A0 00       			ldy	#0
 1747  570F     91 23       			sta	(__oper2),y
 1748                     			.c_end	01202h,141
  Wed Jan 14 21:35:33 2026                                                                                               Page   32




 1749                     	;GameMTReNewR()
 1750                     			.c_start  0120ah,142
 1751  5711     A2 57       			ldx	#.low.&GameMTReNewR
 1752  5713     86 26       			stx	__addr_reg
 1753  5715     A2 90       			ldx	#.high.&GameMTReNewR+1
 1754  5717     86 27       			stx	__addr_reg+1
 1755                     			.bf_call
 1756  5719     20 F6 D2    			jsr	__banked_function_call
 1757                     			.c_end	01218h,142
 1758                     	;
 1759                     	;else
 1760                     	;				
 1761  571C     4C 8E 57    			jmp	?EOI16
 1762                     			.if_else  ?EOI16,1,145
 1763         4414 571F   	?BOL16:		.equal	$
 1764                     	;SysMemcpy(temp,"  2\0",14)
 1765                     			.c_start  01238h,146
 1766                     			.const_data_psfar3
 1767  8E02     20 20 D0 E8 D2 	?PLC19:		.byte	"  2",0o,0
              AA 32 BA C5 D4 
              BF B3 D7 00 00 
 1768                     			.program_psfar3
 1769  571F     A9 0E       			lda	#.low.14
 1770  5721     85 20       			sta	__oper1
 1771  5723     A9 00       			lda	#.high.14
 1772  5725     85 21       			sta	__oper1+1
 1773  5727     20 CA DA    			jsr	__store_int_funct_arg
 1774  572A     A9 02       			lda	#.low.?PLC19
 1775  572C     85 20       			sta	__oper1
 1776  572E     A9 8E       			lda	#.high.?PLC19
 1777  5730     85 21       			sta	__oper1+1
 1778  5732     20 CA DA    			jsr	__store_int_funct_arg
 1779  5735     18          			clc
 1780  5736     A5 28       			lda	__stack_ptr
 1781  5738     69 06       			adc	#.low.-20+?LSC0+4
 1782  573A     85 20       			sta	__oper1
 1783  573C     A5 29       			lda	__stack_ptr+1
 1784  573E     69 00       			adc	#.high.-20+?LSC0+4
 1785  5740     85 21       			sta	__oper1+1
 1786  5742     20 CA DA    			jsr	__store_int_funct_arg
 1787                     			.f_call	_SysMemcpy
 1788  5745     20 01 E9    			jsr	_SysMemcpy
 1789  5748     08          			php
 1790  5749     78          			sei
 1791  574A     18          			clc
 1792  574B     A5 28       			lda	__stack_ptr
 1793  574D     69 06       			adc	#.low.6
 1794  574F     85 28       			sta	__stack_ptr
 1795  5751     A5 29       			lda	__stack_ptr+1
 1796  5753     69 00       			adc	#.high.6
 1797  5755     85 29       			sta	__stack_ptr+1
 1798  5757     28          			plp
 1799                     			.c_end	0125ch,146
 1800                     	;GuiMsgBox(temp,50)
 1801                     			.c_start  01264h,147
 1802  5758     A9 32       			lda	#.low.50
 1803  575A     85 20       			sta	__oper1
  Wed Jan 14 21:35:33 2026                                                                                               Page   33




 1804  575C     A9 00       			lda	#.high.50
 1805  575E     85 21       			sta	__oper1+1
 1806  5760     20 CA DA    			jsr	__store_int_funct_arg
 1807  5763     18          			clc
 1808  5764     A5 28       			lda	__stack_ptr
 1809  5766     69 04       			adc	#.low.-20+?LSC0+2
 1810  5768     85 20       			sta	__oper1
 1811  576A     A5 29       			lda	__stack_ptr+1
 1812  576C     69 00       			adc	#.high.-20+?LSC0+2
 1813  576E     85 21       			sta	__oper1+1
 1814  5770     20 CA DA    			jsr	__store_int_funct_arg
 1815  5773     A2 53       			ldx	#.low.&GuiMsgBox
 1816  5775     86 26       			stx	__addr_reg
 1817  5777     A2 E9       			ldx	#.high.&GuiMsgBox+1
 1818  5779     86 27       			stx	__addr_reg+1
 1819                     			.bf_call
 1820  577B     20 F6 D2    			jsr	__banked_function_call
 1821  577E     08          			php
 1822  577F     78          			sei
 1823  5780     18          			clc
 1824  5781     A5 28       			lda	__stack_ptr
 1825  5783     69 04       			adc	#.low.4
 1826  5785     85 28       			sta	__stack_ptr
 1827  5787     A5 29       			lda	__stack_ptr+1
 1828  5789     69 00       			adc	#.high.4
 1829  578B     85 29       			sta	__stack_ptr+1
 1830  578D     28          			plp
 1831                     			.c_end	01276h,147
 1832                     	;
 1833         451B 578E   	?EOI16:		.equal	$
 1834                     	;break;
 1835                     	;			
 1836                     			.sw_break
 1837  578E     4C CF 83    			jmp	?BOL14
 1838                     	;case	3:
 1839                     	;				
 1840         461B 5791   	?SWL11:		.equal	$
 1841                     	;(g_GameMTKey[2]+1>1)
 1842                     	;				
 1843                     			.if_top	0129ch,?BOL17,1,151
 1844  5791     AD 95 1F    			lda	_g_GameMTKey+2
 1845  5794     18          			clc
 1846  5795     69 01       			adc	#1
 1847  5797     38          			sec
 1848  5798     E9 01       			sbc	#1
 1849  579A     B0 03       			bcs	+3
 1850  579C     4C E7 57    			jmp	?BOL17
 1851  579F     D0 03       			bne	+3
 1852  57A1     4C E7 57    			jmp	?BOL17
 1853         3224 57A4   	?PLC20:		.equal	$
 1854                     			.c_end	012b3h,152
 1855                     	;GameMTOpenDoor()
 1856                     			.c_start  012c0h,153
 1857  57A4     A2 3F       			ldx	#.low.&GameMTOpenDoor
 1858  57A6     86 26       			stx	__addr_reg
 1859  57A8     A2 90       			ldx	#.high.&GameMTOpenDoor+1
 1860  57AA     86 27       			stx	__addr_reg+1
  Wed Jan 14 21:35:33 2026                                                                                               Page   34




 1861                     			.bf_call
 1862  57AC     20 F6 D2    			jsr	__banked_function_call
 1863                     			.c_end	012d0h,153
 1864                     	;g_GameMTKey[2]--
 1865                     			.c_start  012d8h,154
 1866  57AF     A9 95       			lda	#.low._g_GameMTKey+2
 1867  57B1     85 20       			sta	__oper1
 1868  57B3     A9 1F       			lda	#.high._g_GameMTKey+2
 1869  57B5     85 21       			sta	__oper1+1
 1870  57B7     A0 00       			ldy	#0
 1871  57B9     B1 20       			lda	(__oper1),y
 1872  57BB     38          			sec
 1873  57BC     E9 01       			sbc	#1
 1874  57BE     91 20       			sta	(__oper1),y
 1875                     			.c_end	012e8h,154
 1876                     	;*g_GameMTJuidgeNow=0
 1877                     			.c_start  012f0h,155
 1878  57C0     A0 00       			ldy	#-22+?LSC0
 1879  57C2     B1 28       			lda	(__stack_ptr),y
 1880  57C4     85 20       			sta	__oper1
 1881  57C6     C8          			iny
 1882  57C7     B1 28       			lda	(__stack_ptr),y
 1883  57C9     85 21       			sta	__oper1+1
 1884  57CB     A5 20       			lda	__oper1
 1885  57CD     85 23       			sta	__oper2
 1886  57CF     A5 21       			lda	__oper1+1
 1887  57D1     85 24       			sta	__oper2+1
 1888  57D3     A9 00       			lda	#0
 1889  57D5     A0 00       			ldy	#0
 1890  57D7     91 23       			sta	(__oper2),y
 1891                     			.c_end	01304h,155
 1892                     	;GameMTReNewR()
 1893                     			.c_start  0130ch,156
 1894  57D9     A2 57       			ldx	#.low.&GameMTReNewR
 1895  57DB     86 26       			stx	__addr_reg
 1896  57DD     A2 90       			ldx	#.high.&GameMTReNewR+1
 1897  57DF     86 27       			stx	__addr_reg+1
 1898                     			.bf_call
 1899  57E1     20 F6 D2    			jsr	__banked_function_call
 1900                     			.c_end	0131ah,156
 1901                     	;
 1902                     	;else
 1903                     	;				
 1904  57E4     4C 56 58    			jmp	?EOI17
 1905                     			.if_else  ?EOI17,1,159
 1906         3528 57E7   	?BOL17:		.equal	$
 1907                     	;SysMemcpy(temp,"  3\0",14)
 1908                     			.c_start  0133ah,160
 1909                     			.const_data_psfar3
 1910  8E11     20 20 D0 E8 D2 	?PLC21:		.byte	"  3",0o,0
              AA 33 BA C5 D4 
              BF B3 D7 00 00 
 1911                     			.program_psfar3
 1912  57E7     A9 0E       			lda	#.low.14
 1913  57E9     85 20       			sta	__oper1
 1914  57EB     A9 00       			lda	#.high.14
 1915  57ED     85 21       			sta	__oper1+1
  Wed Jan 14 21:35:33 2026                                                                                               Page   35




 1916  57EF     20 CA DA    			jsr	__store_int_funct_arg
 1917  57F2     A9 11       			lda	#.low.?PLC21
 1918  57F4     85 20       			sta	__oper1
 1919  57F6     A9 8E       			lda	#.high.?PLC21
 1920  57F8     85 21       			sta	__oper1+1
 1921  57FA     20 CA DA    			jsr	__store_int_funct_arg
 1922  57FD     18          			clc
 1923  57FE     A5 28       			lda	__stack_ptr
 1924  5800     69 06       			adc	#.low.-20+?LSC0+4
 1925  5802     85 20       			sta	__oper1
 1926  5804     A5 29       			lda	__stack_ptr+1
 1927  5806     69 00       			adc	#.high.-20+?LSC0+4
 1928  5808     85 21       			sta	__oper1+1
 1929  580A     20 CA DA    			jsr	__store_int_funct_arg
 1930                     			.f_call	_SysMemcpy
 1931  580D     20 01 E9    			jsr	_SysMemcpy
 1932  5810     08          			php
 1933  5811     78          			sei
 1934  5812     18          			clc
 1935  5813     A5 28       			lda	__stack_ptr
 1936  5815     69 06       			adc	#.low.6
 1937  5817     85 28       			sta	__stack_ptr
 1938  5819     A5 29       			lda	__stack_ptr+1
 1939  581B     69 00       			adc	#.high.6
 1940  581D     85 29       			sta	__stack_ptr+1
 1941  581F     28          			plp
 1942                     			.c_end	0135eh,160
 1943                     	;GuiMsgBox(temp,50)
 1944                     			.c_start  01366h,161
 1945  5820     A9 32       			lda	#.low.50
 1946  5822     85 20       			sta	__oper1
 1947  5824     A9 00       			lda	#.high.50
 1948  5826     85 21       			sta	__oper1+1
 1949  5828     20 CA DA    			jsr	__store_int_funct_arg
 1950  582B     18          			clc
 1951  582C     A5 28       			lda	__stack_ptr
 1952  582E     69 04       			adc	#.low.-20+?LSC0+2
 1953  5830     85 20       			sta	__oper1
 1954  5832     A5 29       			lda	__stack_ptr+1
 1955  5834     69 00       			adc	#.high.-20+?LSC0+2
 1956  5836     85 21       			sta	__oper1+1
 1957  5838     20 CA DA    			jsr	__store_int_funct_arg
 1958  583B     A2 53       			ldx	#.low.&GuiMsgBox
 1959  583D     86 26       			stx	__addr_reg
 1960  583F     A2 E9       			ldx	#.high.&GuiMsgBox+1
 1961  5841     86 27       			stx	__addr_reg+1
 1962                     			.bf_call
 1963  5843     20 F6 D2    			jsr	__banked_function_call
 1964  5846     08          			php
 1965  5847     78          			sei
 1966  5848     18          			clc
 1967  5849     A5 28       			lda	__stack_ptr
 1968  584B     69 04       			adc	#.low.4
 1969  584D     85 28       			sta	__stack_ptr
 1970  584F     A5 29       			lda	__stack_ptr+1
 1971  5851     69 00       			adc	#.high.4
 1972  5853     85 29       			sta	__stack_ptr+1
  Wed Jan 14 21:35:33 2026                                                                                               Page   36




 1973  5855     28          			plp
 1974                     			.c_end	01378h,161
 1975                     	;
 1976         3618 5856   	?EOI17:		.equal	$
 1977                     	;break;
 1978                     	;			
 1979                     			.sw_break
 1980  5856     4C CF 83    			jmp	?BOL14
 1981                     	;case	4:
 1982                     	;				
 1983         3718 5859   	?SWL12:		.equal	$
 1984                     	;g_GameMTFloor++
 1985                     			.c_start  0139eh,165
 1986  5859     EE A7 1F    			inc	_g_GameMTFloor
 1987                     			.c_end	013adh,165
 1988                     	;GameMTReNewR()
 1989                     			.c_start  013b4h,166
 1990  585C     A2 57       			ldx	#.low.&GameMTReNewR
 1991  585E     86 26       			stx	__addr_reg
 1992  5860     A2 90       			ldx	#.high.&GameMTReNewR+1
 1993  5862     86 27       			stx	__addr_reg+1
 1994                     			.bf_call
 1995  5864     20 F6 D2    			jsr	__banked_function_call
 1996                     			.c_end	013c2h,166
 1997                     	;(g_GameMTFloor>g_GameMTTopFloor)
 1998                     			.if_top	013c9h,?BOL18,1,167
 1999  5867     AD A7 1F    			lda	_g_GameMTFloor
 2000  586A     38          			sec
 2001  586B     ED 08 18    			sbc	_g_GameMTTopFloor
 2002  586E     B0 03       			bcs	+3
 2003  5870     4C 7E 58    			jmp	?BOL18
 2004  5873     D0 03       			bne	+3
 2005  5875     4C 7E 58    			jmp	?BOL18
 2006         361A 5878   	?PLC22:		.equal	$
 2007                     			.c_end	013eah,167
 2008                     	;g_GameMTTopFloor=g_GameMTFloor
 2009                     			.c_start  013c9h,167
 2010  5878     AD A7 1F    			lda	_g_GameMTFloor
 2011  587B     8D 08 18    			sta	_g_GameMTTopFloor
 2012                     			.c_end	01409h,167
 2013                     	;;
 2014                     	;				
 2015                     	;g_GameMTHeroX=GameMTStartPoint[g_GameMTFloor][0]
 2016         431A 587E   	?BOL18:		.equal	$
 2017                     			.c_start  01410h,168
 2018  587E     A9 04       			lda	#.low.4
 2019  5880     85 23       			sta	__oper2
 2020  5882     A9 00       			lda	#.high.4
 2021  5884     85 24       			sta	__oper2+1
 2022  5886     AD A7 1F    			lda	_g_GameMTFloor
 2023  5889     85 20       			sta	__oper1
 2024  588B     A9 00       			lda	#0
 2025  588D     85 21       			sta	__oper1+1
 2026  588F     20 AF D6    			jsr	__mult_int
 2027  5892     18          			clc
 2028  5893     A5 20       			lda	__oper1
 2029  5895     69 40       			adc	#.low._GameMTStartPoint
  Wed Jan 14 21:35:33 2026                                                                                               Page   37




 2030  5897     85 20       			sta	__oper1
 2031  5899     A5 21       			lda	__oper1+1
 2032  589B     69 BD       			adc	#.high._GameMTStartPoint
 2033  589D     85 21       			sta	__oper1+1
 2034  589F     A0 16       			ldy	#+0+?LSC0
 2035  58A1     A5 20       			lda	__oper1
 2036  58A3     91 28       			sta	(__stack_ptr),y
 2037  58A5     C8          			iny
 2038  58A6     A5 21       			lda	__oper1+1
 2039  58A8     91 28       			sta	(__stack_ptr),y
 2040  58AA     A0 16       			ldy	#+0+?LSC0
 2041  58AC     B1 28       			lda	(__stack_ptr),y
 2042  58AE     AA          			tax
 2043  58AF     C8          			iny
 2044  58B0     B1 28       			lda	(__stack_ptr),y
 2045  58B2     85 27       			sta	__addr_reg+1
 2046  58B4     86 26       			stx	__addr_reg
 2047  58B6     A0 00       			ldy	#0
 2048  58B8     B1 26       			lda	(__addr_reg),y
 2049  58BA     8D 0F 18    			sta	_g_GameMTHeroX
 2050                     			.c_end	01440h,168
 2051                     	;g_GameMTHeroY=GameMTStartPoint[g_GameMTFloor][1]
 2052                     			.c_start  01447h,169
 2053  58BD     A9 04       			lda	#.low.4
 2054  58BF     85 23       			sta	__oper2
 2055  58C1     A9 00       			lda	#.high.4
 2056  58C3     85 24       			sta	__oper2+1
 2057  58C5     AD A7 1F    			lda	_g_GameMTFloor
 2058  58C8     85 20       			sta	__oper1
 2059  58CA     A9 00       			lda	#0
 2060  58CC     85 21       			sta	__oper1+1
 2061  58CE     20 AF D6    			jsr	__mult_int
 2062  58D1     18          			clc
 2063  58D2     A5 20       			lda	__oper1
 2064  58D4     69 40       			adc	#.low._GameMTStartPoint
 2065  58D6     85 20       			sta	__oper1
 2066  58D8     A5 21       			lda	__oper1+1
 2067  58DA     69 BD       			adc	#.high._GameMTStartPoint
 2068  58DC     85 21       			sta	__oper1+1
 2069  58DE     A0 16       			ldy	#+0+?LSC0
 2070  58E0     A5 20       			lda	__oper1
 2071  58E2     91 28       			sta	(__stack_ptr),y
 2072  58E4     C8          			iny
 2073  58E5     A5 21       			lda	__oper1+1
 2074  58E7     91 28       			sta	(__stack_ptr),y
 2075  58E9     A0 16       			ldy	#+0+?LSC0
 2076  58EB     B1 28       			lda	(__stack_ptr),y
 2077  58ED     AA          			tax
 2078  58EE     C8          			iny
 2079  58EF     B1 28       			lda	(__stack_ptr),y
 2080  58F1     85 27       			sta	__addr_reg+1
 2081  58F3     86 26       			stx	__addr_reg
 2082  58F5     A0 01       			ldy	#1
 2083  58F7     B1 26       			lda	(__addr_reg),y
 2084  58F9     8D 10 18    			sta	_g_GameMTHeroY
 2085                     			.c_end	01477h,169
 2086                     	;GameMTNewFloor()
  Wed Jan 14 21:35:33 2026                                                                                               Page   38




 2087                     			.c_start  0147eh,170
 2088  58FC     A2 42       			ldx	#.low.&GameMTNewFloor
 2089  58FE     86 26       			stx	__addr_reg
 2090  5900     A2 90       			ldx	#.high.&GameMTNewFloor+1
 2091  5902     86 27       			stx	__addr_reg+1
 2092                     			.bf_call
 2093  5904     20 F6 D2    			jsr	__banked_function_call
 2094                     			.c_end	0148eh,170
 2095                     	;break;
 2096                     	;			
 2097                     			.sw_break
 2098  5907     4C CF 83    			jmp	?BOL14
 2099                     	;case	5:
 2100                     	;				
 2101         3813 590A   	?SWL13:		.equal	$
 2102                     	;break;
 2103                     	;			
 2104                     			.sw_break
 2105  590A     4C CF 83    			jmp	?BOL14
 2106                     	;case	6:
 2107                     	;				
 2108         4213 590D   	?SWL14:		.equal	$
 2109                     	;(g_GameMTFloor==3)
 2110                     			.if_top	014c5h,?BOL19,1,175
 2111  590D     AD A7 1F    			lda	_g_GameMTFloor
 2112  5910     38          			sec
 2113  5911     E9 03       			sbc	#3
 2114  5913     F0 03       			beq	+3
 2115  5915     4C 28 59    			jmp	?BOL19
 2116         3614 5918   	?PLC23:		.equal	$
 2117                     			.c_end	014d8h,175
 2118                     	;GameMTShop(5)
 2119                     			.c_start  014c5h,175
 2120  5918     A9 05       			lda	#5
 2121  591A     A2 54       			ldx	#.low.&GameMTShop
 2122  591C     86 26       			stx	__addr_reg
 2123  591E     A2 90       			ldx	#.high.&GameMTShop+1
 2124  5920     86 27       			stx	__addr_reg+1
 2125                     			.bf_call
 2126  5922     20 F6 D2    			jsr	__banked_function_call
 2127                     			.c_end	014e6h,175
 2128                     	;;
 2129                     	;				
 2130                     	;else 
 2131  5925     4C 35 59    			jmp	?EOI19
 2132                     			.if_else  ?EOI19,1,176
 2133         3615 5928   	?BOL19:		.equal	$
 2134                     	;GameMTShop(6)
 2135                     			.c_start  014f2h,176
 2136  5928     A9 06       			lda	#6
 2137  592A     A2 54       			ldx	#.low.&GameMTShop
 2138  592C     86 26       			stx	__addr_reg
 2139  592E     A2 90       			ldx	#.high.&GameMTShop+1
 2140  5930     86 27       			stx	__addr_reg+1
 2141                     			.bf_call
 2142  5932     20 F6 D2    			jsr	__banked_function_call
 2143                     			.c_end	014ffh,176
  Wed Jan 14 21:35:33 2026                                                                                               Page   39




 2144                     	;;
 2145                     	;				
 2146         3316 5935   	?EOI19:		.equal	$
 2147                     	;break;
 2148                     	;			
 2149                     			.sw_break
 2150  5935     4C CF 83    			jmp	?BOL14
 2151                     	;case	7:
 2152                     	;				
 2153         3616 5938   	?SWL15:		.equal	$
 2154                     	;break;
 2155                     	;			
 2156                     			.sw_break
 2157  5938     4C CF 83    			jmp	?BOL14
 2158                     	;case	8:
 2159                     	;				
 2160         3916 593B   	?SWL16:		.equal	$
 2161                     	;GameMTOpenDoor()
 2162                     			.c_start  01536h,181
 2163  593B     A2 3F       			ldx	#.low.&GameMTOpenDoor
 2164  593D     86 26       			stx	__addr_reg
 2165  593F     A2 90       			ldx	#.high.&GameMTOpenDoor+1
 2166  5941     86 27       			stx	__addr_reg+1
 2167                     			.bf_call
 2168  5943     20 F6 D2    			jsr	__banked_function_call
 2169                     			.c_end	01546h,181
 2170                     	;*g_GameMTJuidgeNow=0
 2171                     			.c_start  0154dh,182
 2172  5946     A0 00       			ldy	#-22+?LSC0
 2173  5948     B1 28       			lda	(__stack_ptr),y
 2174  594A     85 20       			sta	__oper1
 2175  594C     C8          			iny
 2176  594D     B1 28       			lda	(__stack_ptr),y
 2177  594F     85 21       			sta	__oper1+1
 2178  5951     A5 20       			lda	__oper1
 2179  5953     85 23       			sta	__oper2
 2180  5955     A5 21       			lda	__oper1+1
 2181  5957     85 24       			sta	__oper2+1
 2182  5959     A9 00       			lda	#0
 2183  595B     A0 00       			ldy	#0
 2184  595D     91 23       			sta	(__oper2),y
 2185                     			.c_end	01561h,182
 2186                     	;break;
 2187                     	;			
 2188                     			.sw_break
 2189  595F     4C CF 83    			jmp	?BOL14
 2190                     	;case	9:
 2191                     	;				
 2192         4718 5962   	?SWL17:		.equal	$
 2193                     	;(g_GameMTFloor+1>1)
 2194                     	;				
 2195                     			.if_top	01580h,?BOL20,1,185
 2196  5962     AD A7 1F    			lda	_g_GameMTFloor
 2197  5965     18          			clc
 2198  5966     69 01       			adc	#1
 2199  5968     38          			sec
 2200  5969     E9 01       			sbc	#1
  Wed Jan 14 21:35:33 2026                                                                                               Page   40




 2201  596B     B0 03       			bcs	+3
 2202  596D     4C 0F 5A    			jmp	?BOL20
 2203  5970     D0 03       			bne	+3
 2204  5972     4C 0F 5A    			jmp	?BOL20
 2205         331A 5975   	?PLC24:		.equal	$
 2206                     			.c_end	01596h,186
 2207                     	;g_GameMTFloor--
 2208                     			.c_start  015a3h,187
 2209  5975     CE A7 1F    			dec	_g_GameMTFloor
 2210                     			.c_end	015b2h,187
 2211                     	;GameMTReNewR()
 2212                     			.c_start  015bah,188
 2213  5978     A2 57       			ldx	#.low.&GameMTReNewR
 2214  597A     86 26       			stx	__addr_reg
 2215  597C     A2 90       			ldx	#.high.&GameMTReNewR+1
 2216  597E     86 27       			stx	__addr_reg+1
 2217                     			.bf_call
 2218  5980     20 F6 D2    			jsr	__banked_function_call
 2219                     			.c_end	015c8h,188
 2220                     	;g_GameMTHeroX=GameMTStartPoint[g_GameMTFloor][2]
 2221                     			.c_start  015d0h,189
 2222  5983     A9 04       			lda	#.low.4
 2223  5985     85 23       			sta	__oper2
 2224  5987     A9 00       			lda	#.high.4
 2225  5989     85 24       			sta	__oper2+1
 2226  598B     AD A7 1F    			lda	_g_GameMTFloor
 2227  598E     85 20       			sta	__oper1
 2228  5990     A9 00       			lda	#0
 2229  5992     85 21       			sta	__oper1+1
 2230  5994     20 AF D6    			jsr	__mult_int
 2231  5997     18          			clc
 2232  5998     A5 20       			lda	__oper1
 2233  599A     69 40       			adc	#.low._GameMTStartPoint
 2234  599C     85 20       			sta	__oper1
 2235  599E     A5 21       			lda	__oper1+1
 2236  59A0     69 BD       			adc	#.high._GameMTStartPoint
 2237  59A2     85 21       			sta	__oper1+1
 2238  59A4     A0 16       			ldy	#+0+?LSC0
 2239  59A6     A5 20       			lda	__oper1
 2240  59A8     91 28       			sta	(__stack_ptr),y
 2241  59AA     C8          			iny
 2242  59AB     A5 21       			lda	__oper1+1
 2243  59AD     91 28       			sta	(__stack_ptr),y
 2244  59AF     A0 16       			ldy	#+0+?LSC0
 2245  59B1     B1 28       			lda	(__stack_ptr),y
 2246  59B3     AA          			tax
 2247  59B4     C8          			iny
 2248  59B5     B1 28       			lda	(__stack_ptr),y
 2249  59B7     85 27       			sta	__addr_reg+1
 2250  59B9     86 26       			stx	__addr_reg
 2251  59BB     A0 02       			ldy	#2
 2252  59BD     B1 26       			lda	(__addr_reg),y
 2253  59BF     8D 0F 18    			sta	_g_GameMTHeroX
 2254                     			.c_end	01600h,189
 2255                     	;g_GameMTHeroY=GameMTStartPoint[g_GameMTFloor][3]
 2256                     			.c_start  01608h,190
 2257  59C2     A9 04       			lda	#.low.4
  Wed Jan 14 21:35:33 2026                                                                                               Page   41




 2258  59C4     85 23       			sta	__oper2
 2259  59C6     A9 00       			lda	#.high.4
 2260  59C8     85 24       			sta	__oper2+1
 2261  59CA     AD A7 1F    			lda	_g_GameMTFloor
 2262  59CD     85 20       			sta	__oper1
 2263  59CF     A9 00       			lda	#0
 2264  59D1     85 21       			sta	__oper1+1
 2265  59D3     20 AF D6    			jsr	__mult_int
 2266  59D6     18          			clc
 2267  59D7     A5 20       			lda	__oper1
 2268  59D9     69 40       			adc	#.low._GameMTStartPoint
 2269  59DB     85 20       			sta	__oper1
 2270  59DD     A5 21       			lda	__oper1+1
 2271  59DF     69 BD       			adc	#.high._GameMTStartPoint
 2272  59E1     85 21       			sta	__oper1+1
 2273  59E3     A0 16       			ldy	#+0+?LSC0
 2274  59E5     A5 20       			lda	__oper1
 2275  59E7     91 28       			sta	(__stack_ptr),y
 2276  59E9     C8          			iny
 2277  59EA     A5 21       			lda	__oper1+1
 2278  59EC     91 28       			sta	(__stack_ptr),y
 2279  59EE     A0 16       			ldy	#+0+?LSC0
 2280  59F0     B1 28       			lda	(__stack_ptr),y
 2281  59F2     AA          			tax
 2282  59F3     C8          			iny
 2283  59F4     B1 28       			lda	(__stack_ptr),y
 2284  59F6     85 27       			sta	__addr_reg+1
 2285  59F8     86 26       			stx	__addr_reg
 2286  59FA     A0 03       			ldy	#3
 2287  59FC     B1 26       			lda	(__addr_reg),y
 2288  59FE     8D 10 18    			sta	_g_GameMTHeroY
 2289                     			.c_end	01638h,190
 2290                     	;GameMTNewFloor()
 2291                     			.c_start  01640h,191
 2292  5A01     A2 42       			ldx	#.low.&GameMTNewFloor
 2293  5A03     86 26       			stx	__addr_reg
 2294  5A05     A2 90       			ldx	#.high.&GameMTNewFloor+1
 2295  5A07     86 27       			stx	__addr_reg+1
 2296                     			.bf_call
 2297  5A09     20 F6 D2    			jsr	__banked_function_call
 2298                     			.c_end	01650h,191
 2299                     	;
 2300                     	;else
 2301                     	;				
 2302  5A0C     4C 1A 5A    			jmp	?EOI20
 2303                     			.if_else  ?EOI20,1,194
 2304         4413 5A0F   	?BOL20:		.equal	$
 2305                     	;GameMTEnd()
 2306                     			.c_start  01670h,195
 2307  5A0F     A2 66       			ldx	#.low.&GameMTEnd
 2308  5A11     86 26       			stx	__addr_reg
 2309  5A13     A2 90       			ldx	#.high.&GameMTEnd+1
 2310  5A15     86 27       			stx	__addr_reg+1
 2311                     			.bf_call
 2312  5A17     20 F6 D2    			jsr	__banked_function_call
 2313                     			.c_end	0167bh,195
 2314                     	;
  Wed Jan 14 21:35:33 2026                                                                                               Page   42




 2315         3814 5A1A   	?EOI20:		.equal	$
 2316                     	;break;
 2317                     	;			
 2318                     			.sw_break
 2319  5A1A     4C CF 83    			jmp	?BOL14
 2320                     	;case	10:
 2321                     	;			
 2322         4214 5A1D   	?SWL18:		.equal	$
 2323                     	;case	11:
 2324                     	;				
 2325         42F7 5A1D   	?SWL19:		.equal	$
 2326                     	;break;
 2327                     	;			
 2328                     			.sw_break
 2329  5A1D     4C CF 83    			jmp	?BOL14
 2330                     	;case	12:
 2331                     	;				
 2332         4514 5A20   	?SWL20:		.equal	$
 2333                     	;(g_GameMTFloor==18&&g_GameMTCurMap[2298]+1==1)
 2334                     	;				
 2335                     			.if_top	016c8h,?BOL21,1,202
 2336  5A20     AD A7 1F    			lda	_g_GameMTFloor
 2337  5A23     38          			sec
 2338  5A24     E9 12       			sbc	#18
 2339  5A26     F0 03       			beq	+3
 2340  5A28     4C 95 5C    			jmp	?BOL21
 2341         3915 5A2B   	?ACC0:		.equal	$
 2342  5A2B     AD A8 1F    			lda	_g_GameMTCurMap
 2343  5A2E     85 20       			sta	__oper1
 2344  5A30     AD A9 1F    			lda	_g_GameMTCurMap+1
 2345  5A33     85 21       			sta	__oper1+1
 2346  5A35     18          			clc
 2347  5A36     A5 20       			lda	__oper1
 2348  5A38     69 FA       			adc	#.low.2298
 2349  5A3A     85 20       			sta	__oper1
 2350  5A3C     A5 21       			lda	__oper1+1
 2351  5A3E     69 08       			adc	#.high.2298
 2352  5A40     85 21       			sta	__oper1+1
 2353  5A42     A0 00       			ldy	#0
 2354  5A44     B1 20       			lda	(__oper1),y
 2355  5A46     18          			clc
 2356  5A47     69 01       			adc	#1
 2357  5A49     38          			sec
 2358  5A4A     E9 01       			sbc	#1
 2359  5A4C     F0 03       			beq	+3
 2360  5A4E     4C 95 5C    			jmp	?BOL21
 2361         4617 5A51   	?PLC25:		.equal	$
 2362                     			.c_end	016f9h,203
 2363                     	;GameMTTalk(2,242,0)
 2364                     			.c_start  01706h,204
 2365  5A51     A9 00       			lda	#0
 2366  5A53     20 AA DA    			jsr	__store_char_funct_arg
 2367  5A56     A9 F2       			lda	#.low.242
 2368  5A58     85 20       			sta	__oper1
 2369  5A5A     A9 00       			lda	#.high.242
 2370  5A5C     85 21       			sta	__oper1+1
 2371  5A5E     20 CA DA    			jsr	__store_int_funct_arg
  Wed Jan 14 21:35:33 2026                                                                                               Page   43




 2372  5A61     A9 02       			lda	#2
 2373  5A63     A2 33       			ldx	#.low.&GameMTTalk
 2374  5A65     86 26       			stx	__addr_reg
 2375  5A67     A2 90       			ldx	#.high.&GameMTTalk+1
 2376  5A69     86 27       			stx	__addr_reg+1
 2377                     			.bf_call
 2378  5A6B     20 F6 D2    			jsr	__banked_function_call
 2379  5A6E     08          			php
 2380  5A6F     78          			sei
 2381  5A70     18          			clc
 2382  5A71     A5 28       			lda	__stack_ptr
 2383  5A73     69 03       			adc	#.low.3
 2384  5A75     85 28       			sta	__stack_ptr
 2385  5A77     A5 29       			lda	__stack_ptr+1
 2386  5A79     69 00       			adc	#.high.3
 2387  5A7B     85 29       			sta	__stack_ptr+1
 2388  5A7D     28          			plp
 2389                     			.c_end	01719h,204
 2390                     	;GameMTTalk(2,244,0)
 2391                     			.c_start  01721h,205
 2392  5A7E     A9 00       			lda	#0
 2393  5A80     20 AA DA    			jsr	__store_char_funct_arg
 2394  5A83     A9 F4       			lda	#.low.244
 2395  5A85     85 20       			sta	__oper1
 2396  5A87     A9 00       			lda	#.high.244
 2397  5A89     85 21       			sta	__oper1+1
 2398  5A8B     20 CA DA    			jsr	__store_int_funct_arg
 2399  5A8E     A9 02       			lda	#2
 2400  5A90     A2 33       			ldx	#.low.&GameMTTalk
 2401  5A92     86 26       			stx	__addr_reg
 2402  5A94     A2 90       			ldx	#.high.&GameMTTalk+1
 2403  5A96     86 27       			stx	__addr_reg+1
 2404                     			.bf_call
 2405  5A98     20 F6 D2    			jsr	__banked_function_call
 2406  5A9B     08          			php
 2407  5A9C     78          			sei
 2408  5A9D     18          			clc
 2409  5A9E     A5 28       			lda	__stack_ptr
 2410  5AA0     69 03       			adc	#.low.3
 2411  5AA2     85 28       			sta	__stack_ptr
 2412  5AA4     A5 29       			lda	__stack_ptr+1
 2413  5AA6     69 00       			adc	#.high.3
 2414  5AA8     85 29       			sta	__stack_ptr+1
 2415  5AAA     28          			plp
 2416                     			.c_end	01734h,205
 2417                     	;GameMTTalk(4,248,0)
 2418                     			.c_start  0173ch,206
 2419  5AAB     A9 00       			lda	#0
 2420  5AAD     20 AA DA    			jsr	__store_char_funct_arg
 2421  5AB0     A9 F8       			lda	#.low.248
 2422  5AB2     85 20       			sta	__oper1
 2423  5AB4     A9 00       			lda	#.high.248
 2424  5AB6     85 21       			sta	__oper1+1
 2425  5AB8     20 CA DA    			jsr	__store_int_funct_arg
 2426  5ABB     A9 04       			lda	#4
 2427  5ABD     A2 33       			ldx	#.low.&GameMTTalk
 2428  5ABF     86 26       			stx	__addr_reg
  Wed Jan 14 21:35:33 2026                                                                                               Page   44




 2429  5AC1     A2 90       			ldx	#.high.&GameMTTalk+1
 2430  5AC3     86 27       			stx	__addr_reg+1
 2431                     			.bf_call
 2432  5AC5     20 F6 D2    			jsr	__banked_function_call
 2433  5AC8     08          			php
 2434  5AC9     78          			sei
 2435  5ACA     18          			clc
 2436  5ACB     A5 28       			lda	__stack_ptr
 2437  5ACD     69 03       			adc	#.low.3
 2438  5ACF     85 28       			sta	__stack_ptr
 2439  5AD1     A5 29       			lda	__stack_ptr+1
 2440  5AD3     69 00       			adc	#.high.3
 2441  5AD5     85 29       			sta	__stack_ptr+1
 2442  5AD7     28          			plp
 2443                     			.c_end	0174fh,206
 2444                     	;GameMTTalk(2,250,0)
 2445                     			.c_start  01757h,207
 2446  5AD8     A9 00       			lda	#0
 2447  5ADA     20 AA DA    			jsr	__store_char_funct_arg
 2448  5ADD     A9 FA       			lda	#.low.250
 2449  5ADF     85 20       			sta	__oper1
 2450  5AE1     A9 00       			lda	#.high.250
 2451  5AE3     85 21       			sta	__oper1+1
 2452  5AE5     20 CA DA    			jsr	__store_int_funct_arg
 2453  5AE8     A9 02       			lda	#2
 2454  5AEA     A2 33       			ldx	#.low.&GameMTTalk
 2455  5AEC     86 26       			stx	__addr_reg
 2456  5AEE     A2 90       			ldx	#.high.&GameMTTalk+1
 2457  5AF0     86 27       			stx	__addr_reg+1
 2458                     			.bf_call
 2459  5AF2     20 F6 D2    			jsr	__banked_function_call
 2460  5AF5     08          			php
 2461  5AF6     78          			sei
 2462  5AF7     18          			clc
 2463  5AF8     A5 28       			lda	__stack_ptr
 2464  5AFA     69 03       			adc	#.low.3
 2465  5AFC     85 28       			sta	__stack_ptr
 2466  5AFE     A5 29       			lda	__stack_ptr+1
 2467  5B00     69 00       			adc	#.high.3
 2468  5B02     85 29       			sta	__stack_ptr+1
 2469  5B04     28          			plp
 2470                     			.c_end	0176ah,207
 2471                     	;GameMTTalk(2,252,0)
 2472                     			.c_start  01772h,208
 2473  5B05     A9 00       			lda	#0
 2474  5B07     20 AA DA    			jsr	__store_char_funct_arg
 2475  5B0A     A9 FC       			lda	#.low.252
 2476  5B0C     85 20       			sta	__oper1
 2477  5B0E     A9 00       			lda	#.high.252
 2478  5B10     85 21       			sta	__oper1+1
 2479  5B12     20 CA DA    			jsr	__store_int_funct_arg
 2480  5B15     A9 02       			lda	#2
 2481  5B17     A2 33       			ldx	#.low.&GameMTTalk
 2482  5B19     86 26       			stx	__addr_reg
 2483  5B1B     A2 90       			ldx	#.high.&GameMTTalk+1
 2484  5B1D     86 27       			stx	__addr_reg+1
 2485                     			.bf_call
  Wed Jan 14 21:35:33 2026                                                                                               Page   45




 2486  5B1F     20 F6 D2    			jsr	__banked_function_call
 2487  5B22     08          			php
 2488  5B23     78          			sei
 2489  5B24     18          			clc
 2490  5B25     A5 28       			lda	__stack_ptr
 2491  5B27     69 03       			adc	#.low.3
 2492  5B29     85 28       			sta	__stack_ptr
 2493  5B2B     A5 29       			lda	__stack_ptr+1
 2494  5B2D     69 00       			adc	#.high.3
 2495  5B2F     85 29       			sta	__stack_ptr+1
 2496  5B31     28          			plp
 2497                     			.c_end	01785h,208
 2498                     	;GameMTTalk(5,254,1)
 2499                     			.c_start  0178dh,209
 2500  5B32     A9 01       			lda	#1
 2501  5B34     20 AA DA    			jsr	__store_char_funct_arg
 2502  5B37     A9 FE       			lda	#.low.254
 2503  5B39     85 20       			sta	__oper1
 2504  5B3B     A9 00       			lda	#.high.254
 2505  5B3D     85 21       			sta	__oper1+1
 2506  5B3F     20 CA DA    			jsr	__store_int_funct_arg
 2507  5B42     A9 05       			lda	#5
 2508  5B44     A2 33       			ldx	#.low.&GameMTTalk
 2509  5B46     86 26       			stx	__addr_reg
 2510  5B48     A2 90       			ldx	#.high.&GameMTTalk+1
 2511  5B4A     86 27       			stx	__addr_reg+1
 2512                     			.bf_call
 2513  5B4C     20 F6 D2    			jsr	__banked_function_call
 2514  5B4F     08          			php
 2515  5B50     78          			sei
 2516  5B51     18          			clc
 2517  5B52     A5 28       			lda	__stack_ptr
 2518  5B54     69 03       			adc	#.low.3
 2519  5B56     85 28       			sta	__stack_ptr
 2520  5B58     A5 29       			lda	__stack_ptr+1
 2521  5B5A     69 00       			adc	#.high.3
 2522  5B5C     85 29       			sta	__stack_ptr+1
 2523  5B5E     28          			plp
 2524                     			.c_end	017a0h,209
 2525                     	;GameMTTalk(3,259,0)
 2526                     			.c_start  017a8h,210
 2527  5B5F     A9 00       			lda	#0
 2528  5B61     20 AA DA    			jsr	__store_char_funct_arg
 2529  5B64     A9 03       			lda	#.low.259
 2530  5B66     85 20       			sta	__oper1
 2531  5B68     A9 01       			lda	#.high.259
 2532  5B6A     85 21       			sta	__oper1+1
 2533  5B6C     20 CA DA    			jsr	__store_int_funct_arg
 2534  5B6F     A9 03       			lda	#3
 2535  5B71     A2 33       			ldx	#.low.&GameMTTalk
 2536  5B73     86 26       			stx	__addr_reg
 2537  5B75     A2 90       			ldx	#.high.&GameMTTalk+1
 2538  5B77     86 27       			stx	__addr_reg+1
 2539                     			.bf_call
 2540  5B79     20 F6 D2    			jsr	__banked_function_call
 2541  5B7C     08          			php
 2542  5B7D     78          			sei
  Wed Jan 14 21:35:33 2026                                                                                               Page   46




 2543  5B7E     18          			clc
 2544  5B7F     A5 28       			lda	__stack_ptr
 2545  5B81     69 03       			adc	#.low.3
 2546  5B83     85 28       			sta	__stack_ptr
 2547  5B85     A5 29       			lda	__stack_ptr+1
 2548  5B87     69 00       			adc	#.high.3
 2549  5B89     85 29       			sta	__stack_ptr+1
 2550  5B8B     28          			plp
 2551                     			.c_end	017bbh,210
 2552                     	;GameMTTalk(2,262,0)
 2553                     			.c_start  017c3h,211
 2554  5B8C     A9 00       			lda	#0
 2555  5B8E     20 AA DA    			jsr	__store_char_funct_arg
 2556  5B91     A9 06       			lda	#.low.262
 2557  5B93     85 20       			sta	__oper1
 2558  5B95     A9 01       			lda	#.high.262
 2559  5B97     85 21       			sta	__oper1+1
 2560  5B99     20 CA DA    			jsr	__store_int_funct_arg
 2561  5B9C     A9 02       			lda	#2
 2562  5B9E     A2 33       			ldx	#.low.&GameMTTalk
 2563  5BA0     86 26       			stx	__addr_reg
 2564  5BA2     A2 90       			ldx	#.high.&GameMTTalk+1
 2565  5BA4     86 27       			stx	__addr_reg+1
 2566                     			.bf_call
 2567  5BA6     20 F6 D2    			jsr	__banked_function_call
 2568  5BA9     08          			php
 2569  5BAA     78          			sei
 2570  5BAB     18          			clc
 2571  5BAC     A5 28       			lda	__stack_ptr
 2572  5BAE     69 03       			adc	#.low.3
 2573  5BB0     85 28       			sta	__stack_ptr
 2574  5BB2     A5 29       			lda	__stack_ptr+1
 2575  5BB4     69 00       			adc	#.high.3
 2576  5BB6     85 29       			sta	__stack_ptr+1
 2577  5BB8     28          			plp
 2578                     			.c_end	017d6h,211
 2579                     	;GameMTTalk(4,265,0)
 2580                     			.c_start  017deh,212
 2581  5BB9     A9 00       			lda	#0
 2582  5BBB     20 AA DA    			jsr	__store_char_funct_arg
 2583  5BBE     A9 09       			lda	#.low.265
 2584  5BC0     85 20       			sta	__oper1
 2585  5BC2     A9 01       			lda	#.high.265
 2586  5BC4     85 21       			sta	__oper1+1
 2587  5BC6     20 CA DA    			jsr	__store_int_funct_arg
 2588  5BC9     A9 04       			lda	#4
 2589  5BCB     A2 33       			ldx	#.low.&GameMTTalk
 2590  5BCD     86 26       			stx	__addr_reg
 2591  5BCF     A2 90       			ldx	#.high.&GameMTTalk+1
 2592  5BD1     86 27       			stx	__addr_reg+1
 2593                     			.bf_call
 2594  5BD3     20 F6 D2    			jsr	__banked_function_call
 2595  5BD6     08          			php
 2596  5BD7     78          			sei
 2597  5BD8     18          			clc
 2598  5BD9     A5 28       			lda	__stack_ptr
 2599  5BDB     69 03       			adc	#.low.3
  Wed Jan 14 21:35:33 2026                                                                                               Page   47




 2600  5BDD     85 28       			sta	__stack_ptr
 2601  5BDF     A5 29       			lda	__stack_ptr+1
 2602  5BE1     69 00       			adc	#.high.3
 2603  5BE3     85 29       			sta	__stack_ptr+1
 2604  5BE5     28          			plp
 2605                     			.c_end	017f1h,212
 2606                     	;GameMTTalk(3,269,0)
 2607                     			.c_start  017f9h,213
 2608  5BE6     A9 00       			lda	#0
 2609  5BE8     20 AA DA    			jsr	__store_char_funct_arg
 2610  5BEB     A9 0D       			lda	#.low.269
 2611  5BED     85 20       			sta	__oper1
 2612  5BEF     A9 01       			lda	#.high.269
 2613  5BF1     85 21       			sta	__oper1+1
 2614  5BF3     20 CA DA    			jsr	__store_int_funct_arg
 2615  5BF6     A9 03       			lda	#3
 2616  5BF8     A2 33       			ldx	#.low.&GameMTTalk
 2617  5BFA     86 26       			stx	__addr_reg
 2618  5BFC     A2 90       			ldx	#.high.&GameMTTalk+1
 2619  5BFE     86 27       			stx	__addr_reg+1
 2620                     			.bf_call
 2621  5C00     20 F6 D2    			jsr	__banked_function_call
 2622  5C03     08          			php
 2623  5C04     78          			sei
 2624  5C05     18          			clc
 2625  5C06     A5 28       			lda	__stack_ptr
 2626  5C08     69 03       			adc	#.low.3
 2627  5C0A     85 28       			sta	__stack_ptr
 2628  5C0C     A5 29       			lda	__stack_ptr+1
 2629  5C0E     69 00       			adc	#.high.3
 2630  5C10     85 29       			sta	__stack_ptr+1
 2631  5C12     28          			plp
 2632                     			.c_end	0180ch,213
 2633                     	;GameMTTalk(5,272,1)
 2634                     			.c_start  01814h,214
 2635  5C13     A9 01       			lda	#1
 2636  5C15     20 AA DA    			jsr	__store_char_funct_arg
 2637  5C18     A9 10       			lda	#.low.272
 2638  5C1A     85 20       			sta	__oper1
 2639  5C1C     A9 01       			lda	#.high.272
 2640  5C1E     85 21       			sta	__oper1+1
 2641  5C20     20 CA DA    			jsr	__store_int_funct_arg
 2642  5C23     A9 05       			lda	#5
 2643  5C25     A2 33       			ldx	#.low.&GameMTTalk
 2644  5C27     86 26       			stx	__addr_reg
 2645  5C29     A2 90       			ldx	#.high.&GameMTTalk+1
 2646  5C2B     86 27       			stx	__addr_reg+1
 2647                     			.bf_call
 2648  5C2D     20 F6 D2    			jsr	__banked_function_call
 2649  5C30     08          			php
 2650  5C31     78          			sei
 2651  5C32     18          			clc
 2652  5C33     A5 28       			lda	__stack_ptr
 2653  5C35     69 03       			adc	#.low.3
 2654  5C37     85 28       			sta	__stack_ptr
 2655  5C39     A5 29       			lda	__stack_ptr+1
 2656  5C3B     69 00       			adc	#.high.3
  Wed Jan 14 21:35:33 2026                                                                                               Page   48




 2657  5C3D     85 29       			sta	__stack_ptr+1
 2658  5C3F     28          			plp
 2659                     			.c_end	01827h,214
 2660                     	;GameMTTalk(3,277,0)
 2661                     			.c_start  0182fh,215
 2662  5C40     A9 00       			lda	#0
 2663  5C42     20 AA DA    			jsr	__store_char_funct_arg
 2664  5C45     A9 15       			lda	#.low.277
 2665  5C47     85 20       			sta	__oper1
 2666  5C49     A9 01       			lda	#.high.277
 2667  5C4B     85 21       			sta	__oper1+1
 2668  5C4D     20 CA DA    			jsr	__store_int_funct_arg
 2669  5C50     A9 03       			lda	#3
 2670  5C52     A2 33       			ldx	#.low.&GameMTTalk
 2671  5C54     86 26       			stx	__addr_reg
 2672  5C56     A2 90       			ldx	#.high.&GameMTTalk+1
 2673  5C58     86 27       			stx	__addr_reg+1
 2674                     			.bf_call
 2675  5C5A     20 F6 D2    			jsr	__banked_function_call
 2676  5C5D     08          			php
 2677  5C5E     78          			sei
 2678  5C5F     18          			clc
 2679  5C60     A5 28       			lda	__stack_ptr
 2680  5C62     69 03       			adc	#.low.3
 2681  5C64     85 28       			sta	__stack_ptr
 2682  5C66     A5 29       			lda	__stack_ptr+1
 2683  5C68     69 00       			adc	#.high.3
 2684  5C6A     85 29       			sta	__stack_ptr+1
 2685  5C6C     28          			plp
 2686                     			.c_end	01842h,215
 2687                     	;g_GameMTCurMap[2298]=4
 2688                     			.c_start  0184ah,216
 2689  5C6D     AD A8 1F    			lda	_g_GameMTCurMap
 2690  5C70     85 20       			sta	__oper1
 2691  5C72     AD A9 1F    			lda	_g_GameMTCurMap+1
 2692  5C75     85 21       			sta	__oper1+1
 2693  5C77     18          			clc
 2694  5C78     A5 20       			lda	__oper1
 2695  5C7A     69 FA       			adc	#.low.2298
 2696  5C7C     85 20       			sta	__oper1
 2697  5C7E     A5 21       			lda	__oper1+1
 2698  5C80     69 08       			adc	#.high.2298
 2699  5C82     85 21       			sta	__oper1+1
 2700  5C84     A5 20       			lda	__oper1
 2701  5C86     85 23       			sta	__oper2
 2702  5C88     A5 21       			lda	__oper1+1
 2703  5C8A     85 24       			sta	__oper2+1
 2704  5C8C     A9 04       			lda	#4
 2705  5C8E     A0 00       			ldy	#0
 2706  5C90     91 23       			sta	(__oper2),y
 2707                     			.c_end	01860h,216
 2708                     	;
 2709                     	;else if
 2710  5C92     4C 2A 5E    			jmp	?EOI21
 2711                     			.if_else  ?EOI21,1,218
 2712         331C 5C95   	?BOL21:		.equal	$
 2713                     	;(g_GameMTFloor==18&&g_GameMTCurMap[2298]==4)
  Wed Jan 14 21:35:33 2026                                                                                               Page   49




 2714                     	;				
 2715                     			.if_top	01873h,?BOL23,1,218
 2716  5C95     AD A7 1F    			lda	_g_GameMTFloor
 2717  5C98     38          			sec
 2718  5C99     E9 12       			sbc	#18
 2719  5C9B     F0 03       			beq	+3
 2720  5C9D     4C 20 5D    			jmp	?BOL23
 2721         451C 5CA0   	?ACC1:		.equal	$
 2722  5CA0     AD A8 1F    			lda	_g_GameMTCurMap
 2723  5CA3     85 20       			sta	__oper1
 2724  5CA5     AD A9 1F    			lda	_g_GameMTCurMap+1
 2725  5CA8     85 21       			sta	__oper1+1
 2726  5CAA     18          			clc
 2727  5CAB     A5 20       			lda	__oper1
 2728  5CAD     69 FA       			adc	#.low.2298
 2729  5CAF     85 20       			sta	__oper1
 2730  5CB1     A5 21       			lda	__oper1+1
 2731  5CB3     69 08       			adc	#.high.2298
 2732  5CB5     85 21       			sta	__oper1+1
 2733  5CB7     A0 00       			ldy	#0
 2734  5CB9     B1 20       			lda	(__oper1),y
 2735  5CBB     38          			sec
 2736  5CBC     E9 04       			sbc	#4
 2737  5CBE     F0 03       			beq	+3
 2738  5CC0     4C 20 5D    			jmp	?BOL23
 2739         3126 5CC3   	?PLC26:		.equal	$
 2740                     			.c_end	018a2h,219
 2741                     	;GameMTTalk(2,280,0)
 2742                     			.c_start  018afh,220
 2743  5CC3     A9 00       			lda	#0
 2744  5CC5     20 AA DA    			jsr	__store_char_funct_arg
 2745  5CC8     A9 18       			lda	#.low.280
 2746  5CCA     85 20       			sta	__oper1
 2747  5CCC     A9 01       			lda	#.high.280
 2748  5CCE     85 21       			sta	__oper1+1
 2749  5CD0     20 CA DA    			jsr	__store_int_funct_arg
 2750  5CD3     A9 02       			lda	#2
 2751  5CD5     A2 33       			ldx	#.low.&GameMTTalk
 2752  5CD7     86 26       			stx	__addr_reg
 2753  5CD9     A2 90       			ldx	#.high.&GameMTTalk+1
 2754  5CDB     86 27       			stx	__addr_reg+1
 2755                     			.bf_call
 2756  5CDD     20 F6 D2    			jsr	__banked_function_call
 2757  5CE0     08          			php
 2758  5CE1     78          			sei
 2759  5CE2     18          			clc
 2760  5CE3     A5 28       			lda	__stack_ptr
 2761  5CE5     69 03       			adc	#.low.3
 2762  5CE7     85 28       			sta	__stack_ptr
 2763  5CE9     A5 29       			lda	__stack_ptr+1
 2764  5CEB     69 00       			adc	#.high.3
 2765  5CED     85 29       			sta	__stack_ptr+1
 2766  5CEF     28          			plp
 2767                     			.c_end	018c2h,220
 2768                     	;GameMTTalk(2,282,0)
 2769                     			.c_start  018cah,221
 2770  5CF0     A9 00       			lda	#0
  Wed Jan 14 21:35:33 2026                                                                                               Page   50




 2771  5CF2     20 AA DA    			jsr	__store_char_funct_arg
 2772  5CF5     A9 1A       			lda	#.low.282
 2773  5CF7     85 20       			sta	__oper1
 2774  5CF9     A9 01       			lda	#.high.282
 2775  5CFB     85 21       			sta	__oper1+1
 2776  5CFD     20 CA DA    			jsr	__store_int_funct_arg
 2777  5D00     A9 02       			lda	#2
 2778  5D02     A2 33       			ldx	#.low.&GameMTTalk
 2779  5D04     86 26       			stx	__addr_reg
 2780  5D06     A2 90       			ldx	#.high.&GameMTTalk+1
 2781  5D08     86 27       			stx	__addr_reg+1
 2782                     			.bf_call
 2783  5D0A     20 F6 D2    			jsr	__banked_function_call
 2784  5D0D     08          			php
 2785  5D0E     78          			sei
 2786  5D0F     18          			clc
 2787  5D10     A5 28       			lda	__stack_ptr
 2788  5D12     69 03       			adc	#.low.3
 2789  5D14     85 28       			sta	__stack_ptr
 2790  5D16     A5 29       			lda	__stack_ptr+1
 2791  5D18     69 00       			adc	#.high.3
 2792  5D1A     85 29       			sta	__stack_ptr+1
 2793  5D1C     28          			plp
 2794                     			.c_end	018ddh,221
 2795                     	;
 2796                     	;else if
 2797  5D1D     4C 2A 5E    			jmp	?EOI21
 2798                     			.if_else  ?EOI21,1,223
 2799         4514 5D20   	?BOL23:		.equal	$
 2800                     	;(g_GameMTFloor==21&&g_GameMTCurMap[2557]==57)
 2801                     	;				
 2802                     			.if_top	018f0h,?BOL25,1,223
 2803  5D20     AD A7 1F    			lda	_g_GameMTFloor
 2804  5D23     38          			sec
 2805  5D24     E9 15       			sbc	#21
 2806  5D26     F0 03       			beq	+3
 2807  5D28     4C AB 5D    			jmp	?BOL25
 2808         3915 5D2B   	?ACC2:		.equal	$
 2809  5D2B     AD A8 1F    			lda	_g_GameMTCurMap
 2810  5D2E     85 20       			sta	__oper1
 2811  5D30     AD A9 1F    			lda	_g_GameMTCurMap+1
 2812  5D33     85 21       			sta	__oper1+1
 2813  5D35     18          			clc
 2814  5D36     A5 20       			lda	__oper1
 2815  5D38     69 FD       			adc	#.low.2557
 2816  5D3A     85 20       			sta	__oper1
 2817  5D3C     A5 21       			lda	__oper1+1
 2818  5D3E     69 09       			adc	#.high.2557
 2819  5D40     85 21       			sta	__oper1+1
 2820  5D42     A0 00       			ldy	#0
 2821  5D44     B1 20       			lda	(__oper1),y
 2822  5D46     38          			sec
 2823  5D47     E9 39       			sbc	#57
 2824  5D49     F0 03       			beq	+3
 2825  5D4B     4C AB 5D    			jmp	?BOL25
 2826         4317 5D4E   	?PLC27:		.equal	$
 2827                     			.c_end	01920h,224
  Wed Jan 14 21:35:33 2026                                                                                               Page   51




 2828                     	;GameMTTalk(2,302,0)
 2829                     			.c_start  0192dh,225
 2830  5D4E     A9 00       			lda	#0
 2831  5D50     20 AA DA    			jsr	__store_char_funct_arg
 2832  5D53     A9 2E       			lda	#.low.302
 2833  5D55     85 20       			sta	__oper1
 2834  5D57     A9 01       			lda	#.high.302
 2835  5D59     85 21       			sta	__oper1+1
 2836  5D5B     20 CA DA    			jsr	__store_int_funct_arg
 2837  5D5E     A9 02       			lda	#2
 2838  5D60     A2 33       			ldx	#.low.&GameMTTalk
 2839  5D62     86 26       			stx	__addr_reg
 2840  5D64     A2 90       			ldx	#.high.&GameMTTalk+1
 2841  5D66     86 27       			stx	__addr_reg+1
 2842                     			.bf_call
 2843  5D68     20 F6 D2    			jsr	__banked_function_call
 2844  5D6B     08          			php
 2845  5D6C     78          			sei
 2846  5D6D     18          			clc
 2847  5D6E     A5 28       			lda	__stack_ptr
 2848  5D70     69 03       			adc	#.low.3
 2849  5D72     85 28       			sta	__stack_ptr
 2850  5D74     A5 29       			lda	__stack_ptr+1
 2851  5D76     69 00       			adc	#.high.3
 2852  5D78     85 29       			sta	__stack_ptr+1
 2853  5D7A     28          			plp
 2854                     			.c_end	01940h,225
 2855                     	;GameMTTalk(2,304,0)
 2856                     			.c_start  01948h,226
 2857  5D7B     A9 00       			lda	#0
 2858  5D7D     20 AA DA    			jsr	__store_char_funct_arg
 2859  5D80     A9 30       			lda	#.low.304
 2860  5D82     85 20       			sta	__oper1
 2861  5D84     A9 01       			lda	#.high.304
 2862  5D86     85 21       			sta	__oper1+1
 2863  5D88     20 CA DA    			jsr	__store_int_funct_arg
 2864  5D8B     A9 02       			lda	#2
 2865  5D8D     A2 33       			ldx	#.low.&GameMTTalk
 2866  5D8F     86 26       			stx	__addr_reg
 2867  5D91     A2 90       			ldx	#.high.&GameMTTalk+1
 2868  5D93     86 27       			stx	__addr_reg+1
 2869                     			.bf_call
 2870  5D95     20 F6 D2    			jsr	__banked_function_call
 2871  5D98     08          			php
 2872  5D99     78          			sei
 2873  5D9A     18          			clc
 2874  5D9B     A5 28       			lda	__stack_ptr
 2875  5D9D     69 03       			adc	#.low.3
 2876  5D9F     85 28       			sta	__stack_ptr
 2877  5DA1     A5 29       			lda	__stack_ptr+1
 2878  5DA3     69 00       			adc	#.high.3
 2879  5DA5     85 29       			sta	__stack_ptr+1
 2880  5DA7     28          			plp
 2881                     			.c_end	0195bh,226
 2882                     	;
 2883                     	;else
 2884                     	;				
  Wed Jan 14 21:35:33 2026                                                                                               Page   52




 2885  5DA8     4C 2A 5E    			jmp	?EOI21
 2886                     			.if_else  ?EOI21,1,229
 2887         3924 5DAB   	?BOL25:		.equal	$
 2888                     	;GameMTTalk(2,352,0)
 2889                     			.c_start  0197bh,230
 2890  5DAB     A9 00       			lda	#0
 2891  5DAD     20 AA DA    			jsr	__store_char_funct_arg
 2892  5DB0     A9 60       			lda	#.low.352
 2893  5DB2     85 20       			sta	__oper1
 2894  5DB4     A9 01       			lda	#.high.352
 2895  5DB6     85 21       			sta	__oper1+1
 2896  5DB8     20 CA DA    			jsr	__store_int_funct_arg
 2897  5DBB     A9 02       			lda	#2
 2898  5DBD     A2 33       			ldx	#.low.&GameMTTalk
 2899  5DBF     86 26       			stx	__addr_reg
 2900  5DC1     A2 90       			ldx	#.high.&GameMTTalk+1
 2901  5DC3     86 27       			stx	__addr_reg+1
 2902                     			.bf_call
 2903  5DC5     20 F6 D2    			jsr	__banked_function_call
 2904  5DC8     08          			php
 2905  5DC9     78          			sei
 2906  5DCA     18          			clc
 2907  5DCB     A5 28       			lda	__stack_ptr
 2908  5DCD     69 03       			adc	#.low.3
 2909  5DCF     85 28       			sta	__stack_ptr
 2910  5DD1     A5 29       			lda	__stack_ptr+1
 2911  5DD3     69 00       			adc	#.high.3
 2912  5DD5     85 29       			sta	__stack_ptr+1
 2913  5DD7     28          			plp
 2914                     			.c_end	0198eh,230
 2915                     	;GameMTTalk(1,354,0)
 2916                     			.c_start  01996h,231
 2917  5DD8     A9 00       			lda	#0
 2918  5DDA     20 AA DA    			jsr	__store_char_funct_arg
 2919  5DDD     A9 62       			lda	#.low.354
 2920  5DDF     85 20       			sta	__oper1
 2921  5DE1     A9 01       			lda	#.high.354
 2922  5DE3     85 21       			sta	__oper1+1
 2923  5DE5     20 CA DA    			jsr	__store_int_funct_arg
 2924  5DE8     A9 01       			lda	#1
 2925  5DEA     A2 33       			ldx	#.low.&GameMTTalk
 2926  5DEC     86 26       			stx	__addr_reg
 2927  5DEE     A2 90       			ldx	#.high.&GameMTTalk+1
 2928  5DF0     86 27       			stx	__addr_reg+1
 2929                     			.bf_call
 2930  5DF2     20 F6 D2    			jsr	__banked_function_call
 2931  5DF5     08          			php
 2932  5DF6     78          			sei
 2933  5DF7     18          			clc
 2934  5DF8     A5 28       			lda	__stack_ptr
 2935  5DFA     69 03       			adc	#.low.3
 2936  5DFC     85 28       			sta	__stack_ptr
 2937  5DFE     A5 29       			lda	__stack_ptr+1
 2938  5E00     69 00       			adc	#.high.3
 2939  5E02     85 29       			sta	__stack_ptr+1
 2940  5E04     28          			plp
 2941                     			.c_end	019a9h,231
  Wed Jan 14 21:35:33 2026                                                                                               Page   53




 2942                     	;g_GameMTCurMap[2555]=0
 2943                     			.c_start  019b1h,232
 2944  5E05     AD A8 1F    			lda	_g_GameMTCurMap
 2945  5E08     85 20       			sta	__oper1
 2946  5E0A     AD A9 1F    			lda	_g_GameMTCurMap+1
 2947  5E0D     85 21       			sta	__oper1+1
 2948  5E0F     18          			clc
 2949  5E10     A5 20       			lda	__oper1
 2950  5E12     69 FB       			adc	#.low.2555
 2951  5E14     85 20       			sta	__oper1
 2952  5E16     A5 21       			lda	__oper1+1
 2953  5E18     69 09       			adc	#.high.2555
 2954  5E1A     85 21       			sta	__oper1+1
 2955  5E1C     A5 20       			lda	__oper1
 2956  5E1E     85 23       			sta	__oper2
 2957  5E20     A5 21       			lda	__oper1+1
 2958  5E22     85 24       			sta	__oper2+1
 2959  5E24     A9 00       			lda	#0
 2960  5E26     A0 00       			ldy	#0
 2961  5E28     91 23       			sta	(__oper2),y
 2962                     			.c_end	019c7h,232
 2963                     	;
 2964         3915 5E2A   	?EOI21:		.equal	$
 2965                     	;break;
 2966                     	;			
 2967                     			.sw_break
 2968  5E2A     4C CF 83    			jmp	?BOL14
 2969                     	;case	13:
 2970                     	;				
 2971         4215 5E2D   	?SWL21:		.equal	$
 2972                     	;(g_GameMTFloor==4&&g_GameMTCurMap[309]==70)
 2973                     	;				
 2974                     			.if_top	019eeh,?BOL27,1,236
 2975  5E2D     AD A7 1F    			lda	_g_GameMTFloor
 2976  5E30     38          			sec
 2977  5E31     E9 04       			sbc	#4
 2978  5E33     F0 03       			beq	+3
 2979  5E35     4C 9F 60    			jmp	?BOL27
 2980         3616 5E38   	?ACC3:		.equal	$
 2981  5E38     AD A8 1F    			lda	_g_GameMTCurMap
 2982  5E3B     85 20       			sta	__oper1
 2983  5E3D     AD A9 1F    			lda	_g_GameMTCurMap+1
 2984  5E40     85 21       			sta	__oper1+1
 2985  5E42     18          			clc
 2986  5E43     A5 20       			lda	__oper1
 2987  5E45     69 35       			adc	#.low.309
 2988  5E47     85 20       			sta	__oper1
 2989  5E49     A5 21       			lda	__oper1+1
 2990  5E4B     69 01       			adc	#.high.309
 2991  5E4D     85 21       			sta	__oper1+1
 2992  5E4F     A0 00       			ldy	#0
 2993  5E51     B1 20       			lda	(__oper1),y
 2994  5E53     38          			sec
 2995  5E54     E9 46       			sbc	#70
 2996  5E56     F0 03       			beq	+3
 2997  5E58     4C 9F 60    			jmp	?BOL27
 2998         3918 5E5B   	?PLC28:		.equal	$
  Wed Jan 14 21:35:33 2026                                                                                               Page   54




 2999                     			.c_end	01a1ch,237
 3000                     	;GameMTTalk(2,149,0)
 3001                     			.c_start  01a29h,238
 3002  5E5B     A9 00       			lda	#0
 3003  5E5D     20 AA DA    			jsr	__store_char_funct_arg
 3004  5E60     A9 95       			lda	#.low.149
 3005  5E62     85 20       			sta	__oper1
 3006  5E64     A9 00       			lda	#.high.149
 3007  5E66     85 21       			sta	__oper1+1
 3008  5E68     20 CA DA    			jsr	__store_int_funct_arg
 3009  5E6B     A9 02       			lda	#2
 3010  5E6D     A2 33       			ldx	#.low.&GameMTTalk
 3011  5E6F     86 26       			stx	__addr_reg
 3012  5E71     A2 90       			ldx	#.high.&GameMTTalk+1
 3013  5E73     86 27       			stx	__addr_reg+1
 3014                     			.bf_call
 3015  5E75     20 F6 D2    			jsr	__banked_function_call
 3016  5E78     08          			php
 3017  5E79     78          			sei
 3018  5E7A     18          			clc
 3019  5E7B     A5 28       			lda	__stack_ptr
 3020  5E7D     69 03       			adc	#.low.3
 3021  5E7F     85 28       			sta	__stack_ptr
 3022  5E81     A5 29       			lda	__stack_ptr+1
 3023  5E83     69 00       			adc	#.high.3
 3024  5E85     85 29       			sta	__stack_ptr+1
 3025  5E87     28          			plp
 3026                     			.c_end	01a3ch,238
 3027                     	;GameMTTalk(5,151,1)
 3028                     			.c_start  01a44h,239
 3029  5E88     A9 01       			lda	#1
 3030  5E8A     20 AA DA    			jsr	__store_char_funct_arg
 3031  5E8D     A9 97       			lda	#.low.151
 3032  5E8F     85 20       			sta	__oper1
 3033  5E91     A9 00       			lda	#.high.151
 3034  5E93     85 21       			sta	__oper1+1
 3035  5E95     20 CA DA    			jsr	__store_int_funct_arg
 3036  5E98     A9 05       			lda	#5
 3037  5E9A     A2 33       			ldx	#.low.&GameMTTalk
 3038  5E9C     86 26       			stx	__addr_reg
 3039  5E9E     A2 90       			ldx	#.high.&GameMTTalk+1
 3040  5EA0     86 27       			stx	__addr_reg+1
 3041                     			.bf_call
 3042  5EA2     20 F6 D2    			jsr	__banked_function_call
 3043  5EA5     08          			php
 3044  5EA6     78          			sei
 3045  5EA7     18          			clc
 3046  5EA8     A5 28       			lda	__stack_ptr
 3047  5EAA     69 03       			adc	#.low.3
 3048  5EAC     85 28       			sta	__stack_ptr
 3049  5EAE     A5 29       			lda	__stack_ptr+1
 3050  5EB0     69 00       			adc	#.high.3
 3051  5EB2     85 29       			sta	__stack_ptr+1
 3052  5EB4     28          			plp
 3053                     			.c_end	01a57h,239
 3054                     	;GameMTTalk(5,156,1)
 3055                     			.c_start  01a5fh,240
  Wed Jan 14 21:35:33 2026                                                                                               Page   55




 3056  5EB5     A9 01       			lda	#1
 3057  5EB7     20 AA DA    			jsr	__store_char_funct_arg
 3058  5EBA     A9 9C       			lda	#.low.156
 3059  5EBC     85 20       			sta	__oper1
 3060  5EBE     A9 00       			lda	#.high.156
 3061  5EC0     85 21       			sta	__oper1+1
 3062  5EC2     20 CA DA    			jsr	__store_int_funct_arg
 3063  5EC5     A9 05       			lda	#5
 3064  5EC7     A2 33       			ldx	#.low.&GameMTTalk
 3065  5EC9     86 26       			stx	__addr_reg
 3066  5ECB     A2 90       			ldx	#.high.&GameMTTalk+1
 3067  5ECD     86 27       			stx	__addr_reg+1
 3068                     			.bf_call
 3069  5ECF     20 F6 D2    			jsr	__banked_function_call
 3070  5ED2     08          			php
 3071  5ED3     78          			sei
 3072  5ED4     18          			clc
 3073  5ED5     A5 28       			lda	__stack_ptr
 3074  5ED7     69 03       			adc	#.low.3
 3075  5ED9     85 28       			sta	__stack_ptr
 3076  5EDB     A5 29       			lda	__stack_ptr+1
 3077  5EDD     69 00       			adc	#.high.3
 3078  5EDF     85 29       			sta	__stack_ptr+1
 3079  5EE1     28          			plp
 3080                     			.c_end	01a72h,240
 3081                     	;GameMTTalk(2,161,0)
 3082                     			.c_start  01a7ah,241
 3083  5EE2     A9 00       			lda	#0
 3084  5EE4     20 AA DA    			jsr	__store_char_funct_arg
 3085  5EE7     A9 A1       			lda	#.low.161
 3086  5EE9     85 20       			sta	__oper1
 3087  5EEB     A9 00       			lda	#.high.161
 3088  5EED     85 21       			sta	__oper1+1
 3089  5EEF     20 CA DA    			jsr	__store_int_funct_arg
 3090  5EF2     A9 02       			lda	#2
 3091  5EF4     A2 33       			ldx	#.low.&GameMTTalk
 3092  5EF6     86 26       			stx	__addr_reg
 3093  5EF8     A2 90       			ldx	#.high.&GameMTTalk+1
 3094  5EFA     86 27       			stx	__addr_reg+1
 3095                     			.bf_call
 3096  5EFC     20 F6 D2    			jsr	__banked_function_call
 3097  5EFF     08          			php
 3098  5F00     78          			sei
 3099  5F01     18          			clc
 3100  5F02     A5 28       			lda	__stack_ptr
 3101  5F04     69 03       			adc	#.low.3
 3102  5F06     85 28       			sta	__stack_ptr
 3103  5F08     A5 29       			lda	__stack_ptr+1
 3104  5F0A     69 00       			adc	#.high.3
 3105  5F0C     85 29       			sta	__stack_ptr+1
 3106  5F0E     28          			plp
 3107                     			.c_end	01a8dh,241
 3108                     	;GameMTTalk(3,163,0)
 3109                     			.c_start  01a95h,242
 3110  5F0F     A9 00       			lda	#0
 3111  5F11     20 AA DA    			jsr	__store_char_funct_arg
 3112  5F14     A9 A3       			lda	#.low.163
  Wed Jan 14 21:35:33 2026                                                                                               Page   56




 3113  5F16     85 20       			sta	__oper1
 3114  5F18     A9 00       			lda	#.high.163
 3115  5F1A     85 21       			sta	__oper1+1
 3116  5F1C     20 CA DA    			jsr	__store_int_funct_arg
 3117  5F1F     A9 03       			lda	#3
 3118  5F21     A2 33       			ldx	#.low.&GameMTTalk
 3119  5F23     86 26       			stx	__addr_reg
 3120  5F25     A2 90       			ldx	#.high.&GameMTTalk+1
 3121  5F27     86 27       			stx	__addr_reg+1
 3122                     			.bf_call
 3123  5F29     20 F6 D2    			jsr	__banked_function_call
 3124  5F2C     08          			php
 3125  5F2D     78          			sei
 3126  5F2E     18          			clc
 3127  5F2F     A5 28       			lda	__stack_ptr
 3128  5F31     69 03       			adc	#.low.3
 3129  5F33     85 28       			sta	__stack_ptr
 3130  5F35     A5 29       			lda	__stack_ptr+1
 3131  5F37     69 00       			adc	#.high.3
 3132  5F39     85 29       			sta	__stack_ptr+1
 3133  5F3B     28          			plp
 3134                     			.c_end	01aa8h,242
 3135                     	;GameMTTalk(3,166,0)
 3136                     			.c_start  01ab0h,243
 3137  5F3C     A9 00       			lda	#0
 3138  5F3E     20 AA DA    			jsr	__store_char_funct_arg
 3139  5F41     A9 A6       			lda	#.low.166
 3140  5F43     85 20       			sta	__oper1
 3141  5F45     A9 00       			lda	#.high.166
 3142  5F47     85 21       			sta	__oper1+1
 3143  5F49     20 CA DA    			jsr	__store_int_funct_arg
 3144  5F4C     A9 03       			lda	#3
 3145  5F4E     A2 33       			ldx	#.low.&GameMTTalk
 3146  5F50     86 26       			stx	__addr_reg
 3147  5F52     A2 90       			ldx	#.high.&GameMTTalk+1
 3148  5F54     86 27       			stx	__addr_reg+1
 3149                     			.bf_call
 3150  5F56     20 F6 D2    			jsr	__banked_function_call
 3151  5F59     08          			php
 3152  5F5A     78          			sei
 3153  5F5B     18          			clc
 3154  5F5C     A5 28       			lda	__stack_ptr
 3155  5F5E     69 03       			adc	#.low.3
 3156  5F60     85 28       			sta	__stack_ptr
 3157  5F62     A5 29       			lda	__stack_ptr+1
 3158  5F64     69 00       			adc	#.high.3
 3159  5F66     85 29       			sta	__stack_ptr+1
 3160  5F68     28          			plp
 3161                     			.c_end	01ac3h,243
 3162                     	;GameMTTalk(1,169,0)
 3163                     			.c_start  01acbh,244
 3164  5F69     A9 00       			lda	#0
 3165  5F6B     20 AA DA    			jsr	__store_char_funct_arg
 3166  5F6E     A9 A9       			lda	#.low.169
 3167  5F70     85 20       			sta	__oper1
 3168  5F72     A9 00       			lda	#.high.169
 3169  5F74     85 21       			sta	__oper1+1
  Wed Jan 14 21:35:33 2026                                                                                               Page   57




 3170  5F76     20 CA DA    			jsr	__store_int_funct_arg
 3171  5F79     A9 01       			lda	#1
 3172  5F7B     A2 33       			ldx	#.low.&GameMTTalk
 3173  5F7D     86 26       			stx	__addr_reg
 3174  5F7F     A2 90       			ldx	#.high.&GameMTTalk+1
 3175  5F81     86 27       			stx	__addr_reg+1
 3176                     			.bf_call
 3177  5F83     20 F6 D2    			jsr	__banked_function_call
 3178  5F86     08          			php
 3179  5F87     78          			sei
 3180  5F88     18          			clc
 3181  5F89     A5 28       			lda	__stack_ptr
 3182  5F8B     69 03       			adc	#.low.3
 3183  5F8D     85 28       			sta	__stack_ptr
 3184  5F8F     A5 29       			lda	__stack_ptr+1
 3185  5F91     69 00       			adc	#.high.3
 3186  5F93     85 29       			sta	__stack_ptr+1
 3187  5F95     28          			plp
 3188                     			.c_end	01adeh,244
 3189                     	;GameMTTalk(1,170,0)
 3190                     			.c_start  01ae6h,245
 3191  5F96     A9 00       			lda	#0
 3192  5F98     20 AA DA    			jsr	__store_char_funct_arg
 3193  5F9B     A9 AA       			lda	#.low.170
 3194  5F9D     85 20       			sta	__oper1
 3195  5F9F     A9 00       			lda	#.high.170
 3196  5FA1     85 21       			sta	__oper1+1
 3197  5FA3     20 CA DA    			jsr	__store_int_funct_arg
 3198  5FA6     A9 01       			lda	#1
 3199  5FA8     A2 33       			ldx	#.low.&GameMTTalk
 3200  5FAA     86 26       			stx	__addr_reg
 3201  5FAC     A2 90       			ldx	#.high.&GameMTTalk+1
 3202  5FAE     86 27       			stx	__addr_reg+1
 3203                     			.bf_call
 3204  5FB0     20 F6 D2    			jsr	__banked_function_call
 3205  5FB3     08          			php
 3206  5FB4     78          			sei
 3207  5FB5     18          			clc
 3208  5FB6     A5 28       			lda	__stack_ptr
 3209  5FB8     69 03       			adc	#.low.3
 3210  5FBA     85 28       			sta	__stack_ptr
 3211  5FBC     A5 29       			lda	__stack_ptr+1
 3212  5FBE     69 00       			adc	#.high.3
 3213  5FC0     85 29       			sta	__stack_ptr+1
 3214  5FC2     28          			plp
 3215                     			.c_end	01af9h,245
 3216                     	;GameMTTalk(2,171,0)
 3217                     			.c_start  01b01h,246
 3218  5FC3     A9 00       			lda	#0
 3219  5FC5     20 AA DA    			jsr	__store_char_funct_arg
 3220  5FC8     A9 AB       			lda	#.low.171
 3221  5FCA     85 20       			sta	__oper1
 3222  5FCC     A9 00       			lda	#.high.171
 3223  5FCE     85 21       			sta	__oper1+1
 3224  5FD0     20 CA DA    			jsr	__store_int_funct_arg
 3225  5FD3     A9 02       			lda	#2
 3226  5FD5     A2 33       			ldx	#.low.&GameMTTalk
  Wed Jan 14 21:35:33 2026                                                                                               Page   58




 3227  5FD7     86 26       			stx	__addr_reg
 3228  5FD9     A2 90       			ldx	#.high.&GameMTTalk+1
 3229  5FDB     86 27       			stx	__addr_reg+1
 3230                     			.bf_call
 3231  5FDD     20 F6 D2    			jsr	__banked_function_call
 3232  5FE0     08          			php
 3233  5FE1     78          			sei
 3234  5FE2     18          			clc
 3235  5FE3     A5 28       			lda	__stack_ptr
 3236  5FE5     69 03       			adc	#.low.3
 3237  5FE7     85 28       			sta	__stack_ptr
 3238  5FE9     A5 29       			lda	__stack_ptr+1
 3239  5FEB     69 00       			adc	#.high.3
 3240  5FED     85 29       			sta	__stack_ptr+1
 3241  5FEF     28          			plp
 3242                     			.c_end	01b14h,246
 3243                     	;GameMTTalk(5,173,1)
 3244                     			.c_start  01b1ch,247
 3245  5FF0     A9 01       			lda	#1
 3246  5FF2     20 AA DA    			jsr	__store_char_funct_arg
 3247  5FF5     A9 AD       			lda	#.low.173
 3248  5FF7     85 20       			sta	__oper1
 3249  5FF9     A9 00       			lda	#.high.173
 3250  5FFB     85 21       			sta	__oper1+1
 3251  5FFD     20 CA DA    			jsr	__store_int_funct_arg
 3252  6000     A9 05       			lda	#5
 3253  6002     A2 33       			ldx	#.low.&GameMTTalk
 3254  6004     86 26       			stx	__addr_reg
 3255  6006     A2 90       			ldx	#.high.&GameMTTalk+1
 3256  6008     86 27       			stx	__addr_reg+1
 3257                     			.bf_call
 3258  600A     20 F6 D2    			jsr	__banked_function_call
 3259  600D     08          			php
 3260  600E     78          			sei
 3261  600F     18          			clc
 3262  6010     A5 28       			lda	__stack_ptr
 3263  6012     69 03       			adc	#.low.3
 3264  6014     85 28       			sta	__stack_ptr
 3265  6016     A5 29       			lda	__stack_ptr+1
 3266  6018     69 00       			adc	#.high.3
 3267  601A     85 29       			sta	__stack_ptr+1
 3268  601C     28          			plp
 3269                     			.c_end	01b2fh,247
 3270                     	;GameMTTalk(1,178,0)
 3271                     			.c_start  01b37h,248
 3272  601D     A9 00       			lda	#0
 3273  601F     20 AA DA    			jsr	__store_char_funct_arg
 3274  6022     A9 B2       			lda	#.low.178
 3275  6024     85 20       			sta	__oper1
 3276  6026     A9 00       			lda	#.high.178
 3277  6028     85 21       			sta	__oper1+1
 3278  602A     20 CA DA    			jsr	__store_int_funct_arg
 3279  602D     A9 01       			lda	#1
 3280  602F     A2 33       			ldx	#.low.&GameMTTalk
 3281  6031     86 26       			stx	__addr_reg
 3282  6033     A2 90       			ldx	#.high.&GameMTTalk+1
 3283  6035     86 27       			stx	__addr_reg+1
  Wed Jan 14 21:35:33 2026                                                                                               Page   59




 3284                     			.bf_call
 3285  6037     20 F6 D2    			jsr	__banked_function_call
 3286  603A     08          			php
 3287  603B     78          			sei
 3288  603C     18          			clc
 3289  603D     A5 28       			lda	__stack_ptr
 3290  603F     69 03       			adc	#.low.3
 3291  6041     85 28       			sta	__stack_ptr
 3292  6043     A5 29       			lda	__stack_ptr+1
 3293  6045     69 00       			adc	#.high.3
 3294  6047     85 29       			sta	__stack_ptr+1
 3295  6049     28          			plp
 3296                     			.c_end	01b4ah,248
 3297                     	;GameMTTalk(3,179,0)
 3298                     			.c_start  01b52h,249
 3299  604A     A9 00       			lda	#0
 3300  604C     20 AA DA    			jsr	__store_char_funct_arg
 3301  604F     A9 B3       			lda	#.low.179
 3302  6051     85 20       			sta	__oper1
 3303  6053     A9 00       			lda	#.high.179
 3304  6055     85 21       			sta	__oper1+1
 3305  6057     20 CA DA    			jsr	__store_int_funct_arg
 3306  605A     A9 03       			lda	#3
 3307  605C     A2 33       			ldx	#.low.&GameMTTalk
 3308  605E     86 26       			stx	__addr_reg
 3309  6060     A2 90       			ldx	#.high.&GameMTTalk+1
 3310  6062     86 27       			stx	__addr_reg+1
 3311                     			.bf_call
 3312  6064     20 F6 D2    			jsr	__banked_function_call
 3313  6067     08          			php
 3314  6068     78          			sei
 3315  6069     18          			clc
 3316  606A     A5 28       			lda	__stack_ptr
 3317  606C     69 03       			adc	#.low.3
 3318  606E     85 28       			sta	__stack_ptr
 3319  6070     A5 29       			lda	__stack_ptr+1
 3320  6072     69 00       			adc	#.high.3
 3321  6074     85 29       			sta	__stack_ptr+1
 3322  6076     28          			plp
 3323                     			.c_end	01b65h,249
 3324                     	;g_GameMTCurMap[309]=0
 3325                     			.c_start  01b6dh,250
 3326  6077     AD A8 1F    			lda	_g_GameMTCurMap
 3327  607A     85 20       			sta	__oper1
 3328  607C     AD A9 1F    			lda	_g_GameMTCurMap+1
 3329  607F     85 21       			sta	__oper1+1
 3330  6081     18          			clc
 3331  6082     A5 20       			lda	__oper1
 3332  6084     69 35       			adc	#.low.309
 3333  6086     85 20       			sta	__oper1
 3334  6088     A5 21       			lda	__oper1+1
 3335  608A     69 01       			adc	#.high.309
 3336  608C     85 21       			sta	__oper1+1
 3337  608E     A5 20       			lda	__oper1
 3338  6090     85 23       			sta	__oper2
 3339  6092     A5 21       			lda	__oper1+1
 3340  6094     85 24       			sta	__oper2+1
  Wed Jan 14 21:35:33 2026                                                                                               Page   60




 3341  6096     A9 00       			lda	#0
 3342  6098     A0 00       			ldy	#0
 3343  609A     91 23       			sta	(__oper2),y
 3344                     			.c_end	01b82h,250
 3345                     	;
 3346                     	;else if
 3347  609C     4C D1 64    			jmp	?EOI27
 3348                     			.if_else  ?EOI27,1,252
 3349         441C 609F   	?BOL27:		.equal	$
 3350                     	;(g_GameMTFloor==4&&g_GameMTCurMap[309]+1=1&&g_GameMTCurMap[1462]==31)
 3351                     	;				
 3352                     			.if_top	01b95h,?BOL29,1,252
 3353  609F     A9 01       			lda	#1
 3354  60A1     D0 03       			bne	+3
 3355  60A3     4C 66 61    			jmp	?BOL29
 3356         3424 60A6   	?ACC5:		.equal	$
 3357  60A6     AD A8 1F    			lda	_g_GameMTCurMap
 3358  60A9     85 20       			sta	__oper1
 3359  60AB     AD A9 1F    			lda	_g_GameMTCurMap+1
 3360  60AE     85 21       			sta	__oper1+1
 3361  60B0     18          			clc
 3362  60B1     A5 20       			lda	__oper1
 3363  60B3     69 B6       			adc	#.low.1462
 3364  60B5     85 20       			sta	__oper1
 3365  60B7     A5 21       			lda	__oper1+1
 3366  60B9     69 05       			adc	#.high.1462
 3367  60BB     85 21       			sta	__oper1+1
 3368  60BD     A0 00       			ldy	#0
 3369  60BF     B1 20       			lda	(__oper1),y
 3370  60C1     38          			sec
 3371  60C2     E9 1F       			sbc	#31
 3372  60C4     F0 03       			beq	+3
 3373  60C6     4C 66 61    			jmp	?BOL29
 3374  60C9     AD A7 1F    			lda	_g_GameMTFloor
 3375  60CC     38          			sec
 3376  60CD     E9 04       			sbc	#4
 3377  60CF     F0 03       			beq	+3
 3378  60D1     4C 66 61    			jmp	?BOL29
 3379         3227 60D4   	?ACC4:		.equal	$
 3380  60D4     AD A8 1F    			lda	_g_GameMTCurMap
 3381  60D7     85 20       			sta	__oper1
 3382  60D9     AD A9 1F    			lda	_g_GameMTCurMap+1
 3383  60DC     85 21       			sta	__oper1+1
 3384  60DE     18          			clc
 3385  60DF     A5 20       			lda	__oper1
 3386  60E1     69 35       			adc	#.low.309
 3387  60E3     85 20       			sta	__oper1
 3388  60E5     A5 21       			lda	__oper1+1
 3389  60E7     69 01       			adc	#.high.309
 3390  60E9     85 21       			sta	__oper1+1
 3391  60EB     A0 00       			ldy	#0
 3392  60ED     B1 20       			lda	(__oper1),y
 3393  60EF     18          			clc
 3394  60F0     69 01       			adc	#1
 3395  60F2     D0 03       			bne	+3
 3396  60F4     4C 66 61    			jmp	?BOL29
 3397  60F7     A9 01       			lda	#1
  Wed Jan 14 21:35:33 2026                                                                                               Page   61




 3398  60F9     8D A7 1F    			sta	_g_GameMTFloor
 3399  60FC     AD A7 1F    			lda	_g_GameMTFloor
 3400  60FF     D0 03       			bne	+3
 3401  6101     4C 66 61    			jmp	?BOL29
 3402         3213 6104   	?PLC29:		.equal	$
 3403                     			.c_end	01bddh,253
 3404                     	;GameMTTalk(2,182,0)
 3405                     			.c_start  01beah,254
 3406  6104     A9 00       			lda	#0
 3407  6106     20 AA DA    			jsr	__store_char_funct_arg
 3408  6109     A9 B6       			lda	#.low.182
 3409  610B     85 20       			sta	__oper1
 3410  610D     A9 00       			lda	#.high.182
 3411  610F     85 21       			sta	__oper1+1
 3412  6111     20 CA DA    			jsr	__store_int_funct_arg
 3413  6114     A9 02       			lda	#2
 3414  6116     A2 33       			ldx	#.low.&GameMTTalk
 3415  6118     86 26       			stx	__addr_reg
 3416  611A     A2 90       			ldx	#.high.&GameMTTalk+1
 3417  611C     86 27       			stx	__addr_reg+1
 3418                     			.bf_call
 3419  611E     20 F6 D2    			jsr	__banked_function_call
 3420  6121     08          			php
 3421  6122     78          			sei
 3422  6123     18          			clc
 3423  6124     A5 28       			lda	__stack_ptr
 3424  6126     69 03       			adc	#.low.3
 3425  6128     85 28       			sta	__stack_ptr
 3426  612A     A5 29       			lda	__stack_ptr+1
 3427  612C     69 00       			adc	#.high.3
 3428  612E     85 29       			sta	__stack_ptr+1
 3429  6130     28          			plp
 3430                     			.c_end	01bfdh,254
 3431                     	;GameMTTalk(2,184,0)
 3432                     			.c_start  01c05h,255
 3433  6131     A9 00       			lda	#0
 3434  6133     20 AA DA    			jsr	__store_char_funct_arg
 3435  6136     A9 B8       			lda	#.low.184
 3436  6138     85 20       			sta	__oper1
 3437  613A     A9 00       			lda	#.high.184
 3438  613C     85 21       			sta	__oper1+1
 3439  613E     20 CA DA    			jsr	__store_int_funct_arg
 3440  6141     A9 02       			lda	#2
 3441  6143     A2 33       			ldx	#.low.&GameMTTalk
 3442  6145     86 26       			stx	__addr_reg
 3443  6147     A2 90       			ldx	#.high.&GameMTTalk+1
 3444  6149     86 27       			stx	__addr_reg+1
 3445                     			.bf_call
 3446  614B     20 F6 D2    			jsr	__banked_function_call
 3447  614E     08          			php
 3448  614F     78          			sei
 3449  6150     18          			clc
 3450  6151     A5 28       			lda	__stack_ptr
 3451  6153     69 03       			adc	#.low.3
 3452  6155     85 28       			sta	__stack_ptr
 3453  6157     A5 29       			lda	__stack_ptr+1
 3454  6159     69 00       			adc	#.high.3
  Wed Jan 14 21:35:33 2026                                                                                               Page   62




 3455  615B     85 29       			sta	__stack_ptr+1
 3456  615D     28          			plp
 3457                     			.c_end	01c18h,255
 3458                     	;g_GameMTFloor=4
 3459                     			.c_start  01c20h,256
 3460  615E     A9 04       			lda	#4
 3461  6160     8D A7 1F    			sta	_g_GameMTFloor
 3462                     			.c_end	01c2fh,256
 3463                     	;
 3464                     	;else if
 3465  6163     4C D1 64    			jmp	?EOI27
 3466                     			.if_else  ?EOI27,1,258
 3467         3419 6166   	?BOL29:		.equal	$
 3468                     	;(g_GameMTFloor==4&&g_GameMTCurMap[309]+1=1&&g_GameMTCurMap[1462]+1==1)
 3469                     	;				
 3470                     			.if_top	01c42h,?BOL31,1,258
 3471  6166     A9 01       			lda	#1
 3472  6168     D0 03       			bne	+3
 3473  616A     4C 9F 62    			jmp	?BOL31
 3474         4219 616D   	?ACC7:		.equal	$
 3475  616D     AD A8 1F    			lda	_g_GameMTCurMap
 3476  6170     85 20       			sta	__oper1
 3477  6172     AD A9 1F    			lda	_g_GameMTCurMap+1
 3478  6175     85 21       			sta	__oper1+1
 3479  6177     18          			clc
 3480  6178     A5 20       			lda	__oper1
 3481  617A     69 B6       			adc	#.low.1462
 3482  617C     85 20       			sta	__oper1
 3483  617E     A5 21       			lda	__oper1+1
 3484  6180     69 05       			adc	#.high.1462
 3485  6182     85 21       			sta	__oper1+1
 3486  6184     A0 00       			ldy	#0
 3487  6186     B1 20       			lda	(__oper1),y
 3488  6188     18          			clc
 3489  6189     69 01       			adc	#1
 3490  618B     38          			sec
 3491  618C     E9 01       			sbc	#1
 3492  618E     F0 03       			beq	+3
 3493  6190     4C 9F 62    			jmp	?BOL31
 3494  6193     AD A7 1F    			lda	_g_GameMTFloor
 3495  6196     38          			sec
 3496  6197     E9 04       			sbc	#4
 3497  6199     F0 03       			beq	+3
 3498  619B     4C 9F 62    			jmp	?BOL31
 3499         431C 619E   	?ACC6:		.equal	$
 3500  619E     AD A8 1F    			lda	_g_GameMTCurMap
 3501  61A1     85 20       			sta	__oper1
 3502  61A3     AD A9 1F    			lda	_g_GameMTCurMap+1
 3503  61A6     85 21       			sta	__oper1+1
 3504  61A8     18          			clc
 3505  61A9     A5 20       			lda	__oper1
 3506  61AB     69 35       			adc	#.low.309
 3507  61AD     85 20       			sta	__oper1
 3508  61AF     A5 21       			lda	__oper1+1
 3509  61B1     69 01       			adc	#.high.309
 3510  61B3     85 21       			sta	__oper1+1
 3511  61B5     A0 00       			ldy	#0
  Wed Jan 14 21:35:33 2026                                                                                               Page   63




 3512  61B7     B1 20       			lda	(__oper1),y
 3513  61B9     18          			clc
 3514  61BA     69 01       			adc	#1
 3515  61BC     D0 03       			bne	+3
 3516  61BE     4C 9F 62    			jmp	?BOL31
 3517  61C1     A9 01       			lda	#1
 3518  61C3     8D A7 1F    			sta	_g_GameMTFloor
 3519  61C6     AD A7 1F    			lda	_g_GameMTFloor
 3520  61C9     D0 03       			bne	+3
 3521  61CB     4C 9F 62    			jmp	?BOL31
 3522         4326 61CE   	?PLC30:		.equal	$
 3523                     			.c_end	01c8bh,259
 3524                     	;GameMTTalk(2,186,0)
 3525                     			.c_start  01c98h,260
 3526  61CE     A9 00       			lda	#0
 3527  61D0     20 AA DA    			jsr	__store_char_funct_arg
 3528  61D3     A9 BA       			lda	#.low.186
 3529  61D5     85 20       			sta	__oper1
 3530  61D7     A9 00       			lda	#.high.186
 3531  61D9     85 21       			sta	__oper1+1
 3532  61DB     20 CA DA    			jsr	__store_int_funct_arg
 3533  61DE     A9 02       			lda	#2
 3534  61E0     A2 33       			ldx	#.low.&GameMTTalk
 3535  61E2     86 26       			stx	__addr_reg
 3536  61E4     A2 90       			ldx	#.high.&GameMTTalk+1
 3537  61E6     86 27       			stx	__addr_reg+1
 3538                     			.bf_call
 3539  61E8     20 F6 D2    			jsr	__banked_function_call
 3540  61EB     08          			php
 3541  61EC     78          			sei
 3542  61ED     18          			clc
 3543  61EE     A5 28       			lda	__stack_ptr
 3544  61F0     69 03       			adc	#.low.3
 3545  61F2     85 28       			sta	__stack_ptr
 3546  61F4     A5 29       			lda	__stack_ptr+1
 3547  61F6     69 00       			adc	#.high.3
 3548  61F8     85 29       			sta	__stack_ptr+1
 3549  61FA     28          			plp
 3550                     			.c_end	01cabh,260
 3551                     	;GameMTTalk(4,188,0)
 3552                     			.c_start  01cb3h,261
 3553  61FB     A9 00       			lda	#0
 3554  61FD     20 AA DA    			jsr	__store_char_funct_arg
 3555  6200     A9 BC       			lda	#.low.188
 3556  6202     85 20       			sta	__oper1
 3557  6204     A9 00       			lda	#.high.188
 3558  6206     85 21       			sta	__oper1+1
 3559  6208     20 CA DA    			jsr	__store_int_funct_arg
 3560  620B     A9 04       			lda	#4
 3561  620D     A2 33       			ldx	#.low.&GameMTTalk
 3562  620F     86 26       			stx	__addr_reg
 3563  6211     A2 90       			ldx	#.high.&GameMTTalk+1
 3564  6213     86 27       			stx	__addr_reg+1
 3565                     			.bf_call
 3566  6215     20 F6 D2    			jsr	__banked_function_call
 3567  6218     08          			php
 3568  6219     78          			sei
  Wed Jan 14 21:35:33 2026                                                                                               Page   64




 3569  621A     18          			clc
 3570  621B     A5 28       			lda	__stack_ptr
 3571  621D     69 03       			adc	#.low.3
 3572  621F     85 28       			sta	__stack_ptr
 3573  6221     A5 29       			lda	__stack_ptr+1
 3574  6223     69 00       			adc	#.high.3
 3575  6225     85 29       			sta	__stack_ptr+1
 3576  6227     28          			plp
 3577                     			.c_end	01cc6h,261
 3578                     	;g_GameMTCurMap[2271]=0
 3579                     			.c_start  01cceh,262
 3580  6228     AD A8 1F    			lda	_g_GameMTCurMap
 3581  622B     85 20       			sta	__oper1
 3582  622D     AD A9 1F    			lda	_g_GameMTCurMap+1
 3583  6230     85 21       			sta	__oper1+1
 3584  6232     18          			clc
 3585  6233     A5 20       			lda	__oper1
 3586  6235     69 DF       			adc	#.low.2271
 3587  6237     85 20       			sta	__oper1
 3588  6239     A5 21       			lda	__oper1+1
 3589  623B     69 08       			adc	#.high.2271
 3590  623D     85 21       			sta	__oper1+1
 3591  623F     A5 20       			lda	__oper1
 3592  6241     85 23       			sta	__oper2
 3593  6243     A5 21       			lda	__oper1+1
 3594  6245     85 24       			sta	__oper2+1
 3595  6247     A9 00       			lda	#0
 3596  6249     A0 00       			ldy	#0
 3597  624B     91 23       			sta	(__oper2),y
 3598                     			.c_end	01ce4h,262
 3599                     	;g_GameMTCurMap[2282]=0
 3600                     			.c_start  01cech,263
 3601  624D     AD A8 1F    			lda	_g_GameMTCurMap
 3602  6250     85 20       			sta	__oper1
 3603  6252     AD A9 1F    			lda	_g_GameMTCurMap+1
 3604  6255     85 21       			sta	__oper1+1
 3605  6257     18          			clc
 3606  6258     A5 20       			lda	__oper1
 3607  625A     69 EA       			adc	#.low.2282
 3608  625C     85 20       			sta	__oper1
 3609  625E     A5 21       			lda	__oper1+1
 3610  6260     69 08       			adc	#.high.2282
 3611  6262     85 21       			sta	__oper1+1
 3612  6264     A5 20       			lda	__oper1
 3613  6266     85 23       			sta	__oper2
 3614  6268     A5 21       			lda	__oper1+1
 3615  626A     85 24       			sta	__oper2+1
 3616  626C     A9 00       			lda	#0
 3617  626E     A0 00       			ldy	#0
 3618  6270     91 23       			sta	(__oper2),y
 3619                     			.c_end	01d02h,263
 3620                     	;g_GameMTCurMap[489]=0
 3621                     			.c_start  01d0ah,264
 3622  6272     AD A8 1F    			lda	_g_GameMTCurMap
 3623  6275     85 20       			sta	__oper1
 3624  6277     AD A9 1F    			lda	_g_GameMTCurMap+1
 3625  627A     85 21       			sta	__oper1+1
  Wed Jan 14 21:35:33 2026                                                                                               Page   65




 3626  627C     18          			clc
 3627  627D     A5 20       			lda	__oper1
 3628  627F     69 E9       			adc	#.low.489
 3629  6281     85 20       			sta	__oper1
 3630  6283     A5 21       			lda	__oper1+1
 3631  6285     69 01       			adc	#.high.489
 3632  6287     85 21       			sta	__oper1+1
 3633  6289     A5 20       			lda	__oper1
 3634  628B     85 23       			sta	__oper2
 3635  628D     A5 21       			lda	__oper1+1
 3636  628F     85 24       			sta	__oper2+1
 3637  6291     A9 00       			lda	#0
 3638  6293     A0 00       			ldy	#0
 3639  6295     91 23       			sta	(__oper2),y
 3640                     			.c_end	01d1fh,264
 3641                     	;g_GameMTFloor=4
 3642                     			.c_start  01d27h,265
 3643  6297     A9 04       			lda	#4
 3644  6299     8D A7 1F    			sta	_g_GameMTFloor
 3645                     			.c_end	01d36h,265
 3646                     	;
 3647                     	;else if
 3648  629C     4C D1 64    			jmp	?EOI27
 3649                     			.if_else  ?EOI27,1,267
 3650         441C 629F   	?BOL31:		.equal	$
 3651                     	;(g_GameMTFloor==21&&g_GameMTCurMap[2557]==57)
 3652                     	;				
 3653                     			.if_top	01d49h,?BOL33,1,267
 3654  629F     AD A7 1F    			lda	_g_GameMTFloor
 3655  62A2     38          			sec
 3656  62A3     E9 15       			sbc	#21
 3657  62A5     F0 03       			beq	+3
 3658  62A7     4C 57 63    			jmp	?BOL33
 3659         3824 62AA   	?ACC8:		.equal	$
 3660  62AA     AD A8 1F    			lda	_g_GameMTCurMap
 3661  62AD     85 20       			sta	__oper1
 3662  62AF     AD A9 1F    			lda	_g_GameMTCurMap+1
 3663  62B2     85 21       			sta	__oper1+1
 3664  62B4     18          			clc
 3665  62B5     A5 20       			lda	__oper1
 3666  62B7     69 FD       			adc	#.low.2557
 3667  62B9     85 20       			sta	__oper1
 3668  62BB     A5 21       			lda	__oper1+1
 3669  62BD     69 09       			adc	#.high.2557
 3670  62BF     85 21       			sta	__oper1+1
 3671  62C1     A0 00       			ldy	#0
 3672  62C3     B1 20       			lda	(__oper1),y
 3673  62C5     38          			sec
 3674  62C6     E9 39       			sbc	#57
 3675  62C8     F0 03       			beq	+3
 3676  62CA     4C 57 63    			jmp	?BOL33
 3677         4226 62CD   	?PLC31:		.equal	$
 3678                     			.c_end	01d79h,268
 3679                     	;GameMTTalk(3,306,0)
 3680                     			.c_start  01d86h,269
 3681  62CD     A9 00       			lda	#0
 3682  62CF     20 AA DA    			jsr	__store_char_funct_arg
  Wed Jan 14 21:35:33 2026                                                                                               Page   66




 3683  62D2     A9 32       			lda	#.low.306
 3684  62D4     85 20       			sta	__oper1
 3685  62D6     A9 01       			lda	#.high.306
 3686  62D8     85 21       			sta	__oper1+1
 3687  62DA     20 CA DA    			jsr	__store_int_funct_arg
 3688  62DD     A9 03       			lda	#3
 3689  62DF     A2 33       			ldx	#.low.&GameMTTalk
 3690  62E1     86 26       			stx	__addr_reg
 3691  62E3     A2 90       			ldx	#.high.&GameMTTalk+1
 3692  62E5     86 27       			stx	__addr_reg+1
 3693                     			.bf_call
 3694  62E7     20 F6 D2    			jsr	__banked_function_call
 3695  62EA     08          			php
 3696  62EB     78          			sei
 3697  62EC     18          			clc
 3698  62ED     A5 28       			lda	__stack_ptr
 3699  62EF     69 03       			adc	#.low.3
 3700  62F1     85 28       			sta	__stack_ptr
 3701  62F3     A5 29       			lda	__stack_ptr+1
 3702  62F5     69 00       			adc	#.high.3
 3703  62F7     85 29       			sta	__stack_ptr+1
 3704  62F9     28          			plp
 3705                     			.c_end	01d99h,269
 3706                     	;GameMTTalk(4,309,0)
 3707                     			.c_start  01da1h,270
 3708  62FA     A9 00       			lda	#0
 3709  62FC     20 AA DA    			jsr	__store_char_funct_arg
 3710  62FF     A9 35       			lda	#.low.309
 3711  6301     85 20       			sta	__oper1
 3712  6303     A9 01       			lda	#.high.309
 3713  6305     85 21       			sta	__oper1+1
 3714  6307     20 CA DA    			jsr	__store_int_funct_arg
 3715  630A     A9 04       			lda	#4
 3716  630C     A2 33       			ldx	#.low.&GameMTTalk
 3717  630E     86 26       			stx	__addr_reg
 3718  6310     A2 90       			ldx	#.high.&GameMTTalk+1
 3719  6312     86 27       			stx	__addr_reg+1
 3720                     			.bf_call
 3721  6314     20 F6 D2    			jsr	__banked_function_call
 3722  6317     08          			php
 3723  6318     78          			sei
 3724  6319     18          			clc
 3725  631A     A5 28       			lda	__stack_ptr
 3726  631C     69 03       			adc	#.low.3
 3727  631E     85 28       			sta	__stack_ptr
 3728  6320     A5 29       			lda	__stack_ptr+1
 3729  6322     69 00       			adc	#.high.3
 3730  6324     85 29       			sta	__stack_ptr+1
 3731  6326     28          			plp
 3732                     			.c_end	01db4h,270
 3733                     	;GameMTTalk(2,313,0)
 3734                     			.c_start  01dbch,271
 3735  6327     A9 00       			lda	#0
 3736  6329     20 AA DA    			jsr	__store_char_funct_arg
 3737  632C     A9 39       			lda	#.low.313
 3738  632E     85 20       			sta	__oper1
 3739  6330     A9 01       			lda	#.high.313
  Wed Jan 14 21:35:33 2026                                                                                               Page   67




 3740  6332     85 21       			sta	__oper1+1
 3741  6334     20 CA DA    			jsr	__store_int_funct_arg
 3742  6337     A9 02       			lda	#2
 3743  6339     A2 33       			ldx	#.low.&GameMTTalk
 3744  633B     86 26       			stx	__addr_reg
 3745  633D     A2 90       			ldx	#.high.&GameMTTalk+1
 3746  633F     86 27       			stx	__addr_reg+1
 3747                     			.bf_call
 3748  6341     20 F6 D2    			jsr	__banked_function_call
 3749  6344     08          			php
 3750  6345     78          			sei
 3751  6346     18          			clc
 3752  6347     A5 28       			lda	__stack_ptr
 3753  6349     69 03       			adc	#.low.3
 3754  634B     85 28       			sta	__stack_ptr
 3755  634D     A5 29       			lda	__stack_ptr+1
 3756  634F     69 00       			adc	#.high.3
 3757  6351     85 29       			sta	__stack_ptr+1
 3758  6353     28          			plp
 3759                     			.c_end	01dcfh,271
 3760                     	;
 3761                     	;else if
 3762  6354     4C D1 64    			jmp	?EOI27
 3763                     			.if_else  ?EOI27,1,273
 3764         3518 6357   	?BOL33:		.equal	$
 3765                     	;(g_GameMTFloor==21&&g_GameMTCurMap[2557]+1==1&&g_GameMTCurMap[2555]==12)
 3766                     	;				
 3767                     			.if_top	01de2h,?BOL35,1,273
 3768  6357     AD A7 1F    			lda	_g_GameMTFloor
 3769  635A     38          			sec
 3770  635B     E9 15       			sbc	#21
 3771  635D     F0 03       			beq	+3
 3772  635F     4C 08 64    			jmp	?BOL35
 3773         4718 6362   	?ACC9:		.equal	$
 3774  6362     AD A8 1F    			lda	_g_GameMTCurMap
 3775  6365     85 20       			sta	__oper1
 3776  6367     AD A9 1F    			lda	_g_GameMTCurMap+1
 3777  636A     85 21       			sta	__oper1+1
 3778  636C     18          			clc
 3779  636D     A5 20       			lda	__oper1
 3780  636F     69 FD       			adc	#.low.2557
 3781  6371     85 20       			sta	__oper1
 3782  6373     A5 21       			lda	__oper1+1
 3783  6375     69 09       			adc	#.high.2557
 3784  6377     85 21       			sta	__oper1+1
 3785  6379     A0 00       			ldy	#0
 3786  637B     B1 20       			lda	(__oper1),y
 3787  637D     18          			clc
 3788  637E     69 01       			adc	#1
 3789  6380     38          			sec
 3790  6381     E9 01       			sbc	#1
 3791  6383     F0 03       			beq	+3
 3792  6385     4C 08 64    			jmp	?BOL35
 3793         361B 6388   	?ACC10:		.equal	$
 3794  6388     AD A8 1F    			lda	_g_GameMTCurMap
 3795  638B     85 20       			sta	__oper1
 3796  638D     AD A9 1F    			lda	_g_GameMTCurMap+1
  Wed Jan 14 21:35:33 2026                                                                                               Page   68




 3797  6390     85 21       			sta	__oper1+1
 3798  6392     18          			clc
 3799  6393     A5 20       			lda	__oper1
 3800  6395     69 FB       			adc	#.low.2555
 3801  6397     85 20       			sta	__oper1
 3802  6399     A5 21       			lda	__oper1+1
 3803  639B     69 09       			adc	#.high.2555
 3804  639D     85 21       			sta	__oper1+1
 3805  639F     A0 00       			ldy	#0
 3806  63A1     B1 20       			lda	(__oper1),y
 3807  63A3     38          			sec
 3808  63A4     E9 0C       			sbc	#12
 3809  63A6     F0 03       			beq	+3
 3810  63A8     4C 08 64    			jmp	?BOL35
 3811         3924 63AB   	?PLC32:		.equal	$
 3812                     			.c_end	01e2dh,274
 3813                     	;GameMTTalk(2,356,0)
 3814                     			.c_start  01e3ah,275
 3815  63AB     A9 00       			lda	#0
 3816  63AD     20 AA DA    			jsr	__store_char_funct_arg
 3817  63B0     A9 64       			lda	#.low.356
 3818  63B2     85 20       			sta	__oper1
 3819  63B4     A9 01       			lda	#.high.356
 3820  63B6     85 21       			sta	__oper1+1
 3821  63B8     20 CA DA    			jsr	__store_int_funct_arg
 3822  63BB     A9 02       			lda	#2
 3823  63BD     A2 33       			ldx	#.low.&GameMTTalk
 3824  63BF     86 26       			stx	__addr_reg
 3825  63C1     A2 90       			ldx	#.high.&GameMTTalk+1
 3826  63C3     86 27       			stx	__addr_reg+1
 3827                     			.bf_call
 3828  63C5     20 F6 D2    			jsr	__banked_function_call
 3829  63C8     08          			php
 3830  63C9     78          			sei
 3831  63CA     18          			clc
 3832  63CB     A5 28       			lda	__stack_ptr
 3833  63CD     69 03       			adc	#.low.3
 3834  63CF     85 28       			sta	__stack_ptr
 3835  63D1     A5 29       			lda	__stack_ptr+1
 3836  63D3     69 00       			adc	#.high.3
 3837  63D5     85 29       			sta	__stack_ptr+1
 3838  63D7     28          			plp
 3839                     			.c_end	01e4dh,275
 3840                     	;GameMTTalk(2,360,0)
 3841                     			.c_start  01e55h,276
 3842  63D8     A9 00       			lda	#0
 3843  63DA     20 AA DA    			jsr	__store_char_funct_arg
 3844  63DD     A9 68       			lda	#.low.360
 3845  63DF     85 20       			sta	__oper1
 3846  63E1     A9 01       			lda	#.high.360
 3847  63E3     85 21       			sta	__oper1+1
 3848  63E5     20 CA DA    			jsr	__store_int_funct_arg
 3849  63E8     A9 02       			lda	#2
 3850  63EA     A2 33       			ldx	#.low.&GameMTTalk
 3851  63EC     86 26       			stx	__addr_reg
 3852  63EE     A2 90       			ldx	#.high.&GameMTTalk+1
 3853  63F0     86 27       			stx	__addr_reg+1
  Wed Jan 14 21:35:33 2026                                                                                               Page   69




 3854                     			.bf_call
 3855  63F2     20 F6 D2    			jsr	__banked_function_call
 3856  63F5     08          			php
 3857  63F6     78          			sei
 3858  63F7     18          			clc
 3859  63F8     A5 28       			lda	__stack_ptr
 3860  63FA     69 03       			adc	#.low.3
 3861  63FC     85 28       			sta	__stack_ptr
 3862  63FE     A5 29       			lda	__stack_ptr+1
 3863  6400     69 00       			adc	#.high.3
 3864  6402     85 29       			sta	__stack_ptr+1
 3865  6404     28          			plp
 3866                     			.c_end	01e68h,276
 3867                     	;
 3868                     	;else
 3869                     	;				
 3870  6405     4C D1 64    			jmp	?EOI27
 3871                     			.if_else  ?EOI27,1,279
 3872         3613 6408   	?BOL35:		.equal	$
 3873                     	;GameMTTalk(2,356,0)
 3874                     			.c_start  01e88h,280
 3875  6408     A9 00       			lda	#0
 3876  640A     20 AA DA    			jsr	__store_char_funct_arg
 3877  640D     A9 64       			lda	#.low.356
 3878  640F     85 20       			sta	__oper1
 3879  6411     A9 01       			lda	#.high.356
 3880  6413     85 21       			sta	__oper1+1
 3881  6415     20 CA DA    			jsr	__store_int_funct_arg
 3882  6418     A9 02       			lda	#2
 3883  641A     A2 33       			ldx	#.low.&GameMTTalk
 3884  641C     86 26       			stx	__addr_reg
 3885  641E     A2 90       			ldx	#.high.&GameMTTalk+1
 3886  6420     86 27       			stx	__addr_reg+1
 3887                     			.bf_call
 3888  6422     20 F6 D2    			jsr	__banked_function_call
 3889  6425     08          			php
 3890  6426     78          			sei
 3891  6427     18          			clc
 3892  6428     A5 28       			lda	__stack_ptr
 3893  642A     69 03       			adc	#.low.3
 3894  642C     85 28       			sta	__stack_ptr
 3895  642E     A5 29       			lda	__stack_ptr+1
 3896  6430     69 00       			adc	#.high.3
 3897  6432     85 29       			sta	__stack_ptr+1
 3898  6434     28          			plp
 3899                     			.c_end	01e9bh,280
 3900                     	;GameMTTalk(2,358,0)
 3901                     			.c_start  01ea3h,281
 3902  6435     A9 00       			lda	#0
 3903  6437     20 AA DA    			jsr	__store_char_funct_arg
 3904  643A     A9 66       			lda	#.low.358
 3905  643C     85 20       			sta	__oper1
 3906  643E     A9 01       			lda	#.high.358
 3907  6440     85 21       			sta	__oper1+1
 3908  6442     20 CA DA    			jsr	__store_int_funct_arg
 3909  6445     A9 02       			lda	#2
 3910  6447     A2 33       			ldx	#.low.&GameMTTalk
  Wed Jan 14 21:35:33 2026                                                                                               Page   70




 3911  6449     86 26       			stx	__addr_reg
 3912  644B     A2 90       			ldx	#.high.&GameMTTalk+1
 3913  644D     86 27       			stx	__addr_reg+1
 3914                     			.bf_call
 3915  644F     20 F6 D2    			jsr	__banked_function_call
 3916  6452     08          			php
 3917  6453     78          			sei
 3918  6454     18          			clc
 3919  6455     A5 28       			lda	__stack_ptr
 3920  6457     69 03       			adc	#.low.3
 3921  6459     85 28       			sta	__stack_ptr
 3922  645B     A5 29       			lda	__stack_ptr+1
 3923  645D     69 00       			adc	#.high.3
 3924  645F     85 29       			sta	__stack_ptr+1
 3925  6461     28          			plp
 3926                     			.c_end	01eb6h,281
 3927                     	;g_GameMTCurMap[2622]=0
 3928                     			.c_start  01ebeh,282
 3929  6462     AD A8 1F    			lda	_g_GameMTCurMap
 3930  6465     85 20       			sta	__oper1
 3931  6467     AD A9 1F    			lda	_g_GameMTCurMap+1
 3932  646A     85 21       			sta	__oper1+1
 3933  646C     18          			clc
 3934  646D     A5 20       			lda	__oper1
 3935  646F     69 3E       			adc	#.low.2622
 3936  6471     85 20       			sta	__oper1
 3937  6473     A5 21       			lda	__oper1+1
 3938  6475     69 0A       			adc	#.high.2622
 3939  6477     85 21       			sta	__oper1+1
 3940  6479     A5 20       			lda	__oper1
 3941  647B     85 23       			sta	__oper2
 3942  647D     A5 21       			lda	__oper1+1
 3943  647F     85 24       			sta	__oper2+1
 3944  6481     A9 00       			lda	#0
 3945  6483     A0 00       			ldy	#0
 3946  6485     91 23       			sta	(__oper2),y
 3947                     			.c_end	01ed4h,282
 3948                     	;g_GameMTCurMap[2624]=0
 3949                     			.c_start  01edch,283
 3950  6487     AD A8 1F    			lda	_g_GameMTCurMap
 3951  648A     85 20       			sta	__oper1
 3952  648C     AD A9 1F    			lda	_g_GameMTCurMap+1
 3953  648F     85 21       			sta	__oper1+1
 3954  6491     18          			clc
 3955  6492     A5 20       			lda	__oper1
 3956  6494     69 40       			adc	#.low.2624
 3957  6496     85 20       			sta	__oper1
 3958  6498     A5 21       			lda	__oper1+1
 3959  649A     69 0A       			adc	#.high.2624
 3960  649C     85 21       			sta	__oper1+1
 3961  649E     A5 20       			lda	__oper1
 3962  64A0     85 23       			sta	__oper2
 3963  64A2     A5 21       			lda	__oper1+1
 3964  64A4     85 24       			sta	__oper2+1
 3965  64A6     A9 00       			lda	#0
 3966  64A8     A0 00       			ldy	#0
 3967  64AA     91 23       			sta	(__oper2),y
  Wed Jan 14 21:35:33 2026                                                                                               Page   71




 3968                     			.c_end	01ef2h,283
 3969                     	;g_GameMTCurMap[2559]=0
 3970                     			.c_start  01efah,284
 3971  64AC     AD A8 1F    			lda	_g_GameMTCurMap
 3972  64AF     85 20       			sta	__oper1
 3973  64B1     AD A9 1F    			lda	_g_GameMTCurMap+1
 3974  64B4     85 21       			sta	__oper1+1
 3975  64B6     18          			clc
 3976  64B7     A5 20       			lda	__oper1
 3977  64B9     69 FF       			adc	#.low.2559
 3978  64BB     85 20       			sta	__oper1
 3979  64BD     A5 21       			lda	__oper1+1
 3980  64BF     69 09       			adc	#.high.2559
 3981  64C1     85 21       			sta	__oper1+1
 3982  64C3     A5 20       			lda	__oper1
 3983  64C5     85 23       			sta	__oper2
 3984  64C7     A5 21       			lda	__oper1+1
 3985  64C9     85 24       			sta	__oper2+1
 3986  64CB     A9 00       			lda	#0
 3987  64CD     A0 00       			ldy	#0
 3988  64CF     91 23       			sta	(__oper2),y
 3989                     			.c_end	01f10h,284
 3990                     	;
 3991         4726 64D1   	?EOI27:		.equal	$
 3992                     	;break;
 3993                     	;			
 3994                     			.sw_break
 3995  64D1     4C CF 83    			jmp	?BOL14
 3996                     	;case	14:
 3997                     	;				
 3998         3227 64D4   	?SWL22:		.equal	$
 3999                     	;(g_GameMTFloor==2)
 4000                     	;				
 4001                     			.if_top	01f37h,?BOL37,1,288
 4002  64D4     AD A7 1F    			lda	_g_GameMTFloor
 4003  64D7     38          			sec
 4004  64D8     E9 02       			sbc	#2
 4005  64DA     F0 03       			beq	+3
 4006  64DC     4C 32 66    			jmp	?BOL37
 4007         4427 64DF   	?PLC33:		.equal	$
 4008                     			.c_end	01f4ch,289
 4009                     	;GameMTTalk(2,132,0)
 4010                     			.c_start  01f5ah,290
 4011  64DF     A9 00       			lda	#0
 4012  64E1     20 AA DA    			jsr	__store_char_funct_arg
 4013  64E4     A9 84       			lda	#.low.132
 4014  64E6     85 20       			sta	__oper1
 4015  64E8     A9 00       			lda	#.high.132
 4016  64EA     85 21       			sta	__oper1+1
 4017  64EC     20 CA DA    			jsr	__store_int_funct_arg
 4018  64EF     A9 02       			lda	#2
 4019  64F1     A2 33       			ldx	#.low.&GameMTTalk
 4020  64F3     86 26       			stx	__addr_reg
 4021  64F5     A2 90       			ldx	#.high.&GameMTTalk+1
 4022  64F7     86 27       			stx	__addr_reg+1
 4023                     			.bf_call
 4024  64F9     20 F6 D2    			jsr	__banked_function_call
  Wed Jan 14 21:35:33 2026                                                                                               Page   72




 4025  64FC     08          			php
 4026  64FD     78          			sei
 4027  64FE     18          			clc
 4028  64FF     A5 28       			lda	__stack_ptr
 4029  6501     69 03       			adc	#.low.3
 4030  6503     85 28       			sta	__stack_ptr
 4031  6505     A5 29       			lda	__stack_ptr+1
 4032  6507     69 00       			adc	#.high.3
 4033  6509     85 29       			sta	__stack_ptr+1
 4034  650B     28          			plp
 4035                     			.c_end	01f6dh,290
 4036                     	;GameMTTalk(5,134,0)
 4037                     			.c_start  01f76h,291
 4038  650C     A9 00       			lda	#0
 4039  650E     20 AA DA    			jsr	__store_char_funct_arg
 4040  6511     A9 86       			lda	#.low.134
 4041  6513     85 20       			sta	__oper1
 4042  6515     A9 00       			lda	#.high.134
 4043  6517     85 21       			sta	__oper1+1
 4044  6519     20 CA DA    			jsr	__store_int_funct_arg
 4045  651C     A9 05       			lda	#5
 4046  651E     A2 33       			ldx	#.low.&GameMTTalk
 4047  6520     86 26       			stx	__addr_reg
 4048  6522     A2 90       			ldx	#.high.&GameMTTalk+1
 4049  6524     86 27       			stx	__addr_reg+1
 4050                     			.bf_call
 4051  6526     20 F6 D2    			jsr	__banked_function_call
 4052  6529     08          			php
 4053  652A     78          			sei
 4054  652B     18          			clc
 4055  652C     A5 28       			lda	__stack_ptr
 4056  652E     69 03       			adc	#.low.3
 4057  6530     85 28       			sta	__stack_ptr
 4058  6532     A5 29       			lda	__stack_ptr+1
 4059  6534     69 00       			adc	#.high.3
 4060  6536     85 29       			sta	__stack_ptr+1
 4061  6538     28          			plp
 4062                     			.c_end	01f89h,291
 4063                     	;GameMTTalk(2,139,0)
 4064                     			.c_start  01f92h,292
 4065  6539     A9 00       			lda	#0
 4066  653B     20 AA DA    			jsr	__store_char_funct_arg
 4067  653E     A9 8B       			lda	#.low.139
 4068  6540     85 20       			sta	__oper1
 4069  6542     A9 00       			lda	#.high.139
 4070  6544     85 21       			sta	__oper1+1
 4071  6546     20 CA DA    			jsr	__store_int_funct_arg
 4072  6549     A9 02       			lda	#2
 4073  654B     A2 33       			ldx	#.low.&GameMTTalk
 4074  654D     86 26       			stx	__addr_reg
 4075  654F     A2 90       			ldx	#.high.&GameMTTalk+1
 4076  6551     86 27       			stx	__addr_reg+1
 4077                     			.bf_call
 4078  6553     20 F6 D2    			jsr	__banked_function_call
 4079  6556     08          			php
 4080  6557     78          			sei
 4081  6558     18          			clc
  Wed Jan 14 21:35:33 2026                                                                                               Page   73




 4082  6559     A5 28       			lda	__stack_ptr
 4083  655B     69 03       			adc	#.low.3
 4084  655D     85 28       			sta	__stack_ptr
 4085  655F     A5 29       			lda	__stack_ptr+1
 4086  6561     69 00       			adc	#.high.3
 4087  6563     85 29       			sta	__stack_ptr+1
 4088  6565     28          			plp
 4089                     			.c_end	01fa5h,292
 4090                     	;GameMTTalk(5,141,1)
 4091                     			.c_start  01faeh,293
 4092  6566     A9 01       			lda	#1
 4093  6568     20 AA DA    			jsr	__store_char_funct_arg
 4094  656B     A9 8D       			lda	#.low.141
 4095  656D     85 20       			sta	__oper1
 4096  656F     A9 00       			lda	#.high.141
 4097  6571     85 21       			sta	__oper1+1
 4098  6573     20 CA DA    			jsr	__store_int_funct_arg
 4099  6576     A9 05       			lda	#5
 4100  6578     A2 33       			ldx	#.low.&GameMTTalk
 4101  657A     86 26       			stx	__addr_reg
 4102  657C     A2 90       			ldx	#.high.&GameMTTalk+1
 4103  657E     86 27       			stx	__addr_reg+1
 4104                     			.bf_call
 4105  6580     20 F6 D2    			jsr	__banked_function_call
 4106  6583     08          			php
 4107  6584     78          			sei
 4108  6585     18          			clc
 4109  6586     A5 28       			lda	__stack_ptr
 4110  6588     69 03       			adc	#.low.3
 4111  658A     85 28       			sta	__stack_ptr
 4112  658C     A5 29       			lda	__stack_ptr+1
 4113  658E     69 00       			adc	#.high.3
 4114  6590     85 29       			sta	__stack_ptr+1
 4115  6592     28          			plp
 4116                     			.c_end	01fc1h,293
 4117                     	;GameMTTalk(1,146,0)
 4118                     			.c_start  01fcah,294
 4119  6593     A9 00       			lda	#0
 4120  6595     20 AA DA    			jsr	__store_char_funct_arg
 4121  6598     A9 92       			lda	#.low.146
 4122  659A     85 20       			sta	__oper1
 4123  659C     A9 00       			lda	#.high.146
 4124  659E     85 21       			sta	__oper1+1
 4125  65A0     20 CA DA    			jsr	__store_int_funct_arg
 4126  65A3     A9 01       			lda	#1
 4127  65A5     A2 33       			ldx	#.low.&GameMTTalk
 4128  65A7     86 26       			stx	__addr_reg
 4129  65A9     A2 90       			ldx	#.high.&GameMTTalk+1
 4130  65AB     86 27       			stx	__addr_reg+1
 4131                     			.bf_call
 4132  65AD     20 F6 D2    			jsr	__banked_function_call
 4133  65B0     08          			php
 4134  65B1     78          			sei
 4135  65B2     18          			clc
 4136  65B3     A5 28       			lda	__stack_ptr
 4137  65B5     69 03       			adc	#.low.3
 4138  65B7     85 28       			sta	__stack_ptr
  Wed Jan 14 21:35:33 2026                                                                                               Page   74




 4139  65B9     A5 29       			lda	__stack_ptr+1
 4140  65BB     69 00       			adc	#.high.3
 4141  65BD     85 29       			sta	__stack_ptr+1
 4142  65BF     28          			plp
 4143                     			.c_end	01fddh,294
 4144                     	;GameMTTalk(2,397,0)
 4145                     			.c_start  01fe6h,295
 4146  65C0     A9 00       			lda	#0
 4147  65C2     20 AA DA    			jsr	__store_char_funct_arg
 4148  65C5     A9 8D       			lda	#.low.397
 4149  65C7     85 20       			sta	__oper1
 4150  65C9     A9 01       			lda	#.high.397
 4151  65CB     85 21       			sta	__oper1+1
 4152  65CD     20 CA DA    			jsr	__store_int_funct_arg
 4153  65D0     A9 02       			lda	#2
 4154  65D2     A2 33       			ldx	#.low.&GameMTTalk
 4155  65D4     86 26       			stx	__addr_reg
 4156  65D6     A2 90       			ldx	#.high.&GameMTTalk+1
 4157  65D8     86 27       			stx	__addr_reg+1
 4158                     			.bf_call
 4159  65DA     20 F6 D2    			jsr	__banked_function_call
 4160  65DD     08          			php
 4161  65DE     78          			sei
 4162  65DF     18          			clc
 4163  65E0     A5 28       			lda	__stack_ptr
 4164  65E2     69 03       			adc	#.low.3
 4165  65E4     85 28       			sta	__stack_ptr
 4166  65E6     A5 29       			lda	__stack_ptr+1
 4167  65E8     69 00       			adc	#.high.3
 4168  65EA     85 29       			sta	__stack_ptr+1
 4169  65EC     28          			plp
 4170                     			.c_end	01ff9h,295
 4171                     	;g_GameMTHeroDefence+=85
 4172                     			.c_start  02002h,296
 4173  65ED     AD A0 1F    			lda	_g_GameMTHeroDefence
 4174  65F0     85 20       			sta	__oper1
 4175  65F2     AD A1 1F    			lda	_g_GameMTHeroDefence+1
 4176  65F5     85 21       			sta	__oper1+1
 4177  65F7     A5 20       			lda	__oper1
 4178  65F9     18          			clc
 4179  65FA     69 55       			adc	#.low.85
 4180  65FC     85 20       			sta	__oper1
 4181  65FE     A5 21       			lda	__oper1+1
 4182  6600     69 00       			adc	#.high.85
 4183  6602     85 21       			sta	__oper1+1
 4184  6604     A5 20       			lda	__oper1
 4185  6606     8D A0 1F    			sta	_g_GameMTHeroDefence
 4186  6609     A5 21       			lda	__oper1+1
 4187  660B     8D A1 1F    			sta	_g_GameMTHeroDefence+1
 4188                     			.c_end	02019h,296
 4189                     	;*g_GameMTJuidgeNow=0
 4190                     			.c_start  02022h,297
 4191  660E     A0 00       			ldy	#-22+?LSC0
 4192  6610     B1 28       			lda	(__stack_ptr),y
 4193  6612     85 20       			sta	__oper1
 4194  6614     C8          			iny
 4195  6615     B1 28       			lda	(__stack_ptr),y
  Wed Jan 14 21:35:33 2026                                                                                               Page   75




 4196  6617     85 21       			sta	__oper1+1
 4197  6619     A5 20       			lda	__oper1
 4198  661B     85 23       			sta	__oper2
 4199  661D     A5 21       			lda	__oper1+1
 4200  661F     85 24       			sta	__oper2+1
 4201  6621     A9 00       			lda	#0
 4202  6623     A0 00       			ldy	#0
 4203  6625     91 23       			sta	(__oper2),y
 4204                     			.c_end	02036h,297
 4205                     	;GameMTReNewR()
 4206                     			.c_start  0203fh,298
 4207  6627     A2 57       			ldx	#.low.&GameMTReNewR
 4208  6629     86 26       			stx	__addr_reg
 4209  662B     A2 90       			ldx	#.high.&GameMTReNewR+1
 4210  662D     86 27       			stx	__addr_reg+1
 4211                     			.bf_call
 4212  662F     20 F6 D2    			jsr	__banked_function_call
 4213                     			.c_end	0204dh,298
 4214                     	;
 4215                     	;(g_GameMTFloor==5)
 4216         4715 6632   	?BOL37:		.equal	$
 4217                     			.if_top	0205bh,?BOL38,1,300
 4218  6632     AD A7 1F    			lda	_g_GameMTFloor
 4219  6635     38          			sec
 4220  6636     E9 05       			sbc	#5
 4221  6638     F0 03       			beq	+3
 4222  663A     4C 4A 66    			jmp	?BOL38
 4223         4216 663D   	?PLC34:		.equal	$
 4224                     			.c_end	0206eh,300
 4225                     	;GameMTShop(3)
 4226                     			.c_start  0205bh,300
 4227  663D     A9 03       			lda	#3
 4228  663F     A2 54       			ldx	#.low.&GameMTShop
 4229  6641     86 26       			stx	__addr_reg
 4230  6643     A2 90       			ldx	#.high.&GameMTShop+1
 4231  6645     86 27       			stx	__addr_reg+1
 4232                     			.bf_call
 4233  6647     20 F6 D2    			jsr	__banked_function_call
 4234                     			.c_end	0207ch,300
 4235                     	;;
 4236                     	;				
 4237                     	;(g_GameMTFloor==12)
 4238         3817 664A   	?BOL38:		.equal	$
 4239                     			.if_top	02083h,?BOL39,1,301
 4240  664A     AD A7 1F    			lda	_g_GameMTFloor
 4241  664D     38          			sec
 4242  664E     E9 0C       			sbc	#12
 4243  6650     F0 03       			beq	+3
 4244  6652     4C 62 66    			jmp	?BOL39
 4245         3318 6655   	?PLC35:		.equal	$
 4246                     			.c_end	02097h,301
 4247                     	;GameMTShop(4)
 4248                     			.c_start  02083h,301
 4249  6655     A9 04       			lda	#4
 4250  6657     A2 54       			ldx	#.low.&GameMTShop
 4251  6659     86 26       			stx	__addr_reg
 4252  665B     A2 90       			ldx	#.high.&GameMTShop+1
  Wed Jan 14 21:35:33 2026                                                                                               Page   76




 4253  665D     86 27       			stx	__addr_reg+1
 4254                     			.bf_call
 4255  665F     20 F6 D2    			jsr	__banked_function_call
 4256                     			.c_end	020a5h,301
 4257                     	;;
 4258                     	;				
 4259                     	;(g_GameMTFloor==15)
 4260                     	;				
 4261         4718 6662   	?BOL39:		.equal	$
 4262                     			.if_top	020ach,?BOL40,1,302
 4263  6662     AD A7 1F    			lda	_g_GameMTFloor
 4264  6665     38          			sec
 4265  6666     E9 0F       			sbc	#15
 4266  6668     F0 03       			beq	+3
 4267  666A     4C E4 68    			jmp	?BOL40
 4268         4219 666D   	?PLC36:		.equal	$
 4269                     			.c_end	020c2h,303
 4270                     	;GameMTTalk(5,206,1)
 4271                     			.c_start  020d0h,304
 4272  666D     A9 01       			lda	#1
 4273  666F     20 AA DA    			jsr	__store_char_funct_arg
 4274  6672     A9 CE       			lda	#.low.206
 4275  6674     85 20       			sta	__oper1
 4276  6676     A9 00       			lda	#.high.206
 4277  6678     85 21       			sta	__oper1+1
 4278  667A     20 CA DA    			jsr	__store_int_funct_arg
 4279  667D     A9 05       			lda	#5
 4280  667F     A2 33       			ldx	#.low.&GameMTTalk
 4281  6681     86 26       			stx	__addr_reg
 4282  6683     A2 90       			ldx	#.high.&GameMTTalk+1
 4283  6685     86 27       			stx	__addr_reg+1
 4284                     			.bf_call
 4285  6687     20 F6 D2    			jsr	__banked_function_call
 4286  668A     08          			php
 4287  668B     78          			sei
 4288  668C     18          			clc
 4289  668D     A5 28       			lda	__stack_ptr
 4290  668F     69 03       			adc	#.low.3
 4291  6691     85 28       			sta	__stack_ptr
 4292  6693     A5 29       			lda	__stack_ptr+1
 4293  6695     69 00       			adc	#.high.3
 4294  6697     85 29       			sta	__stack_ptr+1
 4295  6699     28          			plp
 4296                     			.c_end	020e3h,304
 4297                     	;GameMTTalk(1,211,0)
 4298                     			.c_start  020ech,305
 4299  669A     A9 00       			lda	#0
 4300  669C     20 AA DA    			jsr	__store_char_funct_arg
 4301  669F     A9 D3       			lda	#.low.211
 4302  66A1     85 20       			sta	__oper1
 4303  66A3     A9 00       			lda	#.high.211
 4304  66A5     85 21       			sta	__oper1+1
 4305  66A7     20 CA DA    			jsr	__store_int_funct_arg
 4306  66AA     A9 01       			lda	#1
 4307  66AC     A2 33       			ldx	#.low.&GameMTTalk
 4308  66AE     86 26       			stx	__addr_reg
 4309  66B0     A2 90       			ldx	#.high.&GameMTTalk+1
  Wed Jan 14 21:35:33 2026                                                                                               Page   77




 4310  66B2     86 27       			stx	__addr_reg+1
 4311                     			.bf_call
 4312  66B4     20 F6 D2    			jsr	__banked_function_call
 4313  66B7     08          			php
 4314  66B8     78          			sei
 4315  66B9     18          			clc
 4316  66BA     A5 28       			lda	__stack_ptr
 4317  66BC     69 03       			adc	#.low.3
 4318  66BE     85 28       			sta	__stack_ptr
 4319  66C0     A5 29       			lda	__stack_ptr+1
 4320  66C2     69 00       			adc	#.high.3
 4321  66C4     85 29       			sta	__stack_ptr+1
 4322  66C6     28          			plp
 4323                     			.c_end	020ffh,305
 4324                     	;GameMTTalk(2,212,0)
 4325                     			.c_start  02108h,306
 4326  66C7     A9 00       			lda	#0
 4327  66C9     20 AA DA    			jsr	__store_char_funct_arg
 4328  66CC     A9 D4       			lda	#.low.212
 4329  66CE     85 20       			sta	__oper1
 4330  66D0     A9 00       			lda	#.high.212
 4331  66D2     85 21       			sta	__oper1+1
 4332  66D4     20 CA DA    			jsr	__store_int_funct_arg
 4333  66D7     A9 02       			lda	#2
 4334  66D9     A2 33       			ldx	#.low.&GameMTTalk
 4335  66DB     86 26       			stx	__addr_reg
 4336  66DD     A2 90       			ldx	#.high.&GameMTTalk+1
 4337  66DF     86 27       			stx	__addr_reg+1
 4338                     			.bf_call
 4339  66E1     20 F6 D2    			jsr	__banked_function_call
 4340  66E4     08          			php
 4341  66E5     78          			sei
 4342  66E6     18          			clc
 4343  66E7     A5 28       			lda	__stack_ptr
 4344  66E9     69 03       			adc	#.low.3
 4345  66EB     85 28       			sta	__stack_ptr
 4346  66ED     A5 29       			lda	__stack_ptr+1
 4347  66EF     69 00       			adc	#.high.3
 4348  66F1     85 29       			sta	__stack_ptr+1
 4349  66F3     28          			plp
 4350                     			.c_end	0211bh,306
 4351                     	;GameMTTalk(5,214,1)
 4352                     			.c_start  02124h,307
 4353  66F4     A9 01       			lda	#1
 4354  66F6     20 AA DA    			jsr	__store_char_funct_arg
 4355  66F9     A9 D6       			lda	#.low.214
 4356  66FB     85 20       			sta	__oper1
 4357  66FD     A9 00       			lda	#.high.214
 4358  66FF     85 21       			sta	__oper1+1
 4359  6701     20 CA DA    			jsr	__store_int_funct_arg
 4360  6704     A9 05       			lda	#5
 4361  6706     A2 33       			ldx	#.low.&GameMTTalk
 4362  6708     86 26       			stx	__addr_reg
 4363  670A     A2 90       			ldx	#.high.&GameMTTalk+1
 4364  670C     86 27       			stx	__addr_reg+1
 4365                     			.bf_call
 4366  670E     20 F6 D2    			jsr	__banked_function_call
  Wed Jan 14 21:35:33 2026                                                                                               Page   78




 4367  6711     08          			php
 4368  6712     78          			sei
 4369  6713     18          			clc
 4370  6714     A5 28       			lda	__stack_ptr
 4371  6716     69 03       			adc	#.low.3
 4372  6718     85 28       			sta	__stack_ptr
 4373  671A     A5 29       			lda	__stack_ptr+1
 4374  671C     69 00       			adc	#.high.3
 4375  671E     85 29       			sta	__stack_ptr+1
 4376  6720     28          			plp
 4377                     			.c_end	02137h,307
 4378                     	;GameMTTalk(1,219,0)
 4379                     			.c_start  02140h,308
 4380  6721     A9 00       			lda	#0
 4381  6723     20 AA DA    			jsr	__store_char_funct_arg
 4382  6726     A9 DB       			lda	#.low.219
 4383  6728     85 20       			sta	__oper1
 4384  672A     A9 00       			lda	#.high.219
 4385  672C     85 21       			sta	__oper1+1
 4386  672E     20 CA DA    			jsr	__store_int_funct_arg
 4387  6731     A9 01       			lda	#1
 4388  6733     A2 33       			ldx	#.low.&GameMTTalk
 4389  6735     86 26       			stx	__addr_reg
 4390  6737     A2 90       			ldx	#.high.&GameMTTalk+1
 4391  6739     86 27       			stx	__addr_reg+1
 4392                     			.bf_call
 4393  673B     20 F6 D2    			jsr	__banked_function_call
 4394  673E     08          			php
 4395  673F     78          			sei
 4396  6740     18          			clc
 4397  6741     A5 28       			lda	__stack_ptr
 4398  6743     69 03       			adc	#.low.3
 4399  6745     85 28       			sta	__stack_ptr
 4400  6747     A5 29       			lda	__stack_ptr+1
 4401  6749     69 00       			adc	#.high.3
 4402  674B     85 29       			sta	__stack_ptr+1
 4403  674D     28          			plp
 4404                     			.c_end	02153h,308
 4405                     	;GameMTTalk(1,220,0)
 4406                     			.c_start  0215ch,309
 4407  674E     A9 00       			lda	#0
 4408  6750     20 AA DA    			jsr	__store_char_funct_arg
 4409  6753     A9 DC       			lda	#.low.220
 4410  6755     85 20       			sta	__oper1
 4411  6757     A9 00       			lda	#.high.220
 4412  6759     85 21       			sta	__oper1+1
 4413  675B     20 CA DA    			jsr	__store_int_funct_arg
 4414  675E     A9 01       			lda	#1
 4415  6760     A2 33       			ldx	#.low.&GameMTTalk
 4416  6762     86 26       			stx	__addr_reg
 4417  6764     A2 90       			ldx	#.high.&GameMTTalk+1
 4418  6766     86 27       			stx	__addr_reg+1
 4419                     			.bf_call
 4420  6768     20 F6 D2    			jsr	__banked_function_call
 4421  676B     08          			php
 4422  676C     78          			sei
 4423  676D     18          			clc
  Wed Jan 14 21:35:33 2026                                                                                               Page   79




 4424  676E     A5 28       			lda	__stack_ptr
 4425  6770     69 03       			adc	#.low.3
 4426  6772     85 28       			sta	__stack_ptr
 4427  6774     A5 29       			lda	__stack_ptr+1
 4428  6776     69 00       			adc	#.high.3
 4429  6778     85 29       			sta	__stack_ptr+1
 4430  677A     28          			plp
 4431                     			.c_end	0216fh,309
 4432                     	;(g_GameMTHeroMoney>799)
 4433                     	;						
 4434                     			.if_top	02178h,?BOL41,2,310
 4435  677B     A9 1F       			lda	#.low.799
 4436  677D     85 23       			sta	__oper2
 4437  677F     A9 03       			lda	#.high.799
 4438  6781     85 24       			sta	__oper2+1
 4439  6783     AD A2 1F    			lda	_g_GameMTHeroMoney
 4440  6786     85 20       			sta	__oper1
 4441  6788     AD A3 1F    			lda	_g_GameMTHeroMoney+1
 4442  678B     85 21       			sta	__oper1+1
 4443  678D     20 40 D3    			jsr	__cmp_int
 4444  6790     B0 03       			bcs	+3
 4445  6792     4C 8A 68    			jmp	?BOL41
 4446  6795     D0 03       			bne	+3
 4447  6797     4C 8A 68    			jmp	?BOL41
 4448         381C 679A   	?PLC37:		.equal	$
 4449                     			.c_end	02192h,311
 4450                     	;g_GameMTHeroMoney-=800
 4451                     			.c_start  021a3h,312
 4452  679A     AD A2 1F    			lda	_g_GameMTHeroMoney
 4453  679D     85 20       			sta	__oper1
 4454  679F     AD A3 1F    			lda	_g_GameMTHeroMoney+1
 4455  67A2     85 21       			sta	__oper1+1
 4456  67A4     A5 20       			lda	__oper1
 4457  67A6     38          			sec
 4458  67A7     E9 20       			sbc	#.low.800
 4459  67A9     85 20       			sta	__oper1
 4460  67AB     A5 21       			lda	__oper1+1
 4461  67AD     E9 03       			sbc	#.high.800
 4462  67AF     85 21       			sta	__oper1+1
 4463  67B1     A5 20       			lda	__oper1
 4464  67B3     8D A2 1F    			sta	_g_GameMTHeroMoney
 4465  67B6     A5 21       			lda	__oper1+1
 4466  67B8     8D A3 1F    			sta	_g_GameMTHeroMoney+1
 4467                     			.c_end	021b9h,312
 4468                     	;GameMTTalk(2,221,0)
 4469                     			.c_start  021c3h,313
 4470  67BB     A9 00       			lda	#0
 4471  67BD     20 AA DA    			jsr	__store_char_funct_arg
 4472  67C0     A9 DD       			lda	#.low.221
 4473  67C2     85 20       			sta	__oper1
 4474  67C4     A9 00       			lda	#.high.221
 4475  67C6     85 21       			sta	__oper1+1
 4476  67C8     20 CA DA    			jsr	__store_int_funct_arg
 4477  67CB     A9 02       			lda	#2
 4478  67CD     A2 33       			ldx	#.low.&GameMTTalk
 4479  67CF     86 26       			stx	__addr_reg
 4480  67D1     A2 90       			ldx	#.high.&GameMTTalk+1
  Wed Jan 14 21:35:33 2026                                                                                               Page   80




 4481  67D3     86 27       			stx	__addr_reg+1
 4482                     			.bf_call
 4483  67D5     20 F6 D2    			jsr	__banked_function_call
 4484  67D8     08          			php
 4485  67D9     78          			sei
 4486  67DA     18          			clc
 4487  67DB     A5 28       			lda	__stack_ptr
 4488  67DD     69 03       			adc	#.low.3
 4489  67DF     85 28       			sta	__stack_ptr
 4490  67E1     A5 29       			lda	__stack_ptr+1
 4491  67E3     69 00       			adc	#.high.3
 4492  67E5     85 29       			sta	__stack_ptr+1
 4493  67E7     28          			plp
 4494                     			.c_end	021d6h,313
 4495                     	;GameMTTalk(1,223,0)
 4496                     			.c_start  021e0h,314
 4497  67E8     A9 00       			lda	#0
 4498  67EA     20 AA DA    			jsr	__store_char_funct_arg
 4499  67ED     A9 DF       			lda	#.low.223
 4500  67EF     85 20       			sta	__oper1
 4501  67F1     A9 00       			lda	#.high.223
 4502  67F3     85 21       			sta	__oper1+1
 4503  67F5     20 CA DA    			jsr	__store_int_funct_arg
 4504  67F8     A9 01       			lda	#1
 4505  67FA     A2 33       			ldx	#.low.&GameMTTalk
 4506  67FC     86 26       			stx	__addr_reg
 4507  67FE     A2 90       			ldx	#.high.&GameMTTalk+1
 4508  6800     86 27       			stx	__addr_reg+1
 4509                     			.bf_call
 4510  6802     20 F6 D2    			jsr	__banked_function_call
 4511  6805     08          			php
 4512  6806     78          			sei
 4513  6807     18          			clc
 4514  6808     A5 28       			lda	__stack_ptr
 4515  680A     69 03       			adc	#.low.3
 4516  680C     85 28       			sta	__stack_ptr
 4517  680E     A5 29       			lda	__stack_ptr+1
 4518  6810     69 00       			adc	#.high.3
 4519  6812     85 29       			sta	__stack_ptr+1
 4520  6814     28          			plp
 4521                     			.c_end	021f3h,314
 4522                     	;GameMTTalk(2,425,0)
 4523                     			.c_start  021fdh,315
 4524  6815     A9 00       			lda	#0
 4525  6817     20 AA DA    			jsr	__store_char_funct_arg
 4526  681A     A9 A9       			lda	#.low.425
 4527  681C     85 20       			sta	__oper1
 4528  681E     A9 01       			lda	#.high.425
 4529  6820     85 21       			sta	__oper1+1
 4530  6822     20 CA DA    			jsr	__store_int_funct_arg
 4531  6825     A9 02       			lda	#2
 4532  6827     A2 33       			ldx	#.low.&GameMTTalk
 4533  6829     86 26       			stx	__addr_reg
 4534  682B     A2 90       			ldx	#.high.&GameMTTalk+1
 4535  682D     86 27       			stx	__addr_reg+1
 4536                     			.bf_call
 4537  682F     20 F6 D2    			jsr	__banked_function_call
  Wed Jan 14 21:35:33 2026                                                                                               Page   81




 4538  6832     08          			php
 4539  6833     78          			sei
 4540  6834     18          			clc
 4541  6835     A5 28       			lda	__stack_ptr
 4542  6837     69 03       			adc	#.low.3
 4543  6839     85 28       			sta	__stack_ptr
 4544  683B     A5 29       			lda	__stack_ptr+1
 4545  683D     69 00       			adc	#.high.3
 4546  683F     85 29       			sta	__stack_ptr+1
 4547  6841     28          			plp
 4548                     			.c_end	02210h,315
 4549                     	;g_GameMTHeroDefence+=120
 4550                     			.c_start  0221ah,316
 4551  6842     AD A0 1F    			lda	_g_GameMTHeroDefence
 4552  6845     85 20       			sta	__oper1
 4553  6847     AD A1 1F    			lda	_g_GameMTHeroDefence+1
 4554  684A     85 21       			sta	__oper1+1
 4555  684C     A5 20       			lda	__oper1
 4556  684E     18          			clc
 4557  684F     69 78       			adc	#.low.120
 4558  6851     85 20       			sta	__oper1
 4559  6853     A5 21       			lda	__oper1+1
 4560  6855     69 00       			adc	#.high.120
 4561  6857     85 21       			sta	__oper1+1
 4562  6859     A5 20       			lda	__oper1
 4563  685B     8D A0 1F    			sta	_g_GameMTHeroDefence
 4564  685E     A5 21       			lda	__oper1+1
 4565  6860     8D A1 1F    			sta	_g_GameMTHeroDefence+1
 4566                     			.c_end	02232h,316
 4567                     	;*g_GameMTJuidgeNow=0
 4568                     			.c_start  0223ch,317
 4569  6863     A0 00       			ldy	#-22+?LSC0
 4570  6865     B1 28       			lda	(__stack_ptr),y
 4571  6867     85 20       			sta	__oper1
 4572  6869     C8          			iny
 4573  686A     B1 28       			lda	(__stack_ptr),y
 4574  686C     85 21       			sta	__oper1+1
 4575  686E     A5 20       			lda	__oper1
 4576  6870     85 23       			sta	__oper2
 4577  6872     A5 21       			lda	__oper1+1
 4578  6874     85 24       			sta	__oper2+1
 4579  6876     A9 00       			lda	#0
 4580  6878     A0 00       			ldy	#0
 4581  687A     91 23       			sta	(__oper2),y
 4582                     			.c_end	02250h,317
 4583                     	;GameMTReNewR()
 4584                     			.c_start  0225ah,318
 4585  687C     A2 57       			ldx	#.low.&GameMTReNewR
 4586  687E     86 26       			stx	__addr_reg
 4587  6880     A2 90       			ldx	#.high.&GameMTReNewR+1
 4588  6882     86 27       			stx	__addr_reg+1
 4589                     			.bf_call
 4590  6884     20 F6 D2    			jsr	__banked_function_call
 4591                     			.c_end	02268h,318
 4592                     	;
 4593                     	;else
 4594                     	;						
  Wed Jan 14 21:35:33 2026                                                                                               Page   82




 4595  6887     4C E4 68    			jmp	?EOI41
 4596                     			.if_else  ?EOI41,2,321
 4597         381B 688A   	?BOL41:		.equal	$
 4598                     	;GameMTTalk(1,230,0)
 4599                     			.c_start  02290h,322
 4600  688A     A9 00       			lda	#0
 4601  688C     20 AA DA    			jsr	__store_char_funct_arg
 4602  688F     A9 E6       			lda	#.low.230
 4603  6891     85 20       			sta	__oper1
 4604  6893     A9 00       			lda	#.high.230
 4605  6895     85 21       			sta	__oper1+1
 4606  6897     20 CA DA    			jsr	__store_int_funct_arg
 4607  689A     A9 01       			lda	#1
 4608  689C     A2 33       			ldx	#.low.&GameMTTalk
 4609  689E     86 26       			stx	__addr_reg
 4610  68A0     A2 90       			ldx	#.high.&GameMTTalk+1
 4611  68A2     86 27       			stx	__addr_reg+1
 4612                     			.bf_call
 4613  68A4     20 F6 D2    			jsr	__banked_function_call
 4614  68A7     08          			php
 4615  68A8     78          			sei
 4616  68A9     18          			clc
 4617  68AA     A5 28       			lda	__stack_ptr
 4618  68AC     69 03       			adc	#.low.3
 4619  68AE     85 28       			sta	__stack_ptr
 4620  68B0     A5 29       			lda	__stack_ptr+1
 4621  68B2     69 00       			adc	#.high.3
 4622  68B4     85 29       			sta	__stack_ptr+1
 4623  68B6     28          			plp
 4624                     			.c_end	022a3h,322
 4625                     	;GameMTTalk(3,232,0)
 4626                     			.c_start  022adh,323
 4627  68B7     A9 00       			lda	#0
 4628  68B9     20 AA DA    			jsr	__store_char_funct_arg
 4629  68BC     A9 E8       			lda	#.low.232
 4630  68BE     85 20       			sta	__oper1
 4631  68C0     A9 00       			lda	#.high.232
 4632  68C2     85 21       			sta	__oper1+1
 4633  68C4     20 CA DA    			jsr	__store_int_funct_arg
 4634  68C7     A9 03       			lda	#3
 4635  68C9     A2 33       			ldx	#.low.&GameMTTalk
 4636  68CB     86 26       			stx	__addr_reg
 4637  68CD     A2 90       			ldx	#.high.&GameMTTalk+1
 4638  68CF     86 27       			stx	__addr_reg+1
 4639                     			.bf_call
 4640  68D1     20 F6 D2    			jsr	__banked_function_call
 4641  68D4     08          			php
 4642  68D5     78          			sei
 4643  68D6     18          			clc
 4644  68D7     A5 28       			lda	__stack_ptr
 4645  68D9     69 03       			adc	#.low.3
 4646  68DB     85 28       			sta	__stack_ptr
 4647  68DD     A5 29       			lda	__stack_ptr+1
 4648  68DF     69 00       			adc	#.high.3
 4649  68E1     85 29       			sta	__stack_ptr+1
 4650  68E3     28          			plp
 4651                     			.c_end	022c0h,323
  Wed Jan 14 21:35:33 2026                                                                                               Page   83




 4652                     	;
 4653         3428 68E4   	?EOI41:		.equal	$
 4654                     	;
 4655                     	;break;
 4656                     	;			
 4657         350B 68E4   	?BOL40:		.equal	$
 4658                     			.sw_break
 4659  68E4     4C CF 83    			jmp	?BOL14
 4660                     	;case	15:
 4661                     	;				
 4662         3528 68E7   	?SWL23:		.equal	$
 4663                     	;(g_GameMTFloor==2)
 4664                     	;					
 4665                     			.if_top	022f0h,?BOL42,1,328
 4666  68E7     AD A7 1F    			lda	_g_GameMTFloor
 4667  68EA     38          			sec
 4668  68EB     E9 02       			sbc	#2
 4669  68ED     F0 03       			beq	+3
 4670  68EF     4C 45 6A    			jmp	?BOL42
 4671         4728 68F2   	?PLC38:		.equal	$
 4672                     			.c_end	02305h,329
 4673                     	;GameMTTalk(2,115,0)
 4674                     			.c_start  02314h,330
 4675  68F2     A9 00       			lda	#0
 4676  68F4     20 AA DA    			jsr	__store_char_funct_arg
 4677  68F7     A9 73       			lda	#.low.115
 4678  68F9     85 20       			sta	__oper1
 4679  68FB     A9 00       			lda	#.high.115
 4680  68FD     85 21       			sta	__oper1+1
 4681  68FF     20 CA DA    			jsr	__store_int_funct_arg
 4682  6902     A9 02       			lda	#2
 4683  6904     A2 33       			ldx	#.low.&GameMTTalk
 4684  6906     86 26       			stx	__addr_reg
 4685  6908     A2 90       			ldx	#.high.&GameMTTalk+1
 4686  690A     86 27       			stx	__addr_reg+1
 4687                     			.bf_call
 4688  690C     20 F6 D2    			jsr	__banked_function_call
 4689  690F     08          			php
 4690  6910     78          			sei
 4691  6911     18          			clc
 4692  6912     A5 28       			lda	__stack_ptr
 4693  6914     69 03       			adc	#.low.3
 4694  6916     85 28       			sta	__stack_ptr
 4695  6918     A5 29       			lda	__stack_ptr+1
 4696  691A     69 00       			adc	#.high.3
 4697  691C     85 29       			sta	__stack_ptr+1
 4698  691E     28          			plp
 4699                     			.c_end	02327h,330
 4700                     	;GameMTTalk(5,117,0)
 4701                     			.c_start  02330h,331
 4702  691F     A9 00       			lda	#0
 4703  6921     20 AA DA    			jsr	__store_char_funct_arg
 4704  6924     A9 75       			lda	#.low.117
 4705  6926     85 20       			sta	__oper1
 4706  6928     A9 00       			lda	#.high.117
 4707  692A     85 21       			sta	__oper1+1
 4708  692C     20 CA DA    			jsr	__store_int_funct_arg
  Wed Jan 14 21:35:33 2026                                                                                               Page   84




 4709  692F     A9 05       			lda	#5
 4710  6931     A2 33       			ldx	#.low.&GameMTTalk
 4711  6933     86 26       			stx	__addr_reg
 4712  6935     A2 90       			ldx	#.high.&GameMTTalk+1
 4713  6937     86 27       			stx	__addr_reg+1
 4714                     			.bf_call
 4715  6939     20 F6 D2    			jsr	__banked_function_call
 4716  693C     08          			php
 4717  693D     78          			sei
 4718  693E     18          			clc
 4719  693F     A5 28       			lda	__stack_ptr
 4720  6941     69 03       			adc	#.low.3
 4721  6943     85 28       			sta	__stack_ptr
 4722  6945     A5 29       			lda	__stack_ptr+1
 4723  6947     69 00       			adc	#.high.3
 4724  6949     85 29       			sta	__stack_ptr+1
 4725  694B     28          			plp
 4726                     			.c_end	02343h,331
 4727                     	;GameMTTalk(3,122,0)
 4728                     			.c_start  0234ch,332
 4729  694C     A9 00       			lda	#0
 4730  694E     20 AA DA    			jsr	__store_char_funct_arg
 4731  6951     A9 7A       			lda	#.low.122
 4732  6953     85 20       			sta	__oper1
 4733  6955     A9 00       			lda	#.high.122
 4734  6957     85 21       			sta	__oper1+1
 4735  6959     20 CA DA    			jsr	__store_int_funct_arg
 4736  695C     A9 03       			lda	#3
 4737  695E     A2 33       			ldx	#.low.&GameMTTalk
 4738  6960     86 26       			stx	__addr_reg
 4739  6962     A2 90       			ldx	#.high.&GameMTTalk+1
 4740  6964     86 27       			stx	__addr_reg+1
 4741                     			.bf_call
 4742  6966     20 F6 D2    			jsr	__banked_function_call
 4743  6969     08          			php
 4744  696A     78          			sei
 4745  696B     18          			clc
 4746  696C     A5 28       			lda	__stack_ptr
 4747  696E     69 03       			adc	#.low.3
 4748  6970     85 28       			sta	__stack_ptr
 4749  6972     A5 29       			lda	__stack_ptr+1
 4750  6974     69 00       			adc	#.high.3
 4751  6976     85 29       			sta	__stack_ptr+1
 4752  6978     28          			plp
 4753                     			.c_end	0235fh,332
 4754                     	;GameMTTalk(5,125,1)
 4755                     			.c_start  02368h,333
 4756  6979     A9 01       			lda	#1
 4757  697B     20 AA DA    			jsr	__store_char_funct_arg
 4758  697E     A9 7D       			lda	#.low.125
 4759  6980     85 20       			sta	__oper1
 4760  6982     A9 00       			lda	#.high.125
 4761  6984     85 21       			sta	__oper1+1
 4762  6986     20 CA DA    			jsr	__store_int_funct_arg
 4763  6989     A9 05       			lda	#5
 4764  698B     A2 33       			ldx	#.low.&GameMTTalk
 4765  698D     86 26       			stx	__addr_reg
  Wed Jan 14 21:35:33 2026                                                                                               Page   85




 4766  698F     A2 90       			ldx	#.high.&GameMTTalk+1
 4767  6991     86 27       			stx	__addr_reg+1
 4768                     			.bf_call
 4769  6993     20 F6 D2    			jsr	__banked_function_call
 4770  6996     08          			php
 4771  6997     78          			sei
 4772  6998     18          			clc
 4773  6999     A5 28       			lda	__stack_ptr
 4774  699B     69 03       			adc	#.low.3
 4775  699D     85 28       			sta	__stack_ptr
 4776  699F     A5 29       			lda	__stack_ptr+1
 4777  69A1     69 00       			adc	#.high.3
 4778  69A3     85 29       			sta	__stack_ptr+1
 4779  69A5     28          			plp
 4780                     			.c_end	0237bh,333
 4781                     	;GameMTTalk(2,130,0)
 4782                     			.c_start  02384h,334
 4783  69A6     A9 00       			lda	#0
 4784  69A8     20 AA DA    			jsr	__store_char_funct_arg
 4785  69AB     A9 82       			lda	#.low.130
 4786  69AD     85 20       			sta	__oper1
 4787  69AF     A9 00       			lda	#.high.130
 4788  69B1     85 21       			sta	__oper1+1
 4789  69B3     20 CA DA    			jsr	__store_int_funct_arg
 4790  69B6     A9 02       			lda	#2
 4791  69B8     A2 33       			ldx	#.low.&GameMTTalk
 4792  69BA     86 26       			stx	__addr_reg
 4793  69BC     A2 90       			ldx	#.high.&GameMTTalk+1
 4794  69BE     86 27       			stx	__addr_reg+1
 4795                     			.bf_call
 4796  69C0     20 F6 D2    			jsr	__banked_function_call
 4797  69C3     08          			php
 4798  69C4     78          			sei
 4799  69C5     18          			clc
 4800  69C6     A5 28       			lda	__stack_ptr
 4801  69C8     69 03       			adc	#.low.3
 4802  69CA     85 28       			sta	__stack_ptr
 4803  69CC     A5 29       			lda	__stack_ptr+1
 4804  69CE     69 00       			adc	#.high.3
 4805  69D0     85 29       			sta	__stack_ptr+1
 4806  69D2     28          			plp
 4807                     			.c_end	02397h,334
 4808                     	;GameMTTalk(2,395,0)
 4809                     			.c_start  023a0h,335
 4810  69D3     A9 00       			lda	#0
 4811  69D5     20 AA DA    			jsr	__store_char_funct_arg
 4812  69D8     A9 8B       			lda	#.low.395
 4813  69DA     85 20       			sta	__oper1
 4814  69DC     A9 01       			lda	#.high.395
 4815  69DE     85 21       			sta	__oper1+1
 4816  69E0     20 CA DA    			jsr	__store_int_funct_arg
 4817  69E3     A9 02       			lda	#2
 4818  69E5     A2 33       			ldx	#.low.&GameMTTalk
 4819  69E7     86 26       			stx	__addr_reg
 4820  69E9     A2 90       			ldx	#.high.&GameMTTalk+1
 4821  69EB     86 27       			stx	__addr_reg+1
 4822                     			.bf_call
  Wed Jan 14 21:35:33 2026                                                                                               Page   86




 4823  69ED     20 F6 D2    			jsr	__banked_function_call
 4824  69F0     08          			php
 4825  69F1     78          			sei
 4826  69F2     18          			clc
 4827  69F3     A5 28       			lda	__stack_ptr
 4828  69F5     69 03       			adc	#.low.3
 4829  69F7     85 28       			sta	__stack_ptr
 4830  69F9     A5 29       			lda	__stack_ptr+1
 4831  69FB     69 00       			adc	#.high.3
 4832  69FD     85 29       			sta	__stack_ptr+1
 4833  69FF     28          			plp
 4834                     			.c_end	023b3h,335
 4835                     	;g_GameMTHeroDamige+=70
 4836                     			.c_start  023bch,336
 4837  6A00     AD 9E 1F    			lda	_g_GameMTHeroDamige
 4838  6A03     85 20       			sta	__oper1
 4839  6A05     AD 9F 1F    			lda	_g_GameMTHeroDamige+1
 4840  6A08     85 21       			sta	__oper1+1
 4841  6A0A     A5 20       			lda	__oper1
 4842  6A0C     18          			clc
 4843  6A0D     69 46       			adc	#.low.70
 4844  6A0F     85 20       			sta	__oper1
 4845  6A11     A5 21       			lda	__oper1+1
 4846  6A13     69 00       			adc	#.high.70
 4847  6A15     85 21       			sta	__oper1+1
 4848  6A17     A5 20       			lda	__oper1
 4849  6A19     8D 9E 1F    			sta	_g_GameMTHeroDamige
 4850  6A1C     A5 21       			lda	__oper1+1
 4851  6A1E     8D 9F 1F    			sta	_g_GameMTHeroDamige+1
 4852                     			.c_end	023d2h,336
 4853                     	;*g_GameMTJuidgeNow=0
 4854                     			.c_start  023dbh,337
 4855  6A21     A0 00       			ldy	#-22+?LSC0
 4856  6A23     B1 28       			lda	(__stack_ptr),y
 4857  6A25     85 20       			sta	__oper1
 4858  6A27     C8          			iny
 4859  6A28     B1 28       			lda	(__stack_ptr),y
 4860  6A2A     85 21       			sta	__oper1+1
 4861  6A2C     A5 20       			lda	__oper1
 4862  6A2E     85 23       			sta	__oper2
 4863  6A30     A5 21       			lda	__oper1+1
 4864  6A32     85 24       			sta	__oper2+1
 4865  6A34     A9 00       			lda	#0
 4866  6A36     A0 00       			ldy	#0
 4867  6A38     91 23       			sta	(__oper2),y
 4868                     			.c_end	023efh,337
 4869                     	;GameMTReNewR()
 4870                     			.c_start  023f8h,338
 4871  6A3A     A2 57       			ldx	#.low.&GameMTReNewR
 4872  6A3C     86 26       			stx	__addr_reg
 4873  6A3E     A2 90       			ldx	#.high.&GameMTReNewR+1
 4874  6A40     86 27       			stx	__addr_reg+1
 4875                     			.bf_call
 4876  6A42     20 F6 D2    			jsr	__banked_function_call
 4877                     			.c_end	02406h,338
 4878                     	;
 4879                     	;(g_GameMTFloor==5)
  Wed Jan 14 21:35:33 2026                                                                                               Page   87




 4880         3317 6A45   	?BOL42:		.equal	$
 4881                     			.if_top	02415h,?BOL43,1,340
 4882  6A45     AD A7 1F    			lda	_g_GameMTFloor
 4883  6A48     38          			sec
 4884  6A49     E9 05       			sbc	#5
 4885  6A4B     F0 03       			beq	+3
 4886  6A4D     4C 5D 6A    			jmp	?BOL43
 4887         4517 6A50   	?PLC39:		.equal	$
 4888                     			.c_end	02428h,340
 4889                     	;GameMTShop(1)
 4890                     			.c_start  02415h,340
 4891  6A50     A9 01       			lda	#1
 4892  6A52     A2 54       			ldx	#.low.&GameMTShop
 4893  6A54     86 26       			stx	__addr_reg
 4894  6A56     A2 90       			ldx	#.high.&GameMTShop+1
 4895  6A58     86 27       			stx	__addr_reg+1
 4896                     			.bf_call
 4897  6A5A     20 F6 D2    			jsr	__banked_function_call
 4898                     			.c_end	02436h,340
 4899                     	;;
 4900                     	;				
 4901                     	;(g_GameMTFloor==13)
 4902         4218 6A5D   	?BOL43:		.equal	$
 4903                     			.if_top	0243dh,?BOL44,1,341
 4904  6A5D     AD A7 1F    			lda	_g_GameMTFloor
 4905  6A60     38          			sec
 4906  6A61     E9 0D       			sbc	#13
 4907  6A63     F0 03       			beq	+3
 4908  6A65     4C 75 6A    			jmp	?BOL44
 4909         3619 6A68   	?PLC40:		.equal	$
 4910                     			.c_end	02451h,341
 4911                     	;GameMTShop(2)
 4912                     			.c_start  0243dh,341
 4913  6A68     A9 02       			lda	#2
 4914  6A6A     A2 54       			ldx	#.low.&GameMTShop
 4915  6A6C     86 26       			stx	__addr_reg
 4916  6A6E     A2 90       			ldx	#.high.&GameMTShop+1
 4917  6A70     86 27       			stx	__addr_reg+1
 4918                     			.bf_call
 4919  6A72     20 F6 D2    			jsr	__banked_function_call
 4920                     			.c_end	0245fh,341
 4921                     	;;
 4922                     	;				
 4923                     	;(g_GameMTFloor==15)
 4924                     	;				
 4925         331A 6A75   	?BOL44:		.equal	$
 4926                     			.if_top	02466h,?BOL45,1,342
 4927  6A75     AD A7 1F    			lda	_g_GameMTFloor
 4928  6A78     38          			sec
 4929  6A79     E9 0F       			sbc	#15
 4930  6A7B     F0 03       			beq	+3
 4931  6A7D     4C 43 6C    			jmp	?BOL45
 4932         451A 6A80   	?PLC41:		.equal	$
 4933                     			.c_end	0247ch,343
 4934                     	;GameMTTalk(5,192,1)
 4935                     			.c_start  0248ah,344
 4936  6A80     A9 01       			lda	#1
  Wed Jan 14 21:35:33 2026                                                                                               Page   88




 4937  6A82     20 AA DA    			jsr	__store_char_funct_arg
 4938  6A85     A9 C0       			lda	#.low.192
 4939  6A87     85 20       			sta	__oper1
 4940  6A89     A9 00       			lda	#.high.192
 4941  6A8B     85 21       			sta	__oper1+1
 4942  6A8D     20 CA DA    			jsr	__store_int_funct_arg
 4943  6A90     A9 05       			lda	#5
 4944  6A92     A2 33       			ldx	#.low.&GameMTTalk
 4945  6A94     86 26       			stx	__addr_reg
 4946  6A96     A2 90       			ldx	#.high.&GameMTTalk+1
 4947  6A98     86 27       			stx	__addr_reg+1
 4948                     			.bf_call
 4949  6A9A     20 F6 D2    			jsr	__banked_function_call
 4950  6A9D     08          			php
 4951  6A9E     78          			sei
 4952  6A9F     18          			clc
 4953  6AA0     A5 28       			lda	__stack_ptr
 4954  6AA2     69 03       			adc	#.low.3
 4955  6AA4     85 28       			sta	__stack_ptr
 4956  6AA6     A5 29       			lda	__stack_ptr+1
 4957  6AA8     69 00       			adc	#.high.3
 4958  6AAA     85 29       			sta	__stack_ptr+1
 4959  6AAC     28          			plp
 4960                     			.c_end	0249dh,344
 4961                     	;GameMTTalk(4,197,0)
 4962                     			.c_start  024a6h,345
 4963  6AAD     A9 00       			lda	#0
 4964  6AAF     20 AA DA    			jsr	__store_char_funct_arg
 4965  6AB2     A9 C5       			lda	#.low.197
 4966  6AB4     85 20       			sta	__oper1
 4967  6AB6     A9 00       			lda	#.high.197
 4968  6AB8     85 21       			sta	__oper1+1
 4969  6ABA     20 CA DA    			jsr	__store_int_funct_arg
 4970  6ABD     A9 04       			lda	#4
 4971  6ABF     A2 33       			ldx	#.low.&GameMTTalk
 4972  6AC1     86 26       			stx	__addr_reg
 4973  6AC3     A2 90       			ldx	#.high.&GameMTTalk+1
 4974  6AC5     86 27       			stx	__addr_reg+1
 4975                     			.bf_call
 4976  6AC7     20 F6 D2    			jsr	__banked_function_call
 4977  6ACA     08          			php
 4978  6ACB     78          			sei
 4979  6ACC     18          			clc
 4980  6ACD     A5 28       			lda	__stack_ptr
 4981  6ACF     69 03       			adc	#.low.3
 4982  6AD1     85 28       			sta	__stack_ptr
 4983  6AD3     A5 29       			lda	__stack_ptr+1
 4984  6AD5     69 00       			adc	#.high.3
 4985  6AD7     85 29       			sta	__stack_ptr+1
 4986  6AD9     28          			plp
 4987                     			.c_end	024b9h,345
 4988                     	;(g_GameMTHeroExp>499)
 4989                     	;						
 4990                     			.if_top	024c2h,?BOL46,2,346
 4991  6ADA     A9 F3       			lda	#.low.499
 4992  6ADC     85 23       			sta	__oper2
 4993  6ADE     A9 01       			lda	#.high.499
  Wed Jan 14 21:35:33 2026                                                                                               Page   89




 4994  6AE0     85 24       			sta	__oper2+1
 4995  6AE2     AD A4 1F    			lda	_g_GameMTHeroExp
 4996  6AE5     85 20       			sta	__oper1
 4997  6AE7     AD A5 1F    			lda	_g_GameMTHeroExp+1
 4998  6AEA     85 21       			sta	__oper1+1
 4999  6AEC     20 40 D3    			jsr	__cmp_int
 5000  6AEF     B0 03       			bcs	+3
 5001  6AF1     4C E9 6B    			jmp	?BOL46
 5002  6AF4     D0 03       			bne	+3
 5003  6AF6     4C E9 6B    			jmp	?BOL46
 5004         3729 6AF9   	?PLC42:		.equal	$
 5005                     			.c_end	024dah,347
 5006                     	;g_GameMTHeroExp-=500
 5007                     			.c_start  024ebh,348
 5008  6AF9     AD A4 1F    			lda	_g_GameMTHeroExp
 5009  6AFC     85 20       			sta	__oper1
 5010  6AFE     AD A5 1F    			lda	_g_GameMTHeroExp+1
 5011  6B01     85 21       			sta	__oper1+1
 5012  6B03     A5 20       			lda	__oper1
 5013  6B05     38          			sec
 5014  6B06     E9 F4       			sbc	#.low.500
 5015  6B08     85 20       			sta	__oper1
 5016  6B0A     A5 21       			lda	__oper1+1
 5017  6B0C     E9 01       			sbc	#.high.500
 5018  6B0E     85 21       			sta	__oper1+1
 5019  6B10     A5 20       			lda	__oper1
 5020  6B12     8D A4 1F    			sta	_g_GameMTHeroExp
 5021  6B15     A5 21       			lda	__oper1+1
 5022  6B17     8D A5 1F    			sta	_g_GameMTHeroExp+1
 5023                     			.c_end	024ffh,348
 5024                     	;GameMTTalk(2,201,0)
 5025                     			.c_start  02509h,349
 5026  6B1A     A9 00       			lda	#0
 5027  6B1C     20 AA DA    			jsr	__store_char_funct_arg
 5028  6B1F     A9 C9       			lda	#.low.201
 5029  6B21     85 20       			sta	__oper1
 5030  6B23     A9 00       			lda	#.high.201
 5031  6B25     85 21       			sta	__oper1+1
 5032  6B27     20 CA DA    			jsr	__store_int_funct_arg
 5033  6B2A     A9 02       			lda	#2
 5034  6B2C     A2 33       			ldx	#.low.&GameMTTalk
 5035  6B2E     86 26       			stx	__addr_reg
 5036  6B30     A2 90       			ldx	#.high.&GameMTTalk+1
 5037  6B32     86 27       			stx	__addr_reg+1
 5038                     			.bf_call
 5039  6B34     20 F6 D2    			jsr	__banked_function_call
 5040  6B37     08          			php
 5041  6B38     78          			sei
 5042  6B39     18          			clc
 5043  6B3A     A5 28       			lda	__stack_ptr
 5044  6B3C     69 03       			adc	#.low.3
 5045  6B3E     85 28       			sta	__stack_ptr
 5046  6B40     A5 29       			lda	__stack_ptr+1
 5047  6B42     69 00       			adc	#.high.3
 5048  6B44     85 29       			sta	__stack_ptr+1
 5049  6B46     28          			plp
 5050                     			.c_end	0251ch,349
  Wed Jan 14 21:35:33 2026                                                                                               Page   90




 5051                     	;GameMTTalk(3,203,0)
 5052                     			.c_start  02526h,350
 5053  6B47     A9 00       			lda	#0
 5054  6B49     20 AA DA    			jsr	__store_char_funct_arg
 5055  6B4C     A9 CB       			lda	#.low.203
 5056  6B4E     85 20       			sta	__oper1
 5057  6B50     A9 00       			lda	#.high.203
 5058  6B52     85 21       			sta	__oper1+1
 5059  6B54     20 CA DA    			jsr	__store_int_funct_arg
 5060  6B57     A9 03       			lda	#3
 5061  6B59     A2 33       			ldx	#.low.&GameMTTalk
 5062  6B5B     86 26       			stx	__addr_reg
 5063  6B5D     A2 90       			ldx	#.high.&GameMTTalk+1
 5064  6B5F     86 27       			stx	__addr_reg+1
 5065                     			.bf_call
 5066  6B61     20 F6 D2    			jsr	__banked_function_call
 5067  6B64     08          			php
 5068  6B65     78          			sei
 5069  6B66     18          			clc
 5070  6B67     A5 28       			lda	__stack_ptr
 5071  6B69     69 03       			adc	#.low.3
 5072  6B6B     85 28       			sta	__stack_ptr
 5073  6B6D     A5 29       			lda	__stack_ptr+1
 5074  6B6F     69 00       			adc	#.high.3
 5075  6B71     85 29       			sta	__stack_ptr+1
 5076  6B73     28          			plp
 5077                     			.c_end	02539h,350
 5078                     	;GameMTTalk(2,423,0)
 5079                     			.c_start  02543h,351
 5080  6B74     A9 00       			lda	#0
 5081  6B76     20 AA DA    			jsr	__store_char_funct_arg
 5082  6B79     A9 A7       			lda	#.low.423
 5083  6B7B     85 20       			sta	__oper1
 5084  6B7D     A9 01       			lda	#.high.423
 5085  6B7F     85 21       			sta	__oper1+1
 5086  6B81     20 CA DA    			jsr	__store_int_funct_arg
 5087  6B84     A9 02       			lda	#2
 5088  6B86     A2 33       			ldx	#.low.&GameMTTalk
 5089  6B88     86 26       			stx	__addr_reg
 5090  6B8A     A2 90       			ldx	#.high.&GameMTTalk+1
 5091  6B8C     86 27       			stx	__addr_reg+1
 5092                     			.bf_call
 5093  6B8E     20 F6 D2    			jsr	__banked_function_call
 5094  6B91     08          			php
 5095  6B92     78          			sei
 5096  6B93     18          			clc
 5097  6B94     A5 28       			lda	__stack_ptr
 5098  6B96     69 03       			adc	#.low.3
 5099  6B98     85 28       			sta	__stack_ptr
 5100  6B9A     A5 29       			lda	__stack_ptr+1
 5101  6B9C     69 00       			adc	#.high.3
 5102  6B9E     85 29       			sta	__stack_ptr+1
 5103  6BA0     28          			plp
 5104                     			.c_end	02556h,351
 5105                     	;g_GameMTHeroDamige+=120
 5106                     			.c_start  02560h,352
 5107  6BA1     AD 9E 1F    			lda	_g_GameMTHeroDamige
  Wed Jan 14 21:35:33 2026                                                                                               Page   91




 5108  6BA4     85 20       			sta	__oper1
 5109  6BA6     AD 9F 1F    			lda	_g_GameMTHeroDamige+1
 5110  6BA9     85 21       			sta	__oper1+1
 5111  6BAB     A5 20       			lda	__oper1
 5112  6BAD     18          			clc
 5113  6BAE     69 78       			adc	#.low.120
 5114  6BB0     85 20       			sta	__oper1
 5115  6BB2     A5 21       			lda	__oper1+1
 5116  6BB4     69 00       			adc	#.high.120
 5117  6BB6     85 21       			sta	__oper1+1
 5118  6BB8     A5 20       			lda	__oper1
 5119  6BBA     8D 9E 1F    			sta	_g_GameMTHeroDamige
 5120  6BBD     A5 21       			lda	__oper1+1
 5121  6BBF     8D 9F 1F    			sta	_g_GameMTHeroDamige+1
 5122                     			.c_end	02577h,352
 5123                     	;*g_GameMTJuidgeNow=0
 5124                     			.c_start  02581h,353
 5125  6BC2     A0 00       			ldy	#-22+?LSC0
 5126  6BC4     B1 28       			lda	(__stack_ptr),y
 5127  6BC6     85 20       			sta	__oper1
 5128  6BC8     C8          			iny
 5129  6BC9     B1 28       			lda	(__stack_ptr),y
 5130  6BCB     85 21       			sta	__oper1+1
 5131  6BCD     A5 20       			lda	__oper1
 5132  6BCF     85 23       			sta	__oper2
 5133  6BD1     A5 21       			lda	__oper1+1
 5134  6BD3     85 24       			sta	__oper2+1
 5135  6BD5     A9 00       			lda	#0
 5136  6BD7     A0 00       			ldy	#0
 5137  6BD9     91 23       			sta	(__oper2),y
 5138                     			.c_end	02595h,353
 5139                     	;GameMTReNewR()
 5140                     			.c_start  0259fh,354
 5141  6BDB     A2 57       			ldx	#.low.&GameMTReNewR
 5142  6BDD     86 26       			stx	__addr_reg
 5143  6BDF     A2 90       			ldx	#.high.&GameMTReNewR+1
 5144  6BE1     86 27       			stx	__addr_reg+1
 5145                     			.bf_call
 5146  6BE3     20 F6 D2    			jsr	__banked_function_call
 5147                     			.c_end	025adh,354
 5148                     	;
 5149                     	;else
 5150                     	;						
 5151  6BE6     4C 43 6C    			jmp	?EOI46
 5152                     			.if_else  ?EOI46,2,357
 5153         3728 6BE9   	?BOL46:		.equal	$
 5154                     	;GameMTTalk(3,224,0)
 5155                     			.c_start  025d5h,358
 5156  6BE9     A9 00       			lda	#0
 5157  6BEB     20 AA DA    			jsr	__store_char_funct_arg
 5158  6BEE     A9 E0       			lda	#.low.224
 5159  6BF0     85 20       			sta	__oper1
 5160  6BF2     A9 00       			lda	#.high.224
 5161  6BF4     85 21       			sta	__oper1+1
 5162  6BF6     20 CA DA    			jsr	__store_int_funct_arg
 5163  6BF9     A9 03       			lda	#3
 5164  6BFB     A2 33       			ldx	#.low.&GameMTTalk
  Wed Jan 14 21:35:33 2026                                                                                               Page   92




 5165  6BFD     86 26       			stx	__addr_reg
 5166  6BFF     A2 90       			ldx	#.high.&GameMTTalk+1
 5167  6C01     86 27       			stx	__addr_reg+1
 5168                     			.bf_call
 5169  6C03     20 F6 D2    			jsr	__banked_function_call
 5170  6C06     08          			php
 5171  6C07     78          			sei
 5172  6C08     18          			clc
 5173  6C09     A5 28       			lda	__stack_ptr
 5174  6C0B     69 03       			adc	#.low.3
 5175  6C0D     85 28       			sta	__stack_ptr
 5176  6C0F     A5 29       			lda	__stack_ptr+1
 5177  6C11     69 00       			adc	#.high.3
 5178  6C13     85 29       			sta	__stack_ptr+1
 5179  6C15     28          			plp
 5180                     			.c_end	025e8h,358
 5181                     	;GameMTTalk(3,227,0)
 5182                     			.c_start  025f2h,359
 5183  6C16     A9 00       			lda	#0
 5184  6C18     20 AA DA    			jsr	__store_char_funct_arg
 5185  6C1B     A9 E3       			lda	#.low.227
 5186  6C1D     85 20       			sta	__oper1
 5187  6C1F     A9 00       			lda	#.high.227
 5188  6C21     85 21       			sta	__oper1+1
 5189  6C23     20 CA DA    			jsr	__store_int_funct_arg
 5190  6C26     A9 03       			lda	#3
 5191  6C28     A2 33       			ldx	#.low.&GameMTTalk
 5192  6C2A     86 26       			stx	__addr_reg
 5193  6C2C     A2 90       			ldx	#.high.&GameMTTalk+1
 5194  6C2E     86 27       			stx	__addr_reg+1
 5195                     			.bf_call
 5196  6C30     20 F6 D2    			jsr	__banked_function_call
 5197  6C33     08          			php
 5198  6C34     78          			sei
 5199  6C35     18          			clc
 5200  6C36     A5 28       			lda	__stack_ptr
 5201  6C38     69 03       			adc	#.low.3
 5202  6C3A     85 28       			sta	__stack_ptr
 5203  6C3C     A5 29       			lda	__stack_ptr+1
 5204  6C3E     69 00       			adc	#.high.3
 5205  6C40     85 29       			sta	__stack_ptr+1
 5206  6C42     28          			plp
 5207                     			.c_end	02605h,359
 5208                     	;
 5209         3317 6C43   	?EOI46:		.equal	$
 5210                     	;
 5211                     	;break;
 5212                     	;			
 5213         33FA 6C43   	?BOL45:		.equal	$
 5214                     			.sw_break
 5215  6C43     4C CF 83    			jmp	?BOL14
 5216                     	;case	16:
 5217                     	;				
 5218         3417 6C46   	?SWL24:		.equal	$
 5219                     	;(g_GameMTCurMap[93]==16)
 5220                     	;				
 5221                     			.if_top	02635h,?BOL47,1,364
  Wed Jan 14 21:35:33 2026                                                                                               Page   93




 5222  6C46     AE A8 1F    			ldx	_g_GameMTCurMap
 5223  6C49     86 26       			stx	__addr_reg
 5224  6C4B     AE A9 1F    			ldx	_g_GameMTCurMap+1
 5225  6C4E     86 27       			stx	__addr_reg+1
 5226  6C50     A0 5D       			ldy	#93
 5227  6C52     B1 26       			lda	(__addr_reg),y
 5228  6C54     38          			sec
 5229  6C55     E9 10       			sbc	#16
 5230  6C57     F0 03       			beq	+3
 5231  6C59     4C 2E 71    			jmp	?BOL47
 5232         3A18 6C5C   	?PLC43:		.equal	$
 5233                     			.c_end	02650h,365
 5234                     	;GameMTTalk(1,34,0)
 5235                     			.c_start  0265dh,366
 5236  6C5C     A9 00       			lda	#0
 5237  6C5E     20 AA DA    			jsr	__store_char_funct_arg
 5238  6C61     A9 22       			lda	#.low.34
 5239  6C63     85 20       			sta	__oper1
 5240  6C65     A9 00       			lda	#.high.34
 5241  6C67     85 21       			sta	__oper1+1
 5242  6C69     20 CA DA    			jsr	__store_int_funct_arg
 5243  6C6C     A9 01       			lda	#1
 5244  6C6E     A2 33       			ldx	#.low.&GameMTTalk
 5245  6C70     86 26       			stx	__addr_reg
 5246  6C72     A2 90       			ldx	#.high.&GameMTTalk+1
 5247  6C74     86 27       			stx	__addr_reg+1
 5248                     			.bf_call
 5249  6C76     20 F6 D2    			jsr	__banked_function_call
 5250  6C79     08          			php
 5251  6C7A     78          			sei
 5252  6C7B     18          			clc
 5253  6C7C     A5 28       			lda	__stack_ptr
 5254  6C7E     69 03       			adc	#.low.3
 5255  6C80     85 28       			sta	__stack_ptr
 5256  6C82     A5 29       			lda	__stack_ptr+1
 5257  6C84     69 00       			adc	#.high.3
 5258  6C86     85 29       			sta	__stack_ptr+1
 5259  6C88     28          			plp
 5260                     			.c_end	0266fh,366
 5261                     	;GameMTTalk(1,35,0)
 5262                     			.c_start  02677h,367
 5263  6C89     A9 00       			lda	#0
 5264  6C8B     20 AA DA    			jsr	__store_char_funct_arg
 5265  6C8E     A9 23       			lda	#.low.35
 5266  6C90     85 20       			sta	__oper1
 5267  6C92     A9 00       			lda	#.high.35
 5268  6C94     85 21       			sta	__oper1+1
 5269  6C96     20 CA DA    			jsr	__store_int_funct_arg
 5270  6C99     A9 01       			lda	#1
 5271  6C9B     A2 33       			ldx	#.low.&GameMTTalk
 5272  6C9D     86 26       			stx	__addr_reg
 5273  6C9F     A2 90       			ldx	#.high.&GameMTTalk+1
 5274  6CA1     86 27       			stx	__addr_reg+1
 5275                     			.bf_call
 5276  6CA3     20 F6 D2    			jsr	__banked_function_call
 5277  6CA6     08          			php
 5278  6CA7     78          			sei
  Wed Jan 14 21:35:33 2026                                                                                               Page   94




 5279  6CA8     18          			clc
 5280  6CA9     A5 28       			lda	__stack_ptr
 5281  6CAB     69 03       			adc	#.low.3
 5282  6CAD     85 28       			sta	__stack_ptr
 5283  6CAF     A5 29       			lda	__stack_ptr+1
 5284  6CB1     69 00       			adc	#.high.3
 5285  6CB3     85 29       			sta	__stack_ptr+1
 5286  6CB5     28          			plp
 5287                     			.c_end	02689h,367
 5288                     	;GameMTTalk(2,36,0)
 5289                     			.c_start  02691h,368
 5290  6CB6     A9 00       			lda	#0
 5291  6CB8     20 AA DA    			jsr	__store_char_funct_arg
 5292  6CBB     A9 24       			lda	#.low.36
 5293  6CBD     85 20       			sta	__oper1
 5294  6CBF     A9 00       			lda	#.high.36
 5295  6CC1     85 21       			sta	__oper1+1
 5296  6CC3     20 CA DA    			jsr	__store_int_funct_arg
 5297  6CC6     A9 02       			lda	#2
 5298  6CC8     A2 33       			ldx	#.low.&GameMTTalk
 5299  6CCA     86 26       			stx	__addr_reg
 5300  6CCC     A2 90       			ldx	#.high.&GameMTTalk+1
 5301  6CCE     86 27       			stx	__addr_reg+1
 5302                     			.bf_call
 5303  6CD0     20 F6 D2    			jsr	__banked_function_call
 5304  6CD3     08          			php
 5305  6CD4     78          			sei
 5306  6CD5     18          			clc
 5307  6CD6     A5 28       			lda	__stack_ptr
 5308  6CD8     69 03       			adc	#.low.3
 5309  6CDA     85 28       			sta	__stack_ptr
 5310  6CDC     A5 29       			lda	__stack_ptr+1
 5311  6CDE     69 00       			adc	#.high.3
 5312  6CE0     85 29       			sta	__stack_ptr+1
 5313  6CE2     28          			plp
 5314                     			.c_end	026a3h,368
 5315                     	;GameMTTalk(3,38,0)
 5316                     			.c_start  026abh,369
 5317  6CE3     A9 00       			lda	#0
 5318  6CE5     20 AA DA    			jsr	__store_char_funct_arg
 5319  6CE8     A9 26       			lda	#.low.38
 5320  6CEA     85 20       			sta	__oper1
 5321  6CEC     A9 00       			lda	#.high.38
 5322  6CEE     85 21       			sta	__oper1+1
 5323  6CF0     20 CA DA    			jsr	__store_int_funct_arg
 5324  6CF3     A9 03       			lda	#3
 5325  6CF5     A2 33       			ldx	#.low.&GameMTTalk
 5326  6CF7     86 26       			stx	__addr_reg
 5327  6CF9     A2 90       			ldx	#.high.&GameMTTalk+1
 5328  6CFB     86 27       			stx	__addr_reg+1
 5329                     			.bf_call
 5330  6CFD     20 F6 D2    			jsr	__banked_function_call
 5331  6D00     08          			php
 5332  6D01     78          			sei
 5333  6D02     18          			clc
 5334  6D03     A5 28       			lda	__stack_ptr
 5335  6D05     69 03       			adc	#.low.3
  Wed Jan 14 21:35:33 2026                                                                                               Page   95




 5336  6D07     85 28       			sta	__stack_ptr
 5337  6D09     A5 29       			lda	__stack_ptr+1
 5338  6D0B     69 00       			adc	#.high.3
 5339  6D0D     85 29       			sta	__stack_ptr+1
 5340  6D0F     28          			plp
 5341                     			.c_end	026bdh,369
 5342                     	;GameMTTalk(2,41,0)
 5343                     			.c_start  026c5h,370
 5344  6D10     A9 00       			lda	#0
 5345  6D12     20 AA DA    			jsr	__store_char_funct_arg
 5346  6D15     A9 29       			lda	#.low.41
 5347  6D17     85 20       			sta	__oper1
 5348  6D19     A9 00       			lda	#.high.41
 5349  6D1B     85 21       			sta	__oper1+1
 5350  6D1D     20 CA DA    			jsr	__store_int_funct_arg
 5351  6D20     A9 02       			lda	#2
 5352  6D22     A2 33       			ldx	#.low.&GameMTTalk
 5353  6D24     86 26       			stx	__addr_reg
 5354  6D26     A2 90       			ldx	#.high.&GameMTTalk+1
 5355  6D28     86 27       			stx	__addr_reg+1
 5356                     			.bf_call
 5357  6D2A     20 F6 D2    			jsr	__banked_function_call
 5358  6D2D     08          			php
 5359  6D2E     78          			sei
 5360  6D2F     18          			clc
 5361  6D30     A5 28       			lda	__stack_ptr
 5362  6D32     69 03       			adc	#.low.3
 5363  6D34     85 28       			sta	__stack_ptr
 5364  6D36     A5 29       			lda	__stack_ptr+1
 5365  6D38     69 00       			adc	#.high.3
 5366  6D3A     85 29       			sta	__stack_ptr+1
 5367  6D3C     28          			plp
 5368                     			.c_end	026d7h,370
 5369                     	;GameMTTalk(3,43,0)
 5370                     			.c_start  026dfh,371
 5371  6D3D     A9 00       			lda	#0
 5372  6D3F     20 AA DA    			jsr	__store_char_funct_arg
 5373  6D42     A9 2B       			lda	#.low.43
 5374  6D44     85 20       			sta	__oper1
 5375  6D46     A9 00       			lda	#.high.43
 5376  6D48     85 21       			sta	__oper1+1
 5377  6D4A     20 CA DA    			jsr	__store_int_funct_arg
 5378  6D4D     A9 03       			lda	#3
 5379  6D4F     A2 33       			ldx	#.low.&GameMTTalk
 5380  6D51     86 26       			stx	__addr_reg
 5381  6D53     A2 90       			ldx	#.high.&GameMTTalk+1
 5382  6D55     86 27       			stx	__addr_reg+1
 5383                     			.bf_call
 5384  6D57     20 F6 D2    			jsr	__banked_function_call
 5385  6D5A     08          			php
 5386  6D5B     78          			sei
 5387  6D5C     18          			clc
 5388  6D5D     A5 28       			lda	__stack_ptr
 5389  6D5F     69 03       			adc	#.low.3
 5390  6D61     85 28       			sta	__stack_ptr
 5391  6D63     A5 29       			lda	__stack_ptr+1
 5392  6D65     69 00       			adc	#.high.3
  Wed Jan 14 21:35:33 2026                                                                                               Page   96




 5393  6D67     85 29       			sta	__stack_ptr+1
 5394  6D69     28          			plp
 5395                     			.c_end	026f1h,371
 5396                     	;GameMTTalk(2,46,0)
 5397                     			.c_start  026f9h,372
 5398  6D6A     A9 00       			lda	#0
 5399  6D6C     20 AA DA    			jsr	__store_char_funct_arg
 5400  6D6F     A9 2E       			lda	#.low.46
 5401  6D71     85 20       			sta	__oper1
 5402  6D73     A9 00       			lda	#.high.46
 5403  6D75     85 21       			sta	__oper1+1
 5404  6D77     20 CA DA    			jsr	__store_int_funct_arg
 5405  6D7A     A9 02       			lda	#2
 5406  6D7C     A2 33       			ldx	#.low.&GameMTTalk
 5407  6D7E     86 26       			stx	__addr_reg
 5408  6D80     A2 90       			ldx	#.high.&GameMTTalk+1
 5409  6D82     86 27       			stx	__addr_reg+1
 5410                     			.bf_call
 5411  6D84     20 F6 D2    			jsr	__banked_function_call
 5412  6D87     08          			php
 5413  6D88     78          			sei
 5414  6D89     18          			clc
 5415  6D8A     A5 28       			lda	__stack_ptr
 5416  6D8C     69 03       			adc	#.low.3
 5417  6D8E     85 28       			sta	__stack_ptr
 5418  6D90     A5 29       			lda	__stack_ptr+1
 5419  6D92     69 00       			adc	#.high.3
 5420  6D94     85 29       			sta	__stack_ptr+1
 5421  6D96     28          			plp
 5422                     			.c_end	0270bh,372
 5423                     	;GameMTTalk(3,48,0)
 5424                     			.c_start  02713h,373
 5425  6D97     A9 00       			lda	#0
 5426  6D99     20 AA DA    			jsr	__store_char_funct_arg
 5427  6D9C     A9 30       			lda	#.low.48
 5428  6D9E     85 20       			sta	__oper1
 5429  6DA0     A9 00       			lda	#.high.48
 5430  6DA2     85 21       			sta	__oper1+1
 5431  6DA4     20 CA DA    			jsr	__store_int_funct_arg
 5432  6DA7     A9 03       			lda	#3
 5433  6DA9     A2 33       			ldx	#.low.&GameMTTalk
 5434  6DAB     86 26       			stx	__addr_reg
 5435  6DAD     A2 90       			ldx	#.high.&GameMTTalk+1
 5436  6DAF     86 27       			stx	__addr_reg+1
 5437                     			.bf_call
 5438  6DB1     20 F6 D2    			jsr	__banked_function_call
 5439  6DB4     08          			php
 5440  6DB5     78          			sei
 5441  6DB6     18          			clc
 5442  6DB7     A5 28       			lda	__stack_ptr
 5443  6DB9     69 03       			adc	#.low.3
 5444  6DBB     85 28       			sta	__stack_ptr
 5445  6DBD     A5 29       			lda	__stack_ptr+1
 5446  6DBF     69 00       			adc	#.high.3
 5447  6DC1     85 29       			sta	__stack_ptr+1
 5448  6DC3     28          			plp
 5449                     			.c_end	02725h,373
  Wed Jan 14 21:35:33 2026                                                                                               Page   97




 5450                     	;GameMTTalk(4,51,0)
 5451                     			.c_start  0272dh,374
 5452  6DC4     A9 00       			lda	#0
 5453  6DC6     20 AA DA    			jsr	__store_char_funct_arg
 5454  6DC9     A9 33       			lda	#.low.51
 5455  6DCB     85 20       			sta	__oper1
 5456  6DCD     A9 00       			lda	#.high.51
 5457  6DCF     85 21       			sta	__oper1+1
 5458  6DD1     20 CA DA    			jsr	__store_int_funct_arg
 5459  6DD4     A9 04       			lda	#4
 5460  6DD6     A2 33       			ldx	#.low.&GameMTTalk
 5461  6DD8     86 26       			stx	__addr_reg
 5462  6DDA     A2 90       			ldx	#.high.&GameMTTalk+1
 5463  6DDC     86 27       			stx	__addr_reg+1
 5464                     			.bf_call
 5465  6DDE     20 F6 D2    			jsr	__banked_function_call
 5466  6DE1     08          			php
 5467  6DE2     78          			sei
 5468  6DE3     18          			clc
 5469  6DE4     A5 28       			lda	__stack_ptr
 5470  6DE6     69 03       			adc	#.low.3
 5471  6DE8     85 28       			sta	__stack_ptr
 5472  6DEA     A5 29       			lda	__stack_ptr+1
 5473  6DEC     69 00       			adc	#.high.3
 5474  6DEE     85 29       			sta	__stack_ptr+1
 5475  6DF0     28          			plp
 5476                     			.c_end	0273fh,374
 5477                     	;GameMTTalk(5,55,1)
 5478                     			.c_start  02747h,375
 5479  6DF1     A9 01       			lda	#1
 5480  6DF3     20 AA DA    			jsr	__store_char_funct_arg
 5481  6DF6     A9 37       			lda	#.low.55
 5482  6DF8     85 20       			sta	__oper1
 5483  6DFA     A9 00       			lda	#.high.55
 5484  6DFC     85 21       			sta	__oper1+1
 5485  6DFE     20 CA DA    			jsr	__store_int_funct_arg
 5486  6E01     A9 05       			lda	#5
 5487  6E03     A2 33       			ldx	#.low.&GameMTTalk
 5488  6E05     86 26       			stx	__addr_reg
 5489  6E07     A2 90       			ldx	#.high.&GameMTTalk+1
 5490  6E09     86 27       			stx	__addr_reg+1
 5491                     			.bf_call
 5492  6E0B     20 F6 D2    			jsr	__banked_function_call
 5493  6E0E     08          			php
 5494  6E0F     78          			sei
 5495  6E10     18          			clc
 5496  6E11     A5 28       			lda	__stack_ptr
 5497  6E13     69 03       			adc	#.low.3
 5498  6E15     85 28       			sta	__stack_ptr
 5499  6E17     A5 29       			lda	__stack_ptr+1
 5500  6E19     69 00       			adc	#.high.3
 5501  6E1B     85 29       			sta	__stack_ptr+1
 5502  6E1D     28          			plp
 5503                     			.c_end	02759h,375
 5504                     	;GameMTTalk(1,60,0)
 5505                     			.c_start  02761h,376
 5506  6E1E     A9 00       			lda	#0
  Wed Jan 14 21:35:33 2026                                                                                               Page   98




 5507  6E20     20 AA DA    			jsr	__store_char_funct_arg
 5508  6E23     A9 3C       			lda	#.low.60
 5509  6E25     85 20       			sta	__oper1
 5510  6E27     A9 00       			lda	#.high.60
 5511  6E29     85 21       			sta	__oper1+1
 5512  6E2B     20 CA DA    			jsr	__store_int_funct_arg
 5513  6E2E     A9 01       			lda	#1
 5514  6E30     A2 33       			ldx	#.low.&GameMTTalk
 5515  6E32     86 26       			stx	__addr_reg
 5516  6E34     A2 90       			ldx	#.high.&GameMTTalk+1
 5517  6E36     86 27       			stx	__addr_reg+1
 5518                     			.bf_call
 5519  6E38     20 F6 D2    			jsr	__banked_function_call
 5520  6E3B     08          			php
 5521  6E3C     78          			sei
 5522  6E3D     18          			clc
 5523  6E3E     A5 28       			lda	__stack_ptr
 5524  6E40     69 03       			adc	#.low.3
 5525  6E42     85 28       			sta	__stack_ptr
 5526  6E44     A5 29       			lda	__stack_ptr+1
 5527  6E46     69 00       			adc	#.high.3
 5528  6E48     85 29       			sta	__stack_ptr+1
 5529  6E4A     28          			plp
 5530                     			.c_end	02773h,376
 5531                     	;GameMTTalk(2,61,0)
 5532                     			.c_start  0277bh,377
 5533  6E4B     A9 00       			lda	#0
 5534  6E4D     20 AA DA    			jsr	__store_char_funct_arg
 5535  6E50     A9 3D       			lda	#.low.61
 5536  6E52     85 20       			sta	__oper1
 5537  6E54     A9 00       			lda	#.high.61
 5538  6E56     85 21       			sta	__oper1+1
 5539  6E58     20 CA DA    			jsr	__store_int_funct_arg
 5540  6E5B     A9 02       			lda	#2
 5541  6E5D     A2 33       			ldx	#.low.&GameMTTalk
 5542  6E5F     86 26       			stx	__addr_reg
 5543  6E61     A2 90       			ldx	#.high.&GameMTTalk+1
 5544  6E63     86 27       			stx	__addr_reg+1
 5545                     			.bf_call
 5546  6E65     20 F6 D2    			jsr	__banked_function_call
 5547  6E68     08          			php
 5548  6E69     78          			sei
 5549  6E6A     18          			clc
 5550  6E6B     A5 28       			lda	__stack_ptr
 5551  6E6D     69 03       			adc	#.low.3
 5552  6E6F     85 28       			sta	__stack_ptr
 5553  6E71     A5 29       			lda	__stack_ptr+1
 5554  6E73     69 00       			adc	#.high.3
 5555  6E75     85 29       			sta	__stack_ptr+1
 5556  6E77     28          			plp
 5557                     			.c_end	0278dh,377
 5558                     	;GameMTTalk(3,63,0)
 5559                     			.c_start  02795h,378
 5560  6E78     A9 00       			lda	#0
 5561  6E7A     20 AA DA    			jsr	__store_char_funct_arg
 5562  6E7D     A9 3F       			lda	#.low.63
 5563  6E7F     85 20       			sta	__oper1
  Wed Jan 14 21:35:33 2026                                                                                               Page   99




 5564  6E81     A9 00       			lda	#.high.63
 5565  6E83     85 21       			sta	__oper1+1
 5566  6E85     20 CA DA    			jsr	__store_int_funct_arg
 5567  6E88     A9 03       			lda	#3
 5568  6E8A     A2 33       			ldx	#.low.&GameMTTalk
 5569  6E8C     86 26       			stx	__addr_reg
 5570  6E8E     A2 90       			ldx	#.high.&GameMTTalk+1
 5571  6E90     86 27       			stx	__addr_reg+1
 5572                     			.bf_call
 5573  6E92     20 F6 D2    			jsr	__banked_function_call
 5574  6E95     08          			php
 5575  6E96     78          			sei
 5576  6E97     18          			clc
 5577  6E98     A5 28       			lda	__stack_ptr
 5578  6E9A     69 03       			adc	#.low.3
 5579  6E9C     85 28       			sta	__stack_ptr
 5580  6E9E     A5 29       			lda	__stack_ptr+1
 5581  6EA0     69 00       			adc	#.high.3
 5582  6EA2     85 29       			sta	__stack_ptr+1
 5583  6EA4     28          			plp
 5584                     			.c_end	027a7h,378
 5585                     	;GameMTTalk(2,66,0)
 5586                     			.c_start  027afh,379
 5587  6EA5     A9 00       			lda	#0
 5588  6EA7     20 AA DA    			jsr	__store_char_funct_arg
 5589  6EAA     A9 42       			lda	#.low.66
 5590  6EAC     85 20       			sta	__oper1
 5591  6EAE     A9 00       			lda	#.high.66
 5592  6EB0     85 21       			sta	__oper1+1
 5593  6EB2     20 CA DA    			jsr	__store_int_funct_arg
 5594  6EB5     A9 02       			lda	#2
 5595  6EB7     A2 33       			ldx	#.low.&GameMTTalk
 5596  6EB9     86 26       			stx	__addr_reg
 5597  6EBB     A2 90       			ldx	#.high.&GameMTTalk+1
 5598  6EBD     86 27       			stx	__addr_reg+1
 5599                     			.bf_call
 5600  6EBF     20 F6 D2    			jsr	__banked_function_call
 5601  6EC2     08          			php
 5602  6EC3     78          			sei
 5603  6EC4     18          			clc
 5604  6EC5     A5 28       			lda	__stack_ptr
 5605  6EC7     69 03       			adc	#.low.3
 5606  6EC9     85 28       			sta	__stack_ptr
 5607  6ECB     A5 29       			lda	__stack_ptr+1
 5608  6ECD     69 00       			adc	#.high.3
 5609  6ECF     85 29       			sta	__stack_ptr+1
 5610  6ED1     28          			plp
 5611                     			.c_end	027c1h,379
 5612                     	;GameMTTalk(5,68,1)
 5613                     			.c_start  027c9h,380
 5614  6ED2     A9 01       			lda	#1
 5615  6ED4     20 AA DA    			jsr	__store_char_funct_arg
 5616  6ED7     A9 44       			lda	#.low.68
 5617  6ED9     85 20       			sta	__oper1
 5618  6EDB     A9 00       			lda	#.high.68
 5619  6EDD     85 21       			sta	__oper1+1
 5620  6EDF     20 CA DA    			jsr	__store_int_funct_arg
  Wed Jan 14 21:35:33 2026                                                                                               Page  100




 5621  6EE2     A9 05       			lda	#5
 5622  6EE4     A2 33       			ldx	#.low.&GameMTTalk
 5623  6EE6     86 26       			stx	__addr_reg
 5624  6EE8     A2 90       			ldx	#.high.&GameMTTalk+1
 5625  6EEA     86 27       			stx	__addr_reg+1
 5626                     			.bf_call
 5627  6EEC     20 F6 D2    			jsr	__banked_function_call
 5628  6EEF     08          			php
 5629  6EF0     78          			sei
 5630  6EF1     18          			clc
 5631  6EF2     A5 28       			lda	__stack_ptr
 5632  6EF4     69 03       			adc	#.low.3
 5633  6EF6     85 28       			sta	__stack_ptr
 5634  6EF8     A5 29       			lda	__stack_ptr+1
 5635  6EFA     69 00       			adc	#.high.3
 5636  6EFC     85 29       			sta	__stack_ptr+1
 5637  6EFE     28          			plp
 5638                     			.c_end	027dbh,380
 5639                     	;GameMTTalk(5,73,1)
 5640                     			.c_start  027e3h,381
 5641  6EFF     A9 01       			lda	#1
 5642  6F01     20 AA DA    			jsr	__store_char_funct_arg
 5643  6F04     A9 49       			lda	#.low.73
 5644  6F06     85 20       			sta	__oper1
 5645  6F08     A9 00       			lda	#.high.73
 5646  6F0A     85 21       			sta	__oper1+1
 5647  6F0C     20 CA DA    			jsr	__store_int_funct_arg
 5648  6F0F     A9 05       			lda	#5
 5649  6F11     A2 33       			ldx	#.low.&GameMTTalk
 5650  6F13     86 26       			stx	__addr_reg
 5651  6F15     A2 90       			ldx	#.high.&GameMTTalk+1
 5652  6F17     86 27       			stx	__addr_reg+1
 5653                     			.bf_call
 5654  6F19     20 F6 D2    			jsr	__banked_function_call
 5655  6F1C     08          			php
 5656  6F1D     78          			sei
 5657  6F1E     18          			clc
 5658  6F1F     A5 28       			lda	__stack_ptr
 5659  6F21     69 03       			adc	#.low.3
 5660  6F23     85 28       			sta	__stack_ptr
 5661  6F25     A5 29       			lda	__stack_ptr+1
 5662  6F27     69 00       			adc	#.high.3
 5663  6F29     85 29       			sta	__stack_ptr+1
 5664  6F2B     28          			plp
 5665                     			.c_end	027f5h,381
 5666                     	;GameMTTalk(2,78,0)
 5667                     			.c_start  027fdh,382
 5668  6F2C     A9 00       			lda	#0
 5669  6F2E     20 AA DA    			jsr	__store_char_funct_arg
 5670  6F31     A9 4E       			lda	#.low.78
 5671  6F33     85 20       			sta	__oper1
 5672  6F35     A9 00       			lda	#.high.78
 5673  6F37     85 21       			sta	__oper1+1
 5674  6F39     20 CA DA    			jsr	__store_int_funct_arg
 5675  6F3C     A9 02       			lda	#2
 5676  6F3E     A2 33       			ldx	#.low.&GameMTTalk
 5677  6F40     86 26       			stx	__addr_reg
  Wed Jan 14 21:35:33 2026                                                                                               Page  101




 5678  6F42     A2 90       			ldx	#.high.&GameMTTalk+1
 5679  6F44     86 27       			stx	__addr_reg+1
 5680                     			.bf_call
 5681  6F46     20 F6 D2    			jsr	__banked_function_call
 5682  6F49     08          			php
 5683  6F4A     78          			sei
 5684  6F4B     18          			clc
 5685  6F4C     A5 28       			lda	__stack_ptr
 5686  6F4E     69 03       			adc	#.low.3
 5687  6F50     85 28       			sta	__stack_ptr
 5688  6F52     A5 29       			lda	__stack_ptr+1
 5689  6F54     69 00       			adc	#.high.3
 5690  6F56     85 29       			sta	__stack_ptr+1
 5691  6F58     28          			plp
 5692                     			.c_end	0280fh,382
 5693                     	;GameMTTalk(2,80,0)
 5694                     			.c_start  02817h,383
 5695  6F59     A9 00       			lda	#0
 5696  6F5B     20 AA DA    			jsr	__store_char_funct_arg
 5697  6F5E     A9 50       			lda	#.low.80
 5698  6F60     85 20       			sta	__oper1
 5699  6F62     A9 00       			lda	#.high.80
 5700  6F64     85 21       			sta	__oper1+1
 5701  6F66     20 CA DA    			jsr	__store_int_funct_arg
 5702  6F69     A9 02       			lda	#2
 5703  6F6B     A2 33       			ldx	#.low.&GameMTTalk
 5704  6F6D     86 26       			stx	__addr_reg
 5705  6F6F     A2 90       			ldx	#.high.&GameMTTalk+1
 5706  6F71     86 27       			stx	__addr_reg+1
 5707                     			.bf_call
 5708  6F73     20 F6 D2    			jsr	__banked_function_call
 5709  6F76     08          			php
 5710  6F77     78          			sei
 5711  6F78     18          			clc
 5712  6F79     A5 28       			lda	__stack_ptr
 5713  6F7B     69 03       			adc	#.low.3
 5714  6F7D     85 28       			sta	__stack_ptr
 5715  6F7F     A5 29       			lda	__stack_ptr+1
 5716  6F81     69 00       			adc	#.high.3
 5717  6F83     85 29       			sta	__stack_ptr+1
 5718  6F85     28          			plp
 5719                     			.c_end	02829h,383
 5720                     	;GameMTTalk(5,82,1)
 5721                     			.c_start  02831h,384
 5722  6F86     A9 01       			lda	#1
 5723  6F88     20 AA DA    			jsr	__store_char_funct_arg
 5724  6F8B     A9 52       			lda	#.low.82
 5725  6F8D     85 20       			sta	__oper1
 5726  6F8F     A9 00       			lda	#.high.82
 5727  6F91     85 21       			sta	__oper1+1
 5728  6F93     20 CA DA    			jsr	__store_int_funct_arg
 5729  6F96     A9 05       			lda	#5
 5730  6F98     A2 33       			ldx	#.low.&GameMTTalk
 5731  6F9A     86 26       			stx	__addr_reg
 5732  6F9C     A2 90       			ldx	#.high.&GameMTTalk+1
 5733  6F9E     86 27       			stx	__addr_reg+1
 5734                     			.bf_call
  Wed Jan 14 21:35:33 2026                                                                                               Page  102




 5735  6FA0     20 F6 D2    			jsr	__banked_function_call
 5736  6FA3     08          			php
 5737  6FA4     78          			sei
 5738  6FA5     18          			clc
 5739  6FA6     A5 28       			lda	__stack_ptr
 5740  6FA8     69 03       			adc	#.low.3
 5741  6FAA     85 28       			sta	__stack_ptr
 5742  6FAC     A5 29       			lda	__stack_ptr+1
 5743  6FAE     69 00       			adc	#.high.3
 5744  6FB0     85 29       			sta	__stack_ptr+1
 5745  6FB2     28          			plp
 5746                     			.c_end	02843h,384
 5747                     	;GameMTTalk(5,87,1)
 5748                     			.c_start  0284bh,385
 5749  6FB3     A9 01       			lda	#1
 5750  6FB5     20 AA DA    			jsr	__store_char_funct_arg
 5751  6FB8     A9 57       			lda	#.low.87
 5752  6FBA     85 20       			sta	__oper1
 5753  6FBC     A9 00       			lda	#.high.87
 5754  6FBE     85 21       			sta	__oper1+1
 5755  6FC0     20 CA DA    			jsr	__store_int_funct_arg
 5756  6FC3     A9 05       			lda	#5
 5757  6FC5     A2 33       			ldx	#.low.&GameMTTalk
 5758  6FC7     86 26       			stx	__addr_reg
 5759  6FC9     A2 90       			ldx	#.high.&GameMTTalk+1
 5760  6FCB     86 27       			stx	__addr_reg+1
 5761                     			.bf_call
 5762  6FCD     20 F6 D2    			jsr	__banked_function_call
 5763  6FD0     08          			php
 5764  6FD1     78          			sei
 5765  6FD2     18          			clc
 5766  6FD3     A5 28       			lda	__stack_ptr
 5767  6FD5     69 03       			adc	#.low.3
 5768  6FD7     85 28       			sta	__stack_ptr
 5769  6FD9     A5 29       			lda	__stack_ptr+1
 5770  6FDB     69 00       			adc	#.high.3
 5771  6FDD     85 29       			sta	__stack_ptr+1
 5772  6FDF     28          			plp
 5773                     			.c_end	0285dh,385
 5774                     	;GameMTTalk(3,92,0)
 5775                     			.c_start  02865h,386
 5776  6FE0     A9 00       			lda	#0
 5777  6FE2     20 AA DA    			jsr	__store_char_funct_arg
 5778  6FE5     A9 5C       			lda	#.low.92
 5779  6FE7     85 20       			sta	__oper1
 5780  6FE9     A9 00       			lda	#.high.92
 5781  6FEB     85 21       			sta	__oper1+1
 5782  6FED     20 CA DA    			jsr	__store_int_funct_arg
 5783  6FF0     A9 03       			lda	#3
 5784  6FF2     A2 33       			ldx	#.low.&GameMTTalk
 5785  6FF4     86 26       			stx	__addr_reg
 5786  6FF6     A2 90       			ldx	#.high.&GameMTTalk+1
 5787  6FF8     86 27       			stx	__addr_reg+1
 5788                     			.bf_call
 5789  6FFA     20 F6 D2    			jsr	__banked_function_call
 5790  6FFD     08          			php
 5791  6FFE     78          			sei
  Wed Jan 14 21:35:33 2026                                                                                               Page  103




 5792  6FFF     18          			clc
 5793  7000     A5 28       			lda	__stack_ptr
 5794  7002     69 03       			adc	#.low.3
 5795  7004     85 28       			sta	__stack_ptr
 5796  7006     A5 29       			lda	__stack_ptr+1
 5797  7008     69 00       			adc	#.high.3
 5798  700A     85 29       			sta	__stack_ptr+1
 5799  700C     28          			plp
 5800                     			.c_end	02877h,386
 5801                     	;GameMTTalk(2,95,0)
 5802                     			.c_start  0287fh,387
 5803  700D     A9 00       			lda	#0
 5804  700F     20 AA DA    			jsr	__store_char_funct_arg
 5805  7012     A9 5F       			lda	#.low.95
 5806  7014     85 20       			sta	__oper1
 5807  7016     A9 00       			lda	#.high.95
 5808  7018     85 21       			sta	__oper1+1
 5809  701A     20 CA DA    			jsr	__store_int_funct_arg
 5810  701D     A9 02       			lda	#2
 5811  701F     A2 33       			ldx	#.low.&GameMTTalk
 5812  7021     86 26       			stx	__addr_reg
 5813  7023     A2 90       			ldx	#.high.&GameMTTalk+1
 5814  7025     86 27       			stx	__addr_reg+1
 5815                     			.bf_call
 5816  7027     20 F6 D2    			jsr	__banked_function_call
 5817  702A     08          			php
 5818  702B     78          			sei
 5819  702C     18          			clc
 5820  702D     A5 28       			lda	__stack_ptr
 5821  702F     69 03       			adc	#.low.3
 5822  7031     85 28       			sta	__stack_ptr
 5823  7033     A5 29       			lda	__stack_ptr+1
 5824  7035     69 00       			adc	#.high.3
 5825  7037     85 29       			sta	__stack_ptr+1
 5826  7039     28          			plp
 5827                     			.c_end	02891h,387
 5828                     	;GameMTTalk(5,97,1)
 5829                     			.c_start  02899h,388
 5830  703A     A9 01       			lda	#1
 5831  703C     20 AA DA    			jsr	__store_char_funct_arg
 5832  703F     A9 61       			lda	#.low.97
 5833  7041     85 20       			sta	__oper1
 5834  7043     A9 00       			lda	#.high.97
 5835  7045     85 21       			sta	__oper1+1
 5836  7047     20 CA DA    			jsr	__store_int_funct_arg
 5837  704A     A9 05       			lda	#5
 5838  704C     A2 33       			ldx	#.low.&GameMTTalk
 5839  704E     86 26       			stx	__addr_reg
 5840  7050     A2 90       			ldx	#.high.&GameMTTalk+1
 5841  7052     86 27       			stx	__addr_reg+1
 5842                     			.bf_call
 5843  7054     20 F6 D2    			jsr	__banked_function_call
 5844  7057     08          			php
 5845  7058     78          			sei
 5846  7059     18          			clc
 5847  705A     A5 28       			lda	__stack_ptr
 5848  705C     69 03       			adc	#.low.3
  Wed Jan 14 21:35:33 2026                                                                                               Page  104




 5849  705E     85 28       			sta	__stack_ptr
 5850  7060     A5 29       			lda	__stack_ptr+1
 5851  7062     69 00       			adc	#.high.3
 5852  7064     85 29       			sta	__stack_ptr+1
 5853  7066     28          			plp
 5854                     			.c_end	028abh,388
 5855                     	;GameMTTalk(1,102,0)
 5856                     			.c_start  028b3h,389
 5857  7067     A9 00       			lda	#0
 5858  7069     20 AA DA    			jsr	__store_char_funct_arg
 5859  706C     A9 66       			lda	#.low.102
 5860  706E     85 20       			sta	__oper1
 5861  7070     A9 00       			lda	#.high.102
 5862  7072     85 21       			sta	__oper1+1
 5863  7074     20 CA DA    			jsr	__store_int_funct_arg
 5864  7077     A9 01       			lda	#1
 5865  7079     A2 33       			ldx	#.low.&GameMTTalk
 5866  707B     86 26       			stx	__addr_reg
 5867  707D     A2 90       			ldx	#.high.&GameMTTalk+1
 5868  707F     86 27       			stx	__addr_reg+1
 5869                     			.bf_call
 5870  7081     20 F6 D2    			jsr	__banked_function_call
 5871  7084     08          			php
 5872  7085     78          			sei
 5873  7086     18          			clc
 5874  7087     A5 28       			lda	__stack_ptr
 5875  7089     69 03       			adc	#.low.3
 5876  708B     85 28       			sta	__stack_ptr
 5877  708D     A5 29       			lda	__stack_ptr+1
 5878  708F     69 00       			adc	#.high.3
 5879  7091     85 29       			sta	__stack_ptr+1
 5880  7093     28          			plp
 5881                     			.c_end	028c6h,389
 5882                     	;g_GameMTKey[0]=1
 5883                     			.c_start  028ceh,390
 5884  7094     A9 93       			lda	#.low._g_GameMTKey+0
 5885  7096     85 20       			sta	__oper1
 5886  7098     A9 1F       			lda	#.high._g_GameMTKey+0
 5887  709A     85 21       			sta	__oper1+1
 5888  709C     A5 20       			lda	__oper1
 5889  709E     85 23       			sta	__oper2
 5890  70A0     A5 21       			lda	__oper1+1
 5891  70A2     85 24       			sta	__oper2+1
 5892  70A4     A9 01       			lda	#1
 5893  70A6     A0 00       			ldy	#0
 5894  70A8     91 23       			sta	(__oper2),y
 5895                     			.c_end	028deh,390
 5896                     	;g_GameMTKey[1]=1
 5897                     			.c_start  028e6h,391
 5898  70AA     A9 94       			lda	#.low._g_GameMTKey+1
 5899  70AC     85 20       			sta	__oper1
 5900  70AE     A9 1F       			lda	#.high._g_GameMTKey+1
 5901  70B0     85 21       			sta	__oper1+1
 5902  70B2     A5 20       			lda	__oper1
 5903  70B4     85 23       			sta	__oper2
 5904  70B6     A5 21       			lda	__oper1+1
 5905  70B8     85 24       			sta	__oper2+1
  Wed Jan 14 21:35:33 2026                                                                                               Page  105




 5906  70BA     A9 01       			lda	#1
 5907  70BC     A0 00       			ldy	#0
 5908  70BE     91 23       			sta	(__oper2),y
 5909                     			.c_end	028f6h,391
 5910                     	;g_GameMTKey[2]=1
 5911                     			.c_start  028feh,392
 5912  70C0     A9 95       			lda	#.low._g_GameMTKey+2
 5913  70C2     85 20       			sta	__oper1
 5914  70C4     A9 1F       			lda	#.high._g_GameMTKey+2
 5915  70C6     85 21       			sta	__oper1+1
 5916  70C8     A5 20       			lda	__oper1
 5917  70CA     85 23       			sta	__oper2
 5918  70CC     A5 21       			lda	__oper1+1
 5919  70CE     85 24       			sta	__oper2+1
 5920  70D0     A9 01       			lda	#1
 5921  70D2     A0 00       			ldy	#0
 5922  70D4     91 23       			sta	(__oper2),y
 5923                     			.c_end	0290eh,392
 5924                     	;GameMTReNewR()
 5925                     			.c_start  02916h,393
 5926  70D6     A2 57       			ldx	#.low.&GameMTReNewR
 5927  70D8     86 26       			stx	__addr_reg
 5928  70DA     A2 90       			ldx	#.high.&GameMTReNewR+1
 5929  70DC     86 27       			stx	__addr_reg+1
 5930                     			.bf_call
 5931  70DE     20 F6 D2    			jsr	__banked_function_call
 5932                     			.c_end	02924h,393
 5933                     	;g_GameMTCurMap[93]=0
 5934                     			.c_start  0292ch,394
 5935  70E1     AD A8 1F    			lda	_g_GameMTCurMap
 5936  70E4     85 20       			sta	__oper1
 5937  70E6     AD A9 1F    			lda	_g_GameMTCurMap+1
 5938  70E9     85 21       			sta	__oper1+1
 5939  70EB     18          			clc
 5940  70EC     A5 20       			lda	__oper1
 5941  70EE     69 5D       			adc	#.low.93
 5942  70F0     85 20       			sta	__oper1
 5943  70F2     A5 21       			lda	__oper1+1
 5944  70F4     69 00       			adc	#.high.93
 5945  70F6     85 21       			sta	__oper1+1
 5946  70F8     A5 20       			lda	__oper1
 5947  70FA     85 23       			sta	__oper2
 5948  70FC     A5 21       			lda	__oper1+1
 5949  70FE     85 24       			sta	__oper2+1
 5950  7100     A9 00       			lda	#0
 5951  7102     A0 00       			ldy	#0
 5952  7104     91 23       			sta	(__oper2),y
 5953                     			.c_end	02940h,394
 5954                     	;g_GameMTCurMap[92]=16
 5955                     			.c_start  02948h,395
 5956  7106     AD A8 1F    			lda	_g_GameMTCurMap
 5957  7109     85 20       			sta	__oper1
 5958  710B     AD A9 1F    			lda	_g_GameMTCurMap+1
 5959  710E     85 21       			sta	__oper1+1
 5960  7110     18          			clc
 5961  7111     A5 20       			lda	__oper1
 5962  7113     69 5C       			adc	#.low.92
  Wed Jan 14 21:35:33 2026                                                                                               Page  106




 5963  7115     85 20       			sta	__oper1
 5964  7117     A5 21       			lda	__oper1+1
 5965  7119     69 00       			adc	#.high.92
 5966  711B     85 21       			sta	__oper1+1
 5967  711D     A5 20       			lda	__oper1
 5968  711F     85 23       			sta	__oper2
 5969  7121     A5 21       			lda	__oper1+1
 5970  7123     85 24       			sta	__oper2+1
 5971  7125     A9 10       			lda	#16
 5972  7127     A0 00       			ldy	#0
 5973  7129     91 23       			sta	(__oper2),y
 5974                     			.c_end	0295dh,395
 5975                     	;
 5976                     	;else if
 5977  712B     4C 27 73    			jmp	?EOI47
 5978                     			.if_else  ?EOI47,1,397
 5979         4315 712E   	?BOL47:		.equal	$
 5980                     	;(g_GameMTCurMap[896]==32)
 5981                     	;				
 5982                     			.if_top	02970h,?BOL49,1,397
 5983  712E     AD A8 1F    			lda	_g_GameMTCurMap
 5984  7131     85 20       			sta	__oper1
 5985  7133     AD A9 1F    			lda	_g_GameMTCurMap+1
 5986  7136     85 21       			sta	__oper1+1
 5987  7138     18          			clc
 5988  7139     A5 20       			lda	__oper1
 5989  713B     69 80       			adc	#.low.896
 5990  713D     85 20       			sta	__oper1
 5991  713F     A5 21       			lda	__oper1+1
 5992  7141     69 03       			adc	#.high.896
 5993  7143     85 21       			sta	__oper1+1
 5994  7145     A0 00       			ldy	#0
 5995  7147     B1 20       			lda	(__oper1),y
 5996  7149     38          			sec
 5997  714A     E9 20       			sbc	#32
 5998  714C     F0 03       			beq	+3
 5999  714E     4C AE 71    			jmp	?BOL49
 6000         4617 7151   	?PLC44:		.equal	$
 6001                     			.c_end	0298ch,398
 6002                     	;GameMTTalk(2,103,0)
 6003                     			.c_start  02999h,399
 6004  7151     A9 00       			lda	#0
 6005  7153     20 AA DA    			jsr	__store_char_funct_arg
 6006  7156     A9 67       			lda	#.low.103
 6007  7158     85 20       			sta	__oper1
 6008  715A     A9 00       			lda	#.high.103
 6009  715C     85 21       			sta	__oper1+1
 6010  715E     20 CA DA    			jsr	__store_int_funct_arg
 6011  7161     A9 02       			lda	#2
 6012  7163     A2 33       			ldx	#.low.&GameMTTalk
 6013  7165     86 26       			stx	__addr_reg
 6014  7167     A2 90       			ldx	#.high.&GameMTTalk+1
 6015  7169     86 27       			stx	__addr_reg+1
 6016                     			.bf_call
 6017  716B     20 F6 D2    			jsr	__banked_function_call
 6018  716E     08          			php
 6019  716F     78          			sei
  Wed Jan 14 21:35:33 2026                                                                                               Page  107




 6020  7170     18          			clc
 6021  7171     A5 28       			lda	__stack_ptr
 6022  7173     69 03       			adc	#.low.3
 6023  7175     85 28       			sta	__stack_ptr
 6024  7177     A5 29       			lda	__stack_ptr+1
 6025  7179     69 00       			adc	#.high.3
 6026  717B     85 29       			sta	__stack_ptr+1
 6027  717D     28          			plp
 6028                     			.c_end	029ach,399
 6029                     	;GameMTTalk(2,105,0)
 6030                     			.c_start  029b4h,400
 6031  717E     A9 00       			lda	#0
 6032  7180     20 AA DA    			jsr	__store_char_funct_arg
 6033  7183     A9 69       			lda	#.low.105
 6034  7185     85 20       			sta	__oper1
 6035  7187     A9 00       			lda	#.high.105
 6036  7189     85 21       			sta	__oper1+1
 6037  718B     20 CA DA    			jsr	__store_int_funct_arg
 6038  718E     A9 02       			lda	#2
 6039  7190     A2 33       			ldx	#.low.&GameMTTalk
 6040  7192     86 26       			stx	__addr_reg
 6041  7194     A2 90       			ldx	#.high.&GameMTTalk+1
 6042  7196     86 27       			stx	__addr_reg+1
 6043                     			.bf_call
 6044  7198     20 F6 D2    			jsr	__banked_function_call
 6045  719B     08          			php
 6046  719C     78          			sei
 6047  719D     18          			clc
 6048  719E     A5 28       			lda	__stack_ptr
 6049  71A0     69 03       			adc	#.low.3
 6050  71A2     85 28       			sta	__stack_ptr
 6051  71A4     A5 29       			lda	__stack_ptr+1
 6052  71A6     69 00       			adc	#.high.3
 6053  71A8     85 29       			sta	__stack_ptr+1
 6054  71AA     28          			plp
 6055                     			.c_end	029c7h,400
 6056                     	;
 6057                     	;else
 6058                     	;				
 6059  71AB     4C 27 73    			jmp	?EOI47
 6060                     			.if_else  ?EOI47,1,403
 6061         4324 71AE   	?BOL49:		.equal	$
 6062                     	;GameMTTalk(2,103,0)
 6063                     			.c_start  029e7h,404
 6064  71AE     A9 00       			lda	#0
 6065  71B0     20 AA DA    			jsr	__store_char_funct_arg
 6066  71B3     A9 67       			lda	#.low.103
 6067  71B5     85 20       			sta	__oper1
 6068  71B7     A9 00       			lda	#.high.103
 6069  71B9     85 21       			sta	__oper1+1
 6070  71BB     20 CA DA    			jsr	__store_int_funct_arg
 6071  71BE     A9 02       			lda	#2
 6072  71C0     A2 33       			ldx	#.low.&GameMTTalk
 6073  71C2     86 26       			stx	__addr_reg
 6074  71C4     A2 90       			ldx	#.high.&GameMTTalk+1
 6075  71C6     86 27       			stx	__addr_reg+1
 6076                     			.bf_call
  Wed Jan 14 21:35:33 2026                                                                                               Page  108




 6077  71C8     20 F6 D2    			jsr	__banked_function_call
 6078  71CB     08          			php
 6079  71CC     78          			sei
 6080  71CD     18          			clc
 6081  71CE     A5 28       			lda	__stack_ptr
 6082  71D0     69 03       			adc	#.low.3
 6083  71D2     85 28       			sta	__stack_ptr
 6084  71D4     A5 29       			lda	__stack_ptr+1
 6085  71D6     69 00       			adc	#.high.3
 6086  71D8     85 29       			sta	__stack_ptr+1
 6087  71DA     28          			plp
 6088                     			.c_end	029fah,404
 6089                     	;GameMTTalk(2,107,0)
 6090                     			.c_start  02a02h,405
 6091  71DB     A9 00       			lda	#0
 6092  71DD     20 AA DA    			jsr	__store_char_funct_arg
 6093  71E0     A9 6B       			lda	#.low.107
 6094  71E2     85 20       			sta	__oper1
 6095  71E4     A9 00       			lda	#.high.107
 6096  71E6     85 21       			sta	__oper1+1
 6097  71E8     20 CA DA    			jsr	__store_int_funct_arg
 6098  71EB     A9 02       			lda	#2
 6099  71ED     A2 33       			ldx	#.low.&GameMTTalk
 6100  71EF     86 26       			stx	__addr_reg
 6101  71F1     A2 90       			ldx	#.high.&GameMTTalk+1
 6102  71F3     86 27       			stx	__addr_reg+1
 6103                     			.bf_call
 6104  71F5     20 F6 D2    			jsr	__banked_function_call
 6105  71F8     08          			php
 6106  71F9     78          			sei
 6107  71FA     18          			clc
 6108  71FB     A5 28       			lda	__stack_ptr
 6109  71FD     69 03       			adc	#.low.3
 6110  71FF     85 28       			sta	__stack_ptr
 6111  7201     A5 29       			lda	__stack_ptr+1
 6112  7203     69 00       			adc	#.high.3
 6113  7205     85 29       			sta	__stack_ptr+1
 6114  7207     28          			plp
 6115                     			.c_end	02a15h,405
 6116                     	;GameMTTalk(5,109,1)
 6117                     			.c_start  02a1dh,406
 6118  7208     A9 01       			lda	#1
 6119  720A     20 AA DA    			jsr	__store_char_funct_arg
 6120  720D     A9 6D       			lda	#.low.109
 6121  720F     85 20       			sta	__oper1
 6122  7211     A9 00       			lda	#.high.109
 6123  7213     85 21       			sta	__oper1+1
 6124  7215     20 CA DA    			jsr	__store_int_funct_arg
 6125  7218     A9 05       			lda	#5
 6126  721A     A2 33       			ldx	#.low.&GameMTTalk
 6127  721C     86 26       			stx	__addr_reg
 6128  721E     A2 90       			ldx	#.high.&GameMTTalk+1
 6129  7220     86 27       			stx	__addr_reg+1
 6130                     			.bf_call
 6131  7222     20 F6 D2    			jsr	__banked_function_call
 6132  7225     08          			php
 6133  7226     78          			sei
  Wed Jan 14 21:35:33 2026                                                                                               Page  109




 6134  7227     18          			clc
 6135  7228     A5 28       			lda	__stack_ptr
 6136  722A     69 03       			adc	#.low.3
 6137  722C     85 28       			sta	__stack_ptr
 6138  722E     A5 29       			lda	__stack_ptr+1
 6139  7230     69 00       			adc	#.high.3
 6140  7232     85 29       			sta	__stack_ptr+1
 6141  7234     28          			plp
 6142                     			.c_end	02a30h,406
 6143                     	;GameMTTalk(1,114,0)
 6144                     			.c_start  02a38h,407
 6145  7235     A9 00       			lda	#0
 6146  7237     20 AA DA    			jsr	__store_char_funct_arg
 6147  723A     A9 72       			lda	#.low.114
 6148  723C     85 20       			sta	__oper1
 6149  723E     A9 00       			lda	#.high.114
 6150  7240     85 21       			sta	__oper1+1
 6151  7242     20 CA DA    			jsr	__store_int_funct_arg
 6152  7245     A9 01       			lda	#1
 6153  7247     A2 33       			ldx	#.low.&GameMTTalk
 6154  7249     86 26       			stx	__addr_reg
 6155  724B     A2 90       			ldx	#.high.&GameMTTalk+1
 6156  724D     86 27       			stx	__addr_reg+1
 6157                     			.bf_call
 6158  724F     20 F6 D2    			jsr	__banked_function_call
 6159  7252     08          			php
 6160  7253     78          			sei
 6161  7254     18          			clc
 6162  7255     A5 28       			lda	__stack_ptr
 6163  7257     69 03       			adc	#.low.3
 6164  7259     85 28       			sta	__stack_ptr
 6165  725B     A5 29       			lda	__stack_ptr+1
 6166  725D     69 00       			adc	#.high.3
 6167  725F     85 29       			sta	__stack_ptr+1
 6168  7261     28          			plp
 6169                     			.c_end	02a4bh,407
 6170                     	;g_GameMTHeroDamige+=g_GameMTHeroDamige/3
 6171                     			.c_start  02a53h,408
 6172  7262     A9 03       			lda	#.low.3
 6173  7264     85 23       			sta	__oper2
 6174  7266     A9 00       			lda	#.high.3
 6175  7268     85 24       			sta	__oper2+1
 6176  726A     AD 9E 1F    			lda	_g_GameMTHeroDamige
 6177  726D     85 20       			sta	__oper1
 6178  726F     AD 9F 1F    			lda	_g_GameMTHeroDamige+1
 6179  7272     85 21       			sta	__oper1+1
 6180  7274     20 80 DC    			jsr	__uns_div_int
 6181  7277     A5 20       			lda	__oper1
 6182  7279     18          			clc
 6183  727A     6D 9E 1F    			adc	_g_GameMTHeroDamige
 6184  727D     85 20       			sta	__oper1
 6185  727F     A5 21       			lda	__oper1+1
 6186  7281     6D 9F 1F    			adc	_g_GameMTHeroDamige+1
 6187  7284     85 21       			sta	__oper1+1
 6188  7286     A5 20       			lda	__oper1
 6189  7288     8D 9E 1F    			sta	_g_GameMTHeroDamige
 6190  728B     A5 21       			lda	__oper1+1
  Wed Jan 14 21:35:33 2026                                                                                               Page  110




 6191  728D     8D 9F 1F    			sta	_g_GameMTHeroDamige+1
 6192                     			.c_end	02a7bh,408
 6193                     	;g_GameMTHeroDefence+=g_GameMTHeroDefence/3
 6194                     			.c_start  02a83h,409
 6195  7290     A9 03       			lda	#.low.3
 6196  7292     85 23       			sta	__oper2
 6197  7294     A9 00       			lda	#.high.3
 6198  7296     85 24       			sta	__oper2+1
 6199  7298     AD A0 1F    			lda	_g_GameMTHeroDefence
 6200  729B     85 20       			sta	__oper1
 6201  729D     AD A1 1F    			lda	_g_GameMTHeroDefence+1
 6202  72A0     85 21       			sta	__oper1+1
 6203  72A2     20 80 DC    			jsr	__uns_div_int
 6204  72A5     A5 20       			lda	__oper1
 6205  72A7     18          			clc
 6206  72A8     6D A0 1F    			adc	_g_GameMTHeroDefence
 6207  72AB     85 20       			sta	__oper1
 6208  72AD     A5 21       			lda	__oper1+1
 6209  72AF     6D A1 1F    			adc	_g_GameMTHeroDefence+1
 6210  72B2     85 21       			sta	__oper1+1
 6211  72B4     A5 20       			lda	__oper1
 6212  72B6     8D A0 1F    			sta	_g_GameMTHeroDefence
 6213  72B9     A5 21       			lda	__oper1+1
 6214  72BB     8D A1 1F    			sta	_g_GameMTHeroDefence+1
 6215                     			.c_end	02aadh,409
 6216                     	;g_GameMTHeroLife+=g_GameMTHeroLife/3
 6217                     			.c_start  02ab5h,410
 6218                     			.const_data_psfar3
 6219  8E20     0300 0000   	?CGL4:	.long	3
 6220                     			.program_psfar3
 6221  72BE     A2 20       			ldx	#.low.?CGL4
 6222  72C0     86 23       			stx	__oper2
 6223  72C2     A2 8E       			ldx	#.high.?CGL4
 6224  72C4     86 24       			stx	__oper2+1
 6225  72C6     A9 AA       			lda	#.low._g_GameMTHeroLife
 6226  72C8     85 20       			sta	__oper1
 6227  72CA     A9 1F       			lda	#.high._g_GameMTHeroLife
 6228  72CC     85 21       			sta	__oper1+1
 6229  72CE     20 83 DC    			jsr	__uns_div_long
 6230  72D1     A5 20       			lda	__oper1
 6231  72D3     85 23       			sta	__oper2
 6232  72D5     A5 21       			lda	__oper1+1
 6233  72D7     85 24       			sta	__oper2+1
 6234  72D9     A9 AA       			lda	#.low._g_GameMTHeroLife
 6235  72DB     85 20       			sta	__oper1
 6236  72DD     A9 1F       			lda	#.high._g_GameMTHeroLife
 6237  72DF     85 21       			sta	__oper1+1
 6238  72E1     20 9D D2    			jsr	__add_long
 6239  72E4     A5 20       			lda	__oper1
 6240  72E6     85 23       			sta	__oper2
 6241  72E8     A5 21       			lda	__oper1+1
 6242  72EA     85 24       			sta	__oper2+1
 6243  72EC     A9 AA       			lda	#.low._g_GameMTHeroLife
 6244  72EE     85 20       			sta	__oper1
 6245  72F0     A9 1F       			lda	#.high._g_GameMTHeroLife
 6246  72F2     85 21       			sta	__oper1+1
 6247  72F4     20 E6 DA    			jsr	__store_long
  Wed Jan 14 21:35:33 2026                                                                                               Page  111




 6248                     			.c_end	02ad9h,410
 6249                     	;GameMTReNewR()
 6250                     			.c_start  02ae1h,411
 6251  72F7     A2 57       			ldx	#.low.&GameMTReNewR
 6252  72F9     86 26       			stx	__addr_reg
 6253  72FB     A2 90       			ldx	#.high.&GameMTReNewR+1
 6254  72FD     86 27       			stx	__addr_reg+1
 6255                     			.bf_call
 6256  72FF     20 F6 D2    			jsr	__banked_function_call
 6257                     			.c_end	02aefh,411
 6258                     	;g_GameMTCurMap[92]=0
 6259                     			.c_start  02af7h,412
 6260  7302     AD A8 1F    			lda	_g_GameMTCurMap
 6261  7305     85 20       			sta	__oper1
 6262  7307     AD A9 1F    			lda	_g_GameMTCurMap+1
 6263  730A     85 21       			sta	__oper1+1
 6264  730C     18          			clc
 6265  730D     A5 20       			lda	__oper1
 6266  730F     69 5C       			adc	#.low.92
 6267  7311     85 20       			sta	__oper1
 6268  7313     A5 21       			lda	__oper1+1
 6269  7315     69 00       			adc	#.high.92
 6270  7317     85 21       			sta	__oper1+1
 6271  7319     A5 20       			lda	__oper1
 6272  731B     85 23       			sta	__oper2
 6273  731D     A5 21       			lda	__oper1+1
 6274  731F     85 24       			sta	__oper2+1
 6275  7321     A9 00       			lda	#0
 6276  7323     A0 00       			ldy	#0
 6277  7325     91 23       			sta	(__oper2),y
 6278                     			.c_end	02b0bh,412
 6279                     	;
 6280         3615 7327   	?EOI47:		.equal	$
 6281                     	;break;
 6282                     	;			
 6283                     			.sw_break
 6284  7327     4C CF 83    			jmp	?BOL14
 6285                     	;case	17:
 6286                     	;				
 6287         3815 732A   	?SWL25:		.equal	$
 6288                     	;SysMemcpy(temp,"+500\0",17)
 6289                     			.c_start  02b32h,416
 6290                     			.const_data_psfar3
 6291  8E24     B4 F3 D1 AA C6 	?PLC45:		.byte	"+500",0o,0
              BF A3 BA C9 FA 
              C3 FC 2B 35 30 
              30 00 00 
 6292                     			.program_psfar3
 6293  732A     A9 11       			lda	#.low.17
 6294  732C     85 20       			sta	__oper1
 6295  732E     A9 00       			lda	#.high.17
 6296  7330     85 21       			sta	__oper1+1
 6297  7332     20 CA DA    			jsr	__store_int_funct_arg
 6298  7335     A9 24       			lda	#.low.?PLC45
 6299  7337     85 20       			sta	__oper1
 6300  7339     A9 8E       			lda	#.high.?PLC45
 6301  733B     85 21       			sta	__oper1+1
  Wed Jan 14 21:35:33 2026                                                                                               Page  112




 6302  733D     20 CA DA    			jsr	__store_int_funct_arg
 6303  7340     18          			clc
 6304  7341     A5 28       			lda	__stack_ptr
 6305  7343     69 06       			adc	#.low.-20+?LSC0+4
 6306  7345     85 20       			sta	__oper1
 6307  7347     A5 29       			lda	__stack_ptr+1
 6308  7349     69 00       			adc	#.high.-20+?LSC0+4
 6309  734B     85 21       			sta	__oper1+1
 6310  734D     20 CA DA    			jsr	__store_int_funct_arg
 6311                     			.f_call	_SysMemcpy
 6312  7350     20 01 E9    			jsr	_SysMemcpy
 6313  7353     08          			php
 6314  7354     78          			sei
 6315  7355     18          			clc
 6316  7356     A5 28       			lda	__stack_ptr
 6317  7358     69 06       			adc	#.low.6
 6318  735A     85 28       			sta	__stack_ptr
 6319  735C     A5 29       			lda	__stack_ptr+1
 6320  735E     69 00       			adc	#.high.6
 6321  7360     85 29       			sta	__stack_ptr+1
 6322  7362     28          			plp
 6323                     			.c_end	02b59h,416
 6324                     	;GuiMsgBox(temp,50)
 6325                     			.c_start  02b60h,417
 6326  7363     A9 32       			lda	#.low.50
 6327  7365     85 20       			sta	__oper1
 6328  7367     A9 00       			lda	#.high.50
 6329  7369     85 21       			sta	__oper1+1
 6330  736B     20 CA DA    			jsr	__store_int_funct_arg
 6331  736E     18          			clc
 6332  736F     A5 28       			lda	__stack_ptr
 6333  7371     69 04       			adc	#.low.-20+?LSC0+2
 6334  7373     85 20       			sta	__oper1
 6335  7375     A5 29       			lda	__stack_ptr+1
 6336  7377     69 00       			adc	#.high.-20+?LSC0+2
 6337  7379     85 21       			sta	__oper1+1
 6338  737B     20 CA DA    			jsr	__store_int_funct_arg
 6339  737E     A2 53       			ldx	#.low.&GuiMsgBox
 6340  7380     86 26       			stx	__addr_reg
 6341  7382     A2 E9       			ldx	#.high.&GuiMsgBox+1
 6342  7384     86 27       			stx	__addr_reg+1
 6343                     			.bf_call
 6344  7386     20 F6 D2    			jsr	__banked_function_call
 6345  7389     08          			php
 6346  738A     78          			sei
 6347  738B     18          			clc
 6348  738C     A5 28       			lda	__stack_ptr
 6349  738E     69 04       			adc	#.low.4
 6350  7390     85 28       			sta	__stack_ptr
 6351  7392     A5 29       			lda	__stack_ptr+1
 6352  7394     69 00       			adc	#.high.4
 6353  7396     85 29       			sta	__stack_ptr+1
 6354  7398     28          			plp
 6355                     			.c_end	02b72h,417
 6356                     	;g_GameMTHeroLife+=500
 6357                     			.c_start  02b79h,418
 6358                     			.const_data_psfar3
  Wed Jan 14 21:35:33 2026                                                                                               Page  113




 6359  8E36     F401 0000   	?CGL5:	.long	500
 6360                     			.program_psfar3
 6361  7399     A2 36       			ldx	#.low.?CGL5
 6362  739B     86 23       			stx	__oper2
 6363  739D     A2 8E       			ldx	#.high.?CGL5
 6364  739F     86 24       			stx	__oper2+1
 6365  73A1     A9 AA       			lda	#.low._g_GameMTHeroLife
 6366  73A3     85 20       			sta	__oper1
 6367  73A5     A9 1F       			lda	#.high._g_GameMTHeroLife
 6368  73A7     85 21       			sta	__oper1+1
 6369  73A9     20 9D D2    			jsr	__add_long
 6370  73AC     A5 20       			lda	__oper1
 6371  73AE     85 23       			sta	__oper2
 6372  73B0     A5 21       			lda	__oper1+1
 6373  73B2     85 24       			sta	__oper2+1
 6374  73B4     A9 AA       			lda	#.low._g_GameMTHeroLife
 6375  73B6     85 20       			sta	__oper1
 6376  73B8     A9 1F       			lda	#.high._g_GameMTHeroLife
 6377  73BA     85 21       			sta	__oper1+1
 6378  73BC     20 E6 DA    			jsr	__store_long
 6379                     			.c_end	02b8eh,418
 6380                     	;*g_GameMTJuidgeNow=0
 6381                     			.c_start  02b95h,419
 6382  73BF     A0 00       			ldy	#-22+?LSC0
 6383  73C1     B1 28       			lda	(__stack_ptr),y
 6384  73C3     85 20       			sta	__oper1
 6385  73C5     C8          			iny
 6386  73C6     B1 28       			lda	(__stack_ptr),y
 6387  73C8     85 21       			sta	__oper1+1
 6388  73CA     A5 20       			lda	__oper1
 6389  73CC     85 23       			sta	__oper2
 6390  73CE     A5 21       			lda	__oper1+1
 6391  73D0     85 24       			sta	__oper2+1
 6392  73D2     A9 00       			lda	#0
 6393  73D4     A0 00       			ldy	#0
 6394  73D6     91 23       			sta	(__oper2),y
 6395                     			.c_end	02ba9h,419
 6396                     	;GameMTReNewR()
 6397                     			.c_start  02bb0h,420
 6398  73D8     A2 57       			ldx	#.low.&GameMTReNewR
 6399  73DA     86 26       			stx	__addr_reg
 6400  73DC     A2 90       			ldx	#.high.&GameMTReNewR+1
 6401  73DE     86 27       			stx	__addr_reg+1
 6402                     			.bf_call
 6403  73E0     20 F6 D2    			jsr	__banked_function_call
 6404                     			.c_end	02bbeh,420
 6405                     	;break;
 6406                     	;			
 6407                     			.sw_break
 6408  73E3     4C CF 83    			jmp	?BOL14
 6409                     	;case	18:
 6410                     	;				
 6411         3428 73E6   	?SWL26:		.equal	$
 6412                     	;GameMTTalk(5,431,0)
 6413                     			.c_start  02bdeh,423
 6414  73E6     A9 00       			lda	#0
 6415  73E8     20 AA DA    			jsr	__store_char_funct_arg
  Wed Jan 14 21:35:33 2026                                                                                               Page  114




 6416  73EB     A9 AF       			lda	#.low.431
 6417  73ED     85 20       			sta	__oper1
 6418  73EF     A9 01       			lda	#.high.431
 6419  73F1     85 21       			sta	__oper1+1
 6420  73F3     20 CA DA    			jsr	__store_int_funct_arg
 6421  73F6     A9 05       			lda	#5
 6422  73F8     A2 33       			ldx	#.low.&GameMTTalk
 6423  73FA     86 26       			stx	__addr_reg
 6424  73FC     A2 90       			ldx	#.high.&GameMTTalk+1
 6425  73FE     86 27       			stx	__addr_reg+1
 6426                     			.bf_call
 6427  7400     20 F6 D2    			jsr	__banked_function_call
 6428  7403     08          			php
 6429  7404     78          			sei
 6430  7405     18          			clc
 6431  7406     A5 28       			lda	__stack_ptr
 6432  7408     69 03       			adc	#.low.3
 6433  740A     85 28       			sta	__stack_ptr
 6434  740C     A5 29       			lda	__stack_ptr+1
 6435  740E     69 00       			adc	#.high.3
 6436  7410     85 29       			sta	__stack_ptr+1
 6437  7412     28          			plp
 6438                     			.c_end	02bf1h,423
 6439                     	;*g_GameMTJuidgeNow=0
 6440                     			.c_start  02bf8h,424
 6441  7413     A0 00       			ldy	#-22+?LSC0
 6442  7415     B1 28       			lda	(__stack_ptr),y
 6443  7417     85 20       			sta	__oper1
 6444  7419     C8          			iny
 6445  741A     B1 28       			lda	(__stack_ptr),y
 6446  741C     85 21       			sta	__oper1+1
 6447  741E     A5 20       			lda	__oper1
 6448  7420     85 23       			sta	__oper2
 6449  7422     A5 21       			lda	__oper1+1
 6450  7424     85 24       			sta	__oper2+1
 6451  7426     A9 00       			lda	#0
 6452  7428     A0 00       			ldy	#0
 6453  742A     91 23       			sta	(__oper2),y
 6454                     			.c_end	02c0ch,424
 6455                     	;break;
 6456                     	;			
 6457                     			.sw_break
 6458  742C     4C CF 83    			jmp	?BOL14
 6459                     	;case	19:
 6460                     	;				
 6461         4415 742F   	?SWL27:		.equal	$
 6462                     	;GameMTTalk(2,410,0)
 6463                     			.c_start  02c2ch,427
 6464  742F     A9 00       			lda	#0
 6465  7431     20 AA DA    			jsr	__store_char_funct_arg
 6466  7434     A9 9A       			lda	#.low.410
 6467  7436     85 20       			sta	__oper1
 6468  7438     A9 01       			lda	#.high.410
 6469  743A     85 21       			sta	__oper1+1
 6470  743C     20 CA DA    			jsr	__store_int_funct_arg
 6471  743F     A9 02       			lda	#2
 6472  7441     A2 33       			ldx	#.low.&GameMTTalk
  Wed Jan 14 21:35:33 2026                                                                                               Page  115




 6473  7443     86 26       			stx	__addr_reg
 6474  7445     A2 90       			ldx	#.high.&GameMTTalk+1
 6475  7447     86 27       			stx	__addr_reg+1
 6476                     			.bf_call
 6477  7449     20 F6 D2    			jsr	__banked_function_call
 6478  744C     08          			php
 6479  744D     78          			sei
 6480  744E     18          			clc
 6481  744F     A5 28       			lda	__stack_ptr
 6482  7451     69 03       			adc	#.low.3
 6483  7453     85 28       			sta	__stack_ptr
 6484  7455     A5 29       			lda	__stack_ptr+1
 6485  7457     69 00       			adc	#.high.3
 6486  7459     85 29       			sta	__stack_ptr+1
 6487  745B     28          			plp
 6488                     			.c_end	02c3fh,427
 6489                     	;g_GameMTHeroDefence+=30
 6490                     			.c_start  02c46h,428
 6491  745C     AD A0 1F    			lda	_g_GameMTHeroDefence
 6492  745F     85 20       			sta	__oper1
 6493  7461     AD A1 1F    			lda	_g_GameMTHeroDefence+1
 6494  7464     85 21       			sta	__oper1+1
 6495  7466     A5 20       			lda	__oper1
 6496  7468     18          			clc
 6497  7469     69 1E       			adc	#.low.30
 6498  746B     85 20       			sta	__oper1
 6499  746D     A5 21       			lda	__oper1+1
 6500  746F     69 00       			adc	#.high.30
 6501  7471     85 21       			sta	__oper1+1
 6502  7473     A5 20       			lda	__oper1
 6503  7475     8D A0 1F    			sta	_g_GameMTHeroDefence
 6504  7478     A5 21       			lda	__oper1+1
 6505  747A     8D A1 1F    			sta	_g_GameMTHeroDefence+1
 6506                     			.c_end	02c5dh,428
 6507                     	;*g_GameMTJuidgeNow=0
 6508                     			.c_start  02c64h,429
 6509  747D     A0 00       			ldy	#-22+?LSC0
 6510  747F     B1 28       			lda	(__stack_ptr),y
 6511  7481     85 20       			sta	__oper1
 6512  7483     C8          			iny
 6513  7484     B1 28       			lda	(__stack_ptr),y
 6514  7486     85 21       			sta	__oper1+1
 6515  7488     A5 20       			lda	__oper1
 6516  748A     85 23       			sta	__oper2
 6517  748C     A5 21       			lda	__oper1+1
 6518  748E     85 24       			sta	__oper2+1
 6519  7490     A9 00       			lda	#0
 6520  7492     A0 00       			ldy	#0
 6521  7494     91 23       			sta	(__oper2),y
 6522                     			.c_end	02c78h,429
 6523                     	;GameMTReNewR()
 6524                     			.c_start  02c7fh,430
 6525  7496     A2 57       			ldx	#.low.&GameMTReNewR
 6526  7498     86 26       			stx	__addr_reg
 6527  749A     A2 90       			ldx	#.high.&GameMTReNewR+1
 6528  749C     86 27       			stx	__addr_reg+1
 6529                     			.bf_call
  Wed Jan 14 21:35:33 2026                                                                                               Page  116




 6530  749E     20 F6 D2    			jsr	__banked_function_call
 6531                     			.c_end	02c8dh,430
 6532                     	;break;
 6533                     	;			
 6534                     			.sw_break
 6535  74A1     4C CF 83    			jmp	?BOL14
 6536                     	;case	20:
 6537                     	;				
 6538         3224 74A4   	?SWL28:		.equal	$
 6539                     	;GameMTTalk(2,408,0)
 6540                     			.c_start  02cadh,433
 6541  74A4     A9 00       			lda	#0
 6542  74A6     20 AA DA    			jsr	__store_char_funct_arg
 6543  74A9     A9 98       			lda	#.low.408
 6544  74AB     85 20       			sta	__oper1
 6545  74AD     A9 01       			lda	#.high.408
 6546  74AF     85 21       			sta	__oper1+1
 6547  74B1     20 CA DA    			jsr	__store_int_funct_arg
 6548  74B4     A9 02       			lda	#2
 6549  74B6     A2 33       			ldx	#.low.&GameMTTalk
 6550  74B8     86 26       			stx	__addr_reg
 6551  74BA     A2 90       			ldx	#.high.&GameMTTalk+1
 6552  74BC     86 27       			stx	__addr_reg+1
 6553                     			.bf_call
 6554  74BE     20 F6 D2    			jsr	__banked_function_call
 6555  74C1     08          			php
 6556  74C2     78          			sei
 6557  74C3     18          			clc
 6558  74C4     A5 28       			lda	__stack_ptr
 6559  74C6     69 03       			adc	#.low.3
 6560  74C8     85 28       			sta	__stack_ptr
 6561  74CA     A5 29       			lda	__stack_ptr+1
 6562  74CC     69 00       			adc	#.high.3
 6563  74CE     85 29       			sta	__stack_ptr+1
 6564  74D0     28          			plp
 6565                     			.c_end	02cc0h,433
 6566                     	;g_GameMTHeroDamige+=50
 6567                     			.c_start  02cc7h,434
 6568  74D1     AD 9E 1F    			lda	_g_GameMTHeroDamige
 6569  74D4     85 20       			sta	__oper1
 6570  74D6     AD 9F 1F    			lda	_g_GameMTHeroDamige+1
 6571  74D9     85 21       			sta	__oper1+1
 6572  74DB     A5 20       			lda	__oper1
 6573  74DD     18          			clc
 6574  74DE     69 32       			adc	#.low.50
 6575  74E0     85 20       			sta	__oper1
 6576  74E2     A5 21       			lda	__oper1+1
 6577  74E4     69 00       			adc	#.high.50
 6578  74E6     85 21       			sta	__oper1+1
 6579  74E8     A5 20       			lda	__oper1
 6580  74EA     8D 9E 1F    			sta	_g_GameMTHeroDamige
 6581  74ED     A5 21       			lda	__oper1+1
 6582  74EF     8D 9F 1F    			sta	_g_GameMTHeroDamige+1
 6583                     			.c_end	02cddh,434
 6584                     	;*g_GameMTJuidgeNow=0
 6585                     			.c_start  02ce4h,435
 6586  74F2     A0 00       			ldy	#-22+?LSC0
  Wed Jan 14 21:35:33 2026                                                                                               Page  117




 6587  74F4     B1 28       			lda	(__stack_ptr),y
 6588  74F6     85 20       			sta	__oper1
 6589  74F8     C8          			iny
 6590  74F9     B1 28       			lda	(__stack_ptr),y
 6591  74FB     85 21       			sta	__oper1+1
 6592  74FD     A5 20       			lda	__oper1
 6593  74FF     85 23       			sta	__oper2
 6594  7501     A5 21       			lda	__oper1+1
 6595  7503     85 24       			sta	__oper2+1
 6596  7505     A9 00       			lda	#0
 6597  7507     A0 00       			ldy	#0
 6598  7509     91 23       			sta	(__oper2),y
 6599                     			.c_end	02cf8h,435
 6600                     	;GameMTReNewR()
 6601                     			.c_start  02cffh,436
 6602  750B     A2 57       			ldx	#.low.&GameMTReNewR
 6603  750D     86 26       			stx	__addr_reg
 6604  750F     A2 90       			ldx	#.high.&GameMTReNewR+1
 6605  7511     86 27       			stx	__addr_reg+1
 6606                     			.bf_call
 6607  7513     20 F6 D2    			jsr	__banked_function_call
 6608                     			.c_end	02d0dh,436
 6609                     	;break;
 6610                     	;			
 6611                     			.sw_break
 6612  7516     4C CF 83    			jmp	?BOL14
 6613                     	;case	21:
 6614                     	;				
 6615         3714 7519   	?SWL29:		.equal	$
 6616                     	;GameMTTalk(2,429,0)
 6617                     			.c_start  02d2dh,439
 6618  7519     A9 00       			lda	#0
 6619  751B     20 AA DA    			jsr	__store_char_funct_arg
 6620  751E     A9 AD       			lda	#.low.429
 6621  7520     85 20       			sta	__oper1
 6622  7522     A9 01       			lda	#.high.429
 6623  7524     85 21       			sta	__oper1+1
 6624  7526     20 CA DA    			jsr	__store_int_funct_arg
 6625  7529     A9 02       			lda	#2
 6626  752B     A2 33       			ldx	#.low.&GameMTTalk
 6627  752D     86 26       			stx	__addr_reg
 6628  752F     A2 90       			ldx	#.high.&GameMTTalk+1
 6629  7531     86 27       			stx	__addr_reg+1
 6630                     			.bf_call
 6631  7533     20 F6 D2    			jsr	__banked_function_call
 6632  7536     08          			php
 6633  7537     78          			sei
 6634  7538     18          			clc
 6635  7539     A5 28       			lda	__stack_ptr
 6636  753B     69 03       			adc	#.low.3
 6637  753D     85 28       			sta	__stack_ptr
 6638  753F     A5 29       			lda	__stack_ptr+1
 6639  7541     69 00       			adc	#.high.3
 6640  7543     85 29       			sta	__stack_ptr+1
 6641  7545     28          			plp
 6642                     			.c_end	02d40h,439
 6643                     	;g_GameMTHeroDefence+=190
  Wed Jan 14 21:35:33 2026                                                                                               Page  118




 6644                     			.c_start  02d47h,440
 6645  7546     AD A0 1F    			lda	_g_GameMTHeroDefence
 6646  7549     85 20       			sta	__oper1
 6647  754B     AD A1 1F    			lda	_g_GameMTHeroDefence+1
 6648  754E     85 21       			sta	__oper1+1
 6649  7550     A5 20       			lda	__oper1
 6650  7552     18          			clc
 6651  7553     69 BE       			adc	#.low.190
 6652  7555     85 20       			sta	__oper1
 6653  7557     A5 21       			lda	__oper1+1
 6654  7559     69 00       			adc	#.high.190
 6655  755B     85 21       			sta	__oper1+1
 6656  755D     A5 20       			lda	__oper1
 6657  755F     8D A0 1F    			sta	_g_GameMTHeroDefence
 6658  7562     A5 21       			lda	__oper1+1
 6659  7564     8D A1 1F    			sta	_g_GameMTHeroDefence+1
 6660                     			.c_end	02d5fh,440
 6661                     	;*g_GameMTJuidgeNow=0
 6662                     			.c_start  02d66h,441
 6663  7567     A0 00       			ldy	#-22+?LSC0
 6664  7569     B1 28       			lda	(__stack_ptr),y
 6665  756B     85 20       			sta	__oper1
 6666  756D     C8          			iny
 6667  756E     B1 28       			lda	(__stack_ptr),y
 6668  7570     85 21       			sta	__oper1+1
 6669  7572     A5 20       			lda	__oper1
 6670  7574     85 23       			sta	__oper2
 6671  7576     A5 21       			lda	__oper1+1
 6672  7578     85 24       			sta	__oper2+1
 6673  757A     A9 00       			lda	#0
 6674  757C     A0 00       			ldy	#0
 6675  757E     91 23       			sta	(__oper2),y
 6676                     			.c_end	02d7ah,441
 6677                     	;GameMTReNewR()
 6678                     			.c_start  02d81h,442
 6679  7580     A2 57       			ldx	#.low.&GameMTReNewR
 6680  7582     86 26       			stx	__addr_reg
 6681  7584     A2 90       			ldx	#.high.&GameMTReNewR+1
 6682  7586     86 27       			stx	__addr_reg+1
 6683                     			.bf_call
 6684  7588     20 F6 D2    			jsr	__banked_function_call
 6685                     			.c_end	02d8fh,442
 6686                     	;break;
 6687                     	;			
 6688                     			.sw_break
 6689  758B     4C CF 83    			jmp	?BOL14
 6690                     	;case	22:
 6691                     	;				
 6692         431B 758E   	?SWL30:		.equal	$
 6693                     	;SysMemcpy(temp,"+3\0",17)
 6694                     			.c_start  02dafh,445
 6695                     			.const_data_psfar3
 6696  8E3A     B7 C0 D3 F9 B1 	?PLC46:		.byte	"+3",0o,0
              A6 CA AF A3 BA 
              B7 C0 D3 F9 2B 
              33 00 00 
 6697                     			.program_psfar3
  Wed Jan 14 21:35:33 2026                                                                                               Page  119




 6698  758E     A9 11       			lda	#.low.17
 6699  7590     85 20       			sta	__oper1
 6700  7592     A9 00       			lda	#.high.17
 6701  7594     85 21       			sta	__oper1+1
 6702  7596     20 CA DA    			jsr	__store_int_funct_arg
 6703  7599     A9 3A       			lda	#.low.?PLC46
 6704  759B     85 20       			sta	__oper1
 6705  759D     A9 8E       			lda	#.high.?PLC46
 6706  759F     85 21       			sta	__oper1+1
 6707  75A1     20 CA DA    			jsr	__store_int_funct_arg
 6708  75A4     18          			clc
 6709  75A5     A5 28       			lda	__stack_ptr
 6710  75A7     69 06       			adc	#.low.-20+?LSC0+4
 6711  75A9     85 20       			sta	__oper1
 6712  75AB     A5 29       			lda	__stack_ptr+1
 6713  75AD     69 00       			adc	#.high.-20+?LSC0+4
 6714  75AF     85 21       			sta	__oper1+1
 6715  75B1     20 CA DA    			jsr	__store_int_funct_arg
 6716                     			.f_call	_SysMemcpy
 6717  75B4     20 01 E9    			jsr	_SysMemcpy
 6718  75B7     08          			php
 6719  75B8     78          			sei
 6720  75B9     18          			clc
 6721  75BA     A5 28       			lda	__stack_ptr
 6722  75BC     69 06       			adc	#.low.6
 6723  75BE     85 28       			sta	__stack_ptr
 6724  75C0     A5 29       			lda	__stack_ptr+1
 6725  75C2     69 00       			adc	#.high.6
 6726  75C4     85 29       			sta	__stack_ptr+1
 6727  75C6     28          			plp
 6728                     			.c_end	02dd6h,445
 6729                     	;GuiMsgBox(temp,50)
 6730                     			.c_start  02dddh,446
 6731  75C7     A9 32       			lda	#.low.50
 6732  75C9     85 20       			sta	__oper1
 6733  75CB     A9 00       			lda	#.high.50
 6734  75CD     85 21       			sta	__oper1+1
 6735  75CF     20 CA DA    			jsr	__store_int_funct_arg
 6736  75D2     18          			clc
 6737  75D3     A5 28       			lda	__stack_ptr
 6738  75D5     69 04       			adc	#.low.-20+?LSC0+2
 6739  75D7     85 20       			sta	__oper1
 6740  75D9     A5 29       			lda	__stack_ptr+1
 6741  75DB     69 00       			adc	#.high.-20+?LSC0+2
 6742  75DD     85 21       			sta	__oper1+1
 6743  75DF     20 CA DA    			jsr	__store_int_funct_arg
 6744  75E2     A2 53       			ldx	#.low.&GuiMsgBox
 6745  75E4     86 26       			stx	__addr_reg
 6746  75E6     A2 E9       			ldx	#.high.&GuiMsgBox+1
 6747  75E8     86 27       			stx	__addr_reg+1
 6748                     			.bf_call
 6749  75EA     20 F6 D2    			jsr	__banked_function_call
 6750  75ED     08          			php
 6751  75EE     78          			sei
 6752  75EF     18          			clc
 6753  75F0     A5 28       			lda	__stack_ptr
 6754  75F2     69 04       			adc	#.low.4
  Wed Jan 14 21:35:33 2026                                                                                               Page  120




 6755  75F4     85 28       			sta	__stack_ptr
 6756  75F6     A5 29       			lda	__stack_ptr+1
 6757  75F8     69 00       			adc	#.high.4
 6758  75FA     85 29       			sta	__stack_ptr+1
 6759  75FC     28          			plp
 6760                     			.c_end	02defh,446
 6761                     	;g_GameMTHeroDefence+=3
 6762                     			.c_start  02df6h,447
 6763  75FD     AD A0 1F    			lda	_g_GameMTHeroDefence
 6764  7600     85 20       			sta	__oper1
 6765  7602     AD A1 1F    			lda	_g_GameMTHeroDefence+1
 6766  7605     85 21       			sta	__oper1+1
 6767  7607     A5 20       			lda	__oper1
 6768  7609     18          			clc
 6769  760A     69 03       			adc	#.low.3
 6770  760C     85 20       			sta	__oper1
 6771  760E     A5 21       			lda	__oper1+1
 6772  7610     69 00       			adc	#.high.3
 6773  7612     85 21       			sta	__oper1+1
 6774  7614     A5 20       			lda	__oper1
 6775  7616     8D A0 1F    			sta	_g_GameMTHeroDefence
 6776  7619     A5 21       			lda	__oper1+1
 6777  761B     8D A1 1F    			sta	_g_GameMTHeroDefence+1
 6778                     			.c_end	02e0ch,447
 6779                     	;*g_GameMTJuidgeNow=0
 6780                     			.c_start  02e13h,448
 6781  761E     A0 00       			ldy	#-22+?LSC0
 6782  7620     B1 28       			lda	(__stack_ptr),y
 6783  7622     85 20       			sta	__oper1
 6784  7624     C8          			iny
 6785  7625     B1 28       			lda	(__stack_ptr),y
 6786  7627     85 21       			sta	__oper1+1
 6787  7629     A5 20       			lda	__oper1
 6788  762B     85 23       			sta	__oper2
 6789  762D     A5 21       			lda	__oper1+1
 6790  762F     85 24       			sta	__oper2+1
 6791  7631     A9 00       			lda	#0
 6792  7633     A0 00       			ldy	#0
 6793  7635     91 23       			sta	(__oper2),y
 6794                     			.c_end	02e27h,448
 6795                     	;GameMTReNewR()
 6796                     			.c_start  02e2eh,449
 6797  7637     A2 57       			ldx	#.low.&GameMTReNewR
 6798  7639     86 26       			stx	__addr_reg
 6799  763B     A2 90       			ldx	#.high.&GameMTReNewR+1
 6800  763D     86 27       			stx	__addr_reg+1
 6801                     			.bf_call
 6802  763F     20 F6 D2    			jsr	__banked_function_call
 6803                     			.c_end	02e3ch,449
 6804                     	;break;
 6805                     	;			
 6806                     			.sw_break
 6807  7642     4C CF 83    			jmp	?BOL14
 6808                     	;case	23:
 6809                     	;				
 6810         3317 7645   	?SWL31:		.equal	$
 6811                     	;SysMemcpy(temp,"+3\0",17)
  Wed Jan 14 21:35:33 2026                                                                                               Page  121




 6812                     			.c_start  02e5ch,452
 6813                     			.const_data_psfar3
 6814  8E4C     B9 A5 BB F7 B1 	?PLC47:		.byte	"+3",0o,0
              A6 CA AF A3 BA 
              B9 A5 BB F7 2B 
              33 00 00 
 6815                     			.program_psfar3
 6816  7645     A9 11       			lda	#.low.17
 6817  7647     85 20       			sta	__oper1
 6818  7649     A9 00       			lda	#.high.17
 6819  764B     85 21       			sta	__oper1+1
 6820  764D     20 CA DA    			jsr	__store_int_funct_arg
 6821  7650     A9 4C       			lda	#.low.?PLC47
 6822  7652     85 20       			sta	__oper1
 6823  7654     A9 8E       			lda	#.high.?PLC47
 6824  7656     85 21       			sta	__oper1+1
 6825  7658     20 CA DA    			jsr	__store_int_funct_arg
 6826  765B     18          			clc
 6827  765C     A5 28       			lda	__stack_ptr
 6828  765E     69 06       			adc	#.low.-20+?LSC0+4
 6829  7660     85 20       			sta	__oper1
 6830  7662     A5 29       			lda	__stack_ptr+1
 6831  7664     69 00       			adc	#.high.-20+?LSC0+4
 6832  7666     85 21       			sta	__oper1+1
 6833  7668     20 CA DA    			jsr	__store_int_funct_arg
 6834                     			.f_call	_SysMemcpy
 6835  766B     20 01 E9    			jsr	_SysMemcpy
 6836  766E     08          			php
 6837  766F     78          			sei
 6838  7670     18          			clc
 6839  7671     A5 28       			lda	__stack_ptr
 6840  7673     69 06       			adc	#.low.6
 6841  7675     85 28       			sta	__stack_ptr
 6842  7677     A5 29       			lda	__stack_ptr+1
 6843  7679     69 00       			adc	#.high.6
 6844  767B     85 29       			sta	__stack_ptr+1
 6845  767D     28          			plp
 6846                     			.c_end	02e83h,452
 6847                     	;GuiMsgBox(temp,50)
 6848                     			.c_start  02e8ah,453
 6849  767E     A9 32       			lda	#.low.50
 6850  7680     85 20       			sta	__oper1
 6851  7682     A9 00       			lda	#.high.50
 6852  7684     85 21       			sta	__oper1+1
 6853  7686     20 CA DA    			jsr	__store_int_funct_arg
 6854  7689     18          			clc
 6855  768A     A5 28       			lda	__stack_ptr
 6856  768C     69 04       			adc	#.low.-20+?LSC0+2
 6857  768E     85 20       			sta	__oper1
 6858  7690     A5 29       			lda	__stack_ptr+1
 6859  7692     69 00       			adc	#.high.-20+?LSC0+2
 6860  7694     85 21       			sta	__oper1+1
 6861  7696     20 CA DA    			jsr	__store_int_funct_arg
 6862  7699     A2 53       			ldx	#.low.&GuiMsgBox
 6863  769B     86 26       			stx	__addr_reg
 6864  769D     A2 E9       			ldx	#.high.&GuiMsgBox+1
 6865  769F     86 27       			stx	__addr_reg+1
  Wed Jan 14 21:35:33 2026                                                                                               Page  122




 6866                     			.bf_call
 6867  76A1     20 F6 D2    			jsr	__banked_function_call
 6868  76A4     08          			php
 6869  76A5     78          			sei
 6870  76A6     18          			clc
 6871  76A7     A5 28       			lda	__stack_ptr
 6872  76A9     69 04       			adc	#.low.4
 6873  76AB     85 28       			sta	__stack_ptr
 6874  76AD     A5 29       			lda	__stack_ptr+1
 6875  76AF     69 00       			adc	#.high.4
 6876  76B1     85 29       			sta	__stack_ptr+1
 6877  76B3     28          			plp
 6878                     			.c_end	02e9ch,453
 6879                     	;g_GameMTHeroDamige+=3
 6880                     			.c_start  02ea3h,454
 6881  76B4     AD 9E 1F    			lda	_g_GameMTHeroDamige
 6882  76B7     85 20       			sta	__oper1
 6883  76B9     AD 9F 1F    			lda	_g_GameMTHeroDamige+1
 6884  76BC     85 21       			sta	__oper1+1
 6885  76BE     A5 20       			lda	__oper1
 6886  76C0     18          			clc
 6887  76C1     69 03       			adc	#.low.3
 6888  76C3     85 20       			sta	__oper1
 6889  76C5     A5 21       			lda	__oper1+1
 6890  76C7     69 00       			adc	#.high.3
 6891  76C9     85 21       			sta	__oper1+1
 6892  76CB     A5 20       			lda	__oper1
 6893  76CD     8D 9E 1F    			sta	_g_GameMTHeroDamige
 6894  76D0     A5 21       			lda	__oper1+1
 6895  76D2     8D 9F 1F    			sta	_g_GameMTHeroDamige+1
 6896                     			.c_end	02eb8h,454
 6897                     	;*g_GameMTJuidgeNow=0
 6898                     			.c_start  02ebfh,455
 6899  76D5     A0 00       			ldy	#-22+?LSC0
 6900  76D7     B1 28       			lda	(__stack_ptr),y
 6901  76D9     85 20       			sta	__oper1
 6902  76DB     C8          			iny
 6903  76DC     B1 28       			lda	(__stack_ptr),y
 6904  76DE     85 21       			sta	__oper1+1
 6905  76E0     A5 20       			lda	__oper1
 6906  76E2     85 23       			sta	__oper2
 6907  76E4     A5 21       			lda	__oper1+1
 6908  76E6     85 24       			sta	__oper2+1
 6909  76E8     A9 00       			lda	#0
 6910  76EA     A0 00       			ldy	#0
 6911  76EC     91 23       			sta	(__oper2),y
 6912                     			.c_end	02ed3h,455
 6913                     	;GameMTReNewR()
 6914                     			.c_start  02edah,456
 6915  76EE     A2 57       			ldx	#.low.&GameMTReNewR
 6916  76F0     86 26       			stx	__addr_reg
 6917  76F2     A2 90       			ldx	#.high.&GameMTReNewR+1
 6918  76F4     86 27       			stx	__addr_reg+1
 6919                     			.bf_call
 6920  76F6     20 F6 D2    			jsr	__banked_function_call
 6921                     			.c_end	02ee8h,456
 6922                     	;break;
  Wed Jan 14 21:35:33 2026                                                                                               Page  123




 6923                     	;			
 6924                     			.sw_break
 6925  76F9     4C CF 83    			jmp	?BOL14
 6926                     	;case	24:
 6927                     	;				
 6928         3A29 76FC   	?SWL32:		.equal	$
 6929                     	;GameMTTalk(5,436,0)
 6930                     			.c_start  02f08h,459
 6931  76FC     A9 00       			lda	#0
 6932  76FE     20 AA DA    			jsr	__store_char_funct_arg
 6933  7701     A9 B4       			lda	#.low.436
 6934  7703     85 20       			sta	__oper1
 6935  7705     A9 01       			lda	#.high.436
 6936  7707     85 21       			sta	__oper1+1
 6937  7709     20 CA DA    			jsr	__store_int_funct_arg
 6938  770C     A9 05       			lda	#5
 6939  770E     A2 33       			ldx	#.low.&GameMTTalk
 6940  7710     86 26       			stx	__addr_reg
 6941  7712     A2 90       			ldx	#.high.&GameMTTalk+1
 6942  7714     86 27       			stx	__addr_reg+1
 6943                     			.bf_call
 6944  7716     20 F6 D2    			jsr	__banked_function_call
 6945  7719     08          			php
 6946  771A     78          			sei
 6947  771B     18          			clc
 6948  771C     A5 28       			lda	__stack_ptr
 6949  771E     69 03       			adc	#.low.3
 6950  7720     85 28       			sta	__stack_ptr
 6951  7722     A5 29       			lda	__stack_ptr+1
 6952  7724     69 00       			adc	#.high.3
 6953  7726     85 29       			sta	__stack_ptr+1
 6954  7728     28          			plp
 6955                     			.c_end	02f1bh,459
 6956                     	;*g_GameMTJuidgeNow=0
 6957                     			.c_start  02f22h,460
 6958  7729     A0 00       			ldy	#-22+?LSC0
 6959  772B     B1 28       			lda	(__stack_ptr),y
 6960  772D     85 20       			sta	__oper1
 6961  772F     C8          			iny
 6962  7730     B1 28       			lda	(__stack_ptr),y
 6963  7732     85 21       			sta	__oper1+1
 6964  7734     A5 20       			lda	__oper1
 6965  7736     85 23       			sta	__oper2
 6966  7738     A5 21       			lda	__oper1+1
 6967  773A     85 24       			sta	__oper2+1
 6968  773C     A9 00       			lda	#0
 6969  773E     A0 00       			ldy	#0
 6970  7740     91 23       			sta	(__oper2),y
 6971                     			.c_end	02f36h,460
 6972                     	;break;
 6973                     	;			
 6974                     			.sw_break
 6975  7742     4C CF 83    			jmp	?BOL14
 6976                     	;case	25:
 6977                     	;				
 6978         3317 7745   	?SWL33:		.equal	$
 6979                     	;GameMTTalk(3,419,0)
  Wed Jan 14 21:35:33 2026                                                                                               Page  124




 6980                     			.c_start  02f56h,463
 6981  7745     A9 00       			lda	#0
 6982  7747     20 AA DA    			jsr	__store_char_funct_arg
 6983  774A     A9 A3       			lda	#.low.419
 6984  774C     85 20       			sta	__oper1
 6985  774E     A9 01       			lda	#.high.419
 6986  7750     85 21       			sta	__oper1+1
 6987  7752     20 CA DA    			jsr	__store_int_funct_arg
 6988  7755     A9 03       			lda	#3
 6989  7757     A2 33       			ldx	#.low.&GameMTTalk
 6990  7759     86 26       			stx	__addr_reg
 6991  775B     A2 90       			ldx	#.high.&GameMTTalk+1
 6992  775D     86 27       			stx	__addr_reg+1
 6993                     			.bf_call
 6994  775F     20 F6 D2    			jsr	__banked_function_call
 6995  7762     08          			php
 6996  7763     78          			sei
 6997  7764     18          			clc
 6998  7765     A5 28       			lda	__stack_ptr
 6999  7767     69 03       			adc	#.low.3
 7000  7769     85 28       			sta	__stack_ptr
 7001  776B     A5 29       			lda	__stack_ptr+1
 7002  776D     69 00       			adc	#.high.3
 7003  776F     85 29       			sta	__stack_ptr+1
 7004  7771     28          			plp
 7005                     			.c_end	02f69h,463
 7006                     	;g_GameMTHeroLife*=2
 7007                     			.c_start  02f70h,464
 7008                     			.const_data_psfar3
 7009  8E5E     0200 0000   	?CGL6:	.long	2
 7010                     			.program_psfar3
 7011  7772     A2 5E       			ldx	#.low.?CGL6
 7012  7774     86 23       			stx	__oper2
 7013  7776     A2 8E       			ldx	#.high.?CGL6
 7014  7778     86 24       			stx	__oper2+1
 7015  777A     A9 AA       			lda	#.low._g_GameMTHeroLife
 7016  777C     85 20       			sta	__oper1
 7017  777E     A9 1F       			lda	#.high._g_GameMTHeroLife
 7018  7780     85 21       			sta	__oper1+1
 7019  7782     20 F7 DC    			jsr	__uns_mult_long
 7020  7785     A5 20       			lda	__oper1
 7021  7787     85 23       			sta	__oper2
 7022  7789     A5 21       			lda	__oper1+1
 7023  778B     85 24       			sta	__oper2+1
 7024  778D     A9 AA       			lda	#.low._g_GameMTHeroLife
 7025  778F     85 20       			sta	__oper1
 7026  7791     A9 1F       			lda	#.high._g_GameMTHeroLife
 7027  7793     85 21       			sta	__oper1+1
 7028  7795     20 E6 DA    			jsr	__store_long
 7029                     			.c_end	02f83h,464
 7030                     	;*g_GameMTJuidgeNow=0
 7031                     			.c_start  02f8ah,465
 7032  7798     A0 00       			ldy	#-22+?LSC0
 7033  779A     B1 28       			lda	(__stack_ptr),y
 7034  779C     85 20       			sta	__oper1
 7035  779E     C8          			iny
 7036  779F     B1 28       			lda	(__stack_ptr),y
  Wed Jan 14 21:35:33 2026                                                                                               Page  125




 7037  77A1     85 21       			sta	__oper1+1
 7038  77A3     A5 20       			lda	__oper1
 7039  77A5     85 23       			sta	__oper2
 7040  77A7     A5 21       			lda	__oper1+1
 7041  77A9     85 24       			sta	__oper2+1
 7042  77AB     A9 00       			lda	#0
 7043  77AD     A0 00       			ldy	#0
 7044  77AF     91 23       			sta	(__oper2),y
 7045                     			.c_end	02f9eh,465
 7046                     	;GameMTReNewR()
 7047                     			.c_start  02fa5h,466
 7048  77B1     A2 57       			ldx	#.low.&GameMTReNewR
 7049  77B3     86 26       			stx	__addr_reg
 7050  77B5     A2 90       			ldx	#.high.&GameMTReNewR+1
 7051  77B7     86 27       			stx	__addr_reg+1
 7052                     			.bf_call
 7053  77B9     20 F6 D2    			jsr	__banked_function_call
 7054                     			.c_end	02fb3h,466
 7055                     	;break;
 7056                     	;			
 7057                     			.sw_break
 7058  77BC     4C CF 83    			jmp	?BOL14
 7059                     	;case	26:
 7060                     	;				
 7061         4425 77BF   	?SWL34:		.equal	$
 7062                     	;GameMTTalk(2,485,0)
 7063                     			.c_start  02fd3h,469
 7064  77BF     A9 00       			lda	#0
 7065  77C1     20 AA DA    			jsr	__store_char_funct_arg
 7066  77C4     A9 E5       			lda	#.low.485
 7067  77C6     85 20       			sta	__oper1
 7068  77C8     A9 01       			lda	#.high.485
 7069  77CA     85 21       			sta	__oper1+1
 7070  77CC     20 CA DA    			jsr	__store_int_funct_arg
 7071  77CF     A9 02       			lda	#2
 7072  77D1     A2 33       			ldx	#.low.&GameMTTalk
 7073  77D3     86 26       			stx	__addr_reg
 7074  77D5     A2 90       			ldx	#.high.&GameMTTalk+1
 7075  77D7     86 27       			stx	__addr_reg+1
 7076                     			.bf_call
 7077  77D9     20 F6 D2    			jsr	__banked_function_call
 7078  77DC     08          			php
 7079  77DD     78          			sei
 7080  77DE     18          			clc
 7081  77DF     A5 28       			lda	__stack_ptr
 7082  77E1     69 03       			adc	#.low.3
 7083  77E3     85 28       			sta	__stack_ptr
 7084  77E5     A5 29       			lda	__stack_ptr+1
 7085  77E7     69 00       			adc	#.high.3
 7086  77E9     85 29       			sta	__stack_ptr+1
 7087  77EB     28          			plp
 7088                     			.c_end	02fe6h,469
 7089                     	;g_GameMTHeroDefence+=10
 7090                     			.c_start  02fedh,470
 7091  77EC     AD A0 1F    			lda	_g_GameMTHeroDefence
 7092  77EF     85 20       			sta	__oper1
 7093  77F1     AD A1 1F    			lda	_g_GameMTHeroDefence+1
  Wed Jan 14 21:35:33 2026                                                                                               Page  126




 7094  77F4     85 21       			sta	__oper1+1
 7095  77F6     A5 20       			lda	__oper1
 7096  77F8     18          			clc
 7097  77F9     69 0A       			adc	#.low.10
 7098  77FB     85 20       			sta	__oper1
 7099  77FD     A5 21       			lda	__oper1+1
 7100  77FF     69 00       			adc	#.high.10
 7101  7801     85 21       			sta	__oper1+1
 7102  7803     A5 20       			lda	__oper1
 7103  7805     8D A0 1F    			sta	_g_GameMTHeroDefence
 7104  7808     A5 21       			lda	__oper1+1
 7105  780A     8D A1 1F    			sta	_g_GameMTHeroDefence+1
 7106                     			.c_end	03004h,470
 7107                     	;*g_GameMTJuidgeNow=0
 7108                     			.c_start  0300bh,471
 7109  780D     A0 00       			ldy	#-22+?LSC0
 7110  780F     B1 28       			lda	(__stack_ptr),y
 7111  7811     85 20       			sta	__oper1
 7112  7813     C8          			iny
 7113  7814     B1 28       			lda	(__stack_ptr),y
 7114  7816     85 21       			sta	__oper1+1
 7115  7818     A5 20       			lda	__oper1
 7116  781A     85 23       			sta	__oper2
 7117  781C     A5 21       			lda	__oper1+1
 7118  781E     85 24       			sta	__oper2+1
 7119  7820     A9 00       			lda	#0
 7120  7822     A0 00       			ldy	#0
 7121  7824     91 23       			sta	(__oper2),y
 7122                     			.c_end	0301fh,471
 7123                     	;GameMTReNewR()
 7124                     			.c_start  03026h,472
 7125  7826     A2 57       			ldx	#.low.&GameMTReNewR
 7126  7828     86 26       			stx	__addr_reg
 7127  782A     A2 90       			ldx	#.high.&GameMTReNewR+1
 7128  782C     86 27       			stx	__addr_reg+1
 7129                     			.bf_call
 7130  782E     20 F6 D2    			jsr	__banked_function_call
 7131                     			.c_end	03034h,472
 7132                     	;break;
 7133                     	;			
 7134                     			.sw_break
 7135  7831     4C CF 83    			jmp	?BOL14
 7136                     	;case	27:
 7137                     	;				
 7138         3216 7834   	?SWL35:		.equal	$
 7139                     	;GameMTTalk(2,483,0)
 7140                     			.c_start  03054h,475
 7141  7834     A9 00       			lda	#0
 7142  7836     20 AA DA    			jsr	__store_char_funct_arg
 7143  7839     A9 E3       			lda	#.low.483
 7144  783B     85 20       			sta	__oper1
 7145  783D     A9 01       			lda	#.high.483
 7146  783F     85 21       			sta	__oper1+1
 7147  7841     20 CA DA    			jsr	__store_int_funct_arg
 7148  7844     A9 02       			lda	#2
 7149  7846     A2 33       			ldx	#.low.&GameMTTalk
 7150  7848     86 26       			stx	__addr_reg
  Wed Jan 14 21:35:33 2026                                                                                               Page  127




 7151  784A     A2 90       			ldx	#.high.&GameMTTalk+1
 7152  784C     86 27       			stx	__addr_reg+1
 7153                     			.bf_call
 7154  784E     20 F6 D2    			jsr	__banked_function_call
 7155  7851     08          			php
 7156  7852     78          			sei
 7157  7853     18          			clc
 7158  7854     A5 28       			lda	__stack_ptr
 7159  7856     69 03       			adc	#.low.3
 7160  7858     85 28       			sta	__stack_ptr
 7161  785A     A5 29       			lda	__stack_ptr+1
 7162  785C     69 00       			adc	#.high.3
 7163  785E     85 29       			sta	__stack_ptr+1
 7164  7860     28          			plp
 7165                     			.c_end	03067h,475
 7166                     	;g_GameMTHeroDamige+=10
 7167                     			.c_start  0306eh,476
 7168  7861     AD 9E 1F    			lda	_g_GameMTHeroDamige
 7169  7864     85 20       			sta	__oper1
 7170  7866     AD 9F 1F    			lda	_g_GameMTHeroDamige+1
 7171  7869     85 21       			sta	__oper1+1
 7172  786B     A5 20       			lda	__oper1
 7173  786D     18          			clc
 7174  786E     69 0A       			adc	#.low.10
 7175  7870     85 20       			sta	__oper1
 7176  7872     A5 21       			lda	__oper1+1
 7177  7874     69 00       			adc	#.high.10
 7178  7876     85 21       			sta	__oper1+1
 7179  7878     A5 20       			lda	__oper1
 7180  787A     8D 9E 1F    			sta	_g_GameMTHeroDamige
 7181  787D     A5 21       			lda	__oper1+1
 7182  787F     8D 9F 1F    			sta	_g_GameMTHeroDamige+1
 7183                     			.c_end	03084h,476
 7184                     	;*g_GameMTJuidgeNow=0
 7185                     			.c_start  0308bh,477
 7186  7882     A0 00       			ldy	#-22+?LSC0
 7187  7884     B1 28       			lda	(__stack_ptr),y
 7188  7886     85 20       			sta	__oper1
 7189  7888     C8          			iny
 7190  7889     B1 28       			lda	(__stack_ptr),y
 7191  788B     85 21       			sta	__oper1+1
 7192  788D     A5 20       			lda	__oper1
 7193  788F     85 23       			sta	__oper2
 7194  7891     A5 21       			lda	__oper1+1
 7195  7893     85 24       			sta	__oper2+1
 7196  7895     A9 00       			lda	#0
 7197  7897     A0 00       			ldy	#0
 7198  7899     91 23       			sta	(__oper2),y
 7199                     			.c_end	0309fh,477
 7200                     	;GameMTReNewR()
 7201                     			.c_start  030a6h,478
 7202  789B     A2 57       			ldx	#.low.&GameMTReNewR
 7203  789D     86 26       			stx	__addr_reg
 7204  789F     A2 90       			ldx	#.high.&GameMTReNewR+1
 7205  78A1     86 27       			stx	__addr_reg+1
 7206                     			.bf_call
 7207  78A3     20 F6 D2    			jsr	__banked_function_call
  Wed Jan 14 21:35:33 2026                                                                                               Page  128




 7208                     			.c_end	030b4h,478
 7209                     	;break;
 7210                     	;			
 7211                     			.sw_break
 7212  78A6     4C CF 83    			jmp	?BOL14
 7213                     	;case	28:
 7214                     	;				
 7215         3724 78A9   	?SWL36:		.equal	$
 7216                     	;GameMTTalk(2,399,0)
 7217                     			.c_start  030d4h,481
 7218  78A9     A9 00       			lda	#0
 7219  78AB     20 AA DA    			jsr	__store_char_funct_arg
 7220  78AE     A9 8F       			lda	#.low.399
 7221  78B0     85 20       			sta	__oper1
 7222  78B2     A9 01       			lda	#.high.399
 7223  78B4     85 21       			sta	__oper1+1
 7224  78B6     20 CA DA    			jsr	__store_int_funct_arg
 7225  78B9     A9 02       			lda	#2
 7226  78BB     A2 33       			ldx	#.low.&GameMTTalk
 7227  78BD     86 26       			stx	__addr_reg
 7228  78BF     A2 90       			ldx	#.high.&GameMTTalk+1
 7229  78C1     86 27       			stx	__addr_reg+1
 7230                     			.bf_call
 7231  78C3     20 F6 D2    			jsr	__banked_function_call
 7232  78C6     08          			php
 7233  78C7     78          			sei
 7234  78C8     18          			clc
 7235  78C9     A5 28       			lda	__stack_ptr
 7236  78CB     69 03       			adc	#.low.3
 7237  78CD     85 28       			sta	__stack_ptr
 7238  78CF     A5 29       			lda	__stack_ptr+1
 7239  78D1     69 00       			adc	#.high.3
 7240  78D3     85 29       			sta	__stack_ptr+1
 7241  78D5     28          			plp
 7242                     			.c_end	030e7h,481
 7243                     	;g_GameMTHeroLv+=1
 7244                     			.c_start  030eeh,482
 7245  78D6     AD 09 18    			lda	_g_GameMTHeroLv
 7246  78D9     18          			clc
 7247  78DA     69 01       			adc	#1
 7248  78DC     8D 09 18    			sta	_g_GameMTHeroLv
 7249                     			.c_end	030ffh,482
 7250                     	;g_GameMTHeroLife+=1000
 7251                     			.c_start  03106h,483
 7252                     			.const_data_psfar3
 7253  8E62     E803 0000   	?CGL7:	.long	1000
 7254                     			.program_psfar3
 7255  78DF     A2 62       			ldx	#.low.?CGL7
 7256  78E1     86 23       			stx	__oper2
 7257  78E3     A2 8E       			ldx	#.high.?CGL7
 7258  78E5     86 24       			stx	__oper2+1
 7259  78E7     A9 AA       			lda	#.low._g_GameMTHeroLife
 7260  78E9     85 20       			sta	__oper1
 7261  78EB     A9 1F       			lda	#.high._g_GameMTHeroLife
 7262  78ED     85 21       			sta	__oper1+1
 7263  78EF     20 9D D2    			jsr	__add_long
 7264  78F2     A5 20       			lda	__oper1
  Wed Jan 14 21:35:33 2026                                                                                               Page  129




 7265  78F4     85 23       			sta	__oper2
 7266  78F6     A5 21       			lda	__oper1+1
 7267  78F8     85 24       			sta	__oper2+1
 7268  78FA     A9 AA       			lda	#.low._g_GameMTHeroLife
 7269  78FC     85 20       			sta	__oper1
 7270  78FE     A9 1F       			lda	#.high._g_GameMTHeroLife
 7271  7900     85 21       			sta	__oper1+1
 7272  7902     20 E6 DA    			jsr	__store_long
 7273                     			.c_end	0311ch,483
 7274                     	;g_GameMTHeroDamige+=7
 7275                     			.c_start  03123h,484
 7276  7905     AD 9E 1F    			lda	_g_GameMTHeroDamige
 7277  7908     85 20       			sta	__oper1
 7278  790A     AD 9F 1F    			lda	_g_GameMTHeroDamige+1
 7279  790D     85 21       			sta	__oper1+1
 7280  790F     A5 20       			lda	__oper1
 7281  7911     18          			clc
 7282  7912     69 07       			adc	#.low.7
 7283  7914     85 20       			sta	__oper1
 7284  7916     A5 21       			lda	__oper1+1
 7285  7918     69 00       			adc	#.high.7
 7286  791A     85 21       			sta	__oper1+1
 7287  791C     A5 20       			lda	__oper1
 7288  791E     8D 9E 1F    			sta	_g_GameMTHeroDamige
 7289  7921     A5 21       			lda	__oper1+1
 7290  7923     8D 9F 1F    			sta	_g_GameMTHeroDamige+1
 7291                     			.c_end	03138h,484
 7292                     	;g_GameMTHeroDefence+=7
 7293                     			.c_start  0313fh,485
 7294  7926     AD A0 1F    			lda	_g_GameMTHeroDefence
 7295  7929     85 20       			sta	__oper1
 7296  792B     AD A1 1F    			lda	_g_GameMTHeroDefence+1
 7297  792E     85 21       			sta	__oper1+1
 7298  7930     A5 20       			lda	__oper1
 7299  7932     18          			clc
 7300  7933     69 07       			adc	#.low.7
 7301  7935     85 20       			sta	__oper1
 7302  7937     A5 21       			lda	__oper1+1
 7303  7939     69 00       			adc	#.high.7
 7304  793B     85 21       			sta	__oper1+1
 7305  793D     A5 20       			lda	__oper1
 7306  793F     8D A0 1F    			sta	_g_GameMTHeroDefence
 7307  7942     A5 21       			lda	__oper1+1
 7308  7944     8D A1 1F    			sta	_g_GameMTHeroDefence+1
 7309                     			.c_end	03155h,485
 7310                     	;*g_GameMTJuidgeNow=0
 7311                     			.c_start  0315ch,486
 7312  7947     A0 00       			ldy	#-22+?LSC0
 7313  7949     B1 28       			lda	(__stack_ptr),y
 7314  794B     85 20       			sta	__oper1
 7315  794D     C8          			iny
 7316  794E     B1 28       			lda	(__stack_ptr),y
 7317  7950     85 21       			sta	__oper1+1
 7318  7952     A5 20       			lda	__oper1
 7319  7954     85 23       			sta	__oper2
 7320  7956     A5 21       			lda	__oper1+1
 7321  7958     85 24       			sta	__oper2+1
  Wed Jan 14 21:35:33 2026                                                                                               Page  130




 7322  795A     A9 00       			lda	#0
 7323  795C     A0 00       			ldy	#0
 7324  795E     91 23       			sta	(__oper2),y
 7325                     			.c_end	03170h,486
 7326                     	;GameMTReNewR()
 7327                     			.c_start  03177h,487
 7328  7960     A2 57       			ldx	#.low.&GameMTReNewR
 7329  7962     86 26       			stx	__addr_reg
 7330  7964     A2 90       			ldx	#.high.&GameMTReNewR+1
 7331  7966     86 27       			stx	__addr_reg+1
 7332                     			.bf_call
 7333  7968     20 F6 D2    			jsr	__banked_function_call
 7334                     			.c_end	03185h,487
 7335                     	;break;
 7336                     	;			
 7337                     			.sw_break
 7338  796B     4C CF 83    			jmp	?BOL14
 7339                     	;case	29:
 7340                     	;				
 7341         4319 796E   	?SWL37:		.equal	$
 7342                     	;SysMemcpy(temp,"+200\0",17)
 7343                     			.c_start  031a5h,490
 7344                     			.const_data_psfar3
 7345  8E66     D0 A1 D1 AA C6 	?PLC48:		.byte	"+200",0o,0
              BF A3 BA C9 FA 
              C3 FC 2B 32 30 
              30 00 00 
 7346                     			.program_psfar3
 7347  796E     A9 11       			lda	#.low.17
 7348  7970     85 20       			sta	__oper1
 7349  7972     A9 00       			lda	#.high.17
 7350  7974     85 21       			sta	__oper1+1
 7351  7976     20 CA DA    			jsr	__store_int_funct_arg
 7352  7979     A9 66       			lda	#.low.?PLC48
 7353  797B     85 20       			sta	__oper1
 7354  797D     A9 8E       			lda	#.high.?PLC48
 7355  797F     85 21       			sta	__oper1+1
 7356  7981     20 CA DA    			jsr	__store_int_funct_arg
 7357  7984     18          			clc
 7358  7985     A5 28       			lda	__stack_ptr
 7359  7987     69 06       			adc	#.low.-20+?LSC0+4
 7360  7989     85 20       			sta	__oper1
 7361  798B     A5 29       			lda	__stack_ptr+1
 7362  798D     69 00       			adc	#.high.-20+?LSC0+4
 7363  798F     85 21       			sta	__oper1+1
 7364  7991     20 CA DA    			jsr	__store_int_funct_arg
 7365                     			.f_call	_SysMemcpy
 7366  7994     20 01 E9    			jsr	_SysMemcpy
 7367  7997     08          			php
 7368  7998     78          			sei
 7369  7999     18          			clc
 7370  799A     A5 28       			lda	__stack_ptr
 7371  799C     69 06       			adc	#.low.6
 7372  799E     85 28       			sta	__stack_ptr
 7373  79A0     A5 29       			lda	__stack_ptr+1
 7374  79A2     69 00       			adc	#.high.6
 7375  79A4     85 29       			sta	__stack_ptr+1
  Wed Jan 14 21:35:33 2026                                                                                               Page  131




 7376  79A6     28          			plp
 7377                     			.c_end	031cch,490
 7378                     	;GuiMsgBox(temp,50)
 7379                     			.c_start  031d3h,491
 7380  79A7     A9 32       			lda	#.low.50
 7381  79A9     85 20       			sta	__oper1
 7382  79AB     A9 00       			lda	#.high.50
 7383  79AD     85 21       			sta	__oper1+1
 7384  79AF     20 CA DA    			jsr	__store_int_funct_arg
 7385  79B2     18          			clc
 7386  79B3     A5 28       			lda	__stack_ptr
 7387  79B5     69 04       			adc	#.low.-20+?LSC0+2
 7388  79B7     85 20       			sta	__oper1
 7389  79B9     A5 29       			lda	__stack_ptr+1
 7390  79BB     69 00       			adc	#.high.-20+?LSC0+2
 7391  79BD     85 21       			sta	__oper1+1
 7392  79BF     20 CA DA    			jsr	__store_int_funct_arg
 7393  79C2     A2 53       			ldx	#.low.&GuiMsgBox
 7394  79C4     86 26       			stx	__addr_reg
 7395  79C6     A2 E9       			ldx	#.high.&GuiMsgBox+1
 7396  79C8     86 27       			stx	__addr_reg+1
 7397                     			.bf_call
 7398  79CA     20 F6 D2    			jsr	__banked_function_call
 7399  79CD     08          			php
 7400  79CE     78          			sei
 7401  79CF     18          			clc
 7402  79D0     A5 28       			lda	__stack_ptr
 7403  79D2     69 04       			adc	#.low.4
 7404  79D4     85 28       			sta	__stack_ptr
 7405  79D6     A5 29       			lda	__stack_ptr+1
 7406  79D8     69 00       			adc	#.high.4
 7407  79DA     85 29       			sta	__stack_ptr+1
 7408  79DC     28          			plp
 7409                     			.c_end	031e5h,491
 7410                     	;g_GameMTHeroLife+=200
 7411                     			.c_start  031ech,492
 7412                     			.const_data_psfar3
 7413  8E78     C800 0000   	?CGL8:	.long	200
 7414                     			.program_psfar3
 7415  79DD     A2 78       			ldx	#.low.?CGL8
 7416  79DF     86 23       			stx	__oper2
 7417  79E1     A2 8E       			ldx	#.high.?CGL8
 7418  79E3     86 24       			stx	__oper2+1
 7419  79E5     A9 AA       			lda	#.low._g_GameMTHeroLife
 7420  79E7     85 20       			sta	__oper1
 7421  79E9     A9 1F       			lda	#.high._g_GameMTHeroLife
 7422  79EB     85 21       			sta	__oper1+1
 7423  79ED     20 9D D2    			jsr	__add_long
 7424  79F0     A5 20       			lda	__oper1
 7425  79F2     85 23       			sta	__oper2
 7426  79F4     A5 21       			lda	__oper1+1
 7427  79F6     85 24       			sta	__oper2+1
 7428  79F8     A9 AA       			lda	#.low._g_GameMTHeroLife
 7429  79FA     85 20       			sta	__oper1
 7430  79FC     A9 1F       			lda	#.high._g_GameMTHeroLife
 7431  79FE     85 21       			sta	__oper1+1
 7432  7A00     20 E6 DA    			jsr	__store_long
  Wed Jan 14 21:35:33 2026                                                                                               Page  132




 7433                     			.c_end	03201h,492
 7434                     	;*g_GameMTJuidgeNow=0
 7435                     			.c_start  03208h,493
 7436  7A03     A0 00       			ldy	#-22+?LSC0
 7437  7A05     B1 28       			lda	(__stack_ptr),y
 7438  7A07     85 20       			sta	__oper1
 7439  7A09     C8          			iny
 7440  7A0A     B1 28       			lda	(__stack_ptr),y
 7441  7A0C     85 21       			sta	__oper1+1
 7442  7A0E     A5 20       			lda	__oper1
 7443  7A10     85 23       			sta	__oper2
 7444  7A12     A5 21       			lda	__oper1+1
 7445  7A14     85 24       			sta	__oper2+1
 7446  7A16     A9 00       			lda	#0
 7447  7A18     A0 00       			ldy	#0
 7448  7A1A     91 23       			sta	(__oper2),y
 7449                     			.c_end	0321ch,493
 7450                     	;GameMTReNewR()
 7451                     			.c_start  03223h,494
 7452  7A1C     A2 57       			ldx	#.low.&GameMTReNewR
 7453  7A1E     86 26       			stx	__addr_reg
 7454  7A20     A2 90       			ldx	#.high.&GameMTReNewR+1
 7455  7A22     86 27       			stx	__addr_reg+1
 7456                     			.bf_call
 7457  7A24     20 F6 D2    			jsr	__banked_function_call
 7458                     			.c_end	03231h,494
 7459                     	;break;
 7460                     	;			
 7461                     			.sw_break
 7462  7A27     4C CF 83    			jmp	?BOL14
 7463                     	;case	30:
 7464                     	;				
 7465         3815 7A2A   	?SWL38:		.equal	$
 7466                     	;GameMTTalk(2,427,0)
 7467                     			.c_start  03251h,497
 7468  7A2A     A9 00       			lda	#0
 7469  7A2C     20 AA DA    			jsr	__store_char_funct_arg
 7470  7A2F     A9 AB       			lda	#.low.427
 7471  7A31     85 20       			sta	__oper1
 7472  7A33     A9 01       			lda	#.high.427
 7473  7A35     85 21       			sta	__oper1+1
 7474  7A37     20 CA DA    			jsr	__store_int_funct_arg
 7475  7A3A     A9 02       			lda	#2
 7476  7A3C     A2 33       			ldx	#.low.&GameMTTalk
 7477  7A3E     86 26       			stx	__addr_reg
 7478  7A40     A2 90       			ldx	#.high.&GameMTTalk+1
 7479  7A42     86 27       			stx	__addr_reg+1
 7480                     			.bf_call
 7481  7A44     20 F6 D2    			jsr	__banked_function_call
 7482  7A47     08          			php
 7483  7A48     78          			sei
 7484  7A49     18          			clc
 7485  7A4A     A5 28       			lda	__stack_ptr
 7486  7A4C     69 03       			adc	#.low.3
 7487  7A4E     85 28       			sta	__stack_ptr
 7488  7A50     A5 29       			lda	__stack_ptr+1
 7489  7A52     69 00       			adc	#.high.3
  Wed Jan 14 21:35:33 2026                                                                                               Page  133




 7490  7A54     85 29       			sta	__stack_ptr+1
 7491  7A56     28          			plp
 7492                     			.c_end	03264h,497
 7493                     	;g_GameMTHeroDamige+=150
 7494                     			.c_start  0326bh,498
 7495  7A57     AD 9E 1F    			lda	_g_GameMTHeroDamige
 7496  7A5A     85 20       			sta	__oper1
 7497  7A5C     AD 9F 1F    			lda	_g_GameMTHeroDamige+1
 7498  7A5F     85 21       			sta	__oper1+1
 7499  7A61     A5 20       			lda	__oper1
 7500  7A63     18          			clc
 7501  7A64     69 96       			adc	#.low.150
 7502  7A66     85 20       			sta	__oper1
 7503  7A68     A5 21       			lda	__oper1+1
 7504  7A6A     69 00       			adc	#.high.150
 7505  7A6C     85 21       			sta	__oper1+1
 7506  7A6E     A5 20       			lda	__oper1
 7507  7A70     8D 9E 1F    			sta	_g_GameMTHeroDamige
 7508  7A73     A5 21       			lda	__oper1+1
 7509  7A75     8D 9F 1F    			sta	_g_GameMTHeroDamige+1
 7510                     			.c_end	03282h,498
 7511                     	;*g_GameMTJuidgeNow=0
 7512                     			.c_start  03289h,499
 7513  7A78     A0 00       			ldy	#-22+?LSC0
 7514  7A7A     B1 28       			lda	(__stack_ptr),y
 7515  7A7C     85 20       			sta	__oper1
 7516  7A7E     C8          			iny
 7517  7A7F     B1 28       			lda	(__stack_ptr),y
 7518  7A81     85 21       			sta	__oper1+1
 7519  7A83     A5 20       			lda	__oper1
 7520  7A85     85 23       			sta	__oper2
 7521  7A87     A5 21       			lda	__oper1+1
 7522  7A89     85 24       			sta	__oper2+1
 7523  7A8B     A9 00       			lda	#0
 7524  7A8D     A0 00       			ldy	#0
 7525  7A8F     91 23       			sta	(__oper2),y
 7526                     			.c_end	0329dh,499
 7527                     	;GameMTReNewR()
 7528                     			.c_start  032a4h,500
 7529  7A91     A2 57       			ldx	#.low.&GameMTReNewR
 7530  7A93     86 26       			stx	__addr_reg
 7531  7A95     A2 90       			ldx	#.high.&GameMTReNewR+1
 7532  7A97     86 27       			stx	__addr_reg+1
 7533                     			.bf_call
 7534  7A99     20 F6 D2    			jsr	__banked_function_call
 7535                     			.c_end	032b2h,500
 7536                     	;break;
 7537                     	;			
 7538                     			.sw_break
 7539  7A9C     4C CF 83    			jmp	?BOL14
 7540                     	;case	31:
 7541                     	;				
 7542         441C 7A9F   	?SWL39:		.equal	$
 7543                     	;GameMTTalk(5,412,0)
 7544                     			.c_start  032d2h,503
 7545  7A9F     A9 00       			lda	#0
 7546  7AA1     20 AA DA    			jsr	__store_char_funct_arg
  Wed Jan 14 21:35:33 2026                                                                                               Page  134




 7547  7AA4     A9 9C       			lda	#.low.412
 7548  7AA6     85 20       			sta	__oper1
 7549  7AA8     A9 01       			lda	#.high.412
 7550  7AAA     85 21       			sta	__oper1+1
 7551  7AAC     20 CA DA    			jsr	__store_int_funct_arg
 7552  7AAF     A9 05       			lda	#5
 7553  7AB1     A2 33       			ldx	#.low.&GameMTTalk
 7554  7AB3     86 26       			stx	__addr_reg
 7555  7AB5     A2 90       			ldx	#.high.&GameMTTalk+1
 7556  7AB7     86 27       			stx	__addr_reg+1
 7557                     			.bf_call
 7558  7AB9     20 F6 D2    			jsr	__banked_function_call
 7559  7ABC     08          			php
 7560  7ABD     78          			sei
 7561  7ABE     18          			clc
 7562  7ABF     A5 28       			lda	__stack_ptr
 7563  7AC1     69 03       			adc	#.low.3
 7564  7AC3     85 28       			sta	__stack_ptr
 7565  7AC5     A5 29       			lda	__stack_ptr+1
 7566  7AC7     69 00       			adc	#.high.3
 7567  7AC9     85 29       			sta	__stack_ptr+1
 7568  7ACB     28          			plp
 7569                     			.c_end	032e5h,503
 7570                     	;*g_GameMTJuidgeNow=0
 7571                     			.c_start  032ech,504
 7572  7ACC     A0 00       			ldy	#-22+?LSC0
 7573  7ACE     B1 28       			lda	(__stack_ptr),y
 7574  7AD0     85 20       			sta	__oper1
 7575  7AD2     C8          			iny
 7576  7AD3     B1 28       			lda	(__stack_ptr),y
 7577  7AD5     85 21       			sta	__oper1+1
 7578  7AD7     A5 20       			lda	__oper1
 7579  7AD9     85 23       			sta	__oper2
 7580  7ADB     A5 21       			lda	__oper1+1
 7581  7ADD     85 24       			sta	__oper2+1
 7582  7ADF     A9 00       			lda	#0
 7583  7AE1     A0 00       			ldy	#0
 7584  7AE3     91 23       			sta	(__oper2),y
 7585                     			.c_end	03300h,504
 7586                     	;break;
 7587                     	;			
 7588                     			.sw_break
 7589  7AE5     4C CF 83    			jmp	?BOL14
 7590                     	;case	32:
 7591                     	;				
 7592         3628 7AE8   	?SWL40:		.equal	$
 7593                     	;GameMTTalk(5,403,0)
 7594                     			.c_start  03320h,507
 7595  7AE8     A9 00       			lda	#0
 7596  7AEA     20 AA DA    			jsr	__store_char_funct_arg
 7597  7AED     A9 93       			lda	#.low.403
 7598  7AEF     85 20       			sta	__oper1
 7599  7AF1     A9 01       			lda	#.high.403
 7600  7AF3     85 21       			sta	__oper1+1
 7601  7AF5     20 CA DA    			jsr	__store_int_funct_arg
 7602  7AF8     A9 05       			lda	#5
 7603  7AFA     A2 33       			ldx	#.low.&GameMTTalk
  Wed Jan 14 21:35:33 2026                                                                                               Page  135




 7604  7AFC     86 26       			stx	__addr_reg
 7605  7AFE     A2 90       			ldx	#.high.&GameMTTalk+1
 7606  7B00     86 27       			stx	__addr_reg+1
 7607                     			.bf_call
 7608  7B02     20 F6 D2    			jsr	__banked_function_call
 7609  7B05     08          			php
 7610  7B06     78          			sei
 7611  7B07     18          			clc
 7612  7B08     A5 28       			lda	__stack_ptr
 7613  7B0A     69 03       			adc	#.low.3
 7614  7B0C     85 28       			sta	__stack_ptr
 7615  7B0E     A5 29       			lda	__stack_ptr+1
 7616  7B10     69 00       			adc	#.high.3
 7617  7B12     85 29       			sta	__stack_ptr+1
 7618  7B14     28          			plp
 7619                     			.c_end	03333h,507
 7620                     	;*g_GameMTJuidgeNow=0
 7621                     			.c_start  0333ah,508
 7622  7B15     A0 00       			ldy	#-22+?LSC0
 7623  7B17     B1 28       			lda	(__stack_ptr),y
 7624  7B19     85 20       			sta	__oper1
 7625  7B1B     C8          			iny
 7626  7B1C     B1 28       			lda	(__stack_ptr),y
 7627  7B1E     85 21       			sta	__oper1+1
 7628  7B20     A5 20       			lda	__oper1
 7629  7B22     85 23       			sta	__oper2
 7630  7B24     A5 21       			lda	__oper1+1
 7631  7B26     85 24       			sta	__oper2+1
 7632  7B28     A9 00       			lda	#0
 7633  7B2A     A0 00       			ldy	#0
 7634  7B2C     91 23       			sta	(__oper2),y
 7635                     			.c_end	0334eh,508
 7636                     	;break;
 7637                     	;			
 7638                     			.sw_break
 7639  7B2E     4C CF 83    			jmp	?BOL14
 7640                     	;case	33:
 7641                     	;				
 7642         4615 7B31   	?SWL41:		.equal	$
 7643                     	;GameMTTalk(2,393,0)
 7644                     			.c_start  0336eh,511
 7645  7B31     A9 00       			lda	#0
 7646  7B33     20 AA DA    			jsr	__store_char_funct_arg
 7647  7B36     A9 89       			lda	#.low.393
 7648  7B38     85 20       			sta	__oper1
 7649  7B3A     A9 01       			lda	#.high.393
 7650  7B3C     85 21       			sta	__oper1+1
 7651  7B3E     20 CA DA    			jsr	__store_int_funct_arg
 7652  7B41     A9 02       			lda	#2
 7653  7B43     A2 33       			ldx	#.low.&GameMTTalk
 7654  7B45     86 26       			stx	__addr_reg
 7655  7B47     A2 90       			ldx	#.high.&GameMTTalk+1
 7656  7B49     86 27       			stx	__addr_reg+1
 7657                     			.bf_call
 7658  7B4B     20 F6 D2    			jsr	__banked_function_call
 7659  7B4E     08          			php
 7660  7B4F     78          			sei
  Wed Jan 14 21:35:33 2026                                                                                               Page  136




 7661  7B50     18          			clc
 7662  7B51     A5 28       			lda	__stack_ptr
 7663  7B53     69 03       			adc	#.low.3
 7664  7B55     85 28       			sta	__stack_ptr
 7665  7B57     A5 29       			lda	__stack_ptr+1
 7666  7B59     69 00       			adc	#.high.3
 7667  7B5B     85 29       			sta	__stack_ptr+1
 7668  7B5D     28          			plp
 7669                     			.c_end	03381h,511
 7670                     	;g_GameMTKey[0]+=1
 7671                     			.c_start  03388h,512
 7672  7B5E     AD 93 1F    			lda	_g_GameMTKey+0
 7673  7B61     18          			clc
 7674  7B62     69 01       			adc	#1
 7675  7B64     A0 16       			ldy	#+0+?LSC0
 7676  7B66     91 28       			sta	(__stack_ptr),y
 7677  7B68     A9 93       			lda	#.low._g_GameMTKey+0
 7678  7B6A     85 20       			sta	__oper1
 7679  7B6C     A9 1F       			lda	#.high._g_GameMTKey+0
 7680  7B6E     85 21       			sta	__oper1+1
 7681  7B70     A5 20       			lda	__oper1
 7682  7B72     85 23       			sta	__oper2
 7683  7B74     A5 21       			lda	__oper1+1
 7684  7B76     85 24       			sta	__oper2+1
 7685  7B78     A0 16       			ldy	#+0+?LSC0
 7686  7B7A     B1 28       			lda	(__stack_ptr),y
 7687  7B7C     A0 00       			ldy	#0
 7688  7B7E     91 23       			sta	(__oper2),y
 7689                     			.c_end	03399h,512
 7690                     	;*g_GameMTJuidgeNow=0
 7691                     			.c_start  033a0h,513
 7692  7B80     A0 00       			ldy	#-22+?LSC0
 7693  7B82     B1 28       			lda	(__stack_ptr),y
 7694  7B84     85 20       			sta	__oper1
 7695  7B86     C8          			iny
 7696  7B87     B1 28       			lda	(__stack_ptr),y
 7697  7B89     85 21       			sta	__oper1+1
 7698  7B8B     A5 20       			lda	__oper1
 7699  7B8D     85 23       			sta	__oper2
 7700  7B8F     A5 21       			lda	__oper1+1
 7701  7B91     85 24       			sta	__oper2+1
 7702  7B93     A9 00       			lda	#0
 7703  7B95     A0 00       			ldy	#0
 7704  7B97     91 23       			sta	(__oper2),y
 7705                     			.c_end	033b4h,513
 7706                     	;GameMTReNewR()
 7707                     			.c_start  033bbh,514
 7708  7B99     A2 57       			ldx	#.low.&GameMTReNewR
 7709  7B9B     86 26       			stx	__addr_reg
 7710  7B9D     A2 90       			ldx	#.high.&GameMTReNewR+1
 7711  7B9F     86 27       			stx	__addr_reg+1
 7712                     			.bf_call
 7713  7BA1     20 F6 D2    			jsr	__banked_function_call
 7714                     			.c_end	033c9h,514
 7715                     	;break;
 7716                     	;			
 7717                     			.sw_break
  Wed Jan 14 21:35:33 2026                                                                                               Page  137




 7718  7BA4     4C CF 83    			jmp	?BOL14
 7719                     	;case	34:
 7720                     	;				
 7721         3524 7BA7   	?SWL42:		.equal	$
 7722                     	;GameMTTalk(2,445,0)
 7723                     			.c_start  033e9h,517
 7724  7BA7     A9 00       			lda	#0
 7725  7BA9     20 AA DA    			jsr	__store_char_funct_arg
 7726  7BAC     A9 BD       			lda	#.low.445
 7727  7BAE     85 20       			sta	__oper1
 7728  7BB0     A9 01       			lda	#.high.445
 7729  7BB2     85 21       			sta	__oper1+1
 7730  7BB4     20 CA DA    			jsr	__store_int_funct_arg
 7731  7BB7     A9 02       			lda	#2
 7732  7BB9     A2 33       			ldx	#.low.&GameMTTalk
 7733  7BBB     86 26       			stx	__addr_reg
 7734  7BBD     A2 90       			ldx	#.high.&GameMTTalk+1
 7735  7BBF     86 27       			stx	__addr_reg+1
 7736                     			.bf_call
 7737  7BC1     20 F6 D2    			jsr	__banked_function_call
 7738  7BC4     08          			php
 7739  7BC5     78          			sei
 7740  7BC6     18          			clc
 7741  7BC7     A5 28       			lda	__stack_ptr
 7742  7BC9     69 03       			adc	#.low.3
 7743  7BCB     85 28       			sta	__stack_ptr
 7744  7BCD     A5 29       			lda	__stack_ptr+1
 7745  7BCF     69 00       			adc	#.high.3
 7746  7BD1     85 29       			sta	__stack_ptr+1
 7747  7BD3     28          			plp
 7748                     			.c_end	033fch,517
 7749                     	;g_GameMTKey[1]+=1
 7750                     			.c_start  03403h,518
 7751  7BD4     AD 94 1F    			lda	_g_GameMTKey+1
 7752  7BD7     18          			clc
 7753  7BD8     69 01       			adc	#1
 7754  7BDA     A0 16       			ldy	#+0+?LSC0
 7755  7BDC     91 28       			sta	(__stack_ptr),y
 7756  7BDE     A9 94       			lda	#.low._g_GameMTKey+1
 7757  7BE0     85 20       			sta	__oper1
 7758  7BE2     A9 1F       			lda	#.high._g_GameMTKey+1
 7759  7BE4     85 21       			sta	__oper1+1
 7760  7BE6     A5 20       			lda	__oper1
 7761  7BE8     85 23       			sta	__oper2
 7762  7BEA     A5 21       			lda	__oper1+1
 7763  7BEC     85 24       			sta	__oper2+1
 7764  7BEE     A0 16       			ldy	#+0+?LSC0
 7765  7BF0     B1 28       			lda	(__stack_ptr),y
 7766  7BF2     A0 00       			ldy	#0
 7767  7BF4     91 23       			sta	(__oper2),y
 7768                     			.c_end	03414h,518
 7769                     	;*g_GameMTJuidgeNow=0
 7770                     			.c_start  0341bh,519
 7771  7BF6     A0 00       			ldy	#-22+?LSC0
 7772  7BF8     B1 28       			lda	(__stack_ptr),y
 7773  7BFA     85 20       			sta	__oper1
 7774  7BFC     C8          			iny
  Wed Jan 14 21:35:33 2026                                                                                               Page  138




 7775  7BFD     B1 28       			lda	(__stack_ptr),y
 7776  7BFF     85 21       			sta	__oper1+1
 7777  7C01     A5 20       			lda	__oper1
 7778  7C03     85 23       			sta	__oper2
 7779  7C05     A5 21       			lda	__oper1+1
 7780  7C07     85 24       			sta	__oper2+1
 7781  7C09     A9 00       			lda	#0
 7782  7C0B     A0 00       			ldy	#0
 7783  7C0D     91 23       			sta	(__oper2),y
 7784                     			.c_end	0342fh,519
 7785                     	;GameMTReNewR()
 7786                     			.c_start  03436h,520
 7787  7C0F     A2 57       			ldx	#.low.&GameMTReNewR
 7788  7C11     86 26       			stx	__addr_reg
 7789  7C13     A2 90       			ldx	#.high.&GameMTReNewR+1
 7790  7C15     86 27       			stx	__addr_reg+1
 7791                     			.bf_call
 7792  7C17     20 F6 D2    			jsr	__banked_function_call
 7793                     			.c_end	03444h,520
 7794                     	;break;
 7795                     	;			
 7796                     			.sw_break
 7797  7C1A     4C CF 83    			jmp	?BOL14
 7798                     	;case	35:
 7799                     	;				
 7800         4214 7C1D   	?SWL43:		.equal	$
 7801                     	;GameMTTalk(2,391,0)
 7802                     			.c_start  03464h,523
 7803  7C1D     A9 00       			lda	#0
 7804  7C1F     20 AA DA    			jsr	__store_char_funct_arg
 7805  7C22     A9 87       			lda	#.low.391
 7806  7C24     85 20       			sta	__oper1
 7807  7C26     A9 01       			lda	#.high.391
 7808  7C28     85 21       			sta	__oper1+1
 7809  7C2A     20 CA DA    			jsr	__store_int_funct_arg
 7810  7C2D     A9 02       			lda	#2
 7811  7C2F     A2 33       			ldx	#.low.&GameMTTalk
 7812  7C31     86 26       			stx	__addr_reg
 7813  7C33     A2 90       			ldx	#.high.&GameMTTalk+1
 7814  7C35     86 27       			stx	__addr_reg+1
 7815                     			.bf_call
 7816  7C37     20 F6 D2    			jsr	__banked_function_call
 7817  7C3A     08          			php
 7818  7C3B     78          			sei
 7819  7C3C     18          			clc
 7820  7C3D     A5 28       			lda	__stack_ptr
 7821  7C3F     69 03       			adc	#.low.3
 7822  7C41     85 28       			sta	__stack_ptr
 7823  7C43     A5 29       			lda	__stack_ptr+1
 7824  7C45     69 00       			adc	#.high.3
 7825  7C47     85 29       			sta	__stack_ptr+1
 7826  7C49     28          			plp
 7827                     			.c_end	03477h,523
 7828                     	;g_GameMTKey[2]+=1
 7829                     			.c_start  0347eh,524
 7830  7C4A     AD 95 1F    			lda	_g_GameMTKey+2
 7831  7C4D     18          			clc
  Wed Jan 14 21:35:33 2026                                                                                               Page  139




 7832  7C4E     69 01       			adc	#1
 7833  7C50     A0 16       			ldy	#+0+?LSC0
 7834  7C52     91 28       			sta	(__stack_ptr),y
 7835  7C54     A9 95       			lda	#.low._g_GameMTKey+2
 7836  7C56     85 20       			sta	__oper1
 7837  7C58     A9 1F       			lda	#.high._g_GameMTKey+2
 7838  7C5A     85 21       			sta	__oper1+1
 7839  7C5C     A5 20       			lda	__oper1
 7840  7C5E     85 23       			sta	__oper2
 7841  7C60     A5 21       			lda	__oper1+1
 7842  7C62     85 24       			sta	__oper2+1
 7843  7C64     A0 16       			ldy	#+0+?LSC0
 7844  7C66     B1 28       			lda	(__stack_ptr),y
 7845  7C68     A0 00       			ldy	#0
 7846  7C6A     91 23       			sta	(__oper2),y
 7847                     			.c_end	0348fh,524
 7848                     	;*g_GameMTJuidgeNow=0
 7849                     			.c_start  03496h,525
 7850  7C6C     A0 00       			ldy	#-22+?LSC0
 7851  7C6E     B1 28       			lda	(__stack_ptr),y
 7852  7C70     85 20       			sta	__oper1
 7853  7C72     C8          			iny
 7854  7C73     B1 28       			lda	(__stack_ptr),y
 7855  7C75     85 21       			sta	__oper1+1
 7856  7C77     A5 20       			lda	__oper1
 7857  7C79     85 23       			sta	__oper2
 7858  7C7B     A5 21       			lda	__oper1+1
 7859  7C7D     85 24       			sta	__oper2+1
 7860  7C7F     A9 00       			lda	#0
 7861  7C81     A0 00       			ldy	#0
 7862  7C83     91 23       			sta	(__oper2),y
 7863                     			.c_end	034aah,525
 7864                     	;GameMTReNewR()
 7865                     			.c_start  034b1h,526
 7866  7C85     A2 57       			ldx	#.low.&GameMTReNewR
 7867  7C87     86 26       			stx	__addr_reg
 7868  7C89     A2 90       			ldx	#.high.&GameMTReNewR+1
 7869  7C8B     86 27       			stx	__addr_reg+1
 7870                     			.bf_call
 7871  7C8D     20 F6 D2    			jsr	__banked_function_call
 7872                     			.c_end	034bfh,526
 7873                     	;break;
 7874                     	;			
 7875                     			.sw_break
 7876  7C90     4C CF 83    			jmp	?BOL14
 7877                     	;case	36:
 7878                     	;				
 7879         311C 7C93   	?SWL44:		.equal	$
 7880                     	;GameMTTalk(2,389,0)
 7881                     			.c_start  034dfh,529
 7882  7C93     A9 00       			lda	#0
 7883  7C95     20 AA DA    			jsr	__store_char_funct_arg
 7884  7C98     A9 85       			lda	#.low.389
 7885  7C9A     85 20       			sta	__oper1
 7886  7C9C     A9 01       			lda	#.high.389
 7887  7C9E     85 21       			sta	__oper1+1
 7888  7CA0     20 CA DA    			jsr	__store_int_funct_arg
  Wed Jan 14 21:35:33 2026                                                                                               Page  140




 7889  7CA3     A9 02       			lda	#2
 7890  7CA5     A2 33       			ldx	#.low.&GameMTTalk
 7891  7CA7     86 26       			stx	__addr_reg
 7892  7CA9     A2 90       			ldx	#.high.&GameMTTalk+1
 7893  7CAB     86 27       			stx	__addr_reg+1
 7894                     			.bf_call
 7895  7CAD     20 F6 D2    			jsr	__banked_function_call
 7896  7CB0     08          			php
 7897  7CB1     78          			sei
 7898  7CB2     18          			clc
 7899  7CB3     A5 28       			lda	__stack_ptr
 7900  7CB5     69 03       			adc	#.low.3
 7901  7CB7     85 28       			sta	__stack_ptr
 7902  7CB9     A5 29       			lda	__stack_ptr+1
 7903  7CBB     69 00       			adc	#.high.3
 7904  7CBD     85 29       			sta	__stack_ptr+1
 7905  7CBF     28          			plp
 7906                     			.c_end	034f2h,529
 7907                     	;g_GameMTKey[0]+=1
 7908                     			.c_start  034f9h,530
 7909  7CC0     AD 93 1F    			lda	_g_GameMTKey+0
 7910  7CC3     18          			clc
 7911  7CC4     69 01       			adc	#1
 7912  7CC6     A0 16       			ldy	#+0+?LSC0
 7913  7CC8     91 28       			sta	(__stack_ptr),y
 7914  7CCA     A9 93       			lda	#.low._g_GameMTKey+0
 7915  7CCC     85 20       			sta	__oper1
 7916  7CCE     A9 1F       			lda	#.high._g_GameMTKey+0
 7917  7CD0     85 21       			sta	__oper1+1
 7918  7CD2     A5 20       			lda	__oper1
 7919  7CD4     85 23       			sta	__oper2
 7920  7CD6     A5 21       			lda	__oper1+1
 7921  7CD8     85 24       			sta	__oper2+1
 7922  7CDA     A0 16       			ldy	#+0+?LSC0
 7923  7CDC     B1 28       			lda	(__stack_ptr),y
 7924  7CDE     A0 00       			ldy	#0
 7925  7CE0     91 23       			sta	(__oper2),y
 7926                     			.c_end	0350ah,530
 7927                     	;g_GameMTKey[1]+=1
 7928                     			.c_start  03511h,531
 7929  7CE2     AD 94 1F    			lda	_g_GameMTKey+1
 7930  7CE5     18          			clc
 7931  7CE6     69 01       			adc	#1
 7932  7CE8     A0 16       			ldy	#+0+?LSC0
 7933  7CEA     91 28       			sta	(__stack_ptr),y
 7934  7CEC     A9 94       			lda	#.low._g_GameMTKey+1
 7935  7CEE     85 20       			sta	__oper1
 7936  7CF0     A9 1F       			lda	#.high._g_GameMTKey+1
 7937  7CF2     85 21       			sta	__oper1+1
 7938  7CF4     A5 20       			lda	__oper1
 7939  7CF6     85 23       			sta	__oper2
 7940  7CF8     A5 21       			lda	__oper1+1
 7941  7CFA     85 24       			sta	__oper2+1
 7942  7CFC     A0 16       			ldy	#+0+?LSC0
 7943  7CFE     B1 28       			lda	(__stack_ptr),y
 7944  7D00     A0 00       			ldy	#0
 7945  7D02     91 23       			sta	(__oper2),y
  Wed Jan 14 21:35:33 2026                                                                                               Page  141




 7946                     			.c_end	03522h,531
 7947                     	;g_GameMTKey[2]+=1
 7948                     			.c_start  03529h,532
 7949  7D04     AD 95 1F    			lda	_g_GameMTKey+2
 7950  7D07     18          			clc
 7951  7D08     69 01       			adc	#1
 7952  7D0A     A0 16       			ldy	#+0+?LSC0
 7953  7D0C     91 28       			sta	(__stack_ptr),y
 7954  7D0E     A9 95       			lda	#.low._g_GameMTKey+2
 7955  7D10     85 20       			sta	__oper1
 7956  7D12     A9 1F       			lda	#.high._g_GameMTKey+2
 7957  7D14     85 21       			sta	__oper1+1
 7958  7D16     A5 20       			lda	__oper1
 7959  7D18     85 23       			sta	__oper2
 7960  7D1A     A5 21       			lda	__oper1+1
 7961  7D1C     85 24       			sta	__oper2+1
 7962  7D1E     A0 16       			ldy	#+0+?LSC0
 7963  7D20     B1 28       			lda	(__stack_ptr),y
 7964  7D22     A0 00       			ldy	#0
 7965  7D24     91 23       			sta	(__oper2),y
 7966                     			.c_end	0353ah,532
 7967                     	;*g_GameMTJuidgeNow=0
 7968                     			.c_start  03541h,533
 7969  7D26     A0 00       			ldy	#-22+?LSC0
 7970  7D28     B1 28       			lda	(__stack_ptr),y
 7971  7D2A     85 20       			sta	__oper1
 7972  7D2C     C8          			iny
 7973  7D2D     B1 28       			lda	(__stack_ptr),y
 7974  7D2F     85 21       			sta	__oper1+1
 7975  7D31     A5 20       			lda	__oper1
 7976  7D33     85 23       			sta	__oper2
 7977  7D35     A5 21       			lda	__oper1+1
 7978  7D37     85 24       			sta	__oper2+1
 7979  7D39     A9 00       			lda	#0
 7980  7D3B     A0 00       			ldy	#0
 7981  7D3D     91 23       			sta	(__oper2),y
 7982                     			.c_end	03555h,533
 7983                     	;GameMTReNewR()
 7984                     			.c_start  0355ch,534
 7985  7D3F     A2 57       			ldx	#.low.&GameMTReNewR
 7986  7D41     86 26       			stx	__addr_reg
 7987  7D43     A2 90       			ldx	#.high.&GameMTReNewR+1
 7988  7D45     86 27       			stx	__addr_reg+1
 7989                     			.bf_call
 7990  7D47     20 F6 D2    			jsr	__banked_function_call
 7991                     			.c_end	0356ah,534
 7992                     	;break;
 7993                     	;			
 7994                     			.sw_break
 7995  7D4A     4C CF 83    			jmp	?BOL14
 7996                     	;case	37:
 7997                     	;				
 7998         4217 7D4D   	?SWL45:		.equal	$
 7999                     	;GameMTTalk(2,417,0)
 8000                     			.c_start  0358ah,537
 8001  7D4D     A9 00       			lda	#0
 8002  7D4F     20 AA DA    			jsr	__store_char_funct_arg
  Wed Jan 14 21:35:33 2026                                                                                               Page  142




 8003  7D52     A9 A1       			lda	#.low.417
 8004  7D54     85 20       			sta	__oper1
 8005  7D56     A9 01       			lda	#.high.417
 8006  7D58     85 21       			sta	__oper1+1
 8007  7D5A     20 CA DA    			jsr	__store_int_funct_arg
 8008  7D5D     A9 02       			lda	#2
 8009  7D5F     A2 33       			ldx	#.low.&GameMTTalk
 8010  7D61     86 26       			stx	__addr_reg
 8011  7D63     A2 90       			ldx	#.high.&GameMTTalk+1
 8012  7D65     86 27       			stx	__addr_reg+1
 8013                     			.bf_call
 8014  7D67     20 F6 D2    			jsr	__banked_function_call
 8015  7D6A     08          			php
 8016  7D6B     78          			sei
 8017  7D6C     18          			clc
 8018  7D6D     A5 28       			lda	__stack_ptr
 8019  7D6F     69 03       			adc	#.low.3
 8020  7D71     85 28       			sta	__stack_ptr
 8021  7D73     A5 29       			lda	__stack_ptr+1
 8022  7D75     69 00       			adc	#.high.3
 8023  7D77     85 29       			sta	__stack_ptr+1
 8024  7D79     28          			plp
 8025                     			.c_end	0359dh,537
 8026                     	;g_GameMTHeroLv+=3
 8027                     			.c_start  035a4h,538
 8028  7D7A     AD 09 18    			lda	_g_GameMTHeroLv
 8029  7D7D     18          			clc
 8030  7D7E     69 03       			adc	#3
 8031  7D80     8D 09 18    			sta	_g_GameMTHeroLv
 8032                     			.c_end	035b5h,538
 8033                     	;g_GameMTHeroLife+=3000
 8034                     			.c_start  035bch,539
 8035                     			.const_data_psfar3
 8036  8E7C     B80B 0000   	?CGL9:	.long	3000
 8037                     			.program_psfar3
 8038  7D83     A2 7C       			ldx	#.low.?CGL9
 8039  7D85     86 23       			stx	__oper2
 8040  7D87     A2 8E       			ldx	#.high.?CGL9
 8041  7D89     86 24       			stx	__oper2+1
 8042  7D8B     A9 AA       			lda	#.low._g_GameMTHeroLife
 8043  7D8D     85 20       			sta	__oper1
 8044  7D8F     A9 1F       			lda	#.high._g_GameMTHeroLife
 8045  7D91     85 21       			sta	__oper1+1
 8046  7D93     20 9D D2    			jsr	__add_long
 8047  7D96     A5 20       			lda	__oper1
 8048  7D98     85 23       			sta	__oper2
 8049  7D9A     A5 21       			lda	__oper1+1
 8050  7D9C     85 24       			sta	__oper2+1
 8051  7D9E     A9 AA       			lda	#.low._g_GameMTHeroLife
 8052  7DA0     85 20       			sta	__oper1
 8053  7DA2     A9 1F       			lda	#.high._g_GameMTHeroLife
 8054  7DA4     85 21       			sta	__oper1+1
 8055  7DA6     20 E6 DA    			jsr	__store_long
 8056                     			.c_end	035d2h,539
 8057                     	;g_GameMTHeroDamige+=21
 8058                     			.c_start  035d9h,540
 8059  7DA9     AD 9E 1F    			lda	_g_GameMTHeroDamige
  Wed Jan 14 21:35:33 2026                                                                                               Page  143




 8060  7DAC     85 20       			sta	__oper1
 8061  7DAE     AD 9F 1F    			lda	_g_GameMTHeroDamige+1
 8062  7DB1     85 21       			sta	__oper1+1
 8063  7DB3     A5 20       			lda	__oper1
 8064  7DB5     18          			clc
 8065  7DB6     69 15       			adc	#.low.21
 8066  7DB8     85 20       			sta	__oper1
 8067  7DBA     A5 21       			lda	__oper1+1
 8068  7DBC     69 00       			adc	#.high.21
 8069  7DBE     85 21       			sta	__oper1+1
 8070  7DC0     A5 20       			lda	__oper1
 8071  7DC2     8D 9E 1F    			sta	_g_GameMTHeroDamige
 8072  7DC5     A5 21       			lda	__oper1+1
 8073  7DC7     8D 9F 1F    			sta	_g_GameMTHeroDamige+1
 8074                     			.c_end	035efh,540
 8075                     	;g_GameMTHeroDefence+=21
 8076                     			.c_start  035f6h,541
 8077  7DCA     AD A0 1F    			lda	_g_GameMTHeroDefence
 8078  7DCD     85 20       			sta	__oper1
 8079  7DCF     AD A1 1F    			lda	_g_GameMTHeroDefence+1
 8080  7DD2     85 21       			sta	__oper1+1
 8081  7DD4     A5 20       			lda	__oper1
 8082  7DD6     18          			clc
 8083  7DD7     69 15       			adc	#.low.21
 8084  7DD9     85 20       			sta	__oper1
 8085  7DDB     A5 21       			lda	__oper1+1
 8086  7DDD     69 00       			adc	#.high.21
 8087  7DDF     85 21       			sta	__oper1+1
 8088  7DE1     A5 20       			lda	__oper1
 8089  7DE3     8D A0 1F    			sta	_g_GameMTHeroDefence
 8090  7DE6     A5 21       			lda	__oper1+1
 8091  7DE8     8D A1 1F    			sta	_g_GameMTHeroDefence+1
 8092                     			.c_end	0360dh,541
 8093                     	;*g_GameMTJuidgeNow=0
 8094                     			.c_start  03614h,542
 8095  7DEB     A0 00       			ldy	#-22+?LSC0
 8096  7DED     B1 28       			lda	(__stack_ptr),y
 8097  7DEF     85 20       			sta	__oper1
 8098  7DF1     C8          			iny
 8099  7DF2     B1 28       			lda	(__stack_ptr),y
 8100  7DF4     85 21       			sta	__oper1+1
 8101  7DF6     A5 20       			lda	__oper1
 8102  7DF8     85 23       			sta	__oper2
 8103  7DFA     A5 21       			lda	__oper1+1
 8104  7DFC     85 24       			sta	__oper2+1
 8105  7DFE     A9 00       			lda	#0
 8106  7E00     A0 00       			ldy	#0
 8107  7E02     91 23       			sta	(__oper2),y
 8108                     			.c_end	03628h,542
 8109                     	;GameMTReNewR()
 8110                     			.c_start  0362fh,543
 8111  7E04     A2 57       			ldx	#.low.&GameMTReNewR
 8112  7E06     86 26       			stx	__addr_reg
 8113  7E08     A2 90       			ldx	#.high.&GameMTReNewR+1
 8114  7E0A     86 27       			stx	__addr_reg+1
 8115                     			.bf_call
 8116  7E0C     20 F6 D2    			jsr	__banked_function_call
  Wed Jan 14 21:35:33 2026                                                                                               Page  144




 8117                     			.c_end	0363dh,543
 8118                     	;break;
 8119                     	;			
 8120                     			.sw_break
 8121  7E0F     4C CF 83    			jmp	?BOL14
 8122                     	;case	57:
 8123                     	;				
 8124         4713 7E12   	?SWL46:		.equal	$
 8125                     	;(g_GameMTFloor==19)
 8126                     	;				
 8127                     			.if_top	0365dh,?BOL51,1,546
 8128  7E12     AD A7 1F    			lda	_g_GameMTFloor
 8129  7E15     38          			sec
 8130  7E16     E9 13       			sbc	#19
 8131  7E18     F0 03       			beq	+3
 8132  7E1A     4C 67 7F    			jmp	?BOL51
 8133         4214 7E1D   	?PLC49:		.equal	$
 8134                     			.c_end	03673h,547
 8135                     	;GameMTTalk(2,284,0)
 8136                     			.c_start  03680h,548
 8137  7E1D     A9 00       			lda	#0
 8138  7E1F     20 AA DA    			jsr	__store_char_funct_arg
 8139  7E22     A9 1C       			lda	#.low.284
 8140  7E24     85 20       			sta	__oper1
 8141  7E26     A9 01       			lda	#.high.284
 8142  7E28     85 21       			sta	__oper1+1
 8143  7E2A     20 CA DA    			jsr	__store_int_funct_arg
 8144  7E2D     A9 02       			lda	#2
 8145  7E2F     A2 33       			ldx	#.low.&GameMTTalk
 8146  7E31     86 26       			stx	__addr_reg
 8147  7E33     A2 90       			ldx	#.high.&GameMTTalk+1
 8148  7E35     86 27       			stx	__addr_reg+1
 8149                     			.bf_call
 8150  7E37     20 F6 D2    			jsr	__banked_function_call
 8151  7E3A     08          			php
 8152  7E3B     78          			sei
 8153  7E3C     18          			clc
 8154  7E3D     A5 28       			lda	__stack_ptr
 8155  7E3F     69 03       			adc	#.low.3
 8156  7E41     85 28       			sta	__stack_ptr
 8157  7E43     A5 29       			lda	__stack_ptr+1
 8158  7E45     69 00       			adc	#.high.3
 8159  7E47     85 29       			sta	__stack_ptr+1
 8160  7E49     28          			plp
 8161                     			.c_end	03693h,548
 8162                     	;GameMTTalk(5,286,0)
 8163                     			.c_start  0369bh,549
 8164  7E4A     A9 00       			lda	#0
 8165  7E4C     20 AA DA    			jsr	__store_char_funct_arg
 8166  7E4F     A9 1E       			lda	#.low.286
 8167  7E51     85 20       			sta	__oper1
 8168  7E53     A9 01       			lda	#.high.286
 8169  7E55     85 21       			sta	__oper1+1
 8170  7E57     20 CA DA    			jsr	__store_int_funct_arg
 8171  7E5A     A9 05       			lda	#5
 8172  7E5C     A2 33       			ldx	#.low.&GameMTTalk
 8173  7E5E     86 26       			stx	__addr_reg
  Wed Jan 14 21:35:33 2026                                                                                               Page  145




 8174  7E60     A2 90       			ldx	#.high.&GameMTTalk+1
 8175  7E62     86 27       			stx	__addr_reg+1
 8176                     			.bf_call
 8177  7E64     20 F6 D2    			jsr	__banked_function_call
 8178  7E67     08          			php
 8179  7E68     78          			sei
 8180  7E69     18          			clc
 8181  7E6A     A5 28       			lda	__stack_ptr
 8182  7E6C     69 03       			adc	#.low.3
 8183  7E6E     85 28       			sta	__stack_ptr
 8184  7E70     A5 29       			lda	__stack_ptr+1
 8185  7E72     69 00       			adc	#.high.3
 8186  7E74     85 29       			sta	__stack_ptr+1
 8187  7E76     28          			plp
 8188                     			.c_end	036aeh,549
 8189                     	;GameMTTalk(2,291,0)
 8190                     			.c_start  036b6h,550
 8191  7E77     A9 00       			lda	#0
 8192  7E79     20 AA DA    			jsr	__store_char_funct_arg
 8193  7E7C     A9 23       			lda	#.low.291
 8194  7E7E     85 20       			sta	__oper1
 8195  7E80     A9 01       			lda	#.high.291
 8196  7E82     85 21       			sta	__oper1+1
 8197  7E84     20 CA DA    			jsr	__store_int_funct_arg
 8198  7E87     A9 02       			lda	#2
 8199  7E89     A2 33       			ldx	#.low.&GameMTTalk
 8200  7E8B     86 26       			stx	__addr_reg
 8201  7E8D     A2 90       			ldx	#.high.&GameMTTalk+1
 8202  7E8F     86 27       			stx	__addr_reg+1
 8203                     			.bf_call
 8204  7E91     20 F6 D2    			jsr	__banked_function_call
 8205  7E94     08          			php
 8206  7E95     78          			sei
 8207  7E96     18          			clc
 8208  7E97     A5 28       			lda	__stack_ptr
 8209  7E99     69 03       			adc	#.low.3
 8210  7E9B     85 28       			sta	__stack_ptr
 8211  7E9D     A5 29       			lda	__stack_ptr+1
 8212  7E9F     69 00       			adc	#.high.3
 8213  7EA1     85 29       			sta	__stack_ptr+1
 8214  7EA3     28          			plp
 8215                     			.c_end	036c9h,550
 8216                     	;GameMTBattle(*g_GameMTJuidgeNow-38)
 8217                     			.c_start  036d1h,551
 8218  7EA4     A0 00       			ldy	#-22+?LSC0
 8219  7EA6     B1 28       			lda	(__stack_ptr),y
 8220  7EA8     AA          			tax
 8221  7EA9     C8          			iny
 8222  7EAA     B1 28       			lda	(__stack_ptr),y
 8223  7EAC     85 27       			sta	__addr_reg+1
 8224  7EAE     86 26       			stx	__addr_reg
 8225  7EB0     A0 00       			ldy	#0
 8226  7EB2     B1 26       			lda	(__addr_reg),y
 8227  7EB4     38          			sec
 8228  7EB5     E9 26       			sbc	#38
 8229  7EB7     A2 3C       			ldx	#.low.&GameMTBattle
 8230  7EB9     86 26       			stx	__addr_reg
  Wed Jan 14 21:35:33 2026                                                                                               Page  146




 8231  7EBB     A2 90       			ldx	#.high.&GameMTBattle+1
 8232  7EBD     86 27       			stx	__addr_reg+1
 8233                     			.bf_call
 8234  7EBF     20 F6 D2    			jsr	__banked_function_call
 8235                     			.c_end	036f4h,551
 8236                     	;((*g_GameMTJuidgeNow)+1==1)
 8237                     	;					
 8238                     			.if_top	036fch,?BOL52,2,552
 8239  7EC2     A0 00       			ldy	#-22+?LSC0
 8240  7EC4     B1 28       			lda	(__stack_ptr),y
 8241  7EC6     AA          			tax
 8242  7EC7     C8          			iny
 8243  7EC8     B1 28       			lda	(__stack_ptr),y
 8244  7ECA     85 27       			sta	__addr_reg+1
 8245  7ECC     86 26       			stx	__addr_reg
 8246  7ECE     A0 00       			ldy	#0
 8247  7ED0     B1 26       			lda	(__addr_reg),y
 8248  7ED2     18          			clc
 8249  7ED3     69 01       			adc	#1
 8250  7ED5     38          			sec
 8251  7ED6     E9 01       			sbc	#1
 8252  7ED8     F0 03       			beq	+3
 8253  7EDA     4C 64 7F    			jmp	?BOL52
 8254         4227 7EDD   	?PLC50:		.equal	$
 8255                     			.c_end	0371ah,553
 8256                     	;GameMTTalk(5,293,1)
 8257                     			.c_start  03729h,554
 8258  7EDD     A9 01       			lda	#1
 8259  7EDF     20 AA DA    			jsr	__store_char_funct_arg
 8260  7EE2     A9 25       			lda	#.low.293
 8261  7EE4     85 20       			sta	__oper1
 8262  7EE6     A9 01       			lda	#.high.293
 8263  7EE8     85 21       			sta	__oper1+1
 8264  7EEA     20 CA DA    			jsr	__store_int_funct_arg
 8265  7EED     A9 05       			lda	#5
 8266  7EEF     A2 33       			ldx	#.low.&GameMTTalk
 8267  7EF1     86 26       			stx	__addr_reg
 8268  7EF3     A2 90       			ldx	#.high.&GameMTTalk+1
 8269  7EF5     86 27       			stx	__addr_reg+1
 8270                     			.bf_call
 8271  7EF7     20 F6 D2    			jsr	__banked_function_call
 8272  7EFA     08          			php
 8273  7EFB     78          			sei
 8274  7EFC     18          			clc
 8275  7EFD     A5 28       			lda	__stack_ptr
 8276  7EFF     69 03       			adc	#.low.3
 8277  7F01     85 28       			sta	__stack_ptr
 8278  7F03     A5 29       			lda	__stack_ptr+1
 8279  7F05     69 00       			adc	#.high.3
 8280  7F07     85 29       			sta	__stack_ptr+1
 8281  7F09     28          			plp
 8282                     			.c_end	0373ch,554
 8283                     	;GameMTTalk(2,298,0)
 8284                     			.c_start  03745h,555
 8285  7F0A     A9 00       			lda	#0
 8286  7F0C     20 AA DA    			jsr	__store_char_funct_arg
 8287  7F0F     A9 2A       			lda	#.low.298
  Wed Jan 14 21:35:33 2026                                                                                               Page  147




 8288  7F11     85 20       			sta	__oper1
 8289  7F13     A9 01       			lda	#.high.298
 8290  7F15     85 21       			sta	__oper1+1
 8291  7F17     20 CA DA    			jsr	__store_int_funct_arg
 8292  7F1A     A9 02       			lda	#2
 8293  7F1C     A2 33       			ldx	#.low.&GameMTTalk
 8294  7F1E     86 26       			stx	__addr_reg
 8295  7F20     A2 90       			ldx	#.high.&GameMTTalk+1
 8296  7F22     86 27       			stx	__addr_reg+1
 8297                     			.bf_call
 8298  7F24     20 F6 D2    			jsr	__banked_function_call
 8299  7F27     08          			php
 8300  7F28     78          			sei
 8301  7F29     18          			clc
 8302  7F2A     A5 28       			lda	__stack_ptr
 8303  7F2C     69 03       			adc	#.low.3
 8304  7F2E     85 28       			sta	__stack_ptr
 8305  7F30     A5 29       			lda	__stack_ptr+1
 8306  7F32     69 00       			adc	#.high.3
 8307  7F34     85 29       			sta	__stack_ptr+1
 8308  7F36     28          			plp
 8309                     			.c_end	03758h,555
 8310                     	;GameMTTalk(2,300,0)
 8311                     			.c_start  03761h,556
 8312  7F37     A9 00       			lda	#0
 8313  7F39     20 AA DA    			jsr	__store_char_funct_arg
 8314  7F3C     A9 2C       			lda	#.low.300
 8315  7F3E     85 20       			sta	__oper1
 8316  7F40     A9 01       			lda	#.high.300
 8317  7F42     85 21       			sta	__oper1+1
 8318  7F44     20 CA DA    			jsr	__store_int_funct_arg
 8319  7F47     A9 02       			lda	#2
 8320  7F49     A2 33       			ldx	#.low.&GameMTTalk
 8321  7F4B     86 26       			stx	__addr_reg
 8322  7F4D     A2 90       			ldx	#.high.&GameMTTalk+1
 8323  7F4F     86 27       			stx	__addr_reg+1
 8324                     			.bf_call
 8325  7F51     20 F6 D2    			jsr	__banked_function_call
 8326  7F54     08          			php
 8327  7F55     78          			sei
 8328  7F56     18          			clc
 8329  7F57     A5 28       			lda	__stack_ptr
 8330  7F59     69 03       			adc	#.low.3
 8331  7F5B     85 28       			sta	__stack_ptr
 8332  7F5D     A5 29       			lda	__stack_ptr+1
 8333  7F5F     69 00       			adc	#.high.3
 8334  7F61     85 29       			sta	__stack_ptr+1
 8335  7F63     28          			plp
 8336                     			.c_end	03774h,556
 8337                     	;
 8338                     	;
 8339         3419 7F64   	?BOL52:		.equal	$
 8340                     	;else
 8341                     	;				
 8342  7F64     4C 35 82    			jmp	?EOI51
 8343                     			.if_else  ?EOI51,1,560
 8344         3519 7F67   	?BOL51:		.equal	$
  Wed Jan 14 21:35:33 2026                                                                                               Page  148




 8345                     	;GameMTTalk(2,315,0)
 8346                     			.c_start  0379ch,561
 8347  7F67     A9 00       			lda	#0
 8348  7F69     20 AA DA    			jsr	__store_char_funct_arg
 8349  7F6C     A9 3B       			lda	#.low.315
 8350  7F6E     85 20       			sta	__oper1
 8351  7F70     A9 01       			lda	#.high.315
 8352  7F72     85 21       			sta	__oper1+1
 8353  7F74     20 CA DA    			jsr	__store_int_funct_arg
 8354  7F77     A9 02       			lda	#2
 8355  7F79     A2 33       			ldx	#.low.&GameMTTalk
 8356  7F7B     86 26       			stx	__addr_reg
 8357  7F7D     A2 90       			ldx	#.high.&GameMTTalk+1
 8358  7F7F     86 27       			stx	__addr_reg+1
 8359                     			.bf_call
 8360  7F81     20 F6 D2    			jsr	__banked_function_call
 8361  7F84     08          			php
 8362  7F85     78          			sei
 8363  7F86     18          			clc
 8364  7F87     A5 28       			lda	__stack_ptr
 8365  7F89     69 03       			adc	#.low.3
 8366  7F8B     85 28       			sta	__stack_ptr
 8367  7F8D     A5 29       			lda	__stack_ptr+1
 8368  7F8F     69 00       			adc	#.high.3
 8369  7F91     85 29       			sta	__stack_ptr+1
 8370  7F93     28          			plp
 8371                     			.c_end	037afh,561
 8372                     	;GameMTTalk(3,317,0)
 8373                     			.c_start  037b7h,562
 8374  7F94     A9 00       			lda	#0
 8375  7F96     20 AA DA    			jsr	__store_char_funct_arg
 8376  7F99     A9 3D       			lda	#.low.317
 8377  7F9B     85 20       			sta	__oper1
 8378  7F9D     A9 01       			lda	#.high.317
 8379  7F9F     85 21       			sta	__oper1+1
 8380  7FA1     20 CA DA    			jsr	__store_int_funct_arg
 8381  7FA4     A9 03       			lda	#3
 8382  7FA6     A2 33       			ldx	#.low.&GameMTTalk
 8383  7FA8     86 26       			stx	__addr_reg
 8384  7FAA     A2 90       			ldx	#.high.&GameMTTalk+1
 8385  7FAC     86 27       			stx	__addr_reg+1
 8386                     			.bf_call
 8387  7FAE     20 F6 D2    			jsr	__banked_function_call
 8388  7FB1     08          			php
 8389  7FB2     78          			sei
 8390  7FB3     18          			clc
 8391  7FB4     A5 28       			lda	__stack_ptr
 8392  7FB6     69 03       			adc	#.low.3
 8393  7FB8     85 28       			sta	__stack_ptr
 8394  7FBA     A5 29       			lda	__stack_ptr+1
 8395  7FBC     69 00       			adc	#.high.3
 8396  7FBE     85 29       			sta	__stack_ptr+1
 8397  7FC0     28          			plp
 8398                     			.c_end	037cah,562
 8399                     	;GameMTTalk(3,320,0)
 8400                     			.c_start  037d2h,563
 8401  7FC1     A9 00       			lda	#0
  Wed Jan 14 21:35:33 2026                                                                                               Page  149




 8402  7FC3     20 AA DA    			jsr	__store_char_funct_arg
 8403  7FC6     A9 40       			lda	#.low.320
 8404  7FC8     85 20       			sta	__oper1
 8405  7FCA     A9 01       			lda	#.high.320
 8406  7FCC     85 21       			sta	__oper1+1
 8407  7FCE     20 CA DA    			jsr	__store_int_funct_arg
 8408  7FD1     A9 03       			lda	#3
 8409  7FD3     A2 33       			ldx	#.low.&GameMTTalk
 8410  7FD5     86 26       			stx	__addr_reg
 8411  7FD7     A2 90       			ldx	#.high.&GameMTTalk+1
 8412  7FD9     86 27       			stx	__addr_reg+1
 8413                     			.bf_call
 8414  7FDB     20 F6 D2    			jsr	__banked_function_call
 8415  7FDE     08          			php
 8416  7FDF     78          			sei
 8417  7FE0     18          			clc
 8418  7FE1     A5 28       			lda	__stack_ptr
 8419  7FE3     69 03       			adc	#.low.3
 8420  7FE5     85 28       			sta	__stack_ptr
 8421  7FE7     A5 29       			lda	__stack_ptr+1
 8422  7FE9     69 00       			adc	#.high.3
 8423  7FEB     85 29       			sta	__stack_ptr+1
 8424  7FED     28          			plp
 8425                     			.c_end	037e5h,563
 8426                     	;GameMTTalk(2,323,0)
 8427                     			.c_start  037edh,564
 8428  7FEE     A9 00       			lda	#0
 8429  7FF0     20 AA DA    			jsr	__store_char_funct_arg
 8430  7FF3     A9 43       			lda	#.low.323
 8431  7FF5     85 20       			sta	__oper1
 8432  7FF7     A9 01       			lda	#.high.323
 8433  7FF9     85 21       			sta	__oper1+1
 8434  7FFB     20 CA DA    			jsr	__store_int_funct_arg
 8435  7FFE     A9 02       			lda	#2
 8436  8000     A2 33       			ldx	#.low.&GameMTTalk
 8437  8002     86 26       			stx	__addr_reg
 8438  8004     A2 90       			ldx	#.high.&GameMTTalk+1
 8439  8006     86 27       			stx	__addr_reg+1
 8440                     			.bf_call
 8441  8008     20 F6 D2    			jsr	__banked_function_call
 8442  800B     08          			php
 8443  800C     78          			sei
 8444  800D     18          			clc
 8445  800E     A5 28       			lda	__stack_ptr
 8446  8010     69 03       			adc	#.low.3
 8447  8012     85 28       			sta	__stack_ptr
 8448  8014     A5 29       			lda	__stack_ptr+1
 8449  8016     69 00       			adc	#.high.3
 8450  8018     85 29       			sta	__stack_ptr+1
 8451  801A     28          			plp
 8452                     			.c_end	03800h,564
 8453                     	;GameMTTalk(2,325,0)
 8454                     			.c_start  03808h,565
 8455  801B     A9 00       			lda	#0
 8456  801D     20 AA DA    			jsr	__store_char_funct_arg
 8457  8020     A9 45       			lda	#.low.325
 8458  8022     85 20       			sta	__oper1
  Wed Jan 14 21:35:33 2026                                                                                               Page  150




 8459  8024     A9 01       			lda	#.high.325
 8460  8026     85 21       			sta	__oper1+1
 8461  8028     20 CA DA    			jsr	__store_int_funct_arg
 8462  802B     A9 02       			lda	#2
 8463  802D     A2 33       			ldx	#.low.&GameMTTalk
 8464  802F     86 26       			stx	__addr_reg
 8465  8031     A2 90       			ldx	#.high.&GameMTTalk+1
 8466  8033     86 27       			stx	__addr_reg+1
 8467                     			.bf_call
 8468  8035     20 F6 D2    			jsr	__banked_function_call
 8469  8038     08          			php
 8470  8039     78          			sei
 8471  803A     18          			clc
 8472  803B     A5 28       			lda	__stack_ptr
 8473  803D     69 03       			adc	#.low.3
 8474  803F     85 28       			sta	__stack_ptr
 8475  8041     A5 29       			lda	__stack_ptr+1
 8476  8043     69 00       			adc	#.high.3
 8477  8045     85 29       			sta	__stack_ptr+1
 8478  8047     28          			plp
 8479                     			.c_end	0381bh,565
 8480                     	;GameMTTalk(3,327,0)
 8481                     			.c_start  03823h,566
 8482  8048     A9 00       			lda	#0
 8483  804A     20 AA DA    			jsr	__store_char_funct_arg
 8484  804D     A9 47       			lda	#.low.327
 8485  804F     85 20       			sta	__oper1
 8486  8051     A9 01       			lda	#.high.327
 8487  8053     85 21       			sta	__oper1+1
 8488  8055     20 CA DA    			jsr	__store_int_funct_arg
 8489  8058     A9 03       			lda	#3
 8490  805A     A2 33       			ldx	#.low.&GameMTTalk
 8491  805C     86 26       			stx	__addr_reg
 8492  805E     A2 90       			ldx	#.high.&GameMTTalk+1
 8493  8060     86 27       			stx	__addr_reg+1
 8494                     			.bf_call
 8495  8062     20 F6 D2    			jsr	__banked_function_call
 8496  8065     08          			php
 8497  8066     78          			sei
 8498  8067     18          			clc
 8499  8068     A5 28       			lda	__stack_ptr
 8500  806A     69 03       			adc	#.low.3
 8501  806C     85 28       			sta	__stack_ptr
 8502  806E     A5 29       			lda	__stack_ptr+1
 8503  8070     69 00       			adc	#.high.3
 8504  8072     85 29       			sta	__stack_ptr+1
 8505  8074     28          			plp
 8506                     			.c_end	03836h,566
 8507                     	;GameMTTalk(2,330,0)
 8508                     			.c_start  0383eh,567
 8509  8075     A9 00       			lda	#0
 8510  8077     20 AA DA    			jsr	__store_char_funct_arg
 8511  807A     A9 4A       			lda	#.low.330
 8512  807C     85 20       			sta	__oper1
 8513  807E     A9 01       			lda	#.high.330
 8514  8080     85 21       			sta	__oper1+1
 8515  8082     20 CA DA    			jsr	__store_int_funct_arg
  Wed Jan 14 21:35:33 2026                                                                                               Page  151




 8516  8085     A9 02       			lda	#2
 8517  8087     A2 33       			ldx	#.low.&GameMTTalk
 8518  8089     86 26       			stx	__addr_reg
 8519  808B     A2 90       			ldx	#.high.&GameMTTalk+1
 8520  808D     86 27       			stx	__addr_reg+1
 8521                     			.bf_call
 8522  808F     20 F6 D2    			jsr	__banked_function_call
 8523  8092     08          			php
 8524  8093     78          			sei
 8525  8094     18          			clc
 8526  8095     A5 28       			lda	__stack_ptr
 8527  8097     69 03       			adc	#.low.3
 8528  8099     85 28       			sta	__stack_ptr
 8529  809B     A5 29       			lda	__stack_ptr+1
 8530  809D     69 00       			adc	#.high.3
 8531  809F     85 29       			sta	__stack_ptr+1
 8532  80A1     28          			plp
 8533                     			.c_end	03851h,567
 8534                     	;GameMTTalk(3,332,0)
 8535                     			.c_start  03859h,568
 8536  80A2     A9 00       			lda	#0
 8537  80A4     20 AA DA    			jsr	__store_char_funct_arg
 8538  80A7     A9 4C       			lda	#.low.332
 8539  80A9     85 20       			sta	__oper1
 8540  80AB     A9 01       			lda	#.high.332
 8541  80AD     85 21       			sta	__oper1+1
 8542  80AF     20 CA DA    			jsr	__store_int_funct_arg
 8543  80B2     A9 03       			lda	#3
 8544  80B4     A2 33       			ldx	#.low.&GameMTTalk
 8545  80B6     86 26       			stx	__addr_reg
 8546  80B8     A2 90       			ldx	#.high.&GameMTTalk+1
 8547  80BA     86 27       			stx	__addr_reg+1
 8548                     			.bf_call
 8549  80BC     20 F6 D2    			jsr	__banked_function_call
 8550  80BF     08          			php
 8551  80C0     78          			sei
 8552  80C1     18          			clc
 8553  80C2     A5 28       			lda	__stack_ptr
 8554  80C4     69 03       			adc	#.low.3
 8555  80C6     85 28       			sta	__stack_ptr
 8556  80C8     A5 29       			lda	__stack_ptr+1
 8557  80CA     69 00       			adc	#.high.3
 8558  80CC     85 29       			sta	__stack_ptr+1
 8559  80CE     28          			plp
 8560                     			.c_end	0386ch,568
 8561                     	;GameMTTalk(2,335,0)
 8562                     			.c_start  03874h,569
 8563  80CF     A9 00       			lda	#0
 8564  80D1     20 AA DA    			jsr	__store_char_funct_arg
 8565  80D4     A9 4F       			lda	#.low.335
 8566  80D6     85 20       			sta	__oper1
 8567  80D8     A9 01       			lda	#.high.335
 8568  80DA     85 21       			sta	__oper1+1
 8569  80DC     20 CA DA    			jsr	__store_int_funct_arg
 8570  80DF     A9 02       			lda	#2
 8571  80E1     A2 33       			ldx	#.low.&GameMTTalk
 8572  80E3     86 26       			stx	__addr_reg
  Wed Jan 14 21:35:33 2026                                                                                               Page  152




 8573  80E5     A2 90       			ldx	#.high.&GameMTTalk+1
 8574  80E7     86 27       			stx	__addr_reg+1
 8575                     			.bf_call
 8576  80E9     20 F6 D2    			jsr	__banked_function_call
 8577  80EC     08          			php
 8578  80ED     78          			sei
 8579  80EE     18          			clc
 8580  80EF     A5 28       			lda	__stack_ptr
 8581  80F1     69 03       			adc	#.low.3
 8582  80F3     85 28       			sta	__stack_ptr
 8583  80F5     A5 29       			lda	__stack_ptr+1
 8584  80F7     69 00       			adc	#.high.3
 8585  80F9     85 29       			sta	__stack_ptr+1
 8586  80FB     28          			plp
 8587                     			.c_end	03887h,569
 8588                     	;GameMTTalk(2,337,0)
 8589                     			.c_start  0388fh,570
 8590  80FC     A9 00       			lda	#0
 8591  80FE     20 AA DA    			jsr	__store_char_funct_arg
 8592  8101     A9 51       			lda	#.low.337
 8593  8103     85 20       			sta	__oper1
 8594  8105     A9 01       			lda	#.high.337
 8595  8107     85 21       			sta	__oper1+1
 8596  8109     20 CA DA    			jsr	__store_int_funct_arg
 8597  810C     A9 02       			lda	#2
 8598  810E     A2 33       			ldx	#.low.&GameMTTalk
 8599  8110     86 26       			stx	__addr_reg
 8600  8112     A2 90       			ldx	#.high.&GameMTTalk+1
 8601  8114     86 27       			stx	__addr_reg+1
 8602                     			.bf_call
 8603  8116     20 F6 D2    			jsr	__banked_function_call
 8604  8119     08          			php
 8605  811A     78          			sei
 8606  811B     18          			clc
 8607  811C     A5 28       			lda	__stack_ptr
 8608  811E     69 03       			adc	#.low.3
 8609  8120     85 28       			sta	__stack_ptr
 8610  8122     A5 29       			lda	__stack_ptr+1
 8611  8124     69 00       			adc	#.high.3
 8612  8126     85 29       			sta	__stack_ptr+1
 8613  8128     28          			plp
 8614                     			.c_end	038a2h,570
 8615                     	;GameMTBattle(32)
 8616                     			.c_start  038aah,571
 8617  8129     A9 20       			lda	#32
 8618  812B     A2 3C       			ldx	#.low.&GameMTBattle
 8619  812D     86 26       			stx	__addr_reg
 8620  812F     A2 90       			ldx	#.high.&GameMTBattle+1
 8621  8131     86 27       			stx	__addr_reg+1
 8622                     			.bf_call
 8623  8133     20 F6 D2    			jsr	__banked_function_call
 8624                     			.c_end	038bah,571
 8625                     	;((*g_GameMTJuidgeNow)+1==1)
 8626                     	;					
 8627                     			.if_top	038c2h,?BOL53,2,572
 8628  8136     A0 00       			ldy	#-22+?LSC0
 8629  8138     B1 28       			lda	(__stack_ptr),y
  Wed Jan 14 21:35:33 2026                                                                                               Page  153




 8630  813A     AA          			tax
 8631  813B     C8          			iny
 8632  813C     B1 28       			lda	(__stack_ptr),y
 8633  813E     85 27       			sta	__addr_reg+1
 8634  8140     86 26       			stx	__addr_reg
 8635  8142     A0 00       			ldy	#0
 8636  8144     B1 26       			lda	(__addr_reg),y
 8637  8146     18          			clc
 8638  8147     69 01       			adc	#1
 8639  8149     38          			sec
 8640  814A     E9 01       			sbc	#1
 8641  814C     F0 03       			beq	+3
 8642  814E     4C 35 82    			jmp	?BOL53
 8643         4617 8151   	?PLC51:		.equal	$
 8644                     			.c_end	038e0h,573
 8645                     	;GameMTTalk(4,339,0)
 8646                     			.c_start  038efh,574
 8647  8151     A9 00       			lda	#0
 8648  8153     20 AA DA    			jsr	__store_char_funct_arg
 8649  8156     A9 53       			lda	#.low.339
 8650  8158     85 20       			sta	__oper1
 8651  815A     A9 01       			lda	#.high.339
 8652  815C     85 21       			sta	__oper1+1
 8653  815E     20 CA DA    			jsr	__store_int_funct_arg
 8654  8161     A9 04       			lda	#4
 8655  8163     A2 33       			ldx	#.low.&GameMTTalk
 8656  8165     86 26       			stx	__addr_reg
 8657  8167     A2 90       			ldx	#.high.&GameMTTalk+1
 8658  8169     86 27       			stx	__addr_reg+1
 8659                     			.bf_call
 8660  816B     20 F6 D2    			jsr	__banked_function_call
 8661  816E     08          			php
 8662  816F     78          			sei
 8663  8170     18          			clc
 8664  8171     A5 28       			lda	__stack_ptr
 8665  8173     69 03       			adc	#.low.3
 8666  8175     85 28       			sta	__stack_ptr
 8667  8177     A5 29       			lda	__stack_ptr+1
 8668  8179     69 00       			adc	#.high.3
 8669  817B     85 29       			sta	__stack_ptr+1
 8670  817D     28          			plp
 8671                     			.c_end	03902h,574
 8672                     	;GameMTTalk(3,343,0)
 8673                     			.c_start  0390bh,575
 8674  817E     A9 00       			lda	#0
 8675  8180     20 AA DA    			jsr	__store_char_funct_arg
 8676  8183     A9 57       			lda	#.low.343
 8677  8185     85 20       			sta	__oper1
 8678  8187     A9 01       			lda	#.high.343
 8679  8189     85 21       			sta	__oper1+1
 8680  818B     20 CA DA    			jsr	__store_int_funct_arg
 8681  818E     A9 03       			lda	#3
 8682  8190     A2 33       			ldx	#.low.&GameMTTalk
 8683  8192     86 26       			stx	__addr_reg
 8684  8194     A2 90       			ldx	#.high.&GameMTTalk+1
 8685  8196     86 27       			stx	__addr_reg+1
 8686                     			.bf_call
  Wed Jan 14 21:35:33 2026                                                                                               Page  154




 8687  8198     20 F6 D2    			jsr	__banked_function_call
 8688  819B     08          			php
 8689  819C     78          			sei
 8690  819D     18          			clc
 8691  819E     A5 28       			lda	__stack_ptr
 8692  81A0     69 03       			adc	#.low.3
 8693  81A2     85 28       			sta	__stack_ptr
 8694  81A4     A5 29       			lda	__stack_ptr+1
 8695  81A6     69 00       			adc	#.high.3
 8696  81A8     85 29       			sta	__stack_ptr+1
 8697  81AA     28          			plp
 8698                     			.c_end	0391eh,575
 8699                     	;GameMTTalk(5,346,1)
 8700                     			.c_start  03927h,576
 8701  81AB     A9 01       			lda	#1
 8702  81AD     20 AA DA    			jsr	__store_char_funct_arg
 8703  81B0     A9 5A       			lda	#.low.346
 8704  81B2     85 20       			sta	__oper1
 8705  81B4     A9 01       			lda	#.high.346
 8706  81B6     85 21       			sta	__oper1+1
 8707  81B8     20 CA DA    			jsr	__store_int_funct_arg
 8708  81BB     A9 05       			lda	#5
 8709  81BD     A2 33       			ldx	#.low.&GameMTTalk
 8710  81BF     86 26       			stx	__addr_reg
 8711  81C1     A2 90       			ldx	#.high.&GameMTTalk+1
 8712  81C3     86 27       			stx	__addr_reg+1
 8713                     			.bf_call
 8714  81C5     20 F6 D2    			jsr	__banked_function_call
 8715  81C8     08          			php
 8716  81C9     78          			sei
 8717  81CA     18          			clc
 8718  81CB     A5 28       			lda	__stack_ptr
 8719  81CD     69 03       			adc	#.low.3
 8720  81CF     85 28       			sta	__stack_ptr
 8721  81D1     A5 29       			lda	__stack_ptr+1
 8722  81D3     69 00       			adc	#.high.3
 8723  81D5     85 29       			sta	__stack_ptr+1
 8724  81D7     28          			plp
 8725                     			.c_end	0393ah,576
 8726                     	;GameMTTalk(1,351,0)
 8727                     			.c_start  03943h,577
 8728  81D8     A9 00       			lda	#0
 8729  81DA     20 AA DA    			jsr	__store_char_funct_arg
 8730  81DD     A9 5F       			lda	#.low.351
 8731  81DF     85 20       			sta	__oper1
 8732  81E1     A9 01       			lda	#.high.351
 8733  81E3     85 21       			sta	__oper1+1
 8734  81E5     20 CA DA    			jsr	__store_int_funct_arg
 8735  81E8     A9 01       			lda	#1
 8736  81EA     A2 33       			ldx	#.low.&GameMTTalk
 8737  81EC     86 26       			stx	__addr_reg
 8738  81EE     A2 90       			ldx	#.high.&GameMTTalk+1
 8739  81F0     86 27       			stx	__addr_reg+1
 8740                     			.bf_call
 8741  81F2     20 F6 D2    			jsr	__banked_function_call
 8742  81F5     08          			php
 8743  81F6     78          			sei
  Wed Jan 14 21:35:33 2026                                                                                               Page  155




 8744  81F7     18          			clc
 8745  81F8     A5 28       			lda	__stack_ptr
 8746  81FA     69 03       			adc	#.low.3
 8747  81FC     85 28       			sta	__stack_ptr
 8748  81FE     A5 29       			lda	__stack_ptr+1
 8749  8200     69 00       			adc	#.high.3
 8750  8202     85 29       			sta	__stack_ptr+1
 8751  8204     28          			plp
 8752                     			.c_end	03956h,577
 8753                     	;g_GameMTCurMap[115]=9
 8754                     			.c_start  0395fh,578
 8755  8205     AD A8 1F    			lda	_g_GameMTCurMap
 8756  8208     85 20       			sta	__oper1
 8757  820A     AD A9 1F    			lda	_g_GameMTCurMap+1
 8758  820D     85 21       			sta	__oper1+1
 8759  820F     18          			clc
 8760  8210     A5 20       			lda	__oper1
 8761  8212     69 73       			adc	#.low.115
 8762  8214     85 20       			sta	__oper1
 8763  8216     A5 21       			lda	__oper1+1
 8764  8218     69 00       			adc	#.high.115
 8765  821A     85 21       			sta	__oper1+1
 8766  821C     A5 20       			lda	__oper1
 8767  821E     85 23       			sta	__oper2
 8768  8220     A5 21       			lda	__oper1+1
 8769  8222     85 24       			sta	__oper2+1
 8770  8224     A9 09       			lda	#9
 8771  8226     A0 00       			ldy	#0
 8772  8228     91 23       			sta	(__oper2),y
 8773                     			.c_end	03974h,578
 8774                     	;GameMTEndFace()
 8775                     			.c_start  0397dh,579
 8776  822A     A2 45       			ldx	#.low.&GameMTEndFace
 8777  822C     86 26       			stx	__addr_reg
 8778  822E     A2 90       			ldx	#.high.&GameMTEndFace+1
 8779  8230     86 27       			stx	__addr_reg+1
 8780                     			.bf_call
 8781  8232     20 F6 D2    			jsr	__banked_function_call
 8782                     			.c_end	0398ch,579
 8783                     	;
 8784                     	;
 8785         3316 8235   	?BOL53:		.equal	$
 8786         33F9 8235   	?EOI51:		.equal	$
 8787                     	;break;
 8788                     	;			
 8789                     			.sw_break
 8790  8235     4C CF 83    			jmp	?BOL14
 8791                     	;case	47:
 8792                     	;				
 8793         3616 8238   	?SWL47:		.equal	$
 8794                     	;(g_GameMTFloor==16)
 8795                     	;				
 8796                     			.if_top	039bbh,?BOL54,1,584
 8797  8238     AD A7 1F    			lda	_g_GameMTFloor
 8798  823B     38          			sec
 8799  823C     E9 10       			sbc	#16
 8800  823E     F0 03       			beq	+3
  Wed Jan 14 21:35:33 2026                                                                                               Page  156




 8801  8240     4C EB 82    			jmp	?BOL54
 8802         3117 8243   	?PLC52:		.equal	$
 8803                     			.c_end	039d1h,585
 8804                     	;GameMTTalk(2,235,0)
 8805                     			.c_start  039deh,586
 8806  8243     A9 00       			lda	#0
 8807  8245     20 AA DA    			jsr	__store_char_funct_arg
 8808  8248     A9 EB       			lda	#.low.235
 8809  824A     85 20       			sta	__oper1
 8810  824C     A9 00       			lda	#.high.235
 8811  824E     85 21       			sta	__oper1+1
 8812  8250     20 CA DA    			jsr	__store_int_funct_arg
 8813  8253     A9 02       			lda	#2
 8814  8255     A2 33       			ldx	#.low.&GameMTTalk
 8815  8257     86 26       			stx	__addr_reg
 8816  8259     A2 90       			ldx	#.high.&GameMTTalk+1
 8817  825B     86 27       			stx	__addr_reg+1
 8818                     			.bf_call
 8819  825D     20 F6 D2    			jsr	__banked_function_call
 8820  8260     08          			php
 8821  8261     78          			sei
 8822  8262     18          			clc
 8823  8263     A5 28       			lda	__stack_ptr
 8824  8265     69 03       			adc	#.low.3
 8825  8267     85 28       			sta	__stack_ptr
 8826  8269     A5 29       			lda	__stack_ptr+1
 8827  826B     69 00       			adc	#.high.3
 8828  826D     85 29       			sta	__stack_ptr+1
 8829  826F     28          			plp
 8830                     			.c_end	039f1h,586
 8831                     	;GameMTTalk(3,237,0)
 8832                     			.c_start  039f9h,587
 8833  8270     A9 00       			lda	#0
 8834  8272     20 AA DA    			jsr	__store_char_funct_arg
 8835  8275     A9 ED       			lda	#.low.237
 8836  8277     85 20       			sta	__oper1
 8837  8279     A9 00       			lda	#.high.237
 8838  827B     85 21       			sta	__oper1+1
 8839  827D     20 CA DA    			jsr	__store_int_funct_arg
 8840  8280     A9 03       			lda	#3
 8841  8282     A2 33       			ldx	#.low.&GameMTTalk
 8842  8284     86 26       			stx	__addr_reg
 8843  8286     A2 90       			ldx	#.high.&GameMTTalk+1
 8844  8288     86 27       			stx	__addr_reg+1
 8845                     			.bf_call
 8846  828A     20 F6 D2    			jsr	__banked_function_call
 8847  828D     08          			php
 8848  828E     78          			sei
 8849  828F     18          			clc
 8850  8290     A5 28       			lda	__stack_ptr
 8851  8292     69 03       			adc	#.low.3
 8852  8294     85 28       			sta	__stack_ptr
 8853  8296     A5 29       			lda	__stack_ptr+1
 8854  8298     69 00       			adc	#.high.3
 8855  829A     85 29       			sta	__stack_ptr+1
 8856  829C     28          			plp
 8857                     			.c_end	03a0ch,587
  Wed Jan 14 21:35:33 2026                                                                                               Page  157




 8858                     	;GameMTTalk(2,240,0)
 8859                     			.c_start  03a14h,588
 8860  829D     A9 00       			lda	#0
 8861  829F     20 AA DA    			jsr	__store_char_funct_arg
 8862  82A2     A9 F0       			lda	#.low.240
 8863  82A4     85 20       			sta	__oper1
 8864  82A6     A9 00       			lda	#.high.240
 8865  82A8     85 21       			sta	__oper1+1
 8866  82AA     20 CA DA    			jsr	__store_int_funct_arg
 8867  82AD     A9 02       			lda	#2
 8868  82AF     A2 33       			ldx	#.low.&GameMTTalk
 8869  82B1     86 26       			stx	__addr_reg
 8870  82B3     A2 90       			ldx	#.high.&GameMTTalk+1
 8871  82B5     86 27       			stx	__addr_reg+1
 8872                     			.bf_call
 8873  82B7     20 F6 D2    			jsr	__banked_function_call
 8874  82BA     08          			php
 8875  82BB     78          			sei
 8876  82BC     18          			clc
 8877  82BD     A5 28       			lda	__stack_ptr
 8878  82BF     69 03       			adc	#.low.3
 8879  82C1     85 28       			sta	__stack_ptr
 8880  82C3     A5 29       			lda	__stack_ptr+1
 8881  82C5     69 00       			adc	#.high.3
 8882  82C7     85 29       			sta	__stack_ptr+1
 8883  82C9     28          			plp
 8884                     			.c_end	03a27h,588
 8885                     	;GameMTBattle(*g_GameMTJuidgeNow-38)
 8886                     			.c_start  03a2fh,589
 8887  82CA     A0 00       			ldy	#-22+?LSC0
 8888  82CC     B1 28       			lda	(__stack_ptr),y
 8889  82CE     AA          			tax
 8890  82CF     C8          			iny
 8891  82D0     B1 28       			lda	(__stack_ptr),y
 8892  82D2     85 27       			sta	__addr_reg+1
 8893  82D4     86 26       			stx	__addr_reg
 8894  82D6     A0 00       			ldy	#0
 8895  82D8     B1 26       			lda	(__addr_reg),y
 8896  82DA     38          			sec
 8897  82DB     E9 26       			sbc	#38
 8898  82DD     A2 3C       			ldx	#.low.&GameMTBattle
 8899  82DF     86 26       			stx	__addr_reg
 8900  82E1     A2 90       			ldx	#.high.&GameMTBattle+1
 8901  82E3     86 27       			stx	__addr_reg+1
 8902                     			.bf_call
 8903  82E5     20 F6 D2    			jsr	__banked_function_call
 8904                     			.c_end	03a52h,589
 8905                     	;
 8906                     	;else 
 8907  82E8     4C F8 82    			jmp	?EOI54
 8908                     			.if_else  ?EOI54,1,591
 8909         3928 82EB   	?BOL54:		.equal	$
 8910                     	;GameMTBattle(31)
 8911                     			.c_start  03a65h,591
 8912  82EB     A9 1F       			lda	#31
 8913  82ED     A2 3C       			ldx	#.low.&GameMTBattle
 8914  82EF     86 26       			stx	__addr_reg
  Wed Jan 14 21:35:33 2026                                                                                               Page  158




 8915  82F1     A2 90       			ldx	#.high.&GameMTBattle+1
 8916  82F3     86 27       			stx	__addr_reg+1
 8917                     			.bf_call
 8918  82F5     20 F6 D2    			jsr	__banked_function_call
 8919                     			.c_end	03a75h,591
 8920                     	;;
 8921                     	;				
 8922         3629 82F8   	?EOI54:		.equal	$
 8923                     	;break;
 8924                     	;			
 8925                     			.sw_break
 8926  82F8     4C CF 83    			jmp	?BOL14
 8927                     	;case	38:
 8928                     	;			
 8929         3929 82FB   	?SWL48:		.equal	$
 8930                     	;case	39:
 8931                     	;			
 8932         3A0C 82FB   	?SWL49:		.equal	$
 8933                     	;case	40:
 8934                     	;			
 8935         3AEF 82FB   	?SWL50:		.equal	$
 8936                     	;case	41:
 8937                     	;			
 8938         3BD2 82FB   	?SWL51:		.equal	$
 8939                     	;case	42:
 8940                     	;			
 8941         3CB5 82FB   	?SWL52:		.equal	$
 8942                     	;case	43:
 8943                     	;			
 8944         3D98 82FB   	?SWL53:		.equal	$
 8945                     	;case	44:
 8946                     	;			
 8947         3E7B 82FB   	?SWL54:		.equal	$
 8948                     	;case	45:
 8949                     	;			
 8950         3F5E 82FB   	?SWL55:		.equal	$
 8951                     	;case	46:
 8952                     	;			
 8953         4041 82FB   	?SWL56:		.equal	$
 8954                     	;case	48:
 8955                     	;			
 8956         4124 82FB   	?SWL57:		.equal	$
 8957                     	;case	49:
 8958                     	;			
 8959         4207 82FB   	?SWL58:		.equal	$
 8960                     	;case	50:
 8961                     	;			
 8962         42EA 82FB   	?SWL59:		.equal	$
 8963                     	;case	51:
 8964                     	;			
 8965         43CD 82FB   	?SWL60:		.equal	$
 8966                     	;case	52:
 8967                     	;			
 8968         44B0 82FB   	?SWL61:		.equal	$
 8969                     	;case	53:
 8970                     	;			
 8971         4593 82FB   	?SWL62:		.equal	$
  Wed Jan 14 21:35:33 2026                                                                                               Page  159




 8972                     	;case	54:
 8973                     	;			
 8974         4676 82FB   	?SWL63:		.equal	$
 8975                     	;case	55:
 8976                     	;			
 8977         4759 82FB   	?SWL64:		.equal	$
 8978                     	;case	56:
 8979                     	;			
 8980         483C 82FB   	?SWL65:		.equal	$
 8981                     	;case	58:
 8982                     	;			
 8983         491F 82FB   	?SWL66:		.equal	$
 8984                     	;case	59:
 8985                     	;			
 8986         4A02 82FB   	?SWL67:		.equal	$
 8987                     	;case	60:
 8988                     	;			
 8989         4AE5 82FB   	?SWL68:		.equal	$
 8990                     	;case	61:
 8991                     	;			
 8992         4BC8 82FB   	?SWL69:		.equal	$
 8993                     	;case	62:
 8994                     	;			
 8995         4CAB 82FB   	?SWL70:		.equal	$
 8996                     	;case	63:
 8997                     	;			
 8998         4D8E 82FB   	?SWL71:		.equal	$
 8999                     	;case	64:
 9000                     	;			
 9001         4E71 82FB   	?SWL72:		.equal	$
 9002                     	;case	65:
 9003                     	;			
 9004         4F54 82FB   	?SWL73:		.equal	$
 9005                     	;case	66:
 9006                     	;			
 9007         5037 82FB   	?SWL74:		.equal	$
 9008                     	;case	67:
 9009                     	;			
 9010         511A 82FB   	?SWL75:		.equal	$
 9011                     	;case	68:
 9012                     	;				
 9013         51FD 82FB   	?SWL76:		.equal	$
 9014                     	;GameMTBattle(*g_GameMTJuidgeNow-38)
 9015                     			.c_start  03c01h,622
 9016  82FB     A0 00       			ldy	#-22+?LSC0
 9017  82FD     B1 28       			lda	(__stack_ptr),y
 9018  82FF     AA          			tax
 9019  8300     C8          			iny
 9020  8301     B1 28       			lda	(__stack_ptr),y
 9021  8303     85 27       			sta	__addr_reg+1
 9022  8305     86 26       			stx	__addr_reg
 9023  8307     A0 00       			ldy	#0
 9024  8309     B1 26       			lda	(__addr_reg),y
 9025  830B     38          			sec
 9026  830C     E9 26       			sbc	#38
 9027  830E     A2 3C       			ldx	#.low.&GameMTBattle
 9028  8310     86 26       			stx	__addr_reg
  Wed Jan 14 21:35:33 2026                                                                                               Page  160




 9029  8312     A2 90       			ldx	#.high.&GameMTBattle+1
 9030  8314     86 27       			stx	__addr_reg+1
 9031                     			.bf_call
 9032  8316     20 F6 D2    			jsr	__banked_function_call
 9033                     			.c_end	03c24h,622
 9034                     	;break;
 9035                     	;			
 9036                     			.sw_break
 9037  8319     4C CF 83    			jmp	?BOL14
 9038                     	;case	69:
 9039                     	;				
 9040         3A14 831C   	?SWL77:		.equal	$
 9041                     	;break;
 9042                     	;			
 9043                     			.sw_break
 9044  831C     4C CF 83    			jmp	?BOL14
 9045                     	;case	70:
 9046                     	;				
 9047         4414 831F   	?SWL78:		.equal	$
 9048                     	;GameMTTalk(2,147,0)
 9049                     			.c_start  03c5dh,627
 9050  831F     A9 00       			lda	#0
 9051  8321     20 AA DA    			jsr	__store_char_funct_arg
 9052  8324     A9 93       			lda	#.low.147
 9053  8326     85 20       			sta	__oper1
 9054  8328     A9 00       			lda	#.high.147
 9055  832A     85 21       			sta	__oper1+1
 9056  832C     20 CA DA    			jsr	__store_int_funct_arg
 9057  832F     A9 02       			lda	#2
 9058  8331     A2 33       			ldx	#.low.&GameMTTalk
 9059  8333     86 26       			stx	__addr_reg
 9060  8335     A2 90       			ldx	#.high.&GameMTTalk+1
 9061  8337     86 27       			stx	__addr_reg+1
 9062                     			.bf_call
 9063  8339     20 F6 D2    			jsr	__banked_function_call
 9064  833C     08          			php
 9065  833D     78          			sei
 9066  833E     18          			clc
 9067  833F     A5 28       			lda	__stack_ptr
 9068  8341     69 03       			adc	#.low.3
 9069  8343     85 28       			sta	__stack_ptr
 9070  8345     A5 29       			lda	__stack_ptr+1
 9071  8347     69 00       			adc	#.high.3
 9072  8349     85 29       			sta	__stack_ptr+1
 9073  834B     28          			plp
 9074                     			.c_end	03c70h,627
 9075                     	;break;
 9076                     	;			
 9077                     			.sw_break
 9078  834C     4C CF 83    			jmp	?BOL14
 9079                     	;case	71:
 9080                     	;				
 9081         4417 834F   	?SWL79:		.equal	$
 9082                     	;GameMTTalk(2,401,0)
 9083                     			.c_start  03c90h,630
 9084  834F     A9 00       			lda	#0
 9085  8351     20 AA DA    			jsr	__store_char_funct_arg
  Wed Jan 14 21:35:33 2026                                                                                               Page  161




 9086  8354     A9 91       			lda	#.low.401
 9087  8356     85 20       			sta	__oper1
 9088  8358     A9 01       			lda	#.high.401
 9089  835A     85 21       			sta	__oper1+1
 9090  835C     20 CA DA    			jsr	__store_int_funct_arg
 9091  835F     A9 02       			lda	#2
 9092  8361     A2 33       			ldx	#.low.&GameMTTalk
 9093  8363     86 26       			stx	__addr_reg
 9094  8365     A2 90       			ldx	#.high.&GameMTTalk+1
 9095  8367     86 27       			stx	__addr_reg+1
 9096                     			.bf_call
 9097  8369     20 F6 D2    			jsr	__banked_function_call
 9098  836C     08          			php
 9099  836D     78          			sei
 9100  836E     18          			clc
 9101  836F     A5 28       			lda	__stack_ptr
 9102  8371     69 03       			adc	#.low.3
 9103  8373     85 28       			sta	__stack_ptr
 9104  8375     A5 29       			lda	__stack_ptr+1
 9105  8377     69 00       			adc	#.high.3
 9106  8379     85 29       			sta	__stack_ptr+1
 9107  837B     28          			plp
 9108                     			.c_end	03ca3h,630
 9109                     	;g_GameMTHeroMoney+=300
 9110                     			.c_start  03caah,631
 9111  837C     AD A2 1F    			lda	_g_GameMTHeroMoney
 9112  837F     85 20       			sta	__oper1
 9113  8381     AD A3 1F    			lda	_g_GameMTHeroMoney+1
 9114  8384     85 21       			sta	__oper1+1
 9115  8386     A5 20       			lda	__oper1
 9116  8388     18          			clc
 9117  8389     69 2C       			adc	#.low.300
 9118  838B     85 20       			sta	__oper1
 9119  838D     A5 21       			lda	__oper1+1
 9120  838F     69 01       			adc	#.high.300
 9121  8391     85 21       			sta	__oper1+1
 9122  8393     A5 20       			lda	__oper1
 9123  8395     8D A2 1F    			sta	_g_GameMTHeroMoney
 9124  8398     A5 21       			lda	__oper1+1
 9125  839A     8D A3 1F    			sta	_g_GameMTHeroMoney+1
 9126                     			.c_end	03cc0h,631
 9127                     	;*g_GameMTJuidgeNow=0
 9128                     			.c_start  03cc7h,632
 9129  839D     A0 00       			ldy	#-22+?LSC0
 9130  839F     B1 28       			lda	(__stack_ptr),y
 9131  83A1     85 20       			sta	__oper1
 9132  83A3     C8          			iny
 9133  83A4     B1 28       			lda	(__stack_ptr),y
 9134  83A6     85 21       			sta	__oper1+1
 9135  83A8     A5 20       			lda	__oper1
 9136  83AA     85 23       			sta	__oper2
 9137  83AC     A5 21       			lda	__oper1+1
 9138  83AE     85 24       			sta	__oper2+1
 9139  83B0     A9 00       			lda	#0
 9140  83B2     A0 00       			ldy	#0
 9141  83B4     91 23       			sta	(__oper2),y
 9142                     			.c_end	03cdbh,632
  Wed Jan 14 21:35:33 2026                                                                                               Page  162




 9143                     	;GameMTReNewR()
 9144                     			.c_start  03ce2h,633
 9145  83B6     A2 57       			ldx	#.low.&GameMTReNewR
 9146  83B8     86 26       			stx	__addr_reg
 9147  83BA     A2 90       			ldx	#.high.&GameMTReNewR+1
 9148  83BC     86 27       			stx	__addr_reg+1
 9149                     			.bf_call
 9150  83BE     20 F6 D2    			jsr	__banked_function_call
 9151                     			.c_end	03cf0h,633
 9152                     	;break;
 9153                     	;			
 9154                     			.sw_break
 9155  83C1     4C CF 83    			jmp	?BOL14
 9156                     	;default:
 9157                     	;					
 9158         3226 83C4   	?SWL80:		.equal	$
 9159                     	;GameMTMove()
 9160                     			.c_start  03d11h,636
 9161  83C4     A2 36       			ldx	#.low.&GameMTMove
 9162  83C6     86 26       			stx	__addr_reg
 9163  83C8     A2 90       			ldx	#.high.&GameMTMove+1
 9164  83CA     86 27       			stx	__addr_reg+1
 9165                     			.bf_call
 9166  83CC     20 F6 D2    			jsr	__banked_function_call
 9167                     			.c_end	03d1dh,636
 9168                     	;
 9169         4426 83CF   	?BOL14:		.equal	$
 9170                     	;
 9171                     	;GameMTRefresh()
 9172                     			.c_start  03d27h,638
 9173  83CF     A2 30       			ldx	#.low.&GameMTRefresh
 9174  83D1     86 26       			stx	__addr_reg
 9175  83D3     A2 90       			ldx	#.high.&GameMTRefresh+1
 9176  83D5     86 27       			stx	__addr_reg+1
 9177                     			.bf_call
 9178  83D7     20 F6 D2    			jsr	__banked_function_call
 9179                     			.c_end	03d36h,638
 9180                     	;
 9181                     			.f_end	03d68h,640
 9182         3827 83DA   	?BOF0:		.equal	$
 9183  83DA     08          			php
 9184  83DB     78          			sei
 9185  83DC     18          			clc
 9186  83DD     A5 28       			lda	__stack_ptr
 9187  83DF     69 1C       			adc	#.low.+?LSC0+?TSC0+0
 9188  83E1     85 28       			sta	__stack_ptr
 9189  83E3     A5 29       			lda	__stack_ptr+1
 9190  83E5     69 00       			adc	#.high.+?LSC0+?TSC0+0
 9191  83E7     85 29       			sta	__stack_ptr+1
 9192  83E9     28          			plp
 9193                     			.f_return
 9194  83EA     60          			rts
 9195                     	;
 9196                     			.f_start  03f23h,652
 9197                     			.bank_table
 9198                     			.global	&GameMTMainMenu
 9199  9063     EB 83 E3    	&GameMTMainMenu:	.bankaddr	_GameMTMainMenu
  Wed Jan 14 21:35:33 2026                                                                                               Page  163




 9200                     			.ends
 9201         3419 83EB   	_GameMTMainMenu:	.equal	$
 9202                     			.attrib	_GameMTMainMenu,653,f,b
 9203                     	;
 9204                     	;
 9205         0000        	?ASC1:		.equal	0
 9206         0002        	?TSC1:		.equal	2
 9207         0002        	?LSC1:		.equal	2
 9208  83EB     08          			php
 9209  83EC     78          			sei
 9210  83ED     38          			sec
 9211  83EE     A5 28       			lda	__stack_ptr
 9212  83F0     E9 04       			sbc	#.low.+?LSC1+?TSC1
 9213  83F2     85 28       			sta	__stack_ptr
 9214  83F4     A5 29       			lda	__stack_ptr+1
 9215  83F6     E9 00       			sbc	#.high.+?LSC1+?TSC1
 9216  83F8     85 29       			sta	__stack_ptr+1
 9217  83FA     28          			plp
 9218                     	;unsigned char  choice=timeout;
 9219                     	;	
 9220                     			.local	_choice,654,v,c,u,d,d,d,d,-1+?LSC1+0,00h
 9221                     			.local	_timeout,654,v,c,u,d,d,d,d,-2+?LSC1+0,00h
 9222                     	;choice=1
 9223                     			.c_start  03f4eh,655
 9224  83FB     A0 01       			ldy	#-1+?LSC1
 9225  83FD     A9 01       			lda	#1
 9226  83FF     91 28       			sta	(__stack_ptr),y
 9227                     			.c_end	03f56h,655
 9228                     	;timeout=0
 9229                     			.c_start  03f5ah,656
 9230  8401     A0 00       			ldy	#-2+?LSC1
 9231  8403     A9 00       			lda	#0
 9232  8405     91 28       			sta	(__stack_ptr),y
 9233                     			.c_end	03f63h,656
 9234                     	;SysPicture(0,0,158,95,GameMTMainFace,0)
 9235                     			.c_start  03f67h,657
 9236  8407     A9 00       			lda	#0
 9237  8409     20 AA DA    			jsr	__store_char_funct_arg
 9238  840C     A9 0B       			lda	#.low._GameMTMainFace
 9239  840E     85 20       			sta	__oper1
 9240  8410     A9 C4       			lda	#.high._GameMTMainFace
 9241  8412     85 21       			sta	__oper1+1
 9242  8414     20 CA DA    			jsr	__store_int_funct_arg
 9243  8417     A9 5F       			lda	#95
 9244  8419     20 AA DA    			jsr	__store_char_funct_arg
 9245  841C     A9 9E       			lda	#.low.158
 9246  841E     85 20       			sta	__oper1
 9247  8420     A9 00       			lda	#.high.158
 9248  8422     85 21       			sta	__oper1+1
 9249  8424     A5 20       			lda	__oper1
 9250  8426     20 AA DA    			jsr	__store_char_funct_arg
 9251  8429     A9 00       			lda	#0
 9252  842B     20 AA DA    			jsr	__store_char_funct_arg
 9253  842E     A9 00       			lda	#0
 9254  8430     A2 8E       			ldx	#.low.&SysPicture
 9255  8432     86 26       			stx	__addr_reg
 9256  8434     A2 E7       			ldx	#.high.&SysPicture+1
  Wed Jan 14 21:35:33 2026                                                                                               Page  164




 9257  8436     86 27       			stx	__addr_reg+1
 9258                     			.bf_call
 9259  8438     20 F6 D2    			jsr	__banked_function_call
 9260  843B     08          			php
 9261  843C     78          			sei
 9262  843D     18          			clc
 9263  843E     A5 28       			lda	__stack_ptr
 9264  8440     69 06       			adc	#.low.6
 9265  8442     85 28       			sta	__stack_ptr
 9266  8444     A5 29       			lda	__stack_ptr+1
 9267  8446     69 00       			adc	#.high.6
 9268  8448     85 29       			sta	__stack_ptr+1
 9269  844A     28          			plp
 9270                     			.c_end	03f8eh,657
 9271                     	;SysRect(15,38,50,56)
 9272                     			.c_start  03f92h,658
 9273  844B     A9 38       			lda	#56
 9274  844D     20 AA DA    			jsr	__store_char_funct_arg
 9275  8450     A9 32       			lda	#50
 9276  8452     20 AA DA    			jsr	__store_char_funct_arg
 9277  8455     A9 26       			lda	#38
 9278  8457     20 AA DA    			jsr	__store_char_funct_arg
 9279  845A     A9 0F       			lda	#15
 9280  845C     A2 97       			ldx	#.low.&SysRect
 9281  845E     86 26       			stx	__addr_reg
 9282  8460     A2 E7       			ldx	#.high.&SysRect+1
 9283  8462     86 27       			stx	__addr_reg+1
 9284                     			.bf_call
 9285  8464     20 F6 D2    			jsr	__banked_function_call
 9286  8467     08          			php
 9287  8468     78          			sei
 9288  8469     18          			clc
 9289  846A     A5 28       			lda	__stack_ptr
 9290  846C     69 03       			adc	#.low.3
 9291  846E     85 28       			sta	__stack_ptr
 9292  8470     A5 29       			lda	__stack_ptr+1
 9293  8472     69 00       			adc	#.high.3
 9294  8474     85 29       			sta	__stack_ptr+1
 9295  8476     28          			plp
 9296                     			.c_end	03fa6h,658
 9297                     	;while
 9298         371A 8477   	?TOL55:		.equal	$
 9299                     	;(1)
 9300                     	;	
 9301                     			.whi_top  03faah,?BOL55,1,659
 9302  8477     A9 01       			lda	#1
 9303  8479     D0 03       			bne	+3
 9304  847B     4C 12 8A    			jmp	?BOL55
 9305         431A 847E   	?PLC53:		.equal	$
 9306                     			.c_end	03fb3h,660
 9307                     	;GameMTGetInput()
 9308                     			.c_start  03fbah,661
 9309  847E     A2 2D       			ldx	#.low.&GameMTGetInput
 9310  8480     86 26       			stx	__addr_reg
 9311  8482     A2 90       			ldx	#.high.&GameMTGetInput+1
 9312  8484     86 27       			stx	__addr_reg+1
 9313                     			.bf_call
  Wed Jan 14 21:35:33 2026                                                                                               Page  165




 9314  8486     20 F6 D2    			jsr	__banked_function_call
 9315                     			.c_end	03fcah,661
 9316                     	;(g_GameMTReadKey==7)
 9317                     			.if_top	03fcfh,?BOL56,2,662
 9318  8489     AD 06 18    			lda	_g_GameMTReadKey
 9319  848C     38          			sec
 9320  848D     E9 07       			sbc	#7
 9321  848F     F0 03       			beq	+3
 9322  8491     4C 99 84    			jmp	?BOL56
 9323         321C 8494   	?PLC54:		.equal	$
 9324                     			.c_end	03fe4h,662
 9325                     	;g_GameMTQuit=1
 9326                     			.c_start  03fcfh,662
 9327  8494     A9 01       			lda	#1
 9328  8496     8D 05 18    			sta	_g_GameMTQuit
 9329                     			.c_end	03ff6h,662
 9330                     	;;
 9331                     	;		
 9332                     	;(g_GameMTQuit)
 9333         371C 8499   	?BOL56:		.equal	$
 9334                     			.if_top	03ffbh,?BOL57,2,663
 9335  8499     AD 05 18    			lda	_g_GameMTQuit
 9336  849C     D0 03       			bne	+3
 9337  849E     4C A4 84    			jmp	?BOL57
 9338         461C 84A1   	?PLC55:		.equal	$
 9339                     			.c_end	0400ah,663
 9340                     	;break;
 9341                     	;		
 9342  84A1     4C 12 8A    			jmp	?BOL55
 9343                     	;(g_GameMTReadKey==16)
 9344                     	;		
 9345         3224 84A4   	?BOL57:		.equal	$
 9346                     			.if_top	04015h,?BOL58,2,664
 9347  84A4     AD 06 18    			lda	_g_GameMTReadKey
 9348  84A7     38          			sec
 9349  84A8     E9 10       			sbc	#16
 9350  84AA     F0 03       			beq	+3
 9351  84AC     4C 90 88    			jmp	?BOL58
 9352         4424 84AF   	?PLC56:		.equal	$
 9353                     			.c_end	0402dh,665
 9354                     	;timeout++
 9355                     			.c_start  04036h,666
 9356  84AF     A0 00       			ldy	#-2+?LSC1
 9357  84B1     B1 28       			lda	(__stack_ptr),y
 9358  84B3     18          			clc
 9359  84B4     69 01       			adc	#1
 9360  84B6     91 28       			sta	(__stack_ptr),y
 9361                     			.c_end	0403fh,666
 9362                     	;(timeout==1)
 9363                     	;			
 9364                     			.if_top	04045h,?BOL59,3,667
 9365  84B8     A0 00       			ldy	#-2+?LSC1
 9366  84BA     B1 28       			lda	(__stack_ptr),y
 9367  84BC     38          			sec
 9368  84BD     E9 01       			sbc	#1
 9369  84BF     F0 03       			beq	+3
 9370  84C1     4C A0 85    			jmp	?BOL59
  Wed Jan 14 21:35:33 2026                                                                                               Page  166




 9371         3226 84C4   	?PLC57:		.equal	$
 9372                     			.c_end	04054h,668
 9373                     	;SysPicture(123,14,129,17,GameMTEagle,0)
 9374                     			.c_start  0405fh,669
 9375  84C4     A9 00       			lda	#0
 9376  84C6     20 AA DA    			jsr	__store_char_funct_arg
 9377  84C9     A9 8B       			lda	#.low._GameMTEagle
 9378  84CB     85 20       			sta	__oper1
 9379  84CD     A9 CE       			lda	#.high._GameMTEagle
 9380  84CF     85 21       			sta	__oper1+1
 9381  84D1     20 CA DA    			jsr	__store_int_funct_arg
 9382  84D4     A9 11       			lda	#17
 9383  84D6     20 AA DA    			jsr	__store_char_funct_arg
 9384  84D9     A9 81       			lda	#.low.129
 9385  84DB     85 20       			sta	__oper1
 9386  84DD     A9 00       			lda	#.high.129
 9387  84DF     85 21       			sta	__oper1+1
 9388  84E1     A5 20       			lda	__oper1
 9389  84E3     20 AA DA    			jsr	__store_char_funct_arg
 9390  84E6     A9 0E       			lda	#14
 9391  84E8     20 AA DA    			jsr	__store_char_funct_arg
 9392  84EB     A9 7B       			lda	#123
 9393  84ED     A2 8E       			ldx	#.low.&SysPicture
 9394  84EF     86 26       			stx	__addr_reg
 9395  84F1     A2 E7       			ldx	#.high.&SysPicture+1
 9396  84F3     86 27       			stx	__addr_reg+1
 9397                     			.bf_call
 9398  84F5     20 F6 D2    			jsr	__banked_function_call
 9399  84F8     08          			php
 9400  84F9     78          			sei
 9401  84FA     18          			clc
 9402  84FB     A5 28       			lda	__stack_ptr
 9403  84FD     69 06       			adc	#.low.6
 9404  84FF     85 28       			sta	__stack_ptr
 9405  8501     A5 29       			lda	__stack_ptr+1
 9406  8503     69 00       			adc	#.high.6
 9407  8505     85 29       			sta	__stack_ptr+1
 9408  8507     28          			plp
 9409                     			.c_end	04086h,669
 9410                     	;SysPicture(133,28,139,31,GameMTEagle,0)
 9411                     			.c_start  0408dh,670
 9412  8508     A9 00       			lda	#0
 9413  850A     20 AA DA    			jsr	__store_char_funct_arg
 9414  850D     A9 8B       			lda	#.low._GameMTEagle
 9415  850F     85 20       			sta	__oper1
 9416  8511     A9 CE       			lda	#.high._GameMTEagle
 9417  8513     85 21       			sta	__oper1+1
 9418  8515     20 CA DA    			jsr	__store_int_funct_arg
 9419  8518     A9 1F       			lda	#31
 9420  851A     20 AA DA    			jsr	__store_char_funct_arg
 9421  851D     A9 8B       			lda	#.low.139
 9422  851F     85 20       			sta	__oper1
 9423  8521     A9 00       			lda	#.high.139
 9424  8523     85 21       			sta	__oper1+1
 9425  8525     A5 20       			lda	__oper1
 9426  8527     20 AA DA    			jsr	__store_char_funct_arg
 9427  852A     A9 1C       			lda	#28
  Wed Jan 14 21:35:33 2026                                                                                               Page  167




 9428  852C     20 AA DA    			jsr	__store_char_funct_arg
 9429  852F     A9 85       			lda	#.low.133
 9430  8531     85 20       			sta	__oper1
 9431  8533     A9 00       			lda	#.high.133
 9432  8535     85 21       			sta	__oper1+1
 9433  8537     A5 20       			lda	__oper1
 9434  8539     A2 8E       			ldx	#.low.&SysPicture
 9435  853B     86 26       			stx	__addr_reg
 9436  853D     A2 E7       			ldx	#.high.&SysPicture+1
 9437  853F     86 27       			stx	__addr_reg+1
 9438                     			.bf_call
 9439  8541     20 F6 D2    			jsr	__banked_function_call
 9440  8544     08          			php
 9441  8545     78          			sei
 9442  8546     18          			clc
 9443  8547     A5 28       			lda	__stack_ptr
 9444  8549     69 06       			adc	#.low.6
 9445  854B     85 28       			sta	__stack_ptr
 9446  854D     A5 29       			lda	__stack_ptr+1
 9447  854F     69 00       			adc	#.high.6
 9448  8551     85 29       			sta	__stack_ptr+1
 9449  8553     28          			plp
 9450                     			.c_end	040b4h,670
 9451                     	;SysPicture(140,15,146,18,GameMTEagle,0)
 9452                     			.c_start  040bbh,671
 9453  8554     A9 00       			lda	#0
 9454  8556     20 AA DA    			jsr	__store_char_funct_arg
 9455  8559     A9 8B       			lda	#.low._GameMTEagle
 9456  855B     85 20       			sta	__oper1
 9457  855D     A9 CE       			lda	#.high._GameMTEagle
 9458  855F     85 21       			sta	__oper1+1
 9459  8561     20 CA DA    			jsr	__store_int_funct_arg
 9460  8564     A9 12       			lda	#18
 9461  8566     20 AA DA    			jsr	__store_char_funct_arg
 9462  8569     A9 92       			lda	#.low.146
 9463  856B     85 20       			sta	__oper1
 9464  856D     A9 00       			lda	#.high.146
 9465  856F     85 21       			sta	__oper1+1
 9466  8571     A5 20       			lda	__oper1
 9467  8573     20 AA DA    			jsr	__store_char_funct_arg
 9468  8576     A9 0F       			lda	#15
 9469  8578     20 AA DA    			jsr	__store_char_funct_arg
 9470  857B     A9 8C       			lda	#.low.140
 9471  857D     85 20       			sta	__oper1
 9472  857F     A9 00       			lda	#.high.140
 9473  8581     85 21       			sta	__oper1+1
 9474  8583     A5 20       			lda	__oper1
 9475  8585     A2 8E       			ldx	#.low.&SysPicture
 9476  8587     86 26       			stx	__addr_reg
 9477  8589     A2 E7       			ldx	#.high.&SysPicture+1
 9478  858B     86 27       			stx	__addr_reg+1
 9479                     			.bf_call
 9480  858D     20 F6 D2    			jsr	__banked_function_call
 9481  8590     08          			php
 9482  8591     78          			sei
 9483  8592     18          			clc
 9484  8593     A5 28       			lda	__stack_ptr
  Wed Jan 14 21:35:33 2026                                                                                               Page  168




 9485  8595     69 06       			adc	#.low.6
 9486  8597     85 28       			sta	__stack_ptr
 9487  8599     A5 29       			lda	__stack_ptr+1
 9488  859B     69 00       			adc	#.high.6
 9489  859D     85 29       			sta	__stack_ptr+1
 9490  859F     28          			plp
 9491                     			.c_end	040e2h,671
 9492                     	;
 9493                     	;(timeout==5||timeout==9)
 9494                     	;			
 9495         471C 85A0   	?BOL59:		.equal	$
 9496                     			.if_top	040eeh,?BOL60,3,673
 9497  85A0     A0 00       			ldy	#-2+?LSC1
 9498  85A2     B1 28       			lda	(__stack_ptr),y
 9499  85A4     38          			sec
 9500  85A5     E9 05       			sbc	#5
 9501  85A7     D0 03       			bne	+3
 9502  85A9     4C B8 85    			jmp	?PLC58
 9503         3A24 85AC   	?OCC11:		.equal	$
 9504  85AC     A0 00       			ldy	#-2+?LSC1
 9505  85AE     B1 28       			lda	(__stack_ptr),y
 9506  85B0     38          			sec
 9507  85B1     E9 09       			sbc	#9
 9508  85B3     F0 03       			beq	+3
 9509  85B5     4C 15 87    			jmp	?BOL60
 9510         3625 85B8   	?PLC58:		.equal	$
 9511                     			.c_end	04109h,674
 9512                     	;SysPicture(123,14,129,17,GameMTEagle+8,0)
 9513                     			.c_start  04114h,675
 9514  85B8     A9 08       			lda	#.low.8
 9515  85BA     85 23       			sta	__oper2
 9516  85BC     A9 00       			lda	#.high.8
 9517  85BE     85 24       			sta	__oper2+1
 9518  85C0     A9 8B       			lda	#.low._GameMTEagle
 9519  85C2     85 20       			sta	__oper1
 9520  85C4     A9 CE       			lda	#.high._GameMTEagle
 9521  85C6     85 21       			sta	__oper1+1
 9522  85C8     18          			clc
 9523  85C9     A5 20       			lda	__oper1
 9524  85CB     65 23       			adc	__oper2
 9525  85CD     85 20       			sta	__oper1
 9526  85CF     A5 21       			lda	__oper1+1
 9527  85D1     65 24       			adc	__oper2+1
 9528  85D3     85 21       			sta	__oper1+1
 9529  85D5     A0 02       			ldy	#+0+?LSC1
 9530  85D7     A5 20       			lda	__oper1
 9531  85D9     91 28       			sta	(__stack_ptr),y
 9532  85DB     C8          			iny
 9533  85DC     A5 21       			lda	__oper1+1
 9534  85DE     91 28       			sta	(__stack_ptr),y
 9535  85E0     A9 00       			lda	#0
 9536  85E2     20 AA DA    			jsr	__store_char_funct_arg
 9537  85E5     A0 03       			ldy	#+0+?LSC1+1
 9538  85E7     B1 28       			lda	(__stack_ptr),y
 9539  85E9     85 20       			sta	__oper1
 9540  85EB     C8          			iny
 9541  85EC     B1 28       			lda	(__stack_ptr),y
  Wed Jan 14 21:35:33 2026                                                                                               Page  169




 9542  85EE     85 21       			sta	__oper1+1
 9543  85F0     20 CA DA    			jsr	__store_int_funct_arg
 9544  85F3     A9 11       			lda	#17
 9545  85F5     20 AA DA    			jsr	__store_char_funct_arg
 9546  85F8     A9 81       			lda	#.low.129
 9547  85FA     85 20       			sta	__oper1
 9548  85FC     A9 00       			lda	#.high.129
 9549  85FE     85 21       			sta	__oper1+1
 9550  8600     A5 20       			lda	__oper1
 9551  8602     20 AA DA    			jsr	__store_char_funct_arg
 9552  8605     A9 0E       			lda	#14
 9553  8607     20 AA DA    			jsr	__store_char_funct_arg
 9554  860A     A9 7B       			lda	#123
 9555  860C     A2 8E       			ldx	#.low.&SysPicture
 9556  860E     86 26       			stx	__addr_reg
 9557  8610     A2 E7       			ldx	#.high.&SysPicture+1
 9558  8612     86 27       			stx	__addr_reg+1
 9559                     			.bf_call
 9560  8614     20 F6 D2    			jsr	__banked_function_call
 9561  8617     08          			php
 9562  8618     78          			sei
 9563  8619     18          			clc
 9564  861A     A5 28       			lda	__stack_ptr
 9565  861C     69 06       			adc	#.low.6
 9566  861E     85 28       			sta	__stack_ptr
 9567  8620     A5 29       			lda	__stack_ptr+1
 9568  8622     69 00       			adc	#.high.6
 9569  8624     85 29       			sta	__stack_ptr+1
 9570  8626     28          			plp
 9571                     			.c_end	0413dh,675
 9572                     	;SysPicture(133,28,139,31,GameMTEagle+8,0)
 9573                     			.c_start  04144h,676
 9574  8627     A9 08       			lda	#.low.8
 9575  8629     85 23       			sta	__oper2
 9576  862B     A9 00       			lda	#.high.8
 9577  862D     85 24       			sta	__oper2+1
 9578  862F     A9 8B       			lda	#.low._GameMTEagle
 9579  8631     85 20       			sta	__oper1
 9580  8633     A9 CE       			lda	#.high._GameMTEagle
 9581  8635     85 21       			sta	__oper1+1
 9582  8637     18          			clc
 9583  8638     A5 20       			lda	__oper1
 9584  863A     65 23       			adc	__oper2
 9585  863C     85 20       			sta	__oper1
 9586  863E     A5 21       			lda	__oper1+1
 9587  8640     65 24       			adc	__oper2+1
 9588  8642     85 21       			sta	__oper1+1
 9589  8644     A0 02       			ldy	#+0+?LSC1
 9590  8646     A5 20       			lda	__oper1
 9591  8648     91 28       			sta	(__stack_ptr),y
 9592  864A     C8          			iny
 9593  864B     A5 21       			lda	__oper1+1
 9594  864D     91 28       			sta	(__stack_ptr),y
 9595  864F     A9 00       			lda	#0
 9596  8651     20 AA DA    			jsr	__store_char_funct_arg
 9597  8654     A0 03       			ldy	#+0+?LSC1+1
 9598  8656     B1 28       			lda	(__stack_ptr),y
  Wed Jan 14 21:35:33 2026                                                                                               Page  170




 9599  8658     85 20       			sta	__oper1
 9600  865A     C8          			iny
 9601  865B     B1 28       			lda	(__stack_ptr),y
 9602  865D     85 21       			sta	__oper1+1
 9603  865F     20 CA DA    			jsr	__store_int_funct_arg
 9604  8662     A9 1F       			lda	#31
 9605  8664     20 AA DA    			jsr	__store_char_funct_arg
 9606  8667     A9 8B       			lda	#.low.139
 9607  8669     85 20       			sta	__oper1
 9608  866B     A9 00       			lda	#.high.139
 9609  866D     85 21       			sta	__oper1+1
 9610  866F     A5 20       			lda	__oper1
 9611  8671     20 AA DA    			jsr	__store_char_funct_arg
 9612  8674     A9 1C       			lda	#28
 9613  8676     20 AA DA    			jsr	__store_char_funct_arg
 9614  8679     A9 85       			lda	#.low.133
 9615  867B     85 20       			sta	__oper1
 9616  867D     A9 00       			lda	#.high.133
 9617  867F     85 21       			sta	__oper1+1
 9618  8681     A5 20       			lda	__oper1
 9619  8683     A2 8E       			ldx	#.low.&SysPicture
 9620  8685     86 26       			stx	__addr_reg
 9621  8687     A2 E7       			ldx	#.high.&SysPicture+1
 9622  8689     86 27       			stx	__addr_reg+1
 9623                     			.bf_call
 9624  868B     20 F6 D2    			jsr	__banked_function_call
 9625  868E     08          			php
 9626  868F     78          			sei
 9627  8690     18          			clc
 9628  8691     A5 28       			lda	__stack_ptr
 9629  8693     69 06       			adc	#.low.6
 9630  8695     85 28       			sta	__stack_ptr
 9631  8697     A5 29       			lda	__stack_ptr+1
 9632  8699     69 00       			adc	#.high.6
 9633  869B     85 29       			sta	__stack_ptr+1
 9634  869D     28          			plp
 9635                     			.c_end	0416dh,676
 9636                     	;SysPicture(140,15,146,18,GameMTEagle+8,0)
 9637                     			.c_start  04174h,677
 9638  869E     A9 08       			lda	#.low.8
 9639  86A0     85 23       			sta	__oper2
 9640  86A2     A9 00       			lda	#.high.8
 9641  86A4     85 24       			sta	__oper2+1
 9642  86A6     A9 8B       			lda	#.low._GameMTEagle
 9643  86A8     85 20       			sta	__oper1
 9644  86AA     A9 CE       			lda	#.high._GameMTEagle
 9645  86AC     85 21       			sta	__oper1+1
 9646  86AE     18          			clc
 9647  86AF     A5 20       			lda	__oper1
 9648  86B1     65 23       			adc	__oper2
 9649  86B3     85 20       			sta	__oper1
 9650  86B5     A5 21       			lda	__oper1+1
 9651  86B7     65 24       			adc	__oper2+1
 9652  86B9     85 21       			sta	__oper1+1
 9653  86BB     A0 02       			ldy	#+0+?LSC1
 9654  86BD     A5 20       			lda	__oper1
 9655  86BF     91 28       			sta	(__stack_ptr),y
  Wed Jan 14 21:35:33 2026                                                                                               Page  171




 9656  86C1     C8          			iny
 9657  86C2     A5 21       			lda	__oper1+1
 9658  86C4     91 28       			sta	(__stack_ptr),y
 9659  86C6     A9 00       			lda	#0
 9660  86C8     20 AA DA    			jsr	__store_char_funct_arg
 9661  86CB     A0 03       			ldy	#+0+?LSC1+1
 9662  86CD     B1 28       			lda	(__stack_ptr),y
 9663  86CF     85 20       			sta	__oper1
 9664  86D1     C8          			iny
 9665  86D2     B1 28       			lda	(__stack_ptr),y
 9666  86D4     85 21       			sta	__oper1+1
 9667  86D6     20 CA DA    			jsr	__store_int_funct_arg
 9668  86D9     A9 12       			lda	#18
 9669  86DB     20 AA DA    			jsr	__store_char_funct_arg
 9670  86DE     A9 92       			lda	#.low.146
 9671  86E0     85 20       			sta	__oper1
 9672  86E2     A9 00       			lda	#.high.146
 9673  86E4     85 21       			sta	__oper1+1
 9674  86E6     A5 20       			lda	__oper1
 9675  86E8     20 AA DA    			jsr	__store_char_funct_arg
 9676  86EB     A9 0F       			lda	#15
 9677  86ED     20 AA DA    			jsr	__store_char_funct_arg
 9678  86F0     A9 8C       			lda	#.low.140
 9679  86F2     85 20       			sta	__oper1
 9680  86F4     A9 00       			lda	#.high.140
 9681  86F6     85 21       			sta	__oper1+1
 9682  86F8     A5 20       			lda	__oper1
 9683  86FA     A2 8E       			ldx	#.low.&SysPicture
 9684  86FC     86 26       			stx	__addr_reg
 9685  86FE     A2 E7       			ldx	#.high.&SysPicture+1
 9686  8700     86 27       			stx	__addr_reg+1
 9687                     			.bf_call
 9688  8702     20 F6 D2    			jsr	__banked_function_call
 9689  8705     08          			php
 9690  8706     78          			sei
 9691  8707     18          			clc
 9692  8708     A5 28       			lda	__stack_ptr
 9693  870A     69 06       			adc	#.low.6
 9694  870C     85 28       			sta	__stack_ptr
 9695  870E     A5 29       			lda	__stack_ptr+1
 9696  8710     69 00       			adc	#.high.6
 9697  8712     85 29       			sta	__stack_ptr+1
 9698  8714     28          			plp
 9699                     			.c_end	0419dh,677
 9700                     	;
 9701                     	;(timeout==7)
 9702                     	;			
 9703         3514 8715   	?BOL60:		.equal	$
 9704                     			.if_top	041a9h,?BOL61,3,679
 9705  8715     A0 00       			ldy	#-2+?LSC1
 9706  8717     B1 28       			lda	(__stack_ptr),y
 9707  8719     38          			sec
 9708  871A     E9 07       			sbc	#7
 9709  871C     F0 03       			beq	+3
 9710  871E     4C 7E 88    			jmp	?BOL61
 9711         4614 8721   	?PLC59:		.equal	$
 9712                     			.c_end	041b8h,680
  Wed Jan 14 21:35:33 2026                                                                                               Page  172




 9713                     	;SysPicture(123,14,129,17,GameMTEagle+4,0)
 9714                     			.c_start  041c3h,681
 9715  8721     A9 04       			lda	#.low.4
 9716  8723     85 23       			sta	__oper2
 9717  8725     A9 00       			lda	#.high.4
 9718  8727     85 24       			sta	__oper2+1
 9719  8729     A9 8B       			lda	#.low._GameMTEagle
 9720  872B     85 20       			sta	__oper1
 9721  872D     A9 CE       			lda	#.high._GameMTEagle
 9722  872F     85 21       			sta	__oper1+1
 9723  8731     18          			clc
 9724  8732     A5 20       			lda	__oper1
 9725  8734     65 23       			adc	__oper2
 9726  8736     85 20       			sta	__oper1
 9727  8738     A5 21       			lda	__oper1+1
 9728  873A     65 24       			adc	__oper2+1
 9729  873C     85 21       			sta	__oper1+1
 9730  873E     A0 02       			ldy	#+0+?LSC1
 9731  8740     A5 20       			lda	__oper1
 9732  8742     91 28       			sta	(__stack_ptr),y
 9733  8744     C8          			iny
 9734  8745     A5 21       			lda	__oper1+1
 9735  8747     91 28       			sta	(__stack_ptr),y
 9736  8749     A9 00       			lda	#0
 9737  874B     20 AA DA    			jsr	__store_char_funct_arg
 9738  874E     A0 03       			ldy	#+0+?LSC1+1
 9739  8750     B1 28       			lda	(__stack_ptr),y
 9740  8752     85 20       			sta	__oper1
 9741  8754     C8          			iny
 9742  8755     B1 28       			lda	(__stack_ptr),y
 9743  8757     85 21       			sta	__oper1+1
 9744  8759     20 CA DA    			jsr	__store_int_funct_arg
 9745  875C     A9 11       			lda	#17
 9746  875E     20 AA DA    			jsr	__store_char_funct_arg
 9747  8761     A9 81       			lda	#.low.129
 9748  8763     85 20       			sta	__oper1
 9749  8765     A9 00       			lda	#.high.129
 9750  8767     85 21       			sta	__oper1+1
 9751  8769     A5 20       			lda	__oper1
 9752  876B     20 AA DA    			jsr	__store_char_funct_arg
 9753  876E     A9 0E       			lda	#14
 9754  8770     20 AA DA    			jsr	__store_char_funct_arg
 9755  8773     A9 7B       			lda	#123
 9756  8775     A2 8E       			ldx	#.low.&SysPicture
 9757  8777     86 26       			stx	__addr_reg
 9758  8779     A2 E7       			ldx	#.high.&SysPicture+1
 9759  877B     86 27       			stx	__addr_reg+1
 9760                     			.bf_call
 9761  877D     20 F6 D2    			jsr	__banked_function_call
 9762  8780     08          			php
 9763  8781     78          			sei
 9764  8782     18          			clc
 9765  8783     A5 28       			lda	__stack_ptr
 9766  8785     69 06       			adc	#.low.6
 9767  8787     85 28       			sta	__stack_ptr
 9768  8789     A5 29       			lda	__stack_ptr+1
 9769  878B     69 00       			adc	#.high.6
  Wed Jan 14 21:35:33 2026                                                                                               Page  173




 9770  878D     85 29       			sta	__stack_ptr+1
 9771  878F     28          			plp
 9772                     			.c_end	041ech,681
 9773                     	;SysPicture(133,28,139,31,GameMTEagle+4,0)
 9774                     			.c_start  041f3h,682
 9775  8790     A9 04       			lda	#.low.4
 9776  8792     85 23       			sta	__oper2
 9777  8794     A9 00       			lda	#.high.4
 9778  8796     85 24       			sta	__oper2+1
 9779  8798     A9 8B       			lda	#.low._GameMTEagle
 9780  879A     85 20       			sta	__oper1
 9781  879C     A9 CE       			lda	#.high._GameMTEagle
 9782  879E     85 21       			sta	__oper1+1
 9783  87A0     18          			clc
 9784  87A1     A5 20       			lda	__oper1
 9785  87A3     65 23       			adc	__oper2
 9786  87A5     85 20       			sta	__oper1
 9787  87A7     A5 21       			lda	__oper1+1
 9788  87A9     65 24       			adc	__oper2+1
 9789  87AB     85 21       			sta	__oper1+1
 9790  87AD     A0 02       			ldy	#+0+?LSC1
 9791  87AF     A5 20       			lda	__oper1
 9792  87B1     91 28       			sta	(__stack_ptr),y
 9793  87B3     C8          			iny
 9794  87B4     A5 21       			lda	__oper1+1
 9795  87B6     91 28       			sta	(__stack_ptr),y
 9796  87B8     A9 00       			lda	#0
 9797  87BA     20 AA DA    			jsr	__store_char_funct_arg
 9798  87BD     A0 03       			ldy	#+0+?LSC1+1
 9799  87BF     B1 28       			lda	(__stack_ptr),y
 9800  87C1     85 20       			sta	__oper1
 9801  87C3     C8          			iny
 9802  87C4     B1 28       			lda	(__stack_ptr),y
 9803  87C6     85 21       			sta	__oper1+1
 9804  87C8     20 CA DA    			jsr	__store_int_funct_arg
 9805  87CB     A9 1F       			lda	#31
 9806  87CD     20 AA DA    			jsr	__store_char_funct_arg
 9807  87D0     A9 8B       			lda	#.low.139
 9808  87D2     85 20       			sta	__oper1
 9809  87D4     A9 00       			lda	#.high.139
 9810  87D6     85 21       			sta	__oper1+1
 9811  87D8     A5 20       			lda	__oper1
 9812  87DA     20 AA DA    			jsr	__store_char_funct_arg
 9813  87DD     A9 1C       			lda	#28
 9814  87DF     20 AA DA    			jsr	__store_char_funct_arg
 9815  87E2     A9 85       			lda	#.low.133
 9816  87E4     85 20       			sta	__oper1
 9817  87E6     A9 00       			lda	#.high.133
 9818  87E8     85 21       			sta	__oper1+1
 9819  87EA     A5 20       			lda	__oper1
 9820  87EC     A2 8E       			ldx	#.low.&SysPicture
 9821  87EE     86 26       			stx	__addr_reg
 9822  87F0     A2 E7       			ldx	#.high.&SysPicture+1
 9823  87F2     86 27       			stx	__addr_reg+1
 9824                     			.bf_call
 9825  87F4     20 F6 D2    			jsr	__banked_function_call
 9826  87F7     08          			php
  Wed Jan 14 21:35:33 2026                                                                                               Page  174




 9827  87F8     78          			sei
 9828  87F9     18          			clc
 9829  87FA     A5 28       			lda	__stack_ptr
 9830  87FC     69 06       			adc	#.low.6
 9831  87FE     85 28       			sta	__stack_ptr
 9832  8800     A5 29       			lda	__stack_ptr+1
 9833  8802     69 00       			adc	#.high.6
 9834  8804     85 29       			sta	__stack_ptr+1
 9835  8806     28          			plp
 9836                     			.c_end	0421ch,682
 9837                     	;SysPicture(140,15,146,18,GameMTEagle+4,0)
 9838                     			.c_start  04223h,683
 9839  8807     A9 04       			lda	#.low.4
 9840  8809     85 23       			sta	__oper2
 9841  880B     A9 00       			lda	#.high.4
 9842  880D     85 24       			sta	__oper2+1
 9843  880F     A9 8B       			lda	#.low._GameMTEagle
 9844  8811     85 20       			sta	__oper1
 9845  8813     A9 CE       			lda	#.high._GameMTEagle
 9846  8815     85 21       			sta	__oper1+1
 9847  8817     18          			clc
 9848  8818     A5 20       			lda	__oper1
 9849  881A     65 23       			adc	__oper2
 9850  881C     85 20       			sta	__oper1
 9851  881E     A5 21       			lda	__oper1+1
 9852  8820     65 24       			adc	__oper2+1
 9853  8822     85 21       			sta	__oper1+1
 9854  8824     A0 02       			ldy	#+0+?LSC1
 9855  8826     A5 20       			lda	__oper1
 9856  8828     91 28       			sta	(__stack_ptr),y
 9857  882A     C8          			iny
 9858  882B     A5 21       			lda	__oper1+1
 9859  882D     91 28       			sta	(__stack_ptr),y
 9860  882F     A9 00       			lda	#0
 9861  8831     20 AA DA    			jsr	__store_char_funct_arg
 9862  8834     A0 03       			ldy	#+0+?LSC1+1
 9863  8836     B1 28       			lda	(__stack_ptr),y
 9864  8838     85 20       			sta	__oper1
 9865  883A     C8          			iny
 9866  883B     B1 28       			lda	(__stack_ptr),y
 9867  883D     85 21       			sta	__oper1+1
 9868  883F     20 CA DA    			jsr	__store_int_funct_arg
 9869  8842     A9 12       			lda	#18
 9870  8844     20 AA DA    			jsr	__store_char_funct_arg
 9871  8847     A9 92       			lda	#.low.146
 9872  8849     85 20       			sta	__oper1
 9873  884B     A9 00       			lda	#.high.146
 9874  884D     85 21       			sta	__oper1+1
 9875  884F     A5 20       			lda	__oper1
 9876  8851     20 AA DA    			jsr	__store_char_funct_arg
 9877  8854     A9 0F       			lda	#15
 9878  8856     20 AA DA    			jsr	__store_char_funct_arg
 9879  8859     A9 8C       			lda	#.low.140
 9880  885B     85 20       			sta	__oper1
 9881  885D     A9 00       			lda	#.high.140
 9882  885F     85 21       			sta	__oper1+1
 9883  8861     A5 20       			lda	__oper1
  Wed Jan 14 21:35:33 2026                                                                                               Page  175




 9884  8863     A2 8E       			ldx	#.low.&SysPicture
 9885  8865     86 26       			stx	__addr_reg
 9886  8867     A2 E7       			ldx	#.high.&SysPicture+1
 9887  8869     86 27       			stx	__addr_reg+1
 9888                     			.bf_call
 9889  886B     20 F6 D2    			jsr	__banked_function_call
 9890  886E     08          			php
 9891  886F     78          			sei
 9892  8870     18          			clc
 9893  8871     A5 28       			lda	__stack_ptr
 9894  8873     69 06       			adc	#.low.6
 9895  8875     85 28       			sta	__stack_ptr
 9896  8877     A5 29       			lda	__stack_ptr+1
 9897  8879     69 00       			adc	#.high.6
 9898  887B     85 29       			sta	__stack_ptr+1
 9899  887D     28          			plp
 9900                     			.c_end	0424ch,683
 9901                     	;
 9902                     	;(timeout==11)
 9903         451A 887E   	?BOL61:		.equal	$
 9904                     			.if_top	04258h,?BOL62,3,685
 9905  887E     A0 00       			ldy	#-2+?LSC1
 9906  8880     B1 28       			lda	(__stack_ptr),y
 9907  8882     38          			sec
 9908  8883     E9 0B       			sbc	#11
 9909  8885     F0 03       			beq	+3
 9910  8887     4C 90 88    			jmp	?BOL62
 9911         381B 888A   	?PLC60:		.equal	$
 9912                     			.c_end	04266h,685
 9913                     	;timeout=0
 9914                     			.c_start  04258h,685
 9915  888A     A0 00       			ldy	#-2+?LSC1
 9916  888C     A9 00       			lda	#0
 9917  888E     91 28       			sta	(__stack_ptr),y
 9918                     			.c_end	04270h,685
 9919                     	;;
 9920                     	;		
 9921                     	;
 9922         461B 8890   	?BOL62:		.equal	$
 9923                     	;(g_GameMTReadKey==3)
 9924                     	;		
 9925         46FE 8890   	?BOL58:		.equal	$
 9926                     			.if_top	0427ah,?BOL63,2,687
 9927  8890     AD 06 18    			lda	_g_GameMTReadKey
 9928  8893     38          			sec
 9929  8894     E9 03       			sbc	#3
 9930  8896     F0 03       			beq	+3
 9931  8898     4C F9 88    			jmp	?BOL63
 9932         391C 889B   	?PLC61:		.equal	$
 9933                     			.c_end	04291h,688
 9934                     	;choice=1
 9935                     			.c_start  0429ah,689
 9936  889B     A0 01       			ldy	#-1+?LSC1
 9937  889D     A9 01       			lda	#1
 9938  889F     91 28       			sta	(__stack_ptr),y
 9939                     			.c_end	042a2h,689
 9940                     	;SysRect(15,38,50,56)
  Wed Jan 14 21:35:33 2026                                                                                               Page  176




 9941                     			.c_start  042a8h,690
 9942  88A1     A9 38       			lda	#56
 9943  88A3     20 AA DA    			jsr	__store_char_funct_arg
 9944  88A6     A9 32       			lda	#50
 9945  88A8     20 AA DA    			jsr	__store_char_funct_arg
 9946  88AB     A9 26       			lda	#38
 9947  88AD     20 AA DA    			jsr	__store_char_funct_arg
 9948  88B0     A9 0F       			lda	#15
 9949  88B2     A2 97       			ldx	#.low.&SysRect
 9950  88B4     86 26       			stx	__addr_reg
 9951  88B6     A2 E7       			ldx	#.high.&SysRect+1
 9952  88B8     86 27       			stx	__addr_reg+1
 9953                     			.bf_call
 9954  88BA     20 F6 D2    			jsr	__banked_function_call
 9955  88BD     08          			php
 9956  88BE     78          			sei
 9957  88BF     18          			clc
 9958  88C0     A5 28       			lda	__stack_ptr
 9959  88C2     69 03       			adc	#.low.3
 9960  88C4     85 28       			sta	__stack_ptr
 9961  88C6     A5 29       			lda	__stack_ptr+1
 9962  88C8     69 00       			adc	#.high.3
 9963  88CA     85 29       			sta	__stack_ptr+1
 9964  88CC     28          			plp
 9965                     			.c_end	042bch,690
 9966                     	;SysRectClear(15,57,50,75)
 9967                     			.c_start  042c2h,691
 9968  88CD     A9 4B       			lda	#75
 9969  88CF     20 AA DA    			jsr	__store_char_funct_arg
 9970  88D2     A9 32       			lda	#50
 9971  88D4     20 AA DA    			jsr	__store_char_funct_arg
 9972  88D7     A9 39       			lda	#57
 9973  88D9     20 AA DA    			jsr	__store_char_funct_arg
 9974  88DC     A9 0F       			lda	#15
 9975  88DE     A2 BF       			ldx	#.low.&SysRectClear
 9976  88E0     86 26       			stx	__addr_reg
 9977  88E2     A2 E8       			ldx	#.high.&SysRectClear+1
 9978  88E4     86 27       			stx	__addr_reg+1
 9979                     			.bf_call
 9980  88E6     20 F6 D2    			jsr	__banked_function_call
 9981  88E9     08          			php
 9982  88EA     78          			sei
 9983  88EB     18          			clc
 9984  88EC     A5 28       			lda	__stack_ptr
 9985  88EE     69 03       			adc	#.low.3
 9986  88F0     85 28       			sta	__stack_ptr
 9987  88F2     A5 29       			lda	__stack_ptr+1
 9988  88F4     69 00       			adc	#.high.3
 9989  88F6     85 29       			sta	__stack_ptr+1
 9990  88F8     28          			plp
 9991                     			.c_end	042dbh,691
 9992                     	;
 9993                     	;(g_GameMTReadKey==4)
 9994                     	;		
 9995         3929 88F9   	?BOL63:		.equal	$
 9996                     			.if_top	042e5h,?BOL64,2,693
 9997  88F9     AD 06 18    			lda	_g_GameMTReadKey
  Wed Jan 14 21:35:33 2026                                                                                               Page  177




 9998  88FC     38          			sec
 9999  88FD     E9 04       			sbc	#4
10000  88FF     F0 03       			beq	+3
10001  8901     4C 62 89    			jmp	?BOL64
10002         3213 8904   	?PLC62:		.equal	$
10003                     			.c_end	042fch,694
10004                     	;choice=2
10005                     			.c_start  04305h,695
10006  8904     A0 01       			ldy	#-1+?LSC1
10007  8906     A9 02       			lda	#2
10008  8908     91 28       			sta	(__stack_ptr),y
10009                     			.c_end	0430dh,695
10010                     	;SysRect(15,57,50,75)
10011                     			.c_start  04313h,696
10012  890A     A9 4B       			lda	#75
10013  890C     20 AA DA    			jsr	__store_char_funct_arg
10014  890F     A9 32       			lda	#50
10015  8911     20 AA DA    			jsr	__store_char_funct_arg
10016  8914     A9 39       			lda	#57
10017  8916     20 AA DA    			jsr	__store_char_funct_arg
10018  8919     A9 0F       			lda	#15
10019  891B     A2 97       			ldx	#.low.&SysRect
10020  891D     86 26       			stx	__addr_reg
10021  891F     A2 E7       			ldx	#.high.&SysRect+1
10022  8921     86 27       			stx	__addr_reg+1
10023                     			.bf_call
10024  8923     20 F6 D2    			jsr	__banked_function_call
10025  8926     08          			php
10026  8927     78          			sei
10027  8928     18          			clc
10028  8929     A5 28       			lda	__stack_ptr
10029  892B     69 03       			adc	#.low.3
10030  892D     85 28       			sta	__stack_ptr
10031  892F     A5 29       			lda	__stack_ptr+1
10032  8931     69 00       			adc	#.high.3
10033  8933     85 29       			sta	__stack_ptr+1
10034  8935     28          			plp
10035                     			.c_end	04327h,696
10036                     	;SysRectClear(15,38,50,56)
10037                     			.c_start  0432dh,697
10038  8936     A9 38       			lda	#56
10039  8938     20 AA DA    			jsr	__store_char_funct_arg
10040  893B     A9 32       			lda	#50
10041  893D     20 AA DA    			jsr	__store_char_funct_arg
10042  8940     A9 26       			lda	#38
10043  8942     20 AA DA    			jsr	__store_char_funct_arg
10044  8945     A9 0F       			lda	#15
10045  8947     A2 BF       			ldx	#.low.&SysRectClear
10046  8949     86 26       			stx	__addr_reg
10047  894B     A2 E8       			ldx	#.high.&SysRectClear+1
10048  894D     86 27       			stx	__addr_reg+1
10049                     			.bf_call
10050  894F     20 F6 D2    			jsr	__banked_function_call
10051  8952     08          			php
10052  8953     78          			sei
10053  8954     18          			clc
10054  8955     A5 28       			lda	__stack_ptr
  Wed Jan 14 21:35:33 2026                                                                                               Page  178




10055  8957     69 03       			adc	#.low.3
10056  8959     85 28       			sta	__stack_ptr
10057  895B     A5 29       			lda	__stack_ptr+1
10058  895D     69 00       			adc	#.high.3
10059  895F     85 29       			sta	__stack_ptr+1
10060  8961     28          			plp
10061                     			.c_end	04346h,697
10062                     	;
10063                     	;(g_GameMTReadKey==6)
10064                     	;		
10065         3219 8962   	?BOL64:		.equal	$
10066                     			.if_top	04350h,?BOL65,2,699
10067  8962     AD 06 18    			lda	_g_GameMTReadKey
10068  8965     38          			sec
10069  8966     E9 06       			sbc	#6
10070  8968     F0 03       			beq	+3
10071  896A     4C 0F 8A    			jmp	?BOL65
10072         4219 896D   	?PLC63:		.equal	$
10073                     			.c_end	04367h,700
10074                     	;(choice==1)
10075                     			.if_top	04370h,?BOL66,3,701
10076  896D     A0 01       			ldy	#-1+?LSC1
10077  896F     B1 28       			lda	(__stack_ptr),y
10078  8971     38          			sec
10079  8972     E9 01       			sbc	#1
10080  8974     F0 03       			beq	+3
10081  8976     4C 7C 89    			jmp	?BOL66
10082         371A 8979   	?PLC64:		.equal	$
10083                     			.c_end	0437ch,701
10084                     	;break;
10085                     	;			
10086  8979     4C 12 8A    			jmp	?BOL55
10087                     	;(choice==2)
10088                     	;			
10089         3A1A 897C   	?BOL66:		.equal	$
10090                     			.if_top	04388h,?BOL67,3,702
10091  897C     A0 01       			ldy	#-1+?LSC1
10092  897E     B1 28       			lda	(__stack_ptr),y
10093  8980     38          			sec
10094  8981     E9 02       			sbc	#2
10095  8983     F0 03       			beq	+3
10096  8985     4C 0F 8A    			jmp	?BOL67
10097         361B 8988   	?PLC65:		.equal	$
10098                     			.c_end	04396h,703
10099                     	;GameMTTalk(3,487,0)
10100                     			.c_start  043a1h,704
10101  8988     A9 00       			lda	#0
10102  898A     20 AA DA    			jsr	__store_char_funct_arg
10103  898D     A9 E7       			lda	#.low.487
10104  898F     85 20       			sta	__oper1
10105  8991     A9 01       			lda	#.high.487
10106  8993     85 21       			sta	__oper1+1
10107  8995     20 CA DA    			jsr	__store_int_funct_arg
10108  8998     A9 03       			lda	#3
10109  899A     A2 33       			ldx	#.low.&GameMTTalk
10110  899C     86 26       			stx	__addr_reg
10111  899E     A2 90       			ldx	#.high.&GameMTTalk+1
  Wed Jan 14 21:35:33 2026                                                                                               Page  179




10112  89A0     86 27       			stx	__addr_reg+1
10113                     			.bf_call
10114  89A2     20 F6 D2    			jsr	__banked_function_call
10115  89A5     08          			php
10116  89A6     78          			sei
10117  89A7     18          			clc
10118  89A8     A5 28       			lda	__stack_ptr
10119  89AA     69 03       			adc	#.low.3
10120  89AC     85 28       			sta	__stack_ptr
10121  89AE     A5 29       			lda	__stack_ptr+1
10122  89B0     69 00       			adc	#.high.3
10123  89B2     85 29       			sta	__stack_ptr+1
10124  89B4     28          			plp
10125                     			.c_end	043b4h,704
10126                     	;GameMTTalk(2,490,0)
10127                     			.c_start  043bbh,705
10128  89B5     A9 00       			lda	#0
10129  89B7     20 AA DA    			jsr	__store_char_funct_arg
10130  89BA     A9 EA       			lda	#.low.490
10131  89BC     85 20       			sta	__oper1
10132  89BE     A9 01       			lda	#.high.490
10133  89C0     85 21       			sta	__oper1+1
10134  89C2     20 CA DA    			jsr	__store_int_funct_arg
10135  89C5     A9 02       			lda	#2
10136  89C7     A2 33       			ldx	#.low.&GameMTTalk
10137  89C9     86 26       			stx	__addr_reg
10138  89CB     A2 90       			ldx	#.high.&GameMTTalk+1
10139  89CD     86 27       			stx	__addr_reg+1
10140                     			.bf_call
10141  89CF     20 F6 D2    			jsr	__banked_function_call
10142  89D2     08          			php
10143  89D3     78          			sei
10144  89D4     18          			clc
10145  89D5     A5 28       			lda	__stack_ptr
10146  89D7     69 03       			adc	#.low.3
10147  89D9     85 28       			sta	__stack_ptr
10148  89DB     A5 29       			lda	__stack_ptr+1
10149  89DD     69 00       			adc	#.high.3
10150  89DF     85 29       			sta	__stack_ptr+1
10151  89E1     28          			plp
10152                     			.c_end	043ceh,705
10153                     	;GameMTTalk(2,492,0)
10154                     			.c_start  043d5h,706
10155  89E2     A9 00       			lda	#0
10156  89E4     20 AA DA    			jsr	__store_char_funct_arg
10157  89E7     A9 EC       			lda	#.low.492
10158  89E9     85 20       			sta	__oper1
10159  89EB     A9 01       			lda	#.high.492
10160  89ED     85 21       			sta	__oper1+1
10161  89EF     20 CA DA    			jsr	__store_int_funct_arg
10162  89F2     A9 02       			lda	#2
10163  89F4     A2 33       			ldx	#.low.&GameMTTalk
10164  89F6     86 26       			stx	__addr_reg
10165  89F8     A2 90       			ldx	#.high.&GameMTTalk+1
10166  89FA     86 27       			stx	__addr_reg+1
10167                     			.bf_call
10168  89FC     20 F6 D2    			jsr	__banked_function_call
  Wed Jan 14 21:35:33 2026                                                                                               Page  180




10169  89FF     08          			php
10170  8A00     78          			sei
10171  8A01     18          			clc
10172  8A02     A5 28       			lda	__stack_ptr
10173  8A04     69 03       			adc	#.low.3
10174  8A06     85 28       			sta	__stack_ptr
10175  8A08     A5 29       			lda	__stack_ptr+1
10176  8A0A     69 00       			adc	#.high.3
10177  8A0C     85 29       			sta	__stack_ptr+1
10178  8A0E     28          			plp
10179                     			.c_end	043e8h,706
10180                     	;
10181                     	;
10182         4613 8A0F   	?BOL67:		.equal	$
10183                     	;
10184         46F6 8A0F   	?BOL65:		.equal	$
10185                     			.whi_bot  1,709
10186  8A0F     4C 77 84    			jmp	?TOL55
10187         4713 8A12   	?BOL55:		.equal	$
10188                     	;
10189                     			.f_end	043fah,710
10190         47F6 8A12   	?BOF1:		.equal	$
10191  8A12     08          			php
10192  8A13     78          			sei
10193  8A14     18          			clc
10194  8A15     A5 28       			lda	__stack_ptr
10195  8A17     69 04       			adc	#.low.+?LSC1+?TSC1+0
10196  8A19     85 28       			sta	__stack_ptr
10197  8A1B     A5 29       			lda	__stack_ptr+1
10198  8A1D     69 00       			adc	#.high.+?LSC1+?TSC1+0
10199  8A1F     85 29       			sta	__stack_ptr+1
10200  8A21     28          			plp
10201                     			.f_return
10202  8A22     60          			rts
10203                     	;
10204                     			.f_start  045b2h,722
10205                     			.bank_table
10206                     			.global	&GameMTEnd
10207  9066     23 8A E3    	&GameMTEnd:	.bankaddr	_GameMTEnd
10208                     			.ends
10209         3719 8A23   	_GameMTEnd:	.equal	$
10210                     			.attrib	_GameMTEnd,723,f,b
10211                     	;
10212                     	;
10213         0000        	?ASC2:		.equal	0
10214         0000        	?TSC2:		.equal	0
10215         0008        	?LSC2:		.equal	8
10216  8A23     08          			php
10217  8A24     78          			sei
10218  8A25     38          			sec
10219  8A26     A5 28       			lda	__stack_ptr
10220  8A28     E9 08       			sbc	#.low.+?LSC2+?TSC2
10221  8A2A     85 28       			sta	__stack_ptr
10222  8A2C     A5 29       			lda	__stack_ptr+1
10223  8A2E     E9 00       			sbc	#.high.+?LSC2+?TSC2
10224  8A30     85 29       			sta	__stack_ptr+1
10225  8A32     28          			plp
  Wed Jan 14 21:35:33 2026                                                                                               Page  181




10226                     	;unsigned char 	temp[8];
10227                     	;	
10228                     			.local	_temp,724,v,c,u,d,d,d,d,-8+?LSC2+0,08h,00h
10229                     	;g_GameMTInit=1
10230                     			.c_start  045d1h,725
10231  8A33     A9 01       			lda	#1
10232  8A35     8D 04 18    			sta	_g_GameMTInit
10233                     			.c_end	045e2h,725
10234                     	;SysLcdPartClear(0,0,158,95)
10235                     			.c_start  045e6h,726
10236  8A38     A9 5F       			lda	#95
10237  8A3A     20 AA DA    			jsr	__store_char_funct_arg
10238  8A3D     A9 9E       			lda	#.low.158
10239  8A3F     85 20       			sta	__oper1
10240  8A41     A9 00       			lda	#.high.158
10241  8A43     85 21       			sta	__oper1+1
10242  8A45     A5 20       			lda	__oper1
10243  8A47     20 AA DA    			jsr	__store_char_funct_arg
10244  8A4A     A9 00       			lda	#0
10245  8A4C     20 AA DA    			jsr	__store_char_funct_arg
10246  8A4F     A9 00       			lda	#0
10247  8A51     A2 5D       			ldx	#.low.&SysLcdPartClear
10248  8A53     86 26       			stx	__addr_reg
10249  8A55     A2 E8       			ldx	#.high.&SysLcdPartClear+1
10250  8A57     86 27       			stx	__addr_reg+1
10251                     			.bf_call
10252  8A59     20 F6 D2    			jsr	__banked_function_call
10253  8A5C     08          			php
10254  8A5D     78          			sei
10255  8A5E     18          			clc
10256  8A5F     A5 28       			lda	__stack_ptr
10257  8A61     69 03       			adc	#.low.3
10258  8A63     85 28       			sta	__stack_ptr
10259  8A65     A5 29       			lda	__stack_ptr+1
10260  8A67     69 00       			adc	#.high.3
10261  8A69     85 29       			sta	__stack_ptr+1
10262  8A6B     28          			plp
10263                     			.c_end	04601h,726
10264                     	;(g_GameMTDeadLine+1>1)
10265                     	;	
10266                     			.if_top	04605h,?BOL68,1,727
10267  8A6C     AD 01 18    			lda	_g_GameMTDeadLine
10268  8A6F     18          			clc
10269  8A70     69 01       			adc	#1
10270  8A72     38          			sec
10271  8A73     E9 01       			sbc	#1
10272  8A75     B0 03       			bcs	+3
10273  8A77     4C 3F 8C    			jmp	?BOL68
10274  8A7A     D0 03       			bne	+3
10275  8A7C     4C 3F 8C    			jmp	?BOL68
10276         441A 8A7F   	?PLC66:		.equal	$
10277                     			.c_end	0461eh,728
10278                     	;GameMTTalk(5,366,1)
10279                     			.c_start  04625h,729
10280  8A7F     A9 01       			lda	#1
10281  8A81     20 AA DA    			jsr	__store_char_funct_arg
10282  8A84     A9 6E       			lda	#.low.366
  Wed Jan 14 21:35:33 2026                                                                                               Page  182




10283  8A86     85 20       			sta	__oper1
10284  8A88     A9 01       			lda	#.high.366
10285  8A8A     85 21       			sta	__oper1+1
10286  8A8C     20 CA DA    			jsr	__store_int_funct_arg
10287  8A8F     A9 05       			lda	#5
10288  8A91     A2 33       			ldx	#.low.&GameMTTalk
10289  8A93     86 26       			stx	__addr_reg
10290  8A95     A2 90       			ldx	#.high.&GameMTTalk+1
10291  8A97     86 27       			stx	__addr_reg+1
10292                     			.bf_call
10293  8A99     20 F6 D2    			jsr	__banked_function_call
10294  8A9C     08          			php
10295  8A9D     78          			sei
10296  8A9E     18          			clc
10297  8A9F     A5 28       			lda	__stack_ptr
10298  8AA1     69 03       			adc	#.low.3
10299  8AA3     85 28       			sta	__stack_ptr
10300  8AA5     A5 29       			lda	__stack_ptr+1
10301  8AA7     69 00       			adc	#.high.3
10302  8AA9     85 29       			sta	__stack_ptr+1
10303  8AAB     28          			plp
10304                     			.c_end	04638h,729
10305                     	;GameMTTalk(4,371,1)
10306                     			.c_start  0463dh,730
10307  8AAC     A9 01       			lda	#1
10308  8AAE     20 AA DA    			jsr	__store_char_funct_arg
10309  8AB1     A9 73       			lda	#.low.371
10310  8AB3     85 20       			sta	__oper1
10311  8AB5     A9 01       			lda	#.high.371
10312  8AB7     85 21       			sta	__oper1+1
10313  8AB9     20 CA DA    			jsr	__store_int_funct_arg
10314  8ABC     A9 04       			lda	#4
10315  8ABE     A2 33       			ldx	#.low.&GameMTTalk
10316  8AC0     86 26       			stx	__addr_reg
10317  8AC2     A2 90       			ldx	#.high.&GameMTTalk+1
10318  8AC4     86 27       			stx	__addr_reg+1
10319                     			.bf_call
10320  8AC6     20 F6 D2    			jsr	__banked_function_call
10321  8AC9     08          			php
10322  8ACA     78          			sei
10323  8ACB     18          			clc
10324  8ACC     A5 28       			lda	__stack_ptr
10325  8ACE     69 03       			adc	#.low.3
10326  8AD0     85 28       			sta	__stack_ptr
10327  8AD2     A5 29       			lda	__stack_ptr+1
10328  8AD4     69 00       			adc	#.high.3
10329  8AD6     85 29       			sta	__stack_ptr+1
10330  8AD8     28          			plp
10331                     			.c_end	04650h,730
10332                     	;GameMTTalk(5,375,1)
10333                     			.c_start  04655h,731
10334  8AD9     A9 01       			lda	#1
10335  8ADB     20 AA DA    			jsr	__store_char_funct_arg
10336  8ADE     A9 77       			lda	#.low.375
10337  8AE0     85 20       			sta	__oper1
10338  8AE2     A9 01       			lda	#.high.375
10339  8AE4     85 21       			sta	__oper1+1
  Wed Jan 14 21:35:33 2026                                                                                               Page  183




10340  8AE6     20 CA DA    			jsr	__store_int_funct_arg
10341  8AE9     A9 05       			lda	#5
10342  8AEB     A2 33       			ldx	#.low.&GameMTTalk
10343  8AED     86 26       			stx	__addr_reg
10344  8AEF     A2 90       			ldx	#.high.&GameMTTalk+1
10345  8AF1     86 27       			stx	__addr_reg+1
10346                     			.bf_call
10347  8AF3     20 F6 D2    			jsr	__banked_function_call
10348  8AF6     08          			php
10349  8AF7     78          			sei
10350  8AF8     18          			clc
10351  8AF9     A5 28       			lda	__stack_ptr
10352  8AFB     69 03       			adc	#.low.3
10353  8AFD     85 28       			sta	__stack_ptr
10354  8AFF     A5 29       			lda	__stack_ptr+1
10355  8B01     69 00       			adc	#.high.3
10356  8B03     85 29       			sta	__stack_ptr+1
10357  8B05     28          			plp
10358                     			.c_end	04668h,731
10359                     	;GameMTTalk(3,380,0)
10360                     			.c_start  0466dh,732
10361  8B06     A9 00       			lda	#0
10362  8B08     20 AA DA    			jsr	__store_char_funct_arg
10363  8B0B     A9 7C       			lda	#.low.380
10364  8B0D     85 20       			sta	__oper1
10365  8B0F     A9 01       			lda	#.high.380
10366  8B11     85 21       			sta	__oper1+1
10367  8B13     20 CA DA    			jsr	__store_int_funct_arg
10368  8B16     A9 03       			lda	#3
10369  8B18     A2 33       			ldx	#.low.&GameMTTalk
10370  8B1A     86 26       			stx	__addr_reg
10371  8B1C     A2 90       			ldx	#.high.&GameMTTalk+1
10372  8B1E     86 27       			stx	__addr_reg+1
10373                     			.bf_call
10374  8B20     20 F6 D2    			jsr	__banked_function_call
10375  8B23     08          			php
10376  8B24     78          			sei
10377  8B25     18          			clc
10378  8B26     A5 28       			lda	__stack_ptr
10379  8B28     69 03       			adc	#.low.3
10380  8B2A     85 28       			sta	__stack_ptr
10381  8B2C     A5 29       			lda	__stack_ptr+1
10382  8B2E     69 00       			adc	#.high.3
10383  8B30     85 29       			sta	__stack_ptr+1
10384  8B32     28          			plp
10385                     			.c_end	04680h,732
10386                     	;SysRect(31,9,128,74)
10387                     			.c_start  04685h,733
10388  8B33     A9 4A       			lda	#74
10389  8B35     20 AA DA    			jsr	__store_char_funct_arg
10390  8B38     A9 80       			lda	#.low.128
10391  8B3A     85 20       			sta	__oper1
10392  8B3C     A9 00       			lda	#.high.128
10393  8B3E     85 21       			sta	__oper1+1
10394  8B40     A5 20       			lda	__oper1
10395  8B42     20 AA DA    			jsr	__store_char_funct_arg
10396  8B45     A9 09       			lda	#9
  Wed Jan 14 21:35:33 2026                                                                                               Page  184




10397  8B47     20 AA DA    			jsr	__store_char_funct_arg
10398  8B4A     A9 1F       			lda	#31
10399  8B4C     A2 97       			ldx	#.low.&SysRect
10400  8B4E     86 26       			stx	__addr_reg
10401  8B50     A2 E7       			ldx	#.high.&SysRect+1
10402  8B52     86 27       			stx	__addr_reg+1
10403                     			.bf_call
10404  8B54     20 F6 D2    			jsr	__banked_function_call
10405  8B57     08          			php
10406  8B58     78          			sei
10407  8B59     18          			clc
10408  8B5A     A5 28       			lda	__stack_ptr
10409  8B5C     69 03       			adc	#.low.3
10410  8B5E     85 28       			sta	__stack_ptr
10411  8B60     A5 29       			lda	__stack_ptr+1
10412  8B62     69 00       			adc	#.high.3
10413  8B64     85 29       			sta	__stack_ptr+1
10414  8B66     28          			plp
10415                     			.c_end	04699h,733
10416                     	;SysPicture(32,10,127,73,GameMTHappyEnd,0)
10417                     			.c_start  0469eh,734
10418  8B67     A9 00       			lda	#0
10419  8B69     20 AA DA    			jsr	__store_char_funct_arg
10420  8B6C     A9 8B       			lda	#.low._GameMTHappyEnd
10421  8B6E     85 20       			sta	__oper1
10422  8B70     A9 CB       			lda	#.high._GameMTHappyEnd
10423  8B72     85 21       			sta	__oper1+1
10424  8B74     20 CA DA    			jsr	__store_int_funct_arg
10425  8B77     A9 49       			lda	#73
10426  8B79     20 AA DA    			jsr	__store_char_funct_arg
10427  8B7C     A9 7F       			lda	#127
10428  8B7E     20 AA DA    			jsr	__store_char_funct_arg
10429  8B81     A9 0A       			lda	#10
10430  8B83     20 AA DA    			jsr	__store_char_funct_arg
10431  8B86     A9 20       			lda	#32
10432  8B88     A2 8E       			ldx	#.low.&SysPicture
10433  8B8A     86 26       			stx	__addr_reg
10434  8B8C     A2 E7       			ldx	#.high.&SysPicture+1
10435  8B8E     86 27       			stx	__addr_reg+1
10436                     			.bf_call
10437  8B90     20 F6 D2    			jsr	__banked_function_call
10438  8B93     08          			php
10439  8B94     78          			sei
10440  8B95     18          			clc
10441  8B96     A5 28       			lda	__stack_ptr
10442  8B98     69 06       			adc	#.low.6
10443  8B9A     85 28       			sta	__stack_ptr
10444  8B9C     A5 29       			lda	__stack_ptr+1
10445  8B9E     69 00       			adc	#.high.6
10446  8BA0     85 29       			sta	__stack_ptr+1
10447  8BA2     28          			plp
10448                     			.c_end	046c7h,734
10449                     	;SysMemcpy(temp,"THE END\0",8)
10450                     			.c_start  046cch,735
10451                     			.const_data_psfar3
10452  8E80     54 48 45 20 45 	?PLC67:		.byte	"THE END",0o,0
              4E 44 00 00 
  Wed Jan 14 21:35:33 2026                                                                                               Page  185




10453                     			.program_psfar3
10454  8BA3     A9 08       			lda	#.low.8
10455  8BA5     85 20       			sta	__oper1
10456  8BA7     A9 00       			lda	#.high.8
10457  8BA9     85 21       			sta	__oper1+1
10458  8BAB     20 CA DA    			jsr	__store_int_funct_arg
10459  8BAE     A9 80       			lda	#.low.?PLC67
10460  8BB0     85 20       			sta	__oper1
10461  8BB2     A9 8E       			lda	#.high.?PLC67
10462  8BB4     85 21       			sta	__oper1+1
10463  8BB6     20 CA DA    			jsr	__store_int_funct_arg
10464  8BB9     18          			clc
10465  8BBA     A5 28       			lda	__stack_ptr
10466  8BBC     69 04       			adc	#.low.-8+?LSC2+4
10467  8BBE     85 20       			sta	__oper1
10468  8BC0     A5 29       			lda	__stack_ptr+1
10469  8BC2     69 00       			adc	#.high.-8+?LSC2+4
10470  8BC4     85 21       			sta	__oper1+1
10471  8BC6     20 CA DA    			jsr	__store_int_funct_arg
10472                     			.f_call	_SysMemcpy
10473  8BC9     20 01 E9    			jsr	_SysMemcpy
10474  8BCC     08          			php
10475  8BCD     78          			sei
10476  8BCE     18          			clc
10477  8BCF     A5 28       			lda	__stack_ptr
10478  8BD1     69 06       			adc	#.low.6
10479  8BD3     85 28       			sta	__stack_ptr
10480  8BD5     A5 29       			lda	__stack_ptr+1
10481  8BD7     69 00       			adc	#.high.6
10482  8BD9     85 29       			sta	__stack_ptr+1
10483  8BDB     28          			plp
10484                     			.c_end	046e9h,735
10485                     	;SysPrintString(52,78,temp)
10486                     			.c_start  046eeh,736
10487  8BDC     18          			clc
10488  8BDD     A5 28       			lda	__stack_ptr
10489  8BDF     69 00       			adc	#.low.-8+?LSC2
10490  8BE1     85 20       			sta	__oper1
10491  8BE3     A5 29       			lda	__stack_ptr+1
10492  8BE5     69 00       			adc	#.high.-8+?LSC2
10493  8BE7     85 21       			sta	__oper1+1
10494  8BE9     20 CA DA    			jsr	__store_int_funct_arg
10495  8BEC     A9 4E       			lda	#78
10496  8BEE     20 AA DA    			jsr	__store_char_funct_arg
10497  8BF1     A9 34       			lda	#52
10498  8BF3     A2 9A       			ldx	#.low.&SysPrintString
10499  8BF5     86 26       			stx	__addr_reg
10500  8BF7     A2 E7       			ldx	#.high.&SysPrintString+1
10501  8BF9     86 27       			stx	__addr_reg+1
10502                     			.bf_call
10503  8BFB     20 F6 D2    			jsr	__banked_function_call
10504  8BFE     08          			php
10505  8BFF     78          			sei
10506  8C00     18          			clc
10507  8C01     A5 28       			lda	__stack_ptr
10508  8C03     69 03       			adc	#.low.3
10509  8C05     85 28       			sta	__stack_ptr
  Wed Jan 14 21:35:33 2026                                                                                               Page  186




10510  8C07     A5 29       			lda	__stack_ptr+1
10511  8C09     69 00       			adc	#.high.3
10512  8C0B     85 29       			sta	__stack_ptr+1
10513  8C0D     28          			plp
10514                     			.c_end	04708h,736
10515                     	;while
10516         4513 8C0E   	?TOL69:		.equal	$
10517                     	;(1)
10518                     	;		
10519                     			.whi_top  0470dh,?BOL69,2,737
10520  8C0E     A9 01       			lda	#1
10521  8C10     D0 03       			bne	+3
10522  8C12     4C 3C 8C    			jmp	?BOL69
10523         3314 8C15   	?PLC68:		.equal	$
10524                     			.c_end	04716h,738
10525                     	;GameMTGetInput()
10526                     			.c_start  0471fh,739
10527  8C15     A2 2D       			ldx	#.low.&GameMTGetInput
10528  8C17     86 26       			stx	__addr_reg
10529  8C19     A2 90       			ldx	#.high.&GameMTGetInput+1
10530  8C1B     86 27       			stx	__addr_reg+1
10531                     			.bf_call
10532  8C1D     20 F6 D2    			jsr	__banked_function_call
10533                     			.c_end	0472fh,739
10534                     	;(g_GameMTQuit)
10535                     			.if_top	04730h,?BOL70,3,739
10536  8C20     AD 05 18    			lda	_g_GameMTQuit
10537  8C23     D0 03       			bne	+3
10538  8C25     4C 2B 8C    			jmp	?BOL70
10539         3615 8C28   	?PLC69:		.equal	$
10540                     			.c_end	0473fh,739
10541                     	;break;
10542                     	;			
10543  8C28     4C 3C 8C    			jmp	?BOL69
10544                     	;(g_GameMTReadKey==7)
10545         3915 8C2B   	?BOL70:		.equal	$
10546                     			.if_top	0474bh,?BOL71,3,740
10547  8C2B     AD 06 18    			lda	_g_GameMTReadKey
10548  8C2E     38          			sec
10549  8C2F     E9 07       			sbc	#7
10550  8C31     F0 03       			beq	+3
10551  8C33     4C 39 8C    			jmp	?BOL71
10552         3416 8C36   	?PLC70:		.equal	$
10553                     			.c_end	04760h,740
10554                     	;return
10555                     			.c_start  0474bh,740
10556  8C36     4C 99 8C    			jmp	?BOF2
10557                     			.c_end	04767h,740
10558                     	;;
10559                     	;		
10560                     	;
10561         3716 8C39   	?BOL71:		.equal	$
10562                     			.whi_bot  2,741
10563  8C39     4C 0E 8C    			jmp	?TOL69
10564         3A16 8C3C   	?BOL69:		.equal	$
10565                     	;
10566                     	;else
  Wed Jan 14 21:35:33 2026                                                                                               Page  187




10567                     	;	
10568  8C3C     4C 99 8C    			jmp	?EOI68
10569                     			.if_else  ?EOI68,1,744
10570         4416 8C3F   	?BOL68:		.equal	$
10571                     	;GameMTTalk(4,383,0)
10572                     			.c_start  04780h,745
10573  8C3F     A9 00       			lda	#0
10574  8C41     20 AA DA    			jsr	__store_char_funct_arg
10575  8C44     A9 7F       			lda	#.low.383
10576  8C46     85 20       			sta	__oper1
10577  8C48     A9 01       			lda	#.high.383
10578  8C4A     85 21       			sta	__oper1+1
10579  8C4C     20 CA DA    			jsr	__store_int_funct_arg
10580  8C4F     A9 04       			lda	#4
10581  8C51     A2 33       			ldx	#.low.&GameMTTalk
10582  8C53     86 26       			stx	__addr_reg
10583  8C55     A2 90       			ldx	#.high.&GameMTTalk+1
10584  8C57     86 27       			stx	__addr_reg+1
10585                     			.bf_call
10586  8C59     20 F6 D2    			jsr	__banked_function_call
10587  8C5C     08          			php
10588  8C5D     78          			sei
10589  8C5E     18          			clc
10590  8C5F     A5 28       			lda	__stack_ptr
10591  8C61     69 03       			adc	#.low.3
10592  8C63     85 28       			sta	__stack_ptr
10593  8C65     A5 29       			lda	__stack_ptr+1
10594  8C67     69 00       			adc	#.high.3
10595  8C69     85 29       			sta	__stack_ptr+1
10596  8C6B     28          			plp
10597                     			.c_end	04793h,745
10598                     	;GameMTTalk(2,387,0)
10599                     			.c_start  04798h,746
10600  8C6C     A9 00       			lda	#0
10601  8C6E     20 AA DA    			jsr	__store_char_funct_arg
10602  8C71     A9 83       			lda	#.low.387
10603  8C73     85 20       			sta	__oper1
10604  8C75     A9 01       			lda	#.high.387
10605  8C77     85 21       			sta	__oper1+1
10606  8C79     20 CA DA    			jsr	__store_int_funct_arg
10607  8C7C     A9 02       			lda	#2
10608  8C7E     A2 33       			ldx	#.low.&GameMTTalk
10609  8C80     86 26       			stx	__addr_reg
10610  8C82     A2 90       			ldx	#.high.&GameMTTalk+1
10611  8C84     86 27       			stx	__addr_reg+1
10612                     			.bf_call
10613  8C86     20 F6 D2    			jsr	__banked_function_call
10614  8C89     08          			php
10615  8C8A     78          			sei
10616  8C8B     18          			clc
10617  8C8C     A5 28       			lda	__stack_ptr
10618  8C8E     69 03       			adc	#.low.3
10619  8C90     85 28       			sta	__stack_ptr
10620  8C92     A5 29       			lda	__stack_ptr+1
10621  8C94     69 00       			adc	#.high.3
10622  8C96     85 29       			sta	__stack_ptr+1
10623  8C98     28          			plp
  Wed Jan 14 21:35:33 2026                                                                                               Page  188




10624                     			.c_end	047abh,746
10625                     	;
10626         391C 8C99   	?EOI68:		.equal	$
10627                     	;
10628                     			.f_end	047b2h,748
10629         39FF 8C99   	?BOF2:		.equal	$
10630  8C99     08          			php
10631  8C9A     78          			sei
10632  8C9B     18          			clc
10633  8C9C     A5 28       			lda	__stack_ptr
10634  8C9E     69 08       			adc	#.low.+?LSC2+?TSC2+0
10635  8CA0     85 28       			sta	__stack_ptr
10636  8CA2     A5 29       			lda	__stack_ptr+1
10637  8CA4     69 00       			adc	#.high.+?LSC2+?TSC2+0
10638  8CA6     85 29       			sta	__stack_ptr+1
10639  8CA8     28          			plp
10640                     			.f_return
10641  8CA9     60          			rts
10642                     	
10643                     			.extern	_GameMTTalk, &GameMTTalk
10644                     			.extern	_GameMTReNewR, &GameMTReNewR
10645                     			.extern	_GameMTTalkData
10646                     			.extern	_GameMTTalkSide
10647                     			.extern	_GameMTTalkDown
10648                     			.extern	_GameMTTalkUp
10649                     			.extern	_GameMTTalkSigh
10650                     			.extern	_GameMTUnknown
10651                     			.extern	_GameMTShop, &GameMTShop
10652                     			.extern	_GameMTNotice
10653                     			.extern	_GameMTMove, &GameMTMove
10654                     			.extern	_GameMTChaFloor, &GameMTChaFloor
10655                     			.extern	_GameMTDi
10656                     			.extern	_GameMTChar
10657                     			.extern	_GameMTNewFloor, &GameMTNewFloor
10658                     			.extern	_SysMemcpy
10659                     			.extern	_GameMTCheckMon, &GameMTCheckMon
10660                     			.extern	_GameMTEndFace, &GameMTEndFace
10661                     			.global	_GameMTEnd
10662                     			.extern	_g_GameMTBuf
10663                     			.extern	_GameMTWorkPad
10664                     			.extern	_SysRectClear, &SysRectClear
10665                     			.extern	_SysLcdPartClear, &SysLcdPartClear
10666                     			.global	_GameMTEvent
10667                     			.extern	_g_GameMTCurTime
10668                     			.extern	_g_GameMTCheck
10669                     			.extern	_g_GameMTCurMap
10670                     			.extern	_g_GameMTDeadLine
10671                     			.extern	_g_GameMTEnd
10672                     			.extern	_GameMTEagle
10673                     			.extern	_g_GameMTFloor
10674                     			.extern	_g_GameMTGameOver
10675                     			.extern	_g_GameMTHeroLv
10676                     			.extern	_g_GameMTHeroX
10677                     			.extern	_g_GameMTHeroY
10678                     			.extern	_g_GameMTHeroDamige
10679                     			.extern	_g_GameMTHeroDefence
10680                     			.extern	_g_GameMTHeroMoney
  Wed Jan 14 21:35:33 2026                                                                                               Page  189




10681                     			.extern	_g_GameMTHeroExp
10682                     			.extern	_g_GameMTHeroDir
10683                     			.extern	_g_GameMTHeroLife
10684                     			.extern	_g_GameMTInit
10685                     			.extern	_g_GameMTJuidgeX
10686                     			.extern	_g_GameMTJuidgeY
10687                     			.extern	_g_GameMTJuidgeNow
10688                     			.extern	_GameMTCeng
10689                     			.extern	_g_GameMTKBState
10690                     			.extern	_g_GameMTKey
10691                     			.extern	_SysPicture, &SysPicture
10692                     			.extern	_GameMTOpenDoor, &GameMTOpenDoor
10693                     			.extern	_g_GameMTMapX
10694                     			.extern	_g_GameMTMapY
10695                     			.extern	_GameMTStartPoint
10696                     			.extern	_g_GameMTNearEnd
10697                     			.extern	_GameMTBattle, &GameMTBattle
10698                     			.global	_GameMTMainMenu
10699                     			.extern	_GameMTBattlePad
10700                     			.extern	_GameMTMainFace
10701                     			.extern	_GameMTLiKai
10702                     			.extern	_SysPrintString, &SysPrintString
10703                     			.extern	_GuiQueryBox, &GuiQueryBox
10704                     			.extern	_GameMTRefresh, &GameMTRefresh
10705                     			.extern	_g_GameMTQuit
10706                     			.extern	_GameMTHappyEnd
10707                     			.extern	_g_GameMTReadKey
10708                     			.extern	_GameMTVictory
10709                     			.extern	_GameMTHeroPic
10710                     			.extern	_GameMTGetInput, &GameMTGetInput
10711                     			.extern	_g_GameMTTimeOut
10712                     			.extern	_g_GameMTTopFloor
10713                     			.extern	_GameMTNum39
10714                     			.extern	_GameMTNum35
10715                     			.extern	_GameMTNum78
10716                     			.extern	_GameMTMonData
10717                     			.extern	_GameMTMonName
10718                     			.extern	_GuiMsgBox, &GuiMsgBox
10719                     			.extern	_SysRect, &SysRect
10720                     			.extern	_GameMTUnitPic
10721                     			.extern	__store_long
10722                     			.extern	__store_char_funct_arg
10723                     			.extern	__store_int_funct_arg
10724                     			.extern	__switch_comparison
10725                     			.extern	__cmp_int
10726                     			.extern	__add_long
10727                     			.extern	__mult_int
10728                     			.extern	__uns_mult_char
10729                     			.extern	__uns_mult_int
10730                     			.extern	__uns_mult_long
10731                     			.extern	__uns_div_int
10732                     			.extern	__uns_div_long
10733                     			.extern	__banked_function_call
10734                     	
10735                     			.end


             Lines Assembled : 10735                  Errors : 0


