  Tue Jan 13 23:03:19 2026                                                                                               Page    1







               2500 A.D. 6502 Macro Assembler  -  Version 5.02b
               ------------------------------------------------

                       Input  Filename : psnake.asm
                       Output Filename : psnake.obj
                       Listing Has Been Relocated                               


    1                     	program_psnake:	.section
    2                     	const_data_psnake:	.section
    3                     	init_data_psnake:	.section
    4                     	uninit_data_psnake:	.section
    5                     	bank_table:	.section
    6                     	bank_table:	.section
    7                     			.program_psnake
    8  5046                 			.filetype	C
    9                     			.symbols
   10                     			.llchar		?
   11                     			.longchk	off
   12                     			.extern	page0	__oper1
   13                     			.extern	page0	__oper1_high8
   14                     			.extern	page0	__oper2
   15                     			.extern	page0	__oper2_high8
   16                     			.extern	page0	__addr_reg
   17                     			.extern	page0	__stack_ptr
   18                     			.extern	page0	__lib_temp_ptr
   19                     	;.filename psnake.c
   20                     	;
   21                     			.filename	psnake.c
   22                     	;.filename .\os\inc\dictsys.h
   23                     	;
   24                     			.filename	.\os\inc\dictsys.h
   25                     	;.filename .\os\inc\keytable.h
   26                     	;
   27                     			.filename	.\os\inc\keytable.h
   28                     	;.endinc .\os\inc\dictsys.h
   29                     			.filename	.\os\inc\dictsys.h
   30                     	;struct tagMsgType {
   31                     	;	
   32                     			.strname  _tagMsgType
   33                     	;unsigned char 		type;
   34                     	;	
   35                     			.strdef	_type,73,v,c,u,0,g,d,d,d,d,00h
   36                     	;unsigned int 		param;
   37                     	;
   38                     			.strdef	_param,74,v,i,u,1,g,d,d,d,d,00h
   39                     	;}
   40                     			.strend	_tagMsgType,3,2
   41                     	;struct tagMsgByteType {
   42                     	;	
   43                     			.strname  _tagMsgByteType
   44                     	;unsigned char 		type;
   45                     	;	
   46                     			.strdef	_type,78,v,c,u,0,g,d,d,d,d,00h
  Tue Jan 13 23:03:19 2026                                                                                               Page    2




   47                     	;unsigned char 		prmLow;
   48                     	;	
   49                     			.strdef	_prmLow,79,v,c,u,1,g,d,d,d,d,00h
   50                     	;unsigned char 		prmHi;
   51                     	;
   52                     			.strdef	_prmHi,80,v,c,u,2,g,d,d,d,d,00h
   53                     	;}
   54                     			.strend	_tagMsgByteType,3,3
   55                     	;struct tagDate {
   56                     	;	
   57                     			.strname  _tagDate
   58                     	;unsigned char 	day;
   59                     	;	
   60                     			.strdef	_day,115,v,c,u,0,g,d,d,d,d,00h
   61                     	;unsigned char 	month;
   62                     	;	
   63                     			.strdef	_month,116,v,c,u,1,g,d,d,d,d,00h
   64                     	;unsigned char 	year;
   65                     	;	
   66                     			.strdef	_year,117,v,c,u,2,g,d,d,d,d,00h
   67                     	;unsigned char 	wday;				
   68                     	;
   69                     			.strdef	_wday,118,v,c,u,3,g,d,d,d,d,00h
   70                     	;}
   71                     			.strend	_tagDate,4,4
   72                     	;struct tagTime {
   73                     	;	
   74                     			.strname  _tagTime
   75                     	;unsigned char 	second;
   76                     	;	
   77                     			.strdef	_second,123,v,c,u,0,g,d,d,d,d,00h
   78                     	;unsigned char 	minute;
   79                     	;	
   80                     			.strdef	_minute,124,v,c,u,1,g,d,d,d,d,00h
   81                     	;unsigned char 	hour;
   82                     	;
   83                     			.strdef	_hour,125,v,c,u,2,g,d,d,d,d,00h
   84                     	;}
   85                     			.strend	_tagTime,3,3
   86                     	;struct tagGuiMenuItemType {
   87                     	;	
   88                     			.strname  _tagGuiMenuItemType
   89                     	;unsigned char 		strLen;				
   90                     	;	
   91                     			.strdef	_strLen,143,v,c,u,0,g,d,d,d,d,00h
   92                     	;unsigned char 		*str;				
   93                     	;	
   94                     			.strdef	_str,144,v,pc1,u,1,g,d,d,d,d,00h
   95                     	;unsigned char 		*bmpData0;			
   96                     	;	
   97                     			.strdef	_bmpData0,145,v,pc1,u,3,g,d,d,d,d,00h
   98                     	;unsigned char 		*bmpData1;			
   99                     	;
  100                     			.strdef	_bmpData1,146,v,pc1,u,5,g,d,d,d,d,00h
  101                     	;}
  102                     			.strend	_tagGuiMenuItemType,7,4
  103                     	;struct tagGuiMenu {
  Tue Jan 13 23:03:19 2026                                                                                               Page    3




  104                     	;	
  105                     			.strname  _tagGuiMenu
  106                     	;unsigned char 					itemNum;			
  107                     	;	
  108                     			.strdef	_itemNum,151,v,c,u,0,g,d,d,d,d,00h
  109                     	;unsigned char 					colNum;				
  110                     	;	
  111                     			.strdef	_colNum,152,v,c,u,1,g,d,d,d,d,00h
  112                     	;unsigned char 					*colPos;			
  113                     	;	
  114                     			.strdef	_colPos,153,v,pc1,u,2,g,d,d,d,d,00h
  115                     	;unsigned char 					style;				
  116                     	;	
  117                     			.strdef	_style,154,v,c,u,4,g,d,d,d,d,00h
  118                     	;struct tagGuiMenuItemType *	*menuItems ;		
  119                     	;
  120                     			.strdef	_menuItems,155,v,ps2,_tagGuiMenuItemType,s,5,g,d,d,d,d,00h
  121                     	;}
  122                     			.strend	_tagGuiMenu,7,5
  123                     	;struct tagMenuEnv {
  124                     	;	
  125                     			.strname  _tagMenuEnv
  126                     	;unsigned char 		x0;					
  127                     	;	
  128                     			.strdef	_x0,160,v,c,u,0,g,d,d,d,d,00h
  129                     	;unsigned char 		x1;
  130                     	;	
  131                     			.strdef	_x1,161,v,c,u,1,g,d,d,d,d,00h
  132                     	;unsigned char 		y0;
  133                     	;	
  134                     			.strdef	_y0,162,v,c,u,2,g,d,d,d,d,00h
  135                     	;unsigned char 		y1;
  136                     	;	
  137                     			.strdef	_y1,163,v,c,u,3,g,d,d,d,d,00h
  138                     	;unsigned char 		startDispItem;		
  139                     	;
  140                     	;
  141                     	;	
  142                     			.strdef	_startDispItem,164,v,c,u,4,g,d,d,d,d,00h
  143                     	;unsigned char 		maxDispItem;		
  144                     	;	
  145                     			.strdef	_maxDispItem,167,v,c,u,5,g,d,d,d,d,00h
  146                     	;unsigned char 		dispItemNum;		
  147                     	;	
  148                     			.strdef	_dispItemNum,168,v,c,u,6,g,d,d,d,d,00h
  149                     	;unsigned char 		nFocus;				
  150                     	;
  151                     			.strdef	_nFocus,169,v,c,u,7,g,d,d,d,d,00h
  152                     	;}
  153                     			.strend	_tagMenuEnv,8,8
  154                     	;struct tagRect {
  155                     	;	
  156                     			.strname  _tagRect
  157                     	;unsigned char 		left;					
  158                     	;	
  159                     			.strdef	_left,174,v,c,u,0,g,d,d,d,d,00h
  160                     	;unsigned char 		top;					
  Tue Jan 13 23:03:19 2026                                                                                               Page    4




  161                     	;	
  162                     			.strdef	_top,175,v,c,u,1,g,d,d,d,d,00h
  163                     	;unsigned char 		height;					
  164                     	;	
  165                     			.strdef	_height,176,v,c,u,2,g,d,d,d,d,00h
  166                     	;unsigned char 		width;					
  167                     	;
  168                     			.strdef	_width,177,v,c,u,3,g,d,d,d,d,00h
  169                     	;}
  170                     			.strend	_tagRect,4,4
  171                     	;struct tagRandEnv {
  172                     	;	
  173                     			.strname  _tagRandEnv
  174                     	;unsigned long  next 	;
  175                     	; 	
  176                     			.strdef	_next,182,v,l,u,0,g,d,d,d,d,00h
  177                     	;unsigned int  randMax	;
  178                     	;
  179                     			.strdef	_randMax,183,v,i,u,4,g,d,d,d,d,00h
  180                     	;}
  181                     			.strend	_tagRandEnv,6,2
  182                     	;struct tagQryBoxBmp {
  183                     	;	
  184                     			.strname  _tagQryBoxBmp
  185                     	;unsigned char 		left;					
  186                     	;	
  187                     			.strdef	_left,188,v,c,u,0,g,d,d,d,d,00h
  188                     	;unsigned char 		top;					
  189                     	;	
  190                     			.strdef	_top,189,v,c,u,1,g,d,d,d,d,00h
  191                     	;unsigned char 		height;					
  192                     	;	
  193                     			.strdef	_height,190,v,c,u,2,g,d,d,d,d,00h
  194                     	;unsigned char 		width;					
  195                     	;	
  196                     			.strdef	_width,191,v,c,u,3,g,d,d,d,d,00h
  197                     	;unsigned char 		*bmpData;				
  198                     	;
  199                     			.strdef	_bmpData,192,v,pc1,u,4,g,d,d,d,d,00h
  200                     	;}
  201                     			.strend	_tagQryBoxBmp,6,5
  202                     	;struct tagAppSwitchInfo {
  203                     	;	
  204                     			.strname  _tagAppSwitchInfo
  205                     	;unsigned int 		currentAppID;							
  206                     	;	
  207                     			.strdef	_currentAppID,237,v,i,u,0,g,d,d,d,d,00h
  208                     	;unsigned int 		heirAppID;								
  209                     	;	
  210                     			.strdef	_heirAppID,238,v,i,u,2,g,d,d,d,d,00h
  211                     	;unsigned long 		downAppPhyAddr;							
  212                     	;	
  213                     			.strdef	_downAppPhyAddr,239,v,l,u,4,g,d,d,d,d,00h
  214                     	;unsigned char 		currentAppAttr;							
  215                     	;	
  216                     			.strdef	_currentAppAttr,240,v,c,u,8,g,d,d,d,d,00h
  217                     	;unsigned char 		heirAppAttr;
  Tue Jan 13 23:03:19 2026                                                                                               Page    5




  218                     	;
  219                     			.strdef	_heirAppAttr,241,v,c,u,9,g,d,d,d,d,00h
  220                     	;}
  221                     			.strend	_tagAppSwitchInfo,10,5
  222                     	;struct tagSysIconEnv {
  223                     	;	
  224                     			.strname  _tagSysIconEnv
  225                     	;unsigned char 		iconSaveBuf[12];
  226                     	;
  227                     			.strdef	_iconSaveBuf,327,v,c,u,0,g,d,d,d,d,0ch,00h
  228                     	;}
  229                     			.strend	_tagSysIconEnv,12,1
  230                     	;.macstart 19335,525
  231                     	;
  232                     			.c_start  04b87h,525
  233                     	;.asm
  234                     	;	
  235  5046                 			.CHIP	6502
  236                     			.LINKLIST
  237                     			.SYMBOLS
  238                     			.DEBUG	ASM
  239                     			.LIST	ON
  240                     	;.optimize	off
  241                     	;	
  242                     	;.endasm
  243                     	;
  244                     	;
  245                     	;.macend 19418,532
  246                     	;
  247                     			.c_end	04bdah,532
  248                     	;.endinc psnake.c
  249                     			.filename	psnake.c
  250                     	;.filename .\os\inc\addr.h
  251                     	;
  252                     			.filename	.\os\inc\addr.h
  253                     	;.endinc psnake.c
  254                     			.filename	psnake.c
  255                     	;.filename .\os\inc\keytable.h
  256                     	;
  257                     			.filename	.\os\inc\keytable.h
  258                     	;.endinc psnake.c
  259                     			.filename	psnake.c
  260                     	;.filename .\os\inc\stdlib.h
  261                     	;
  262                     			.filename	.\os\inc\stdlib.h
  263                     	;.endinc psnake.c
  264                     			.filename	psnake.c
  265                     	;.filename mtower.h
  266                     	;
  267                     			.filename	mtower.h
  268                     	;.endinc psnake.c
  269                     			.filename	psnake.c
  270                     	;unsigned char 	g_GameMTNearEnd=g_GameMTDeadLine=g_GameMTEnd=g_GameMTGameOver=g_GameMTInit=g_GameMTQuit;
  271                     	;
  272                     	;
  273                     			.uninit_data_psnake
  274  00001800             	_g_GameMTNearEnd:	.ds	1
  Tue Jan 13 23:03:19 2026                                                                                               Page    6




  275                     			.attrib	_g_GameMTNearEnd,24,v,c,u,g,d,d,d,d,00h
  276  00001801             	_g_GameMTDeadLine:	.ds	1
  277                     			.attrib	_g_GameMTDeadLine,24,v,c,u,g,d,d,d,d,00h
  278  00001802             	_g_GameMTEnd:	.ds	1
  279                     			.attrib	_g_GameMTEnd,24,v,c,u,g,d,d,d,d,00h
  280  00001803             	_g_GameMTGameOver:	.ds	1
  281                     			.attrib	_g_GameMTGameOver,24,v,c,u,g,d,d,d,d,00h
  282  00001804             	_g_GameMTInit:	.ds	1
  283                     			.attrib	_g_GameMTInit,24,v,c,u,g,d,d,d,d,00h
  284  00001805             	_g_GameMTQuit:	.ds	1
  285                     			.attrib	_g_GameMTQuit,24,v,c,u,g,d,d,d,d,00h
  286                     	;unsigned char 	g_GameMTReadKey=g_GameMTTimeOut=g_GameMTTopFloor=g_GameMTHeroLv=g_GameMTCurTime;
  287                     	;
  288  00001806             	_g_GameMTReadKey:	.ds	1
  289                     			.attrib	_g_GameMTReadKey,26,v,c,u,g,d,d,d,d,00h
  290  00001807             	_g_GameMTTimeOut:	.ds	1
  291                     			.attrib	_g_GameMTTimeOut,26,v,c,u,g,d,d,d,d,00h
  292  00001808             	_g_GameMTTopFloor:	.ds	1
  293                     			.attrib	_g_GameMTTopFloor,26,v,c,u,g,d,d,d,d,00h
  294  00001809             	_g_GameMTHeroLv:	.ds	1
  295                     			.attrib	_g_GameMTHeroLv,26,v,c,u,g,d,d,d,d,00h
  296  0000180A             	_g_GameMTCurTime:	.ds	1
  297                     			.attrib	_g_GameMTCurTime,26,v,c,u,g,d,d,d,d,00h
  298                     	;unsigned int 	g_GameMTKBState;
  299                     	;
  300                     	;
  301  0000180B             			.i_align
  302  0000180B             	_g_GameMTKBState:	.ds	2
  303                     			.attrib	_g_GameMTKBState,27,v,i,u,g,d,d,d,d,00h
  304                     	;unsigned char 	g_GameMTMapX=g_GameMTMapY=g_GameMTHeroX=g_GameMTHeroY=g_GameMTJuidgeX=g_GameMTJuidgeY;
  305                     	;
  306                     	;
  307  0000180D             	_g_GameMTMapX:	.ds	1
  308                     			.attrib	_g_GameMTMapX,29,v,c,u,g,d,d,d,d,00h
  309  0000180E             	_g_GameMTMapY:	.ds	1
  310                     			.attrib	_g_GameMTMapY,29,v,c,u,g,d,d,d,d,00h
  311  0000180F             	_g_GameMTHeroX:	.ds	1
  312                     			.attrib	_g_GameMTHeroX,29,v,c,u,g,d,d,d,d,00h
  313  00001810             	_g_GameMTHeroY:	.ds	1
  314                     			.attrib	_g_GameMTHeroY,29,v,c,u,g,d,d,d,d,00h
  315  00001811             	_g_GameMTJuidgeX:	.ds	1
  316                     			.attrib	_g_GameMTJuidgeX,29,v,c,u,g,d,d,d,d,00h
  317  00001812             	_g_GameMTJuidgeY:	.ds	1
  318                     			.attrib	_g_GameMTJuidgeY,29,v,c,u,g,d,d,d,d,00h
  319                     	;unsigned char 	g_GameMTBuf[1920]=g_GameMTKey[3]=g_GameMTCheck[8];
  320                     	;
  321                     	;
  322  00001813             	_g_GameMTBuf:	.ds	1920*1
  323                     			.attrib	_g_GameMTBuf,31,v,c,u,g,d,d,d,d,0780h,00h
  324  00001F93             	_g_GameMTKey:	.ds	3*1
  325                     			.attrib	_g_GameMTKey,31,v,c,u,g,d,d,d,d,03h,00h
  326  00001F96             	_g_GameMTCheck:	.ds	8*1
  327                     			.attrib	_g_GameMTCheck,31,v,c,u,g,d,d,d,d,08h,00h
  328                     	;unsigned int 	g_GameMTHeroDamige=g_GameMTHeroDefence=g_GameMTHeroMoney=g_GameMTHeroExp;
  329                     	;
  330                     	;
  331  00001F9E             			.i_align
  Tue Jan 13 23:03:19 2026                                                                                               Page    7




  332  00001F9E             	_g_GameMTHeroDamige:	.ds	2
  333                     			.attrib	_g_GameMTHeroDamige,33,v,i,u,g,d,d,d,d,00h
  334  00001FA0             			.i_align
  335  00001FA0             	_g_GameMTHeroDefence:	.ds	2
  336                     			.attrib	_g_GameMTHeroDefence,33,v,i,u,g,d,d,d,d,00h
  337  00001FA2             			.i_align
  338  00001FA2             	_g_GameMTHeroMoney:	.ds	2
  339                     			.attrib	_g_GameMTHeroMoney,33,v,i,u,g,d,d,d,d,00h
  340  00001FA4             			.i_align
  341  00001FA4             	_g_GameMTHeroExp:	.ds	2
  342                     			.attrib	_g_GameMTHeroExp,33,v,i,u,g,d,d,d,d,00h
  343                     	;unsigned char 	g_GameMTHeroDir=g_GameMTFloor=*g_GameMTCurMap;
  344                     	;
  345                     	;
  346  00001FA6             	_g_GameMTHeroDir:	.ds	1
  347                     			.attrib	_g_GameMTHeroDir,35,v,c,u,g,d,d,d,d,00h
  348  00001FA7             	_g_GameMTFloor:	.ds	1
  349                     			.attrib	_g_GameMTFloor,35,v,c,u,g,d,d,d,d,00h
  350  00001FA8             			.i_align
  351  00001FA8             	_g_GameMTCurMap:	.ds	2
  352                     			.attrib	_g_GameMTCurMap,35,v,pc1,u,g,f,d,f,d,00h
  353                     	;unsigned long  g_GameMTHeroLife;
  354                     	;
  355                     	;
  356  00001FAA             			.l_align
  357  00001FAA             	_g_GameMTHeroLife:	.ds	4
  358                     			.attrib	_g_GameMTHeroLife,37,v,l,u,g,d,d,d,d,00h
  359                     	;unsigned char 	*g_GameMTJuidgeNow;
  360                     	;
  361                     	;
  362  00001FAE             			.i_align
  363  00001FAE             	_g_GameMTJuidgeNow:	.ds	2
  364                     			.attrib	_g_GameMTJuidgeNow,39,v,pc1,u,g,f,d,f,d,00h
  365                     	;
  366                     			.program_psnake
  367                     			.f_start  0aa3h,78
  368                     			.bank_table
  369                     			.global	&GameTanShiShe
  370  9000     46 50 E0    	&GameTanShiShe:	.bankaddr	_GameTanShiShe
  371                     			.ends
  372         3110 5046   	_GameTanShiShe:	.equal	$
  373                     			.attrib	_GameTanShiShe,79,f,b
  374                     	;
  375                     	;
  376         0000        	?ASC0:		.equal	0
  377         0000        	?TSC0:		.equal	0
  378         0000        	?LSC0:		.equal	0
  379                     	;GuiInit()
  380                     			.c_start  0ab8h,80
  381  5046     A2 32       			ldx	#.low.&GuiInit
  382  5048     86 26       			stx	__addr_reg
  383  504A     A2 E9       			ldx	#.high.&GuiInit+1
  384  504C     86 27       			stx	__addr_reg+1
  385                     			.bf_call
  386  504E     20 F6 D2    			jsr	__banked_function_call
  387                     			.c_end	0ac1h,80
  388                     	;SysMemInit(0x2c00,0x1400)
  Tue Jan 13 23:03:19 2026                                                                                               Page    8




  389                     			.c_start  0adch,81
  390  5051     A9 00       			lda	#.low.5120
  391  5053     85 20       			sta	__oper1
  392  5055     A9 14       			lda	#.high.5120
  393  5057     85 21       			sta	__oper1+1
  394  5059     20 CA DA    			jsr	__store_int_funct_arg
  395  505C     A9 00       			lda	#.low.11264
  396  505E     85 20       			sta	__oper1
  397  5060     A9 2C       			lda	#.high.11264
  398  5062     85 21       			sta	__oper1+1
  399  5064     20 CA DA    			jsr	__store_int_funct_arg
  400  5067     A2 44       			ldx	#.low.&SysMemInit
  401  5069     86 26       			stx	__addr_reg
  402  506B     A2 E9       			ldx	#.high.&SysMemInit+1
  403  506D     86 27       			stx	__addr_reg+1
  404                     			.bf_call
  405  506F     20 F6 D2    			jsr	__banked_function_call
  406  5072     08          			php
  407  5073     78          			sei
  408  5074     18          			clc
  409  5075     A5 28       			lda	__stack_ptr
  410  5077     69 04       			adc	#.low.4
  411  5079     85 28       			sta	__stack_ptr
  412  507B     A5 29       			lda	__stack_ptr+1
  413  507D     69 00       			adc	#.high.4
  414  507F     85 29       			sta	__stack_ptr+1
  415  5081     28          			plp
  416                     			.c_end	0b04h,81
  417                     	;SysIconAllClear()
  418                     			.c_start  0b15h,82
  419  5082     A2 EC       			ldx	#.low.&SysIconAllClear
  420  5084     86 26       			stx	__addr_reg
  421  5086     A2 E8       			ldx	#.high.&SysIconAllClear+1
  422  5088     86 27       			stx	__addr_reg+1
  423                     			.bf_call
  424  508A     20 F6 D2    			jsr	__banked_function_call
  425                     			.c_end	0b26h,82
  426                     	;g_GameMTKBState=GuiGetKbdState()
  427                     			.c_start  0b2dh,84
  428  508D     A2 65       			ldx	#.low.&GuiGetKbdState
  429  508F     86 26       			stx	__addr_reg
  430  5091     A2 E9       			ldx	#.high.&GuiGetKbdState+1
  431  5093     86 27       			stx	__addr_reg+1
  432                     			.bf_call
  433  5095     20 F6 D2    			jsr	__banked_function_call
  434  5098     A5 20       			lda	__oper1
  435  509A     8D 0B 18    			sta	_g_GameMTKBState
  436  509D     A5 21       			lda	__oper1+1
  437  509F     8D 0C 18    			sta	_g_GameMTKBState+1
  438                     			.c_end	0b4dh,84
  439                     	;GuiSetInputFilter(0x02)
  440                     			.c_start  0b64h,85
  441  50A2     A9 02       			lda	#2
  442  50A4     A2 38       			ldx	#.low.&GuiSetInputFilter
  443  50A6     86 26       			stx	__addr_reg
  444  50A8     A2 E9       			ldx	#.high.&GuiSetInputFilter+1
  445  50AA     86 27       			stx	__addr_reg+1
  Tue Jan 13 23:03:19 2026                                                                                               Page    9




  446                     			.bf_call
  447  50AC     20 F6 D2    			jsr	__banked_function_call
  448                     			.c_end	0b87h,85
  449                     	;GuiSetKbdType(0x02)
  450                     			.c_start  0b8bh,86
  451  50AF     A9 02       			lda	#2
  452  50B1     A2 3B       			ldx	#.low.&GuiSetKbdType
  453  50B3     86 26       			stx	__addr_reg
  454  50B5     A2 E9       			ldx	#.high.&GuiSetKbdType+1
  455  50B7     86 27       			stx	__addr_reg+1
  456                     			.bf_call
  457  50B9     20 F6 D2    			jsr	__banked_function_call
  458                     			.c_end	0baah,86
  459                     	;g_GameMTCurMap=SysMemAllocate(2662)
  460                     			.c_start  0baeh,87
  461  50BC     A9 66       			lda	#.low.2662
  462  50BE     85 20       			sta	__oper1
  463  50C0     A9 0A       			lda	#.high.2662
  464  50C2     85 21       			sta	__oper1+1
  465  50C4     20 CA DA    			jsr	__store_int_funct_arg
  466  50C7     A2 47       			ldx	#.low.&SysMemAllocate
  467  50C9     86 26       			stx	__addr_reg
  468  50CB     A2 E9       			ldx	#.high.&SysMemAllocate+1
  469  50CD     86 27       			stx	__addr_reg+1
  470                     			.bf_call
  471  50CF     20 F6 D2    			jsr	__banked_function_call
  472  50D2     08          			php
  473  50D3     78          			sei
  474  50D4     18          			clc
  475  50D5     A5 28       			lda	__stack_ptr
  476  50D7     69 02       			adc	#.low.2
  477  50D9     85 28       			sta	__stack_ptr
  478  50DB     A5 29       			lda	__stack_ptr+1
  479  50DD     69 00       			adc	#.high.2
  480  50DF     85 29       			sta	__stack_ptr+1
  481  50E1     28          			plp
  482  50E2     A5 20       			lda	__oper1
  483  50E4     8D A8 1F    			sta	_g_GameMTCurMap
  484  50E7     A5 21       			lda	__oper1+1
  485  50E9     8D A9 1F    			sta	_g_GameMTCurMap+1
  486                     			.c_end	0bd1h,87
  487                     	;SysTimer1Open(8)
  488                     			.c_start  0bd5h,88
  489  50EC     A9 08       			lda	#8
  490  50EE     A2 B2       			ldx	#.low.&SysTimer1Open
  491  50F0     86 26       			stx	__addr_reg
  492  50F2     A2 E7       			ldx	#.high.&SysTimer1Open+1
  493  50F4     86 27       			stx	__addr_reg+1
  494                     			.bf_call
  495  50F6     20 F6 D2    			jsr	__banked_function_call
  496                     			.c_end	0be5h,88
  497                     	;g_GameMTInit=1
  498                     			.c_start  0bech,90
  499  50F9     A9 01       			lda	#1
  500  50FB     8D 04 18    			sta	_g_GameMTInit
  501                     			.c_end	0bfdh,90
  502                     	;g_GameMTQuit=0
  Tue Jan 13 23:03:19 2026                                                                                               Page   10




  503                     			.c_start  0c01h,91
  504  50FE     A9 00       			lda	#0
  505  5100     8D 05 18    			sta	_g_GameMTQuit
  506                     			.c_end	0c13h,91
  507                     	;while
  508         3110 5103   	?TOL0:		.equal	$
  509                     	;(1)
  510                     	;	
  511                     			.whi_top  0c17h,?BOL0,1,92
  512  5103     A9 01       			lda	#1
  513  5105     D0 03       			bne	+3
  514  5107     4C 39 51    			jmp	?BOL0
  515         3810 510A   	?PLC0:		.equal	$
  516                     			.c_end	0c20h,93
  517                     	;(g_GameMTQuit)
  518                     	;		
  519                     			.if_top	0c27h,?BOL1,2,94
  520  510A     AD 05 18    			lda	_g_GameMTQuit
  521  510D     D0 03       			bne	+3
  522  510F     4C 20 51    			jmp	?BOL1
  523         4710 5112   	?PLC1:		.equal	$
  524                     			.c_end	0c38h,95
  525                     	;SysTimer1Close()
  526                     			.c_start  0c41h,96
  527  5112     A2 B5       			ldx	#.low.&SysTimer1Close
  528  5114     86 26       			stx	__addr_reg
  529  5116     A2 E7       			ldx	#.high.&SysTimer1Close+1
  530  5118     86 27       			stx	__addr_reg+1
  531                     			.bf_call
  532  511A     20 F6 D2    			jsr	__banked_function_call
  533                     			.c_end	0c51h,96
  534                     	;break;
  535                     	;		
  536  511D     4C 39 51    			jmp	?BOL0
  537                     	;
  538                     	;(g_GameMTInit)
  539         4511 5120   	?BOL1:		.equal	$
  540                     			.if_top	0c66h,?BOL2,2,99
  541  5120     AD 04 18    			lda	_g_GameMTInit
  542  5123     D0 03       			bne	+3
  543  5125     4C 2B 51    			jmp	?BOL2
  544         3612 5128   	?PLC2:		.equal	$
  545                     			.c_end	0c75h,99
  546                     	;GameMTInit()
  547                     			.c_start  0c66h,99
  548                     			.f_call	_GameMTInit
  549  5128     20 29 5C    			jsr	_GameMTInit
  550                     			.c_end	0c82h,99
  551                     	;;
  552                     	;		
  553                     	;GameMTEvent()
  554         3912 512B   	?BOL2:		.equal	$
  555                     			.c_start  0c87h,100
  556  512B     A2 36       			ldx	#.low.&GameMTEvent
  557  512D     86 26       			stx	__addr_reg
  558  512F     A2 90       			ldx	#.high.&GameMTEvent+1
  559  5131     86 27       			stx	__addr_reg+1
  Tue Jan 13 23:03:19 2026                                                                                               Page   11




  560                     			.bf_call
  561  5133     20 F6 D2    			jsr	__banked_function_call
  562                     			.c_end	0c94h,100
  563                     	;
  564                     			.whi_bot  1,101
  565  5136     4C 03 51    			jmp	?TOL0
  566         3713 5139   	?BOL0:		.equal	$
  567                     	;
  568                     			.f_end	0c9bh,102
  569         37F3 5139   	?BOF0:		.equal	$
  570                     			.f_return
  571  5139     60          			rts
  572                     	;
  573                     			.f_start  0e59h,114
  574                     			.bank_table
  575                     			.global	&GameMTGetInput
  576  9003     3A 51 E0    	&GameMTGetInput:	.bankaddr	_GameMTGetInput
  577                     			.ends
  578         3410 513A   	_GameMTGetInput:	.equal	$
  579                     			.attrib	_GameMTGetInput,115,f,b
  580                     	;
  581                     	;
  582         0000        	?ASC1:		.equal	0
  583         0000        	?TSC1:		.equal	0
  584         0003        	?LSC1:		.equal	3
  585  513A     08          			php
  586  513B     78          			sei
  587  513C     38          			sec
  588  513D     A5 28       			lda	__stack_ptr
  589  513F     E9 03       			sbc	#.low.+?LSC1+?TSC1
  590  5141     85 28       			sta	__stack_ptr
  591  5143     A5 29       			lda	__stack_ptr+1
  592  5145     E9 00       			sbc	#.high.+?LSC1+?TSC1
  593  5147     85 29       			sta	__stack_ptr+1
  594  5149     28          			plp
  595                     	;struct tagMsgType 		gMsg;
  596                     	;	
  597                     			.local	_gMsg,116,s,_tagMsgType,d,d,d,d,-3+?LSC1+0,00h
  598                     	;g_GameMTReadKey=0
  599                     			.c_start  0e80h,117
  600  514A     A9 00       			lda	#0
  601  514C     8D 06 18    			sta	_g_GameMTReadKey
  602                     			.c_end	0e91h,117
  603                     	;while
  604         4414 514F   	?TOL3:		.equal	$
  605                     	;(1)
  606                     			.whi_top  0e98h,?BOL3,1,119
  607  514F     A9 01       			lda	#1
  608  5151     D0 03       			bne	+3
  609  5153     4C EE 52    			jmp	?BOL3
  610         3415 5156   	?PLC3:		.equal	$
  611                     			.c_end	0e9fh,119
  612                     	;(!GuiGetMsg(&gMsg))
  613                     			.if_top	0ea5h,?BOL4,2,120
  614  5156     18          			clc
  615  5157     A5 28       			lda	__stack_ptr
  616  5159     69 00       			adc	#.low.-3+?LSC1
  Tue Jan 13 23:03:19 2026                                                                                               Page   12




  617  515B     85 20       			sta	__oper1
  618  515D     A5 29       			lda	__stack_ptr+1
  619  515F     69 00       			adc	#.high.-3+?LSC1
  620  5161     85 21       			sta	__oper1+1
  621  5163     20 CA DA    			jsr	__store_int_funct_arg
  622  5166     A2 35       			ldx	#.low.&GuiGetMsg
  623  5168     86 26       			stx	__addr_reg
  624  516A     A2 E9       			ldx	#.high.&GuiGetMsg+1
  625  516C     86 27       			stx	__addr_reg+1
  626                     			.bf_call
  627  516E     20 F6 D2    			jsr	__banked_function_call
  628  5171     AA          			tax
  629  5172     08          			php
  630  5173     78          			sei
  631  5174     18          			clc
  632  5175     A5 28       			lda	__stack_ptr
  633  5177     69 02       			adc	#.low.2
  634  5179     85 28       			sta	__stack_ptr
  635  517B     A5 29       			lda	__stack_ptr+1
  636  517D     69 00       			adc	#.high.2
  637  517F     85 29       			sta	__stack_ptr+1
  638  5181     28          			plp
  639  5182     8A          			txa
  640  5183     38          			sec
  641  5184     E9 00       			sbc	#0
  642  5186     F0 03       			beq	+3
  643  5188     4C 93 51    			jmp	?BOL4
  644         3918 518B   	?PLC4:		.equal	$
  645                     			.c_end	0eb9h,120
  646                     	;g_GameMTReadKey=0
  647                     			.c_start  0ec0h,121
  648  518B     A9 00       			lda	#0
  649  518D     8D 06 18    			sta	_g_GameMTReadKey
  650                     			.c_end	0ed1h,121
  651                     	;break;
  652                     	;		
  653  5190     4C EE 52    			jmp	?BOL3
  654                     	;
  655                     	;(!GuiTranslateMsg(&gMsg))
  656         3119 5193   	?BOL4:		.equal	$
  657                     			.if_top	0ee6h,?BOL5,2,124
  658  5193     18          			clc
  659  5194     A5 28       			lda	__stack_ptr
  660  5196     69 00       			adc	#.low.-3+?LSC1
  661  5198     85 20       			sta	__oper1
  662  519A     A5 29       			lda	__stack_ptr+1
  663  519C     69 00       			adc	#.high.-3+?LSC1
  664  519E     85 21       			sta	__oper1+1
  665  51A0     20 CA DA    			jsr	__store_int_funct_arg
  666  51A3     A2 3E       			ldx	#.low.&GuiTranslateMsg
  667  51A5     86 26       			stx	__addr_reg
  668  51A7     A2 E9       			ldx	#.high.&GuiTranslateMsg+1
  669  51A9     86 27       			stx	__addr_reg+1
  670                     			.bf_call
  671  51AB     20 F6 D2    			jsr	__banked_function_call
  672  51AE     AA          			tax
  673  51AF     08          			php
  Tue Jan 13 23:03:19 2026                                                                                               Page   13




  674  51B0     78          			sei
  675  51B1     18          			clc
  676  51B2     A5 28       			lda	__stack_ptr
  677  51B4     69 02       			adc	#.low.2
  678  51B6     85 28       			sta	__stack_ptr
  679  51B8     A5 29       			lda	__stack_ptr+1
  680  51BA     69 00       			adc	#.high.2
  681  51BC     85 29       			sta	__stack_ptr+1
  682  51BE     28          			plp
  683  51BF     8A          			txa
  684  51C0     38          			sec
  685  51C1     E9 00       			sbc	#0
  686  51C3     F0 03       			beq	+3
  687  51C5     4C D0 51    			jmp	?BOL5
  688         3623 51C8   	?PLC5:		.equal	$
  689                     			.c_end	0f00h,124
  690                     	;g_GameMTReadKey=0
  691                     			.c_start  0f08h,125
  692  51C8     A9 00       			lda	#0
  693  51CA     8D 06 18    			sta	_g_GameMTReadKey
  694                     			.c_end	0f19h,125
  695                     	;break;
  696                     	;			
  697  51CD     4C EE 52    			jmp	?BOL3
  698                     	;
  699                     	;((gMsg.type == 0x0a) && (gMsg.param == 3))
  700                     	;			
  701         4523 51D0   	?BOL5:		.equal	$
  702                     			.if_top	0f30h,?BOL6,2,128
  703  51D0     A0 00       			ldy	#-3+0+?LSC1
  704  51D2     B1 28       			lda	(__stack_ptr),y
  705  51D4     38          			sec
  706  51D5     E9 0A       			sbc	#10
  707  51D7     F0 03       			beq	+3
  708  51D9     4C 27 52    			jmp	?BOL6
  709         3A24 51DC   	?ACC0:		.equal	$
  710  51DC     A0 01       			ldy	#-3+1+?LSC1
  711  51DE     B1 28       			lda	(__stack_ptr),y
  712  51E0     85 20       			sta	__oper1
  713  51E2     C8          			iny
  714  51E3     B1 28       			lda	(__stack_ptr),y
  715  51E5     85 21       			sta	__oper1+1
  716  51E7     A9 03       			lda	#.low.3
  717  51E9     85 23       			sta	__oper2
  718  51EB     A9 00       			lda	#.high.3
  719  51ED     85 24       			sta	__oper2+1
  720  51EF     20 40 D3    			jsr	__cmp_int
  721  51F2     F0 03       			beq	+3
  722  51F4     4C 27 52    			jmp	?BOL6
  723         3526 51F7   	?PLC6:		.equal	$
  724                     			.c_end	0f71h,129
  725                     	;g_GameMTQuit=1
  726                     			.c_start  0f7ch,130
  727  51F7     A9 01       			lda	#1
  728  51F9     8D 05 18    			sta	_g_GameMTQuit
  729                     			.c_end	0f8dh,130
  730                     	;GuiSetKbdState(g_GameMTKBState)
  Tue Jan 13 23:03:19 2026                                                                                               Page   14




  731                     			.c_start  0f94h,131
  732  51FC     AD 0B 18    			lda	_g_GameMTKBState
  733  51FF     85 20       			sta	__oper1
  734  5201     AD 0C 18    			lda	_g_GameMTKBState+1
  735  5204     85 21       			sta	__oper1+1
  736  5206     20 CA DA    			jsr	__store_int_funct_arg
  737  5209     A2 68       			ldx	#.low.&GuiSetKbdState
  738  520B     86 26       			stx	__addr_reg
  739  520D     A2 E9       			ldx	#.high.&GuiSetKbdState+1
  740  520F     86 27       			stx	__addr_reg+1
  741                     			.bf_call
  742  5211     20 F6 D2    			jsr	__banked_function_call
  743  5214     08          			php
  744  5215     78          			sei
  745  5216     18          			clc
  746  5217     A5 28       			lda	__stack_ptr
  747  5219     69 02       			adc	#.low.2
  748  521B     85 28       			sta	__stack_ptr
  749  521D     A5 29       			lda	__stack_ptr+1
  750  521F     69 00       			adc	#.high.2
  751  5221     85 29       			sta	__stack_ptr+1
  752  5223     28          			plp
  753                     			.c_end	0fb3h,131
  754                     	;break;
  755                     	;			
  756  5224     4C EE 52    			jmp	?BOL3
  757                     	;
  758                     	;(gMsg.type)
  759                     	;		
  760         3512 5227   	?BOL6:		.equal	$
  761                     			.c_start  0fdch,134
  762  5227     A0 00       			ldy	#-3+0+?LSC1
  763  5229     B1 28       			lda	(__stack_ptr),y
  764  522B     85 23       			sta	__oper2
  765  522D     A2 00       			ldx	#0
  766  522F     86 24       			stx	__oper2+1
  767         4712 5231   	?PLC7:		.equal	$
  768                     			.c_end	0feeh,135
  769                     	;
  770                     			.sw_start
  771                     			.sw_case ?SWL0
  772  5231     38          			sec
  773  5232     A9 05       			lda	#.low.5
  774  5234     E5 23       			sbc	__oper2
  775  5236     85 20       			sta	__oper1
  776  5238     A9 00       			lda	#.high.5
  777  523A     E5 24       			sbc	__oper2+1
  778  523C     05 20       			ora	__oper1
  779  523E     D0 03       			bne	+3
  780                     			.sw_jump
  781  5240     4C 58 52    			jmp	?SWL0
  782                     			.sw_case ?SWL9
  783  5243     38          			sec
  784  5244     A9 06       			lda	#.low.6
  785  5246     E5 23       			sbc	__oper2
  786  5248     85 20       			sta	__oper1
  787  524A     A9 00       			lda	#.high.6
  Tue Jan 13 23:03:19 2026                                                                                               Page   15




  788  524C     E5 24       			sbc	__oper2+1
  789  524E     05 20       			ora	__oper1
  790  5250     D0 03       			bne	+3
  791                     			.sw_jump
  792  5252     4C E3 52    			jmp	?SWL9
  793                     			.sw_case ?BOL7
  794                     			.sw_jump
  795  5255     4C E8 52    			jmp	?BOL7
  796                     			.sw_end
  797                     	;case	0x05:
  798                     	;				
  799         3615 5258   	?SWL0:		.equal	$
  800                     	;(gMsg.param)
  801                     	;					
  802                     			.c_start  0100eh,137
  803  5258     A0 01       			ldy	#-3+1+?LSC1
  804  525A     B1 28       			lda	(__stack_ptr),y
  805  525C     85 20       			sta	__oper1
  806  525E     C8          			iny
  807  525F     B1 28       			lda	(__stack_ptr),y
  808  5261     85 21       			sta	__oper1+1
  809  5263     A5 20       			lda	__oper1
  810  5265     85 23       			sta	__oper2
  811  5267     A5 21       			lda	__oper1+1
  812  5269     85 24       			sta	__oper2+1
  813         3A16 526B   	?PLC8:		.equal	$
  814                     			.c_end	01021h,138
  815                     	;
  816                     			.sw_start
  817                     			.const_data_psnake
  818  8CF7     2400        	?CGL0:	.word	36
  819  8CF9     2500        			.word	37
  820  8CFB     2200        			.word	34
  821  8CFD     2300        			.word	35
  822  8CFF     2600        			.word	38
  823  8D01     2700        			.word	39
  824  8D03     2800        			.word	40
  825  8D05     3300        			.word	51
  826  8D07     8252        	?CGL1:	.word	?SWL1
  827                     			.sw_case ?SWL1
  828  8D09     8A52        			.word	?SWL2
  829                     			.sw_case ?SWL2
  830  8D0B     9252        			.word	?SWL3
  831                     			.sw_case ?SWL3
  832  8D0D     9A52        			.word	?SWL4
  833                     			.sw_case ?SWL4
  834  8D0F     A252        			.word	?SWL5
  835                     			.sw_case ?SWL5
  836  8D11     CB52        			.word	?SWL6
  837                     			.sw_case ?SWL6
  838  8D13     D352        			.word	?SWL7
  839                     			.sw_case ?SWL7
  840  8D15     DB52        			.word	?SWL8
  841                     			.sw_case ?SWL8
  842                     			.program_psnake
  843  526B     A9 F7       			lda	#.low.?CGL0
  844  526D     85 26       			sta	__addr_reg
  Tue Jan 13 23:03:19 2026                                                                                               Page   16




  845  526F     A9 8C       			lda	#.high.?CGL0
  846  5271     85 27       			sta	__addr_reg+1
  847                     			.sw_case ?BOL8
  848  5273     A2 08       			ldx	#.low.8
  849  5275     A0 00       			ldy	#.high.8
  850  5277     A9 E0       			lda	#.low.?BOL8
  851  5279     85 20       			sta	__oper1
  852  527B     A9 52       			lda	#.high.?BOL8
  853  527D     85 21       			sta	__oper1+1
  854  527F     4C 5C DB    			jmp	__switch_comparison
  855                     			.sw_end
  856                     	;case 0x24:
  857                     	;							
  858         4717 5282   	?SWL1:		.equal	$
  859                     	;g_GameMTReadKey=1
  860                     			.c_start  01048h,140
  861  5282     A9 01       			lda	#1
  862  5284     8D 06 18    			sta	_g_GameMTReadKey
  863                     			.c_end	01059h,140
  864                     	;break;
  865                     	;						
  866                     			.sw_break
  867  5287     4C E0 52    			jmp	?BOL8
  868                     	;case 0x25:
  869                     	;							
  870         3818 528A   	?SWL2:		.equal	$
  871                     	;g_GameMTReadKey=2
  872                     			.c_start  0108ah,143
  873  528A     A9 02       			lda	#2
  874  528C     8D 06 18    			sta	_g_GameMTReadKey
  875                     			.c_end	0109bh,143
  876                     	;break;
  877                     	;						
  878                     			.sw_break
  879  528F     4C E0 52    			jmp	?BOL8
  880                     	;case 0x22:					
  881                     	;							
  882         4718 5292   	?SWL3:		.equal	$
  883                     	;g_GameMTReadKey=3
  884                     			.c_start  010ceh,146
  885  5292     A9 03       			lda	#3
  886  5294     8D 06 18    			sta	_g_GameMTReadKey
  887                     			.c_end	010dfh,146
  888                     	;break;
  889                     	;						
  890                     			.sw_break
  891  5297     4C E0 52    			jmp	?BOL8
  892                     	;case 0x23:
  893                     	;							
  894         3819 529A   	?SWL4:		.equal	$
  895                     	;g_GameMTReadKey=4
  896                     			.c_start  0110fh,149
  897  529A     A9 04       			lda	#4
  898  529C     8D 06 18    			sta	_g_GameMTReadKey
  899                     			.c_end	01120h,149
  900                     	;break;
  901                     	;						
  Tue Jan 13 23:03:19 2026                                                                                               Page   17




  902                     			.sw_break
  903  529F     4C E0 52    			jmp	?BOL8
  904                     	;case 0x26:	
  905                     	;							
  906         4719 52A2   	?SWL5:		.equal	$
  907                     	;GuiDownAppHelp(GameMTHelpData)
  908                     			.c_start  01151h,152
  909  52A2     A9 3F       			lda	#.low._GameMTHelpData
  910  52A4     85 20       			sta	__oper1
  911  52A6     A9 90       			lda	#.high._GameMTHelpData
  912  52A8     85 21       			sta	__oper1+1
  913  52AA     20 CA DA    			jsr	__store_int_funct_arg
  914  52AD     A2 80       			ldx	#.low.&GuiDownAppHelp
  915  52AF     86 26       			stx	__addr_reg
  916  52B1     A2 E9       			ldx	#.high.&GuiDownAppHelp+1
  917  52B3     86 27       			stx	__addr_reg+1
  918                     			.bf_call
  919  52B5     20 F6 D2    			jsr	__banked_function_call
  920  52B8     08          			php
  921  52B9     78          			sei
  922  52BA     18          			clc
  923  52BB     A5 28       			lda	__stack_ptr
  924  52BD     69 02       			adc	#.low.2
  925  52BF     85 28       			sta	__stack_ptr
  926  52C1     A5 29       			lda	__stack_ptr+1
  927  52C3     69 00       			adc	#.high.2
  928  52C5     85 29       			sta	__stack_ptr+1
  929  52C7     28          			plp
  930                     			.c_end	0116fh,152
  931                     	;break;
  932                     	;						
  933                     			.sw_break
  934  52C8     4C E0 52    			jmp	?BOL8
  935                     	;case 0x27:					
  936                     	;							
  937         3923 52CB   	?SWL6:		.equal	$
  938                     	;g_GameMTReadKey=6
  939                     			.c_start  011a9h,155
  940  52CB     A9 06       			lda	#6
  941  52CD     8D 06 18    			sta	_g_GameMTReadKey
  942                     			.c_end	011bah,155
  943                     	;break;
  944                     	;						
  945                     			.sw_break
  946  52D0     4C E0 52    			jmp	?BOL8
  947                     	;case 0x28:
  948                     	;							
  949         3124 52D3   	?SWL7:		.equal	$
  950                     	;g_GameMTReadKey=7
  951                     			.c_start  011eah,158
  952  52D3     A9 07       			lda	#7
  953  52D5     8D 06 18    			sta	_g_GameMTReadKey
  954                     			.c_end	011fbh,158
  955                     	;break;
  956                     	;						
  957                     			.sw_break
  958  52D8     4C E0 52    			jmp	?BOL8
  Tue Jan 13 23:03:19 2026                                                                                               Page   18




  959                     	;case 0x33:
  960                     	;							
  961         3924 52DB   	?SWL8:		.equal	$
  962                     	;g_GameMTReadKey=8
  963                     			.c_start  0122dh,161
  964  52DB     A9 08       			lda	#8
  965  52DD     8D 06 18    			sta	_g_GameMTReadKey
  966                     			.c_end	0123eh,161
  967                     	;
  968         4524 52E0   	?BOL8:		.equal	$
  969                     	;
  970                     	;break;
  971                     	;		
  972                     			.sw_break
  973  52E0     4C E8 52    			jmp	?BOL7
  974                     	;case	0x06:
  975                     	;			
  976         3125 52E3   	?SWL9:		.equal	$
  977                     	;g_GameMTReadKey=16
  978                     			.c_start  01269h,165
  979  52E3     A9 10       			lda	#16
  980  52E5     8D 06 18    			sta	_g_GameMTReadKey
  981                     			.c_end	0127bh,165
  982                     	;
  983         3625 52E8   	?BOL7:		.equal	$
  984                     	;
  985                     	;break;
  986                     	;	
  987  52E8     4C EE 52    			jmp	?BOL3
  988                     	;
  989                     			.whi_bot  1,168
  990  52EB     4C 4F 51    			jmp	?TOL3
  991         4325 52EE   	?BOL3:		.equal	$
  992                     	;
  993                     			.f_end	01297h,169
  994         4405 52EE   	?BOF1:		.equal	$
  995  52EE     08          			php
  996  52EF     78          			sei
  997  52F0     18          			clc
  998  52F1     A5 28       			lda	__stack_ptr
  999  52F3     69 03       			adc	#.low.+?LSC1+?TSC1+0
 1000  52F5     85 28       			sta	__stack_ptr
 1001  52F7     A5 29       			lda	__stack_ptr+1
 1002  52F9     69 00       			adc	#.high.+?LSC1+?TSC1+0
 1003  52FB     85 29       			sta	__stack_ptr+1
 1004  52FD     28          			plp
 1005                     			.f_return
 1006  52FE     60          			rts
 1007                     	;
 1008                     			.f_start  01454h,181
 1009                     			.bank_table
 1010                     			.global	&GameMTRefresh
 1011  9006     FF 52 E0    	&GameMTRefresh:	.bankaddr	_GameMTRefresh
 1012                     			.ends
 1013         3710 52FF   	_GameMTRefresh:	.equal	$
 1014                     			.attrib	_GameMTRefresh,182,f,b
 1015                     	;
  Tue Jan 13 23:03:19 2026                                                                                               Page   19




 1016                     	;
 1017         0000        	?ASC2:		.equal	0
 1018         0006        	?TSC2:		.equal	6
 1019         0004        	?LSC2:		.equal	4
 1020  52FF     08          			php
 1021  5300     78          			sei
 1022  5301     38          			sec
 1023  5302     A5 28       			lda	__stack_ptr
 1024  5304     E9 0A       			sbc	#.low.+?LSC2+?TSC2
 1025  5306     85 28       			sta	__stack_ptr
 1026  5308     A5 29       			lda	__stack_ptr+1
 1027  530A     E9 00       			sbc	#.high.+?LSC2+?TSC2
 1028  530C     85 29       			sta	__stack_ptr+1
 1029  530E     28          			plp
 1030                     	;unsigned char  	i=j=x=y;
 1031                     	;	
 1032                     			.local	_i,183,v,c,u,d,d,d,d,-1+?LSC2+0,00h
 1033                     			.local	_j,183,v,c,u,d,d,d,d,-2+?LSC2+0,00h
 1034                     			.local	_x,183,v,c,u,d,d,d,d,-3+?LSC2+0,00h
 1035                     			.local	_y,183,v,c,u,d,d,d,d,-4+?LSC2+0,00h
 1036                     	;x=g_GameMTHeroX-g_GameMTMapX
 1037                     			.c_start  01478h,184
 1038  530F     AD 0F 18    			lda	_g_GameMTHeroX
 1039  5312     38          			sec
 1040  5313     ED 0D 18    			sbc	_g_GameMTMapX
 1041  5316     A0 01       			ldy	#-3+?LSC2
 1042  5318     91 28       			sta	(__stack_ptr),y
 1043                     			.c_end	01494h,184
 1044                     	;y=g_GameMTHeroY-g_GameMTMapY
 1045                     			.c_start  01498h,185
 1046  531A     AD 10 18    			lda	_g_GameMTHeroY
 1047  531D     38          			sec
 1048  531E     ED 0E 18    			sbc	_g_GameMTMapY
 1049  5321     A0 00       			ldy	#-4+?LSC2
 1050  5323     91 28       			sta	(__stack_ptr),y
 1051                     			.c_end	014b4h,185
 1052                     	;i=0;
 1053                     			.c_start  014b8h,186
 1054  5325     A0 03       			ldy	#-1+?LSC2
 1055  5327     A9 00       			lda	#0
 1056  5329     91 28       			sta	(__stack_ptr),y
 1057                     			.c_end	014bfh,186
 1058         3A12 532B   	?FLC9:		.equal	$
 1059                     	;i<8;
 1060                     			.for_top  014c0h,?BOL9,?FLB9,?FLA9,1,186
 1061  532B     A0 03       			ldy	#-1+?LSC2
 1062  532D     B1 28       			lda	(__stack_ptr),y
 1063  532F     38          			sec
 1064  5330     E9 08       			sbc	#8
 1065  5332     90 03       			bcc	+3
 1066  5334     4C 99 55    			jmp	?BOL9
 1067                     			.c_end	014c3h,186
 1068  5337     4C 46 53    			jmp	?FLB9
 1069         3813 533A   	?FLA9:		.equal	$
 1070                     	;i++)
 1071                     	;		
 1072                     			.for_adj  014c4h,186
  Tue Jan 13 23:03:19 2026                                                                                               Page   20




 1073  533A     A0 03       			ldy	#-1+?LSC2
 1074  533C     B1 28       			lda	(__stack_ptr),y
 1075  533E     18          			clc
 1076  533F     69 01       			adc	#1
 1077  5341     91 28       			sta	(__stack_ptr),y
 1078                     			.c_end	014c9h,187
 1079  5343     4C 2B 53    			jmp	?FLC9
 1080         3414 5346   	?FLB9:		.equal	$
 1081                     	;j=0;
 1082                     			.c_start  014cch,187
 1083  5346     A0 02       			ldy	#-2+?LSC2
 1084  5348     A9 00       			lda	#0
 1085  534A     91 28       			sta	(__stack_ptr),y
 1086                     			.c_end	014d3h,187
 1087         4214 534C   	?FLC10:		.equal	$
 1088                     	;j<6;
 1089                     			.for_top  014d4h,?BOL10,?FLB10,?FLA10,2,187
 1090  534C     A0 02       			ldy	#-2+?LSC2
 1091  534E     B1 28       			lda	(__stack_ptr),y
 1092  5350     38          			sec
 1093  5351     E9 06       			sbc	#6
 1094  5353     90 03       			bcc	+3
 1095  5355     4C 96 55    			jmp	?BOL10
 1096                     			.c_end	014d7h,187
 1097  5358     4C 67 53    			jmp	?FLB10
 1098         3915 535B   	?FLA10:		.equal	$
 1099                     	;j++)
 1100                     	;			
 1101                     			.for_adj  014d8h,187
 1102  535B     A0 02       			ldy	#-2+?LSC2
 1103  535D     B1 28       			lda	(__stack_ptr),y
 1104  535F     18          			clc
 1105  5360     69 01       			adc	#1
 1106  5362     91 28       			sta	(__stack_ptr),y
 1107                     			.c_end	014ddh,188
 1108  5364     4C 4C 53    			jmp	?FLC10
 1109         3516 5367   	?FLB10:		.equal	$
 1110                     	;(i==x&&j==y)
 1111                     			.if_top	014e1h,?BOL11,3,188
 1112  5367     A0 03       			ldy	#-1+?LSC2
 1113  5369     B1 28       			lda	(__stack_ptr),y
 1114  536B     A0 01       			ldy	#-3+?LSC2
 1115  536D     38          			sec
 1116  536E     F1 28       			sbc	(__stack_ptr),y
 1117  5370     F0 03       			beq	+3
 1118  5372     4C 3B 54    			jmp	?BOL11
 1119         3317 5375   	?ACC1:		.equal	$
 1120  5375     A0 02       			ldy	#-2+?LSC2
 1121  5377     B1 28       			lda	(__stack_ptr),y
 1122  5379     A0 00       			ldy	#-4+?LSC2
 1123  537B     38          			sec
 1124  537C     F1 28       			sbc	(__stack_ptr),y
 1125  537E     F0 03       			beq	+3
 1126  5380     4C 3B 54    			jmp	?BOL11
 1127         3118 5383   	?PLC9:		.equal	$
 1128                     			.c_end	014eeh,188
 1129                     	;SysPicture(x*16,y*16,x*16+15,y*16+15,GameMTHeroPic[g_GameMTHeroDir],0)
  Tue Jan 13 23:03:19 2026                                                                                               Page   21




 1130                     			.c_start  014e1h,188
 1131  5383     A9 10       			lda	#16
 1132  5385     85 23       			sta	__oper2
 1133  5387     A0 01       			ldy	#-3+?LSC2
 1134  5389     B1 28       			lda	(__stack_ptr),y
 1135  538B     20 EF DC    			jsr	__uns_mult_char
 1136  538E     A0 04       			ldy	#+0+?LSC2
 1137  5390     91 28       			sta	(__stack_ptr),y
 1138  5392     A9 10       			lda	#16
 1139  5394     85 23       			sta	__oper2
 1140  5396     A0 00       			ldy	#-4+?LSC2
 1141  5398     B1 28       			lda	(__stack_ptr),y
 1142  539A     20 EF DC    			jsr	__uns_mult_char
 1143  539D     A0 05       			ldy	#+1+?LSC2
 1144  539F     91 28       			sta	(__stack_ptr),y
 1145  53A1     A9 10       			lda	#16
 1146  53A3     85 23       			sta	__oper2
 1147  53A5     A0 01       			ldy	#-3+?LSC2
 1148  53A7     B1 28       			lda	(__stack_ptr),y
 1149  53A9     20 EF DC    			jsr	__uns_mult_char
 1150  53AC     18          			clc
 1151  53AD     69 0F       			adc	#15
 1152  53AF     A0 06       			ldy	#+2+?LSC2
 1153  53B1     91 28       			sta	(__stack_ptr),y
 1154  53B3     A9 10       			lda	#16
 1155  53B5     85 23       			sta	__oper2
 1156  53B7     A0 00       			ldy	#-4+?LSC2
 1157  53B9     B1 28       			lda	(__stack_ptr),y
 1158  53BB     20 EF DC    			jsr	__uns_mult_char
 1159  53BE     18          			clc
 1160  53BF     69 0F       			adc	#15
 1161  53C1     A0 07       			ldy	#+3+?LSC2
 1162  53C3     91 28       			sta	(__stack_ptr),y
 1163  53C5     A9 20       			lda	#.low.32
 1164  53C7     85 23       			sta	__oper2
 1165  53C9     A9 00       			lda	#.high.32
 1166  53CB     85 24       			sta	__oper2+1
 1167  53CD     AD A6 1F    			lda	_g_GameMTHeroDir
 1168  53D0     85 20       			sta	__oper1
 1169  53D2     A9 00       			lda	#0
 1170  53D4     85 21       			sta	__oper1+1
 1171  53D6     20 AF D6    			jsr	__mult_int
 1172  53D9     18          			clc
 1173  53DA     A5 20       			lda	__oper1
 1174  53DC     69 9E       			adc	#.low._GameMTHeroPic
 1175  53DE     85 20       			sta	__oper1
 1176  53E0     A5 21       			lda	__oper1+1
 1177  53E2     69 90       			adc	#.high._GameMTHeroPic
 1178  53E4     85 21       			sta	__oper1+1
 1179  53E6     A0 08       			ldy	#+4+?LSC2
 1180  53E8     A5 20       			lda	__oper1
 1181  53EA     91 28       			sta	(__stack_ptr),y
 1182  53EC     C8          			iny
 1183  53ED     A5 21       			lda	__oper1+1
 1184  53EF     91 28       			sta	(__stack_ptr),y
 1185  53F1     A9 00       			lda	#0
 1186  53F3     20 AA DA    			jsr	__store_char_funct_arg
  Tue Jan 13 23:03:19 2026                                                                                               Page   22




 1187  53F6     A0 09       			ldy	#+4+?LSC2+1
 1188  53F8     B1 28       			lda	(__stack_ptr),y
 1189  53FA     85 20       			sta	__oper1
 1190  53FC     C8          			iny
 1191  53FD     B1 28       			lda	(__stack_ptr),y
 1192  53FF     85 21       			sta	__oper1+1
 1193  5401     20 CA DA    			jsr	__store_int_funct_arg
 1194  5404     A0 0A       			ldy	#+3+?LSC2+3
 1195  5406     B1 28       			lda	(__stack_ptr),y
 1196  5408     20 AA DA    			jsr	__store_char_funct_arg
 1197  540B     A0 0A       			ldy	#+2+?LSC2+4
 1198  540D     B1 28       			lda	(__stack_ptr),y
 1199  540F     20 AA DA    			jsr	__store_char_funct_arg
 1200  5412     A0 0A       			ldy	#+1+?LSC2+5
 1201  5414     B1 28       			lda	(__stack_ptr),y
 1202  5416     20 AA DA    			jsr	__store_char_funct_arg
 1203  5419     A0 0A       			ldy	#+0+?LSC2+6
 1204  541B     B1 28       			lda	(__stack_ptr),y
 1205  541D     A2 8E       			ldx	#.low.&SysPicture
 1206  541F     86 26       			stx	__addr_reg
 1207  5421     A2 E7       			ldx	#.high.&SysPicture+1
 1208  5423     86 27       			stx	__addr_reg+1
 1209                     			.bf_call
 1210  5425     20 F6 D2    			jsr	__banked_function_call
 1211  5428     08          			php
 1212  5429     78          			sei
 1213  542A     18          			clc
 1214  542B     A5 28       			lda	__stack_ptr
 1215  542D     69 06       			adc	#.low.6
 1216  542F     85 28       			sta	__stack_ptr
 1217  5431     A5 29       			lda	__stack_ptr+1
 1218  5433     69 00       			adc	#.high.6
 1219  5435     85 29       			sta	__stack_ptr+1
 1220  5437     28          			plp
 1221                     			.c_end	01535h,188
 1222                     	;;
 1223                     	;				
 1224                     	;else
 1225                     	;					
 1226  5438     4C 93 55    			jmp	?EOI11
 1227                     			.if_else  ?EOI11,3,190
 1228         3913 543B   	?BOL11:		.equal	$
 1229                     	;SysPicture(i*16,j*16,i*16+15,j*16+15,GameMTUnitPic[g_GameMTCurMap[(unsigned int )g_GameMTFloor*121+(g_GameMTMapY+j)
                            *11+g_GameMTMapX+i]],0)
 1230                     			.c_start  01547h,190
 1231  543B     A9 10       			lda	#16
 1232  543D     85 23       			sta	__oper2
 1233  543F     A0 03       			ldy	#-1+?LSC2
 1234  5441     B1 28       			lda	(__stack_ptr),y
 1235  5443     20 EF DC    			jsr	__uns_mult_char
 1236  5446     A0 04       			ldy	#+0+?LSC2
 1237  5448     91 28       			sta	(__stack_ptr),y
 1238  544A     A9 10       			lda	#16
 1239  544C     85 23       			sta	__oper2
 1240  544E     A0 02       			ldy	#-2+?LSC2
 1241  5450     B1 28       			lda	(__stack_ptr),y
 1242  5452     20 EF DC    			jsr	__uns_mult_char
  Tue Jan 13 23:03:19 2026                                                                                               Page   23




 1243  5455     A0 05       			ldy	#+1+?LSC2
 1244  5457     91 28       			sta	(__stack_ptr),y
 1245  5459     A9 10       			lda	#16
 1246  545B     85 23       			sta	__oper2
 1247  545D     A0 03       			ldy	#-1+?LSC2
 1248  545F     B1 28       			lda	(__stack_ptr),y
 1249  5461     20 EF DC    			jsr	__uns_mult_char
 1250  5464     18          			clc
 1251  5465     69 0F       			adc	#15
 1252  5467     A0 06       			ldy	#+2+?LSC2
 1253  5469     91 28       			sta	(__stack_ptr),y
 1254  546B     A9 10       			lda	#16
 1255  546D     85 23       			sta	__oper2
 1256  546F     A0 02       			ldy	#-2+?LSC2
 1257  5471     B1 28       			lda	(__stack_ptr),y
 1258  5473     20 EF DC    			jsr	__uns_mult_char
 1259  5476     18          			clc
 1260  5477     69 0F       			adc	#15
 1261  5479     A0 07       			ldy	#+3+?LSC2
 1262  547B     91 28       			sta	(__stack_ptr),y
 1263  547D     AD A7 1F    			lda	_g_GameMTFloor
 1264  5480     85 20       			sta	__oper1
 1265  5482     A9 00       			lda	#0
 1266  5484     85 21       			sta	__oper1+1
 1267  5486     A9 79       			lda	#.low.121
 1268  5488     85 23       			sta	__oper2
 1269  548A     A9 00       			lda	#.high.121
 1270  548C     85 24       			sta	__oper2+1
 1271  548E     20 F4 DC    			jsr	__uns_mult_int
 1272  5491     A0 08       			ldy	#+4+?LSC2
 1273  5493     A5 20       			lda	__oper1
 1274  5495     91 28       			sta	(__stack_ptr),y
 1275  5497     C8          			iny
 1276  5498     A5 21       			lda	__oper1+1
 1277  549A     91 28       			sta	(__stack_ptr),y
 1278  549C     AD 0E 18    			lda	_g_GameMTMapY
 1279  549F     A0 02       			ldy	#-2+?LSC2
 1280  54A1     18          			clc
 1281  54A2     71 28       			adc	(__stack_ptr),y
 1282  54A4     48          			pha
 1283  54A5     A9 0B       			lda	#11
 1284  54A7     85 23       			sta	__oper2
 1285  54A9     68          			pla
 1286  54AA     20 EF DC    			jsr	__uns_mult_char
 1287  54AD     85 23       			sta	__oper2
 1288  54AF     A2 00       			ldx	#0
 1289  54B1     86 24       			stx	__oper2+1
 1290  54B3     A0 08       			ldy	#+4+?LSC2
 1291  54B5     B1 28       			lda	(__stack_ptr),y
 1292  54B7     85 20       			sta	__oper1
 1293  54B9     C8          			iny
 1294  54BA     B1 28       			lda	(__stack_ptr),y
 1295  54BC     85 21       			sta	__oper1+1
 1296  54BE     18          			clc
 1297  54BF     A5 20       			lda	__oper1
 1298  54C1     65 23       			adc	__oper2
 1299  54C3     85 20       			sta	__oper1
  Tue Jan 13 23:03:19 2026                                                                                               Page   24




 1300  54C5     A5 21       			lda	__oper1+1
 1301  54C7     65 24       			adc	__oper2+1
 1302  54C9     85 21       			sta	__oper1+1
 1303  54CB     A5 20       			lda	__oper1
 1304  54CD     85 23       			sta	__oper2
 1305  54CF     A5 21       			lda	__oper1+1
 1306  54D1     85 24       			sta	__oper2+1
 1307  54D3     AD 0D 18    			lda	_g_GameMTMapX
 1308  54D6     85 20       			sta	__oper1
 1309  54D8     A9 00       			lda	#0
 1310  54DA     85 21       			sta	__oper1+1
 1311  54DC     18          			clc
 1312  54DD     A5 20       			lda	__oper1
 1313  54DF     65 23       			adc	__oper2
 1314  54E1     85 20       			sta	__oper1
 1315  54E3     A5 21       			lda	__oper1+1
 1316  54E5     65 24       			adc	__oper2+1
 1317  54E7     85 21       			sta	__oper1+1
 1318  54E9     A5 20       			lda	__oper1
 1319  54EB     85 23       			sta	__oper2
 1320  54ED     A5 21       			lda	__oper1+1
 1321  54EF     85 24       			sta	__oper2+1
 1322  54F1     A0 03       			ldy	#-1+?LSC2
 1323  54F3     B1 28       			lda	(__stack_ptr),y
 1324  54F5     85 20       			sta	__oper1
 1325  54F7     A9 00       			lda	#0
 1326  54F9     85 21       			sta	__oper1+1
 1327  54FB     18          			clc
 1328  54FC     A5 20       			lda	__oper1
 1329  54FE     65 23       			adc	__oper2
 1330  5500     85 20       			sta	__oper1
 1331  5502     A5 21       			lda	__oper1+1
 1332  5504     65 24       			adc	__oper2+1
 1333  5506     85 21       			sta	__oper1+1
 1334  5508     18          			clc
 1335  5509     AD A8 1F    			lda	_g_GameMTCurMap
 1336  550C     65 20       			adc	__oper1
 1337  550E     85 20       			sta	__oper1
 1338  5510     AD A9 1F    			lda	_g_GameMTCurMap+1
 1339  5513     65 21       			adc	__oper1+1
 1340  5515     85 21       			sta	__oper1+1
 1341  5517     A0 00       			ldy	#0
 1342  5519     B1 20       			lda	(__oper1),y
 1343  551B     A0 08       			ldy	#+4+?LSC2
 1344  551D     91 28       			sta	(__stack_ptr),y
 1345  551F     A9 20       			lda	#.low.32
 1346  5521     85 23       			sta	__oper2
 1347  5523     A9 00       			lda	#.high.32
 1348  5525     85 24       			sta	__oper2+1
 1349  5527     A0 08       			ldy	#+4+?LSC2
 1350  5529     B1 28       			lda	(__stack_ptr),y
 1351  552B     85 20       			sta	__oper1
 1352  552D     A9 00       			lda	#0
 1353  552F     85 21       			sta	__oper1+1
 1354  5531     20 AF D6    			jsr	__mult_int
 1355  5534     18          			clc
 1356  5535     A5 20       			lda	__oper1
  Tue Jan 13 23:03:19 2026                                                                                               Page   25




 1357  5537     69 16       			adc	#.low._GameMTUnitPic
 1358  5539     85 20       			sta	__oper1
 1359  553B     A5 21       			lda	__oper1+1
 1360  553D     69 B4       			adc	#.high._GameMTUnitPic
 1361  553F     85 21       			sta	__oper1+1
 1362  5541     A0 08       			ldy	#+4+?LSC2
 1363  5543     A5 20       			lda	__oper1
 1364  5545     91 28       			sta	(__stack_ptr),y
 1365  5547     C8          			iny
 1366  5548     A5 21       			lda	__oper1+1
 1367  554A     91 28       			sta	(__stack_ptr),y
 1368  554C     A9 00       			lda	#0
 1369  554E     20 AA DA    			jsr	__store_char_funct_arg
 1370  5551     A0 09       			ldy	#+4+?LSC2+1
 1371  5553     B1 28       			lda	(__stack_ptr),y
 1372  5555     85 20       			sta	__oper1
 1373  5557     C8          			iny
 1374  5558     B1 28       			lda	(__stack_ptr),y
 1375  555A     85 21       			sta	__oper1+1
 1376  555C     20 CA DA    			jsr	__store_int_funct_arg
 1377  555F     A0 0A       			ldy	#+3+?LSC2+3
 1378  5561     B1 28       			lda	(__stack_ptr),y
 1379  5563     20 AA DA    			jsr	__store_char_funct_arg
 1380  5566     A0 0A       			ldy	#+2+?LSC2+4
 1381  5568     B1 28       			lda	(__stack_ptr),y
 1382  556A     20 AA DA    			jsr	__store_char_funct_arg
 1383  556D     A0 0A       			ldy	#+1+?LSC2+5
 1384  556F     B1 28       			lda	(__stack_ptr),y
 1385  5571     20 AA DA    			jsr	__store_char_funct_arg
 1386  5574     A0 0A       			ldy	#+0+?LSC2+6
 1387  5576     B1 28       			lda	(__stack_ptr),y
 1388  5578     A2 8E       			ldx	#.low.&SysPicture
 1389  557A     86 26       			stx	__addr_reg
 1390  557C     A2 E7       			ldx	#.high.&SysPicture+1
 1391  557E     86 27       			stx	__addr_reg+1
 1392                     			.bf_call
 1393  5580     20 F6 D2    			jsr	__banked_function_call
 1394  5583     08          			php
 1395  5584     78          			sei
 1396  5585     18          			clc
 1397  5586     A5 28       			lda	__stack_ptr
 1398  5588     69 06       			adc	#.low.6
 1399  558A     85 28       			sta	__stack_ptr
 1400  558C     A5 29       			lda	__stack_ptr+1
 1401  558E     69 00       			adc	#.high.6
 1402  5590     85 29       			sta	__stack_ptr+1
 1403  5592     28          			plp
 1404                     			.c_end	015c7h,190
 1405                     	;;
 1406                     	;	
 1407                     	;
 1408         3319 5593   	?EOI11:		.equal	$
 1409                     			.for_bot  2,190
 1410  5593     4C 5B 53    			jmp	?FLA10
 1411         3419 5596   	?BOL10:		.equal	$
 1412                     			.for_bot  1,190
 1413  5596     4C 3A 53    			jmp	?FLA9
  Tue Jan 13 23:03:19 2026                                                                                               Page   26




 1414         3719 5599   	?BOL9:		.equal	$
 1415                     	;
 1416                     			.f_end	015cdh,192
 1417         37F9 5599   	?BOF2:		.equal	$
 1418  5599     08          			php
 1419  559A     78          			sei
 1420  559B     18          			clc
 1421  559C     A5 28       			lda	__stack_ptr
 1422  559E     69 0A       			adc	#.low.+?LSC2+?TSC2+0
 1423  55A0     85 28       			sta	__stack_ptr
 1424  55A2     A5 29       			lda	__stack_ptr+1
 1425  55A4     69 00       			adc	#.high.+?LSC2+?TSC2+0
 1426  55A6     85 29       			sta	__stack_ptr+1
 1427  55A8     28          			plp
 1428                     			.f_return
 1429  55A9     60          			rts
 1430                     	;
 1431                     			.f_start  017a1h,204
 1432                     			.bank_table
 1433                     			.global	&GameMTTalk
 1434  9009     AA 55 E0    	&GameMTTalk:	.bankaddr	_GameMTTalk
 1435                     			.ends
 1436         3A10 55AA   	_GameMTTalk:	.equal	$
 1437                     			.attrib	_GameMTTalk,205,f,b
 1438  55AA     20 AA DA    			jsr	__store_char_funct_arg
 1439                     	;
 1440                     	;
 1441         0003        	?ASC3:		.equal	3
 1442         0004        	?TSC3:		.equal	4
 1443         0015        	?LSC3:		.equal	21
 1444  55AD     08          			php
 1445  55AE     78          			sei
 1446  55AF     38          			sec
 1447  55B0     A5 28       			lda	__stack_ptr
 1448  55B2     E9 19       			sbc	#.low.+?LSC3+?TSC3
 1449  55B4     85 28       			sta	__stack_ptr
 1450  55B6     A5 29       			lda	__stack_ptr+1
 1451  55B8     E9 00       			sbc	#.high.+?LSC3+?TSC3
 1452  55BA     85 29       			sta	__stack_ptr+1
 1453  55BC     28          			plp
 1454                     	;{
 1455                     			.local	_line,205,v,c,u,d,d,d,d,0+?LSC3+?TSC3+0,00h
 1456                     			.local	_number,205,v,i,u,d,d,d,d,1+?LSC3+?TSC3+0,00h
 1457                     			.local	_flag,205,v,c,u,d,d,d,d,3+?LSC3+?TSC3+0,00h
 1458                     	;unsigned char 	i=temp[20];
 1459                     	;	
 1460                     			.local	_i,206,v,c,u,d,d,d,d,-1+?LSC3+0,00h
 1461                     			.local	_temp,206,v,c,u,d,d,d,d,-21+?LSC3+0,014h,00h
 1462                     	;(g_GameMTQuit)
 1463                     			.if_top	017deh,?BOL12,1,207
 1464  55BD     AD 05 18    			lda	_g_GameMTQuit
 1465  55C0     D0 03       			bne	+3
 1466  55C2     4C C8 55    			jmp	?BOL12
 1467         3323 55C5   	?PLC10:		.equal	$
 1468                     			.c_end	017edh,207
 1469                     	;return
 1470                     			.c_start  017deh,207
  Tue Jan 13 23:03:19 2026                                                                                               Page   27




 1471  55C5     4C 18 5C    			jmp	?BOF3
 1472                     			.c_end	017f4h,207
 1473                     	;;
 1474                     	;	
 1475                     	;g_GameMTTimeOut=0
 1476         3623 55C8   	?BOL12:		.equal	$
 1477                     			.c_start  017f8h,208
 1478  55C8     A9 00       			lda	#0
 1479  55CA     8D 07 18    			sta	_g_GameMTTimeOut
 1480                     			.c_end	01809h,208
 1481                     	;SysSaveScreen(4,5,154,90,g_GameMTBuf)
 1482                     			.c_start  0180dh,209
 1483  55CD     A9 13       			lda	#.low._g_GameMTBuf
 1484  55CF     85 20       			sta	__oper1
 1485  55D1     A9 18       			lda	#.high._g_GameMTBuf
 1486  55D3     85 21       			sta	__oper1+1
 1487  55D5     20 CA DA    			jsr	__store_int_funct_arg
 1488  55D8     A9 5A       			lda	#90
 1489  55DA     20 AA DA    			jsr	__store_char_funct_arg
 1490  55DD     A9 9A       			lda	#.low.154
 1491  55DF     85 20       			sta	__oper1
 1492  55E1     A9 00       			lda	#.high.154
 1493  55E3     85 21       			sta	__oper1+1
 1494  55E5     A5 20       			lda	__oper1
 1495  55E7     20 AA DA    			jsr	__store_char_funct_arg
 1496  55EA     A9 05       			lda	#5
 1497  55EC     20 AA DA    			jsr	__store_char_funct_arg
 1498  55EF     A9 04       			lda	#4
 1499  55F1     A2 77       			ldx	#.low.&SysSaveScreen
 1500  55F3     86 26       			stx	__addr_reg
 1501  55F5     A2 E8       			ldx	#.high.&SysSaveScreen+1
 1502  55F7     86 27       			stx	__addr_reg+1
 1503                     			.bf_call
 1504  55F9     20 F6 D2    			jsr	__banked_function_call
 1505  55FC     08          			php
 1506  55FD     78          			sei
 1507  55FE     18          			clc
 1508  55FF     A5 28       			lda	__stack_ptr
 1509  5601     69 05       			adc	#.low.5
 1510  5603     85 28       			sta	__stack_ptr
 1511  5605     A5 29       			lda	__stack_ptr+1
 1512  5607     69 00       			adc	#.high.5
 1513  5609     85 29       			sta	__stack_ptr+1
 1514  560B     28          			plp
 1515                     			.c_end	01832h,209
 1516                     	;SysPicture(5,45-8*line,154,47-8*line,GameMTTalkUp,0)
 1517                     			.c_start  0187fh,213
 1518  560C     A0 19       			ldy	#+0+?LSC3+?TSC3
 1519  560E     B1 28       			lda	(__stack_ptr),y
 1520  5610     85 23       			sta	__oper2
 1521  5612     A9 08       			lda	#8
 1522  5614     20 EF DC    			jsr	__uns_mult_char
 1523  5617     85 23       			sta	__oper2
 1524  5619     A9 2D       			lda	#45
 1525  561B     38          			sec
 1526  561C     E5 23       			sbc	__oper2
 1527  561E     A0 15       			ldy	#+0+?LSC3
  Tue Jan 13 23:03:19 2026                                                                                               Page   28




 1528  5620     91 28       			sta	(__stack_ptr),y
 1529  5622     A0 19       			ldy	#+0+?LSC3+?TSC3
 1530  5624     B1 28       			lda	(__stack_ptr),y
 1531  5626     85 23       			sta	__oper2
 1532  5628     A9 08       			lda	#8
 1533  562A     20 EF DC    			jsr	__uns_mult_char
 1534  562D     85 23       			sta	__oper2
 1535  562F     A9 2F       			lda	#47
 1536  5631     38          			sec
 1537  5632     E5 23       			sbc	__oper2
 1538  5634     A0 16       			ldy	#+1+?LSC3
 1539  5636     91 28       			sta	(__stack_ptr),y
 1540  5638     A9 00       			lda	#0
 1541  563A     20 AA DA    			jsr	__store_char_funct_arg
 1542  563D     A9 9E       			lda	#.low._GameMTTalkUp
 1543  563F     85 20       			sta	__oper1
 1544  5641     A9 91       			lda	#.high._GameMTTalkUp
 1545  5643     85 21       			sta	__oper1+1
 1546  5645     20 CA DA    			jsr	__store_int_funct_arg
 1547  5648     A0 19       			ldy	#+1+?LSC3+3
 1548  564A     B1 28       			lda	(__stack_ptr),y
 1549  564C     20 AA DA    			jsr	__store_char_funct_arg
 1550  564F     A9 9A       			lda	#.low.154
 1551  5651     85 20       			sta	__oper1
 1552  5653     A9 00       			lda	#.high.154
 1553  5655     85 21       			sta	__oper1+1
 1554  5657     A5 20       			lda	__oper1
 1555  5659     20 AA DA    			jsr	__store_char_funct_arg
 1556  565C     A0 1A       			ldy	#+0+?LSC3+5
 1557  565E     B1 28       			lda	(__stack_ptr),y
 1558  5660     20 AA DA    			jsr	__store_char_funct_arg
 1559  5663     A9 05       			lda	#5
 1560  5665     A2 8E       			ldx	#.low.&SysPicture
 1561  5667     86 26       			stx	__addr_reg
 1562  5669     A2 E7       			ldx	#.high.&SysPicture+1
 1563  566B     86 27       			stx	__addr_reg+1
 1564                     			.bf_call
 1565  566D     20 F6 D2    			jsr	__banked_function_call
 1566  5670     08          			php
 1567  5671     78          			sei
 1568  5672     18          			clc
 1569  5673     A5 28       			lda	__stack_ptr
 1570  5675     69 06       			adc	#.low.6
 1571  5677     85 28       			sta	__stack_ptr
 1572  5679     A5 29       			lda	__stack_ptr+1
 1573  567B     69 00       			adc	#.high.6
 1574  567D     85 29       			sta	__stack_ptr+1
 1575  567F     28          			plp
 1576                     			.c_end	018b3h,213
 1577                     	;SysPicture(5,48+8*line,154,50+8*line,GameMTTalkDown,0)
 1578                     			.c_start  018b7h,214
 1579  5680     A0 19       			ldy	#+0+?LSC3+?TSC3
 1580  5682     B1 28       			lda	(__stack_ptr),y
 1581  5684     85 23       			sta	__oper2
 1582  5686     A9 08       			lda	#8
 1583  5688     20 EF DC    			jsr	__uns_mult_char
 1584  568B     18          			clc
  Tue Jan 13 23:03:19 2026                                                                                               Page   29




 1585  568C     69 30       			adc	#48
 1586  568E     A0 15       			ldy	#+0+?LSC3
 1587  5690     91 28       			sta	(__stack_ptr),y
 1588  5692     A0 19       			ldy	#+0+?LSC3+?TSC3
 1589  5694     B1 28       			lda	(__stack_ptr),y
 1590  5696     85 23       			sta	__oper2
 1591  5698     A9 08       			lda	#8
 1592  569A     20 EF DC    			jsr	__uns_mult_char
 1593  569D     18          			clc
 1594  569E     69 32       			adc	#50
 1595  56A0     A0 16       			ldy	#+1+?LSC3
 1596  56A2     91 28       			sta	(__stack_ptr),y
 1597  56A4     A9 00       			lda	#0
 1598  56A6     20 AA DA    			jsr	__store_char_funct_arg
 1599  56A9     A9 D7       			lda	#.low._GameMTTalkDown
 1600  56AB     85 20       			sta	__oper1
 1601  56AD     A9 91       			lda	#.high._GameMTTalkDown
 1602  56AF     85 21       			sta	__oper1+1
 1603  56B1     20 CA DA    			jsr	__store_int_funct_arg
 1604  56B4     A0 19       			ldy	#+1+?LSC3+3
 1605  56B6     B1 28       			lda	(__stack_ptr),y
 1606  56B8     20 AA DA    			jsr	__store_char_funct_arg
 1607  56BB     A9 9A       			lda	#.low.154
 1608  56BD     85 20       			sta	__oper1
 1609  56BF     A9 00       			lda	#.high.154
 1610  56C1     85 21       			sta	__oper1+1
 1611  56C3     A5 20       			lda	__oper1
 1612  56C5     20 AA DA    			jsr	__store_char_funct_arg
 1613  56C8     A0 1A       			ldy	#+0+?LSC3+5
 1614  56CA     B1 28       			lda	(__stack_ptr),y
 1615  56CC     20 AA DA    			jsr	__store_char_funct_arg
 1616  56CF     A9 05       			lda	#5
 1617  56D1     A2 8E       			ldx	#.low.&SysPicture
 1618  56D3     86 26       			stx	__addr_reg
 1619  56D5     A2 E7       			ldx	#.high.&SysPicture+1
 1620  56D7     86 27       			stx	__addr_reg+1
 1621                     			.bf_call
 1622  56D9     20 F6 D2    			jsr	__banked_function_call
 1623  56DC     08          			php
 1624  56DD     78          			sei
 1625  56DE     18          			clc
 1626  56DF     A5 28       			lda	__stack_ptr
 1627  56E1     69 06       			adc	#.low.6
 1628  56E3     85 28       			sta	__stack_ptr
 1629  56E5     A5 29       			lda	__stack_ptr+1
 1630  56E7     69 00       			adc	#.high.6
 1631  56E9     85 29       			sta	__stack_ptr+1
 1632  56EB     28          			plp
 1633                     			.c_end	018edh,214
 1634                     	;i=0;
 1635                     			.c_start  018f1h,215
 1636  56EC     A0 14       			ldy	#-1+?LSC3
 1637  56EE     A9 00       			lda	#0
 1638  56F0     91 28       			sta	(__stack_ptr),y
 1639                     			.c_end	018f8h,215
 1640         3126 56F2   	?FLC13:		.equal	$
 1641                     	;i<line;
  Tue Jan 13 23:03:19 2026                                                                                               Page   30




 1642                     			.for_top  018f9h,?BOL13,?FLB13,?FLA13,1,215
 1643  56F2     A0 14       			ldy	#-1+?LSC3
 1644  56F4     B1 28       			lda	(__stack_ptr),y
 1645  56F6     A0 19       			ldy	#+0+?LSC3+?TSC3
 1646  56F8     38          			sec
 1647  56F9     F1 28       			sbc	(__stack_ptr),y
 1648  56FB     90 03       			bcc	+3
 1649  56FD     4C 4A 58    			jmp	?BOL13
 1650                     			.c_end	018ffh,215
 1651  5700     4C 0F 57    			jmp	?FLB13
 1652         3110 5703   	?FLA13:		.equal	$
 1653                     	;i++)
 1654                     	;	
 1655                     			.for_adj  01900h,215
 1656  5703     A0 14       			ldy	#-1+?LSC3
 1657  5705     B1 28       			lda	(__stack_ptr),y
 1658  5707     18          			clc
 1659  5708     69 01       			adc	#1
 1660  570A     91 28       			sta	(__stack_ptr),y
 1661                     			.c_end	01905h,216
 1662  570C     4C F2 56    			jmp	?FLC13
 1663         4410 570F   	?FLB13:		.equal	$
 1664                     	;SysPicture(4,48-8*line+i*16,6,63-8*line+i*16,GameMTTalkSide,0)
 1665                     			.c_start  0190ch,217
 1666  570F     A0 19       			ldy	#+0+?LSC3+?TSC3
 1667  5711     B1 28       			lda	(__stack_ptr),y
 1668  5713     85 23       			sta	__oper2
 1669  5715     A9 08       			lda	#8
 1670  5717     20 EF DC    			jsr	__uns_mult_char
 1671  571A     85 23       			sta	__oper2
 1672  571C     A9 30       			lda	#48
 1673  571E     38          			sec
 1674  571F     E5 23       			sbc	__oper2
 1675  5721     A0 15       			ldy	#+0+?LSC3
 1676  5723     91 28       			sta	(__stack_ptr),y
 1677  5725     A9 10       			lda	#16
 1678  5727     85 23       			sta	__oper2
 1679  5729     A0 14       			ldy	#-1+?LSC3
 1680  572B     B1 28       			lda	(__stack_ptr),y
 1681  572D     20 EF DC    			jsr	__uns_mult_char
 1682  5730     A0 15       			ldy	#+0+?LSC3
 1683  5732     18          			clc
 1684  5733     71 28       			adc	(__stack_ptr),y
 1685  5735     A0 15       			ldy	#+0+?LSC3
 1686  5737     91 28       			sta	(__stack_ptr),y
 1687  5739     A0 19       			ldy	#+0+?LSC3+?TSC3
 1688  573B     B1 28       			lda	(__stack_ptr),y
 1689  573D     85 23       			sta	__oper2
 1690  573F     A9 08       			lda	#8
 1691  5741     20 EF DC    			jsr	__uns_mult_char
 1692  5744     85 23       			sta	__oper2
 1693  5746     A9 3F       			lda	#63
 1694  5748     38          			sec
 1695  5749     E5 23       			sbc	__oper2
 1696  574B     A0 16       			ldy	#+1+?LSC3
 1697  574D     91 28       			sta	(__stack_ptr),y
 1698  574F     A9 10       			lda	#16
  Tue Jan 13 23:03:19 2026                                                                                               Page   31




 1699  5751     85 23       			sta	__oper2
 1700  5753     A0 14       			ldy	#-1+?LSC3
 1701  5755     B1 28       			lda	(__stack_ptr),y
 1702  5757     20 EF DC    			jsr	__uns_mult_char
 1703  575A     A0 16       			ldy	#+1+?LSC3
 1704  575C     18          			clc
 1705  575D     71 28       			adc	(__stack_ptr),y
 1706  575F     A0 16       			ldy	#+1+?LSC3
 1707  5761     91 28       			sta	(__stack_ptr),y
 1708  5763     A9 00       			lda	#0
 1709  5765     20 AA DA    			jsr	__store_char_funct_arg
 1710  5768     A9 10       			lda	#.low._GameMTTalkSide
 1711  576A     85 20       			sta	__oper1
 1712  576C     A9 92       			lda	#.high._GameMTTalkSide
 1713  576E     85 21       			sta	__oper1+1
 1714  5770     20 CA DA    			jsr	__store_int_funct_arg
 1715  5773     A0 19       			ldy	#+1+?LSC3+3
 1716  5775     B1 28       			lda	(__stack_ptr),y
 1717  5777     20 AA DA    			jsr	__store_char_funct_arg
 1718  577A     A9 06       			lda	#6
 1719  577C     20 AA DA    			jsr	__store_char_funct_arg
 1720  577F     A0 1A       			ldy	#+0+?LSC3+5
 1721  5781     B1 28       			lda	(__stack_ptr),y
 1722  5783     20 AA DA    			jsr	__store_char_funct_arg
 1723  5786     A9 04       			lda	#4
 1724  5788     A2 8E       			ldx	#.low.&SysPicture
 1725  578A     86 26       			stx	__addr_reg
 1726  578C     A2 E7       			ldx	#.high.&SysPicture+1
 1727  578E     86 27       			stx	__addr_reg+1
 1728                     			.bf_call
 1729  5790     20 F6 D2    			jsr	__banked_function_call
 1730  5793     08          			php
 1731  5794     78          			sei
 1732  5795     18          			clc
 1733  5796     A5 28       			lda	__stack_ptr
 1734  5798     69 06       			adc	#.low.6
 1735  579A     85 28       			sta	__stack_ptr
 1736  579C     A5 29       			lda	__stack_ptr+1
 1737  579E     69 00       			adc	#.high.6
 1738  57A0     85 29       			sta	__stack_ptr+1
 1739  57A2     28          			plp
 1740                     			.c_end	0194ah,217
 1741                     	;SysPicture(152,48-8*line+i*16,154,63-8*line+i*16,GameMTTalkSide,0)
 1742                     			.c_start  0194fh,218
 1743  57A3     A0 19       			ldy	#+0+?LSC3+?TSC3
 1744  57A5     B1 28       			lda	(__stack_ptr),y
 1745  57A7     85 23       			sta	__oper2
 1746  57A9     A9 08       			lda	#8
 1747  57AB     20 EF DC    			jsr	__uns_mult_char
 1748  57AE     85 23       			sta	__oper2
 1749  57B0     A9 30       			lda	#48
 1750  57B2     38          			sec
 1751  57B3     E5 23       			sbc	__oper2
 1752  57B5     A0 15       			ldy	#+0+?LSC3
 1753  57B7     91 28       			sta	(__stack_ptr),y
 1754  57B9     A9 10       			lda	#16
 1755  57BB     85 23       			sta	__oper2
  Tue Jan 13 23:03:19 2026                                                                                               Page   32




 1756  57BD     A0 14       			ldy	#-1+?LSC3
 1757  57BF     B1 28       			lda	(__stack_ptr),y
 1758  57C1     20 EF DC    			jsr	__uns_mult_char
 1759  57C4     A0 15       			ldy	#+0+?LSC3
 1760  57C6     18          			clc
 1761  57C7     71 28       			adc	(__stack_ptr),y
 1762  57C9     A0 15       			ldy	#+0+?LSC3
 1763  57CB     91 28       			sta	(__stack_ptr),y
 1764  57CD     A0 19       			ldy	#+0+?LSC3+?TSC3
 1765  57CF     B1 28       			lda	(__stack_ptr),y
 1766  57D1     85 23       			sta	__oper2
 1767  57D3     A9 08       			lda	#8
 1768  57D5     20 EF DC    			jsr	__uns_mult_char
 1769  57D8     85 23       			sta	__oper2
 1770  57DA     A9 3F       			lda	#63
 1771  57DC     38          			sec
 1772  57DD     E5 23       			sbc	__oper2
 1773  57DF     A0 16       			ldy	#+1+?LSC3
 1774  57E1     91 28       			sta	(__stack_ptr),y
 1775  57E3     A9 10       			lda	#16
 1776  57E5     85 23       			sta	__oper2
 1777  57E7     A0 14       			ldy	#-1+?LSC3
 1778  57E9     B1 28       			lda	(__stack_ptr),y
 1779  57EB     20 EF DC    			jsr	__uns_mult_char
 1780  57EE     A0 16       			ldy	#+1+?LSC3
 1781  57F0     18          			clc
 1782  57F1     71 28       			adc	(__stack_ptr),y
 1783  57F3     A0 16       			ldy	#+1+?LSC3
 1784  57F5     91 28       			sta	(__stack_ptr),y
 1785  57F7     A9 00       			lda	#0
 1786  57F9     20 AA DA    			jsr	__store_char_funct_arg
 1787  57FC     A9 10       			lda	#.low._GameMTTalkSide
 1788  57FE     85 20       			sta	__oper1
 1789  5800     A9 92       			lda	#.high._GameMTTalkSide
 1790  5802     85 21       			sta	__oper1+1
 1791  5804     20 CA DA    			jsr	__store_int_funct_arg
 1792  5807     A0 19       			ldy	#+1+?LSC3+3
 1793  5809     B1 28       			lda	(__stack_ptr),y
 1794  580B     20 AA DA    			jsr	__store_char_funct_arg
 1795  580E     A9 9A       			lda	#.low.154
 1796  5810     85 20       			sta	__oper1
 1797  5812     A9 00       			lda	#.high.154
 1798  5814     85 21       			sta	__oper1+1
 1799  5816     A5 20       			lda	__oper1
 1800  5818     20 AA DA    			jsr	__store_char_funct_arg
 1801  581B     A0 1A       			ldy	#+0+?LSC3+5
 1802  581D     B1 28       			lda	(__stack_ptr),y
 1803  581F     20 AA DA    			jsr	__store_char_funct_arg
 1804  5822     A9 98       			lda	#.low.152
 1805  5824     85 20       			sta	__oper1
 1806  5826     A9 00       			lda	#.high.152
 1807  5828     85 21       			sta	__oper1+1
 1808  582A     A5 20       			lda	__oper1
 1809  582C     A2 8E       			ldx	#.low.&SysPicture
 1810  582E     86 26       			stx	__addr_reg
 1811  5830     A2 E7       			ldx	#.high.&SysPicture+1
 1812  5832     86 27       			stx	__addr_reg+1
  Tue Jan 13 23:03:19 2026                                                                                               Page   33




 1813                     			.bf_call
 1814  5834     20 F6 D2    			jsr	__banked_function_call
 1815  5837     08          			php
 1816  5838     78          			sei
 1817  5839     18          			clc
 1818  583A     A5 28       			lda	__stack_ptr
 1819  583C     69 06       			adc	#.low.6
 1820  583E     85 28       			sta	__stack_ptr
 1821  5840     A5 29       			lda	__stack_ptr+1
 1822  5842     69 00       			adc	#.high.6
 1823  5844     85 29       			sta	__stack_ptr+1
 1824  5846     28          			plp
 1825                     			.c_end	01991h,218
 1826                     	;
 1827                     			.for_bot  1,219
 1828  5847     4C 03 57    			jmp	?FLA13
 1829         3814 584A   	?BOL13:		.equal	$
 1830                     	;i=0;
 1831                     			.c_start  01999h,220
 1832  584A     A0 14       			ldy	#-1+?LSC3
 1833  584C     A9 00       			lda	#0
 1834  584E     91 28       			sta	(__stack_ptr),y
 1835                     			.c_end	019a0h,220
 1836         4614 5850   	?FLC14:		.equal	$
 1837                     	;i<line;
 1838                     			.for_top  019a1h,?BOL14,?FLB14,?FLA14,1,220
 1839  5850     A0 14       			ldy	#-1+?LSC3
 1840  5852     B1 28       			lda	(__stack_ptr),y
 1841  5854     A0 19       			ldy	#+0+?LSC3+?TSC3
 1842  5856     38          			sec
 1843  5857     F1 28       			sbc	(__stack_ptr),y
 1844  5859     90 03       			bcc	+3
 1845  585B     4C 64 5A    			jmp	?BOL14
 1846                     			.c_end	019a7h,220
 1847  585E     4C 6D 58    			jmp	?FLB14
 1848         4615 5861   	?FLA14:		.equal	$
 1849                     	;i++)
 1850                     	;		
 1851                     			.for_adj  019a8h,220
 1852  5861     A0 14       			ldy	#-1+?LSC3
 1853  5863     B1 28       			lda	(__stack_ptr),y
 1854  5865     18          			clc
 1855  5866     69 01       			adc	#1
 1856  5868     91 28       			sta	(__stack_ptr),y
 1857                     			.c_end	019adh,221
 1858  586A     4C 50 58    			jmp	?FLC14
 1859         4216 586D   	?FLB14:		.equal	$
 1860                     	;SysLcdPartClear(7,48-8*line+i*16,7,48-8*line+i*16+14)
 1861                     			.c_start  019b6h,222
 1862  586D     A0 19       			ldy	#+0+?LSC3+?TSC3
 1863  586F     B1 28       			lda	(__stack_ptr),y
 1864  5871     85 23       			sta	__oper2
 1865  5873     A9 08       			lda	#8
 1866  5875     20 EF DC    			jsr	__uns_mult_char
 1867  5878     85 23       			sta	__oper2
 1868  587A     A9 30       			lda	#48
 1869  587C     38          			sec
  Tue Jan 13 23:03:19 2026                                                                                               Page   34




 1870  587D     E5 23       			sbc	__oper2
 1871  587F     A0 15       			ldy	#+0+?LSC3
 1872  5881     91 28       			sta	(__stack_ptr),y
 1873  5883     A9 10       			lda	#16
 1874  5885     85 23       			sta	__oper2
 1875  5887     A0 14       			ldy	#-1+?LSC3
 1876  5889     B1 28       			lda	(__stack_ptr),y
 1877  588B     20 EF DC    			jsr	__uns_mult_char
 1878  588E     A0 15       			ldy	#+0+?LSC3
 1879  5890     18          			clc
 1880  5891     71 28       			adc	(__stack_ptr),y
 1881  5893     A0 15       			ldy	#+0+?LSC3
 1882  5895     91 28       			sta	(__stack_ptr),y
 1883  5897     A0 19       			ldy	#+0+?LSC3+?TSC3
 1884  5899     B1 28       			lda	(__stack_ptr),y
 1885  589B     85 23       			sta	__oper2
 1886  589D     A9 08       			lda	#8
 1887  589F     20 EF DC    			jsr	__uns_mult_char
 1888  58A2     85 23       			sta	__oper2
 1889  58A4     A9 30       			lda	#48
 1890  58A6     38          			sec
 1891  58A7     E5 23       			sbc	__oper2
 1892  58A9     A0 16       			ldy	#+1+?LSC3
 1893  58AB     91 28       			sta	(__stack_ptr),y
 1894  58AD     A9 10       			lda	#16
 1895  58AF     85 23       			sta	__oper2
 1896  58B1     A0 14       			ldy	#-1+?LSC3
 1897  58B3     B1 28       			lda	(__stack_ptr),y
 1898  58B5     20 EF DC    			jsr	__uns_mult_char
 1899  58B8     A0 16       			ldy	#+1+?LSC3
 1900  58BA     18          			clc
 1901  58BB     71 28       			adc	(__stack_ptr),y
 1902  58BD     18          			clc
 1903  58BE     69 0E       			adc	#14
 1904  58C0     20 AA DA    			jsr	__store_char_funct_arg
 1905  58C3     A9 07       			lda	#7
 1906  58C5     20 AA DA    			jsr	__store_char_funct_arg
 1907  58C8     A0 17       			ldy	#+0+?LSC3+2
 1908  58CA     B1 28       			lda	(__stack_ptr),y
 1909  58CC     20 AA DA    			jsr	__store_char_funct_arg
 1910  58CF     A9 07       			lda	#7
 1911  58D1     A2 5D       			ldx	#.low.&SysLcdPartClear
 1912  58D3     86 26       			stx	__addr_reg
 1913  58D5     A2 E8       			ldx	#.high.&SysLcdPartClear+1
 1914  58D7     86 27       			stx	__addr_reg+1
 1915                     			.bf_call
 1916  58D9     20 F6 D2    			jsr	__banked_function_call
 1917  58DC     08          			php
 1918  58DD     78          			sei
 1919  58DE     18          			clc
 1920  58DF     A5 28       			lda	__stack_ptr
 1921  58E1     69 03       			adc	#.low.3
 1922  58E3     85 28       			sta	__stack_ptr
 1923  58E5     A5 29       			lda	__stack_ptr+1
 1924  58E7     69 00       			adc	#.high.3
 1925  58E9     85 29       			sta	__stack_ptr+1
 1926  58EB     28          			plp
  Tue Jan 13 23:03:19 2026                                                                                               Page   35




 1927                     			.c_end	019ebh,222
 1928                     	;(number<343)
 1929                     	;				
 1930                     			.if_top	019f1h,?BOL15,2,223
 1931  58EC     A9 57       			lda	#.low.343
 1932  58EE     85 23       			sta	__oper2
 1933  58F0     A9 01       			lda	#.high.343
 1934  58F2     85 24       			sta	__oper2+1
 1935  58F4     A0 1A       			ldy	#+1+?LSC3+?TSC3
 1936  58F6     B1 28       			lda	(__stack_ptr),y
 1937  58F8     85 20       			sta	__oper1
 1938  58FA     C8          			iny
 1939  58FB     B1 28       			lda	(__stack_ptr),y
 1940  58FD     85 21       			sta	__oper1+1
 1941  58FF     20 40 D3    			jsr	__cmp_int
 1942  5902     90 03       			bcc	+3
 1943  5904     4C 9D 59    			jmp	?BOL15
 1944         3510 5907   	?PLC11:		.equal	$
 1945                     			.c_end	01a00h,224
 1946                     	;SysPrintString(8,48-8*line+i*16,GameMTTalkData[number+i])
 1947                     			.c_start  01a05h,224
 1948  5907     A0 19       			ldy	#+0+?LSC3+?TSC3
 1949  5909     B1 28       			lda	(__stack_ptr),y
 1950  590B     85 23       			sta	__oper2
 1951  590D     A9 08       			lda	#8
 1952  590F     20 EF DC    			jsr	__uns_mult_char
 1953  5912     85 23       			sta	__oper2
 1954  5914     A9 30       			lda	#48
 1955  5916     38          			sec
 1956  5917     E5 23       			sbc	__oper2
 1957  5919     A0 15       			ldy	#+0+?LSC3
 1958  591B     91 28       			sta	(__stack_ptr),y
 1959  591D     A9 10       			lda	#16
 1960  591F     85 23       			sta	__oper2
 1961  5921     A0 14       			ldy	#-1+?LSC3
 1962  5923     B1 28       			lda	(__stack_ptr),y
 1963  5925     20 EF DC    			jsr	__uns_mult_char
 1964  5928     A0 15       			ldy	#+0+?LSC3
 1965  592A     18          			clc
 1966  592B     71 28       			adc	(__stack_ptr),y
 1967  592D     A0 15       			ldy	#+0+?LSC3
 1968  592F     91 28       			sta	(__stack_ptr),y
 1969  5931     A0 14       			ldy	#-1+?LSC3
 1970  5933     B1 28       			lda	(__stack_ptr),y
 1971  5935     85 23       			sta	__oper2
 1972  5937     A2 00       			ldx	#0
 1973  5939     86 24       			stx	__oper2+1
 1974  593B     A0 1A       			ldy	#+1+?LSC3+?TSC3
 1975  593D     B1 28       			lda	(__stack_ptr),y
 1976  593F     85 20       			sta	__oper1
 1977  5941     C8          			iny
 1978  5942     B1 28       			lda	(__stack_ptr),y
 1979  5944     85 21       			sta	__oper1+1
 1980  5946     18          			clc
 1981  5947     A5 20       			lda	__oper1
 1982  5949     65 23       			adc	__oper2
 1983  594B     85 20       			sta	__oper1
  Tue Jan 13 23:03:19 2026                                                                                               Page   36




 1984  594D     A5 21       			lda	__oper1+1
 1985  594F     65 24       			adc	__oper2+1
 1986  5951     85 21       			sta	__oper1+1
 1987  5953     A5 20       			lda	__oper1
 1988  5955     85 23       			sta	__oper2
 1989  5957     A5 21       			lda	__oper1+1
 1990  5959     85 24       			sta	__oper2+1
 1991  595B     A9 14       			lda	#.low.20
 1992  595D     85 20       			sta	__oper1
 1993  595F     A9 00       			lda	#.high.20
 1994  5961     85 21       			sta	__oper1+1
 1995  5963     20 AF D6    			jsr	__mult_int
 1996  5966     18          			clc
 1997  5967     A5 20       			lda	__oper1
 1998  5969     69 54       			adc	#.low._GameMTTalkData
 1999  596B     85 20       			sta	__oper1
 2000  596D     A5 21       			lda	__oper1+1
 2001  596F     69 92       			adc	#.high._GameMTTalkData
 2002  5971     85 21       			sta	__oper1+1
 2003  5973     20 CA DA    			jsr	__store_int_funct_arg
 2004  5976     A0 17       			ldy	#+0+?LSC3+2
 2005  5978     B1 28       			lda	(__stack_ptr),y
 2006  597A     20 AA DA    			jsr	__store_char_funct_arg
 2007  597D     A9 08       			lda	#8
 2008  597F     A2 9A       			ldx	#.low.&SysPrintString
 2009  5981     86 26       			stx	__addr_reg
 2010  5983     A2 E7       			ldx	#.high.&SysPrintString+1
 2011  5985     86 27       			stx	__addr_reg+1
 2012                     			.bf_call
 2013  5987     20 F6 D2    			jsr	__banked_function_call
 2014  598A     08          			php
 2015  598B     78          			sei
 2016  598C     18          			clc
 2017  598D     A5 28       			lda	__stack_ptr
 2018  598F     69 03       			adc	#.low.3
 2019  5991     85 28       			sta	__stack_ptr
 2020  5993     A5 29       			lda	__stack_ptr+1
 2021  5995     69 00       			adc	#.high.3
 2022  5997     85 29       			sta	__stack_ptr+1
 2023  5999     28          			plp
 2024                     			.c_end	01a3eh,224
 2025                     	;;
 2026                     	;				
 2027                     	;else
 2028                     	;				
 2029  599A     4C 61 5A    			jmp	?EOI15
 2030                     			.if_else  ?EOI15,2,226
 2031         4219 599D   	?BOL15:		.equal	$
 2032                     	;GameMTGetTalk(number+i,temp)
 2033                     			.c_start  01a57h,227
 2034  599D     A0 14       			ldy	#-1+?LSC3
 2035  599F     B1 28       			lda	(__stack_ptr),y
 2036  59A1     85 23       			sta	__oper2
 2037  59A3     A2 00       			ldx	#0
 2038  59A5     86 24       			stx	__oper2+1
 2039  59A7     A0 1A       			ldy	#+1+?LSC3+?TSC3
 2040  59A9     B1 28       			lda	(__stack_ptr),y
  Tue Jan 13 23:03:19 2026                                                                                               Page   37




 2041  59AB     85 20       			sta	__oper1
 2042  59AD     C8          			iny
 2043  59AE     B1 28       			lda	(__stack_ptr),y
 2044  59B0     85 21       			sta	__oper1+1
 2045  59B2     18          			clc
 2046  59B3     A5 20       			lda	__oper1
 2047  59B5     65 23       			adc	__oper2
 2048  59B7     85 20       			sta	__oper1
 2049  59B9     A5 21       			lda	__oper1+1
 2050  59BB     65 24       			adc	__oper2+1
 2051  59BD     85 21       			sta	__oper1+1
 2052  59BF     A0 15       			ldy	#+0+?LSC3
 2053  59C1     A5 20       			lda	__oper1
 2054  59C3     91 28       			sta	(__stack_ptr),y
 2055  59C5     C8          			iny
 2056  59C6     A5 21       			lda	__oper1+1
 2057  59C8     91 28       			sta	(__stack_ptr),y
 2058  59CA     18          			clc
 2059  59CB     A5 28       			lda	__stack_ptr
 2060  59CD     69 00       			adc	#.low.-21+?LSC3
 2061  59CF     85 20       			sta	__oper1
 2062  59D1     A5 29       			lda	__stack_ptr+1
 2063  59D3     69 00       			adc	#.high.-21+?LSC3
 2064  59D5     85 21       			sta	__oper1+1
 2065  59D7     20 CA DA    			jsr	__store_int_funct_arg
 2066  59DA     A0 17       			ldy	#+0+?LSC3+2
 2067  59DC     B1 28       			lda	(__stack_ptr),y
 2068  59DE     85 20       			sta	__oper1
 2069  59E0     C8          			iny
 2070  59E1     B1 28       			lda	(__stack_ptr),y
 2071  59E3     85 21       			sta	__oper1+1
 2072  59E5     20 CA DA    			jsr	__store_int_funct_arg
 2073  59E8     A2 30       			ldx	#.low.&GameMTGetTalk
 2074  59EA     86 26       			stx	__addr_reg
 2075  59EC     A2 90       			ldx	#.high.&GameMTGetTalk+1
 2076  59EE     86 27       			stx	__addr_reg+1
 2077                     			.bf_call
 2078  59F0     20 F6 D2    			jsr	__banked_function_call
 2079  59F3     08          			php
 2080  59F4     78          			sei
 2081  59F5     18          			clc
 2082  59F6     A5 28       			lda	__stack_ptr
 2083  59F8     69 04       			adc	#.low.4
 2084  59FA     85 28       			sta	__stack_ptr
 2085  59FC     A5 29       			lda	__stack_ptr+1
 2086  59FE     69 00       			adc	#.high.4
 2087  5A00     85 29       			sta	__stack_ptr+1
 2088  5A02     28          			plp
 2089                     			.c_end	01a73h,227
 2090                     	;SysPrintString(8,48-8*line+i*16,temp)
 2091                     			.c_start  01a7bh,228
 2092  5A03     A0 19       			ldy	#+0+?LSC3+?TSC3
 2093  5A05     B1 28       			lda	(__stack_ptr),y
 2094  5A07     85 23       			sta	__oper2
 2095  5A09     A9 08       			lda	#8
 2096  5A0B     20 EF DC    			jsr	__uns_mult_char
 2097  5A0E     85 23       			sta	__oper2
  Tue Jan 13 23:03:19 2026                                                                                               Page   38




 2098  5A10     A9 30       			lda	#48
 2099  5A12     38          			sec
 2100  5A13     E5 23       			sbc	__oper2
 2101  5A15     A0 15       			ldy	#+0+?LSC3
 2102  5A17     91 28       			sta	(__stack_ptr),y
 2103  5A19     A9 10       			lda	#16
 2104  5A1B     85 23       			sta	__oper2
 2105  5A1D     A0 14       			ldy	#-1+?LSC3
 2106  5A1F     B1 28       			lda	(__stack_ptr),y
 2107  5A21     20 EF DC    			jsr	__uns_mult_char
 2108  5A24     A0 15       			ldy	#+0+?LSC3
 2109  5A26     18          			clc
 2110  5A27     71 28       			adc	(__stack_ptr),y
 2111  5A29     A0 15       			ldy	#+0+?LSC3
 2112  5A2B     91 28       			sta	(__stack_ptr),y
 2113  5A2D     18          			clc
 2114  5A2E     A5 28       			lda	__stack_ptr
 2115  5A30     69 00       			adc	#.low.-21+?LSC3
 2116  5A32     85 20       			sta	__oper1
 2117  5A34     A5 29       			lda	__stack_ptr+1
 2118  5A36     69 00       			adc	#.high.-21+?LSC3
 2119  5A38     85 21       			sta	__oper1+1
 2120  5A3A     20 CA DA    			jsr	__store_int_funct_arg
 2121  5A3D     A0 17       			ldy	#+0+?LSC3+2
 2122  5A3F     B1 28       			lda	(__stack_ptr),y
 2123  5A41     20 AA DA    			jsr	__store_char_funct_arg
 2124  5A44     A9 08       			lda	#8
 2125  5A46     A2 9A       			ldx	#.low.&SysPrintString
 2126  5A48     86 26       			stx	__addr_reg
 2127  5A4A     A2 E7       			ldx	#.high.&SysPrintString+1
 2128  5A4C     86 27       			stx	__addr_reg+1
 2129                     			.bf_call
 2130  5A4E     20 F6 D2    			jsr	__banked_function_call
 2131  5A51     08          			php
 2132  5A52     78          			sei
 2133  5A53     18          			clc
 2134  5A54     A5 28       			lda	__stack_ptr
 2135  5A56     69 03       			adc	#.low.3
 2136  5A58     85 28       			sta	__stack_ptr
 2137  5A5A     A5 29       			lda	__stack_ptr+1
 2138  5A5C     69 00       			adc	#.high.3
 2139  5A5E     85 29       			sta	__stack_ptr+1
 2140  5A60     28          			plp
 2141                     			.c_end	01aa0h,228
 2142                     	;
 2143         3116 5A61   	?EOI15:		.equal	$
 2144                     	;
 2145                     			.for_bot  1,230
 2146  5A61     4C 61 58    			jmp	?FLA14
 2147         3216 5A64   	?BOL14:		.equal	$
 2148                     	;while
 2149         32F6 5A64   	?TOL16:		.equal	$
 2150                     	;(1)
 2151                     	;		
 2152                     			.whi_top  01ab1h,?BOL16,1,231
 2153  5A64     A9 01       			lda	#1
 2154  5A66     D0 03       			bne	+3
  Tue Jan 13 23:03:19 2026                                                                                               Page   39




 2155  5A68     4C D9 5B    			jmp	?BOL16
 2156         3916 5A6B   	?PLC12:		.equal	$
 2157                     			.c_end	01abah,232
 2158                     	;GameMTGetInput()
 2159                     			.c_start  01ac3h,233
 2160  5A6B     A2 03       			ldx	#.low.&GameMTGetInput
 2161  5A6D     86 26       			stx	__addr_reg
 2162  5A6F     A2 90       			ldx	#.high.&GameMTGetInput+1
 2163  5A71     86 27       			stx	__addr_reg+1
 2164                     			.bf_call
 2165  5A73     20 F6 D2    			jsr	__banked_function_call
 2166                     			.c_end	01ad3h,233
 2167                     	;(g_GameMTQuit)
 2168                     			.if_top	01ad9h,?BOL17,2,234
 2169  5A76     AD 05 18    			lda	_g_GameMTQuit
 2170  5A79     D0 03       			bne	+3
 2171  5A7B     4C 81 5A    			jmp	?BOL17
 2172         4317 5A7E   	?PLC13:		.equal	$
 2173                     			.c_end	01ae8h,234
 2174                     	;break;
 2175                     	;			
 2176  5A7E     4C D9 5B    			jmp	?BOL16
 2177                     	;(g_GameMTReadKey==16)
 2178                     	;			
 2179         4617 5A81   	?BOL17:		.equal	$
 2180                     			.if_top	01af4h,?BOL18,2,235
 2181  5A81     AD 06 18    			lda	_g_GameMTReadKey
 2182  5A84     38          			sec
 2183  5A85     E9 10       			sbc	#16
 2184  5A87     F0 03       			beq	+3
 2185  5A89     4C D3 5B    			jmp	?BOL18
 2186         3A18 5A8C   	?PLC14:		.equal	$
 2187                     			.c_end	01b0ch,236
 2188                     	;g_GameMTTimeOut++
 2189                     			.c_start  01b17h,237
 2190  5A8C     EE 07 18    			inc	_g_GameMTTimeOut
 2191                     			.c_end	01b28h,237
 2192                     	;(g_GameMTTimeOut==5&&flag)
 2193                     			.if_top	01b2fh,?BOL19,3,238
 2194  5A8F     AD 07 18    			lda	_g_GameMTTimeOut
 2195  5A92     38          			sec
 2196  5A93     E9 05       			sbc	#5
 2197  5A95     F0 03       			beq	+3
 2198  5A97     4C 2D 5B    			jmp	?BOL19
 2199         3819 5A9A   	?ACC2:		.equal	$
 2200  5A9A     A0 1C       			ldy	#+3+?LSC3+?TSC3
 2201  5A9C     B1 28       			lda	(__stack_ptr),y
 2202  5A9E     D0 03       			bne	+3
 2203  5AA0     4C 2D 5B    			jmp	?BOL19
 2204         3121 5AA3   	?PLC15:		.equal	$
 2205                     			.c_end	01b4ah,238
 2206                     	;SysPicture(136,33+8*line,151,45+8*line,GameMTTalkSigh[0],0)
 2207                     			.c_start  01b2fh,238
 2208  5AA3     A0 19       			ldy	#+0+?LSC3+?TSC3
 2209  5AA5     B1 28       			lda	(__stack_ptr),y
 2210  5AA7     85 23       			sta	__oper2
 2211  5AA9     A9 08       			lda	#8
  Tue Jan 13 23:03:19 2026                                                                                               Page   40




 2212  5AAB     20 EF DC    			jsr	__uns_mult_char
 2213  5AAE     18          			clc
 2214  5AAF     69 21       			adc	#33
 2215  5AB1     A0 15       			ldy	#+0+?LSC3
 2216  5AB3     91 28       			sta	(__stack_ptr),y
 2217  5AB5     A0 19       			ldy	#+0+?LSC3+?TSC3
 2218  5AB7     B1 28       			lda	(__stack_ptr),y
 2219  5AB9     85 23       			sta	__oper2
 2220  5ABB     A9 08       			lda	#8
 2221  5ABD     20 EF DC    			jsr	__uns_mult_char
 2222  5AC0     18          			clc
 2223  5AC1     69 2D       			adc	#45
 2224  5AC3     A0 16       			ldy	#+1+?LSC3
 2225  5AC5     91 28       			sta	(__stack_ptr),y
 2226  5AC7     A9 20       			lda	#.low._GameMTTalkSigh+0
 2227  5AC9     85 20       			sta	__oper1
 2228  5ACB     A9 92       			lda	#.high._GameMTTalkSigh+0
 2229  5ACD     85 21       			sta	__oper1+1
 2230  5ACF     A0 17       			ldy	#+2+?LSC3
 2231  5AD1     A5 20       			lda	__oper1
 2232  5AD3     91 28       			sta	(__stack_ptr),y
 2233  5AD5     C8          			iny
 2234  5AD6     A5 21       			lda	__oper1+1
 2235  5AD8     91 28       			sta	(__stack_ptr),y
 2236  5ADA     A9 00       			lda	#0
 2237  5ADC     20 AA DA    			jsr	__store_char_funct_arg
 2238  5ADF     A0 18       			ldy	#+2+?LSC3+1
 2239  5AE1     B1 28       			lda	(__stack_ptr),y
 2240  5AE3     85 20       			sta	__oper1
 2241  5AE5     C8          			iny
 2242  5AE6     B1 28       			lda	(__stack_ptr),y
 2243  5AE8     85 21       			sta	__oper1+1
 2244  5AEA     20 CA DA    			jsr	__store_int_funct_arg
 2245  5AED     A0 19       			ldy	#+1+?LSC3+3
 2246  5AEF     B1 28       			lda	(__stack_ptr),y
 2247  5AF1     20 AA DA    			jsr	__store_char_funct_arg
 2248  5AF4     A9 97       			lda	#.low.151
 2249  5AF6     85 20       			sta	__oper1
 2250  5AF8     A9 00       			lda	#.high.151
 2251  5AFA     85 21       			sta	__oper1+1
 2252  5AFC     A5 20       			lda	__oper1
 2253  5AFE     20 AA DA    			jsr	__store_char_funct_arg
 2254  5B01     A0 1A       			ldy	#+0+?LSC3+5
 2255  5B03     B1 28       			lda	(__stack_ptr),y
 2256  5B05     20 AA DA    			jsr	__store_char_funct_arg
 2257  5B08     A9 88       			lda	#.low.136
 2258  5B0A     85 20       			sta	__oper1
 2259  5B0C     A9 00       			lda	#.high.136
 2260  5B0E     85 21       			sta	__oper1+1
 2261  5B10     A5 20       			lda	__oper1
 2262  5B12     A2 8E       			ldx	#.low.&SysPicture
 2263  5B14     86 26       			stx	__addr_reg
 2264  5B16     A2 E7       			ldx	#.high.&SysPicture+1
 2265  5B18     86 27       			stx	__addr_reg+1
 2266                     			.bf_call
 2267  5B1A     20 F6 D2    			jsr	__banked_function_call
 2268  5B1D     08          			php
  Tue Jan 13 23:03:19 2026                                                                                               Page   41




 2269  5B1E     78          			sei
 2270  5B1F     18          			clc
 2271  5B20     A5 28       			lda	__stack_ptr
 2272  5B22     69 06       			adc	#.low.6
 2273  5B24     85 28       			sta	__stack_ptr
 2274  5B26     A5 29       			lda	__stack_ptr+1
 2275  5B28     69 00       			adc	#.high.6
 2276  5B2A     85 29       			sta	__stack_ptr+1
 2277  5B2C     28          			plp
 2278                     			.c_end	01b86h,238
 2279                     	;;
 2280                     	;				
 2281                     	;(g_GameMTTimeOut==10)
 2282                     	;				
 2283         4412 5B2D   	?BOL19:		.equal	$
 2284                     			.if_top	01b8dh,?BOL20,3,239
 2285  5B2D     AD 07 18    			lda	_g_GameMTTimeOut
 2286  5B30     38          			sec
 2287  5B31     E9 0A       			sbc	#10
 2288  5B33     F0 03       			beq	+3
 2289  5B35     4C D0 5B    			jmp	?BOL20
 2290         3613 5B38   	?PLC16:		.equal	$
 2291                     			.c_end	01ba5h,240
 2292                     	;(flag)
 2293                     			.if_top	01bb2h,?BOL21,4,241
 2294  5B38     A0 1C       			ldy	#+3+?LSC3+?TSC3
 2295  5B3A     B1 28       			lda	(__stack_ptr),y
 2296  5B3C     D0 03       			bne	+3
 2297  5B3E     4C CB 5B    			jmp	?BOL21
 2298         4613 5B41   	?PLC17:		.equal	$
 2299                     			.c_end	01bb9h,241
 2300                     	;SysPicture(136,33+8*line,151,45+8*line,GameMTTalkSigh[1],0)
 2301                     			.c_start  01bb2h,241
 2302  5B41     A0 19       			ldy	#+0+?LSC3+?TSC3
 2303  5B43     B1 28       			lda	(__stack_ptr),y
 2304  5B45     85 23       			sta	__oper2
 2305  5B47     A9 08       			lda	#8
 2306  5B49     20 EF DC    			jsr	__uns_mult_char
 2307  5B4C     18          			clc
 2308  5B4D     69 21       			adc	#33
 2309  5B4F     A0 15       			ldy	#+0+?LSC3
 2310  5B51     91 28       			sta	(__stack_ptr),y
 2311  5B53     A0 19       			ldy	#+0+?LSC3+?TSC3
 2312  5B55     B1 28       			lda	(__stack_ptr),y
 2313  5B57     85 23       			sta	__oper2
 2314  5B59     A9 08       			lda	#8
 2315  5B5B     20 EF DC    			jsr	__uns_mult_char
 2316  5B5E     18          			clc
 2317  5B5F     69 2D       			adc	#45
 2318  5B61     A0 16       			ldy	#+1+?LSC3
 2319  5B63     91 28       			sta	(__stack_ptr),y
 2320  5B65     A9 3A       			lda	#.low._GameMTTalkSigh+26
 2321  5B67     85 20       			sta	__oper1
 2322  5B69     A9 92       			lda	#.high._GameMTTalkSigh+26
 2323  5B6B     85 21       			sta	__oper1+1
 2324  5B6D     A0 17       			ldy	#+2+?LSC3
 2325  5B6F     A5 20       			lda	__oper1
  Tue Jan 13 23:03:19 2026                                                                                               Page   42




 2326  5B71     91 28       			sta	(__stack_ptr),y
 2327  5B73     C8          			iny
 2328  5B74     A5 21       			lda	__oper1+1
 2329  5B76     91 28       			sta	(__stack_ptr),y
 2330  5B78     A9 00       			lda	#0
 2331  5B7A     20 AA DA    			jsr	__store_char_funct_arg
 2332  5B7D     A0 18       			ldy	#+2+?LSC3+1
 2333  5B7F     B1 28       			lda	(__stack_ptr),y
 2334  5B81     85 20       			sta	__oper1
 2335  5B83     C8          			iny
 2336  5B84     B1 28       			lda	(__stack_ptr),y
 2337  5B86     85 21       			sta	__oper1+1
 2338  5B88     20 CA DA    			jsr	__store_int_funct_arg
 2339  5B8B     A0 19       			ldy	#+1+?LSC3+3
 2340  5B8D     B1 28       			lda	(__stack_ptr),y
 2341  5B8F     20 AA DA    			jsr	__store_char_funct_arg
 2342  5B92     A9 97       			lda	#.low.151
 2343  5B94     85 20       			sta	__oper1
 2344  5B96     A9 00       			lda	#.high.151
 2345  5B98     85 21       			sta	__oper1+1
 2346  5B9A     A5 20       			lda	__oper1
 2347  5B9C     20 AA DA    			jsr	__store_char_funct_arg
 2348  5B9F     A0 1A       			ldy	#+0+?LSC3+5
 2349  5BA1     B1 28       			lda	(__stack_ptr),y
 2350  5BA3     20 AA DA    			jsr	__store_char_funct_arg
 2351  5BA6     A9 88       			lda	#.low.136
 2352  5BA8     85 20       			sta	__oper1
 2353  5BAA     A9 00       			lda	#.high.136
 2354  5BAC     85 21       			sta	__oper1+1
 2355  5BAE     A5 20       			lda	__oper1
 2356  5BB0     A2 8E       			ldx	#.low.&SysPicture
 2357  5BB2     86 26       			stx	__addr_reg
 2358  5BB4     A2 E7       			ldx	#.high.&SysPicture+1
 2359  5BB6     86 27       			stx	__addr_reg+1
 2360                     			.bf_call
 2361  5BB8     20 F6 D2    			jsr	__banked_function_call
 2362  5BBB     08          			php
 2363  5BBC     78          			sei
 2364  5BBD     18          			clc
 2365  5BBE     A5 28       			lda	__stack_ptr
 2366  5BC0     69 06       			adc	#.low.6
 2367  5BC2     85 28       			sta	__stack_ptr
 2368  5BC4     A5 29       			lda	__stack_ptr+1
 2369  5BC6     69 00       			adc	#.high.6
 2370  5BC8     85 29       			sta	__stack_ptr+1
 2371  5BCA     28          			plp
 2372                     			.c_end	01bf5h,241
 2373                     	;;
 2374                     	;					
 2375                     	;g_GameMTTimeOut=0
 2376         4223 5BCB   	?BOL21:		.equal	$
 2377                     			.c_start  01bfdh,242
 2378  5BCB     A9 00       			lda	#0
 2379  5BCD     8D 07 18    			sta	_g_GameMTTimeOut
 2380                     			.c_end	01c0eh,242
 2381                     	;
 2382                     	;
  Tue Jan 13 23:03:19 2026                                                                                               Page   43




 2383         4523 5BD0   	?BOL20:		.equal	$
 2384                     	;else 
 2385  5BD0     4C D6 5B    			jmp	?EOI18
 2386                     			.if_else  ?EOI18,2,245
 2387         3124 5BD3   	?BOL18:		.equal	$
 2388                     	;break;
 2389                     	;		
 2390  5BD3     4C D9 5B    			jmp	?BOL16
 2391         3424 5BD6   	?EOI18:		.equal	$
 2392                     	;
 2393                     			.whi_bot  1,246
 2394  5BD6     4C 64 5A    			jmp	?TOL16
 2395         3724 5BD9   	?BOL16:		.equal	$
 2396                     	;SysRestoreScreen(4,5,154,90,g_GameMTBuf)
 2397                     			.c_start  01c34h,247
 2398  5BD9     A9 13       			lda	#.low._g_GameMTBuf
 2399  5BDB     85 20       			sta	__oper1
 2400  5BDD     A9 18       			lda	#.high._g_GameMTBuf
 2401  5BDF     85 21       			sta	__oper1+1
 2402  5BE1     20 CA DA    			jsr	__store_int_funct_arg
 2403  5BE4     A9 5A       			lda	#90
 2404  5BE6     20 AA DA    			jsr	__store_char_funct_arg
 2405  5BE9     A9 9A       			lda	#.low.154
 2406  5BEB     85 20       			sta	__oper1
 2407  5BED     A9 00       			lda	#.high.154
 2408  5BEF     85 21       			sta	__oper1+1
 2409  5BF1     A5 20       			lda	__oper1
 2410  5BF3     20 AA DA    			jsr	__store_char_funct_arg
 2411  5BF6     A9 05       			lda	#5
 2412  5BF8     20 AA DA    			jsr	__store_char_funct_arg
 2413  5BFB     A9 04       			lda	#4
 2414  5BFD     A2 7A       			ldx	#.low.&SysRestoreScreen
 2415  5BFF     86 26       			stx	__addr_reg
 2416  5C01     A2 E8       			ldx	#.high.&SysRestoreScreen+1
 2417  5C03     86 27       			stx	__addr_reg+1
 2418                     			.bf_call
 2419  5C05     20 F6 D2    			jsr	__banked_function_call
 2420  5C08     08          			php
 2421  5C09     78          			sei
 2422  5C0A     18          			clc
 2423  5C0B     A5 28       			lda	__stack_ptr
 2424  5C0D     69 05       			adc	#.low.5
 2425  5C0F     85 28       			sta	__stack_ptr
 2426  5C11     A5 29       			lda	__stack_ptr+1
 2427  5C13     69 00       			adc	#.high.5
 2428  5C15     85 29       			sta	__stack_ptr+1
 2429  5C17     28          			plp
 2430                     			.c_end	01c5ch,247
 2431                     	;
 2432                     			.f_end	01c5fh,248
 2433         3811 5C18   	?BOF3:		.equal	$
 2434  5C18     08          			php
 2435  5C19     78          			sei
 2436  5C1A     18          			clc
 2437  5C1B     A5 28       			lda	__stack_ptr
 2438  5C1D     69 1A       			adc	#.low.+?LSC3+?TSC3+1
 2439  5C1F     85 28       			sta	__stack_ptr
  Tue Jan 13 23:03:19 2026                                                                                               Page   44




 2440  5C21     A5 29       			lda	__stack_ptr+1
 2441  5C23     69 00       			adc	#.high.+?LSC3+?TSC3+1
 2442  5C25     85 29       			sta	__stack_ptr+1
 2443  5C27     28          			plp
 2444                     			.f_return
 2445  5C28     60          			rts
 2446                     	;
 2447                     			.f_start  01e17h,260
 2448         3912 5C29   	_GameMTInit:	.equal	$
 2449                     			.attrib	_GameMTInit,261,f,d
 2450                     	;
 2451                     	;
 2452         0000        	?ASC4:		.equal	0
 2453         000A        	?TSC4:		.equal	10
 2454         0006        	?LSC4:		.equal	6
 2455  5C29     08          			php
 2456  5C2A     78          			sei
 2457  5C2B     38          			sec
 2458  5C2C     A5 28       			lda	__stack_ptr
 2459  5C2E     E9 10       			sbc	#.low.+?LSC4+?TSC4
 2460  5C30     85 28       			sta	__stack_ptr
 2461  5C32     A5 29       			lda	__stack_ptr+1
 2462  5C34     E9 00       			sbc	#.high.+?LSC4+?TSC4
 2463  5C36     85 29       			sta	__stack_ptr+1
 2464  5C38     28          			plp
 2465                     	;unsigned int  	i=j=k;
 2466                     	;	
 2467                     			.local	_i,262,v,i,u,d,d,d,d,-2+?LSC4+0,00h
 2468                     			.local	_j,262,v,i,u,d,d,d,d,-4+?LSC4+0,00h
 2469                     			.local	_k,262,v,i,u,d,d,d,d,-6+?LSC4+0,00h
 2470                     	;GameMTMainMenu()
 2471                     			.c_start  01e37h,263
 2472  5C39     A2 39       			ldx	#.low.&GameMTMainMenu
 2473  5C3B     86 26       			stx	__addr_reg
 2474  5C3D     A2 90       			ldx	#.high.&GameMTMainMenu+1
 2475  5C3F     86 27       			stx	__addr_reg+1
 2476                     			.bf_call
 2477  5C41     20 F6 D2    			jsr	__banked_function_call
 2478                     			.c_end	01e47h,263
 2479                     	;(g_GameMTQuit)
 2480                     			.if_top	01e4bh,?BOL22,1,264
 2481  5C44     AD 05 18    			lda	_g_GameMTQuit
 2482  5C47     D0 03       			bne	+3
 2483  5C49     4C 4F 5C    			jmp	?BOL22
 2484         3A14 5C4C   	?PLC18:		.equal	$
 2485                     			.c_end	01e5ah,264
 2486                     	;return
 2487                     			.c_start  01e4bh,264
 2488  5C4C     4C AC 62    			jmp	?BOF4
 2489                     			.c_end	01e61h,264
 2490                     	;;
 2491                     	;	
 2492                     	;SysLcdPartClear(0,0,158,95)
 2493         4414 5C4F   	?BOL22:		.equal	$
 2494                     			.c_start  01e65h,265
 2495  5C4F     A9 5F       			lda	#95
 2496  5C51     20 AA DA    			jsr	__store_char_funct_arg
  Tue Jan 13 23:03:19 2026                                                                                               Page   45




 2497  5C54     A9 9E       			lda	#.low.158
 2498  5C56     85 20       			sta	__oper1
 2499  5C58     A9 00       			lda	#.high.158
 2500  5C5A     85 21       			sta	__oper1+1
 2501  5C5C     A5 20       			lda	__oper1
 2502  5C5E     20 AA DA    			jsr	__store_char_funct_arg
 2503  5C61     A9 00       			lda	#0
 2504  5C63     20 AA DA    			jsr	__store_char_funct_arg
 2505  5C66     A9 00       			lda	#0
 2506  5C68     A2 5D       			ldx	#.low.&SysLcdPartClear
 2507  5C6A     86 26       			stx	__addr_reg
 2508  5C6C     A2 E8       			ldx	#.high.&SysLcdPartClear+1
 2509  5C6E     86 27       			stx	__addr_reg+1
 2510                     			.bf_call
 2511  5C70     20 F6 D2    			jsr	__banked_function_call
 2512  5C73     08          			php
 2513  5C74     78          			sei
 2514  5C75     18          			clc
 2515  5C76     A5 28       			lda	__stack_ptr
 2516  5C78     69 03       			adc	#.low.3
 2517  5C7A     85 28       			sta	__stack_ptr
 2518  5C7C     A5 29       			lda	__stack_ptr+1
 2519  5C7E     69 00       			adc	#.high.3
 2520  5C80     85 29       			sta	__stack_ptr+1
 2521  5C82     28          			plp
 2522                     			.c_end	01e80h,265
 2523                     	;g_GameMTInit=0
 2524                     			.c_start  01e84h,266
 2525  5C83     A9 00       			lda	#0
 2526  5C85     8D 04 18    			sta	_g_GameMTInit
 2527                     			.c_end	01e96h,266
 2528                     	;g_GameMTMapX=2
 2529                     			.c_start  01e9ah,267
 2530  5C88     A9 02       			lda	#2
 2531  5C8A     8D 0D 18    			sta	_g_GameMTMapX
 2532                     			.c_end	01ea8h,267
 2533                     	;g_GameMTMapY=5
 2534                     			.c_start  01each,268
 2535  5C8D     A9 05       			lda	#5
 2536  5C8F     8D 0E 18    			sta	_g_GameMTMapY
 2537                     			.c_end	01ebah,268
 2538                     	;g_GameMTTopFloor=0
 2539                     			.c_start  01ebeh,269
 2540  5C92     A9 00       			lda	#0
 2541  5C94     8D 08 18    			sta	_g_GameMTTopFloor
 2542                     			.c_end	01ed0h,269
 2543                     	;g_GameMTHeroX=5
 2544                     			.c_start  01ed4h,270
 2545  5C97     A9 05       			lda	#5
 2546  5C99     8D 0F 18    			sta	_g_GameMTHeroX
 2547                     			.c_end	01ee3h,270
 2548                     	;g_GameMTHeroY=10
 2549                     			.c_start  01ee7h,271
 2550  5C9C     A9 0A       			lda	#10
 2551  5C9E     8D 10 18    			sta	_g_GameMTHeroY
 2552                     			.c_end	01ef7h,271
 2553                     	;g_GameMTHeroDir=2
  Tue Jan 13 23:03:19 2026                                                                                               Page   46




 2554                     			.c_start  01efbh,272
 2555  5CA1     A9 02       			lda	#2
 2556  5CA3     8D A6 1F    			sta	_g_GameMTHeroDir
 2557                     			.c_end	01f0ch,272
 2558                     	;g_GameMTHeroLv=1
 2559                     			.c_start  01f10h,273
 2560  5CA6     A9 01       			lda	#1
 2561  5CA8     8D 09 18    			sta	_g_GameMTHeroLv
 2562                     			.c_end	01f20h,273
 2563                     	;g_GameMTHeroLife=1000
 2564                     			.c_start  01f24h,274
 2565                     			.const_data_psnake
 2566  8D17     E803 0000   	?CGL2:	.long	1000
 2567                     			.program_psnake
 2568  5CAB     A9 17       			lda	#.low.?CGL2
 2569  5CAD     85 23       			sta	__oper2
 2570  5CAF     A9 8D       			lda	#.high.?CGL2
 2571  5CB1     85 24       			sta	__oper2+1
 2572  5CB3     A9 AA       			lda	#.low._g_GameMTHeroLife
 2573  5CB5     85 20       			sta	__oper1
 2574  5CB7     A9 1F       			lda	#.high._g_GameMTHeroLife
 2575  5CB9     85 21       			sta	__oper1+1
 2576  5CBB     20 E6 DA    			jsr	__store_long
 2577                     			.c_end	01f39h,274
 2578                     	;g_GameMTHeroDamige=10
 2579                     			.c_start  01f51h,275
 2580  5CBE     A9 0A       			lda	#.low.10
 2581  5CC0     8D 9E 1F    			sta	_g_GameMTHeroDamige
 2582  5CC3     A9 00       			lda	#.high.10
 2583  5CC5     8D 9F 1F    			sta	_g_GameMTHeroDamige+1
 2584                     			.c_end	01f66h,275
 2585                     	;g_GameMTHeroDefence=10
 2586                     			.c_start  01f6ah,276
 2587  5CC8     A9 0A       			lda	#.low.10
 2588  5CCA     8D A0 1F    			sta	_g_GameMTHeroDefence
 2589  5CCD     A9 00       			lda	#.high.10
 2590  5CCF     8D A1 1F    			sta	_g_GameMTHeroDefence+1
 2591                     			.c_end	01f80h,276
 2592                     	;g_GameMTHeroMoney=0
 2593                     			.c_start  01f84h,277
 2594  5CD2     A9 00       			lda	#.low.0
 2595  5CD4     8D A2 1F    			sta	_g_GameMTHeroMoney
 2596  5CD7     8D A3 1F    			sta	_g_GameMTHeroMoney+1
 2597                     			.c_end	01f97h,277
 2598                     	;g_GameMTHeroExp=0
 2599                     			.c_start  01f9bh,278
 2600  5CDA     A9 00       			lda	#.low.0
 2601  5CDC     8D A4 1F    			sta	_g_GameMTHeroExp
 2602  5CDF     8D A5 1F    			sta	_g_GameMTHeroExp+1
 2603                     			.c_end	01fach,278
 2604                     	;g_GameMTFloor=0
 2605                     			.c_start  01fb0h,279
 2606  5CE2     A9 00       			lda	#0
 2607  5CE4     8D A7 1F    			sta	_g_GameMTFloor
 2608                     			.c_end	01fbfh,279
 2609                     	;g_GameMTGameOver=0
 2610                     			.c_start  01fc3h,280
  Tue Jan 13 23:03:19 2026                                                                                               Page   47




 2611  5CE7     A9 00       			lda	#0
 2612  5CE9     8D 03 18    			sta	_g_GameMTGameOver
 2613                     			.c_end	01fd9h,280
 2614                     	;g_GameMTDeadLine=90
 2615                     			.c_start  01fddh,281
 2616  5CEC     A9 5A       			lda	#90
 2617  5CEE     8D 01 18    			sta	_g_GameMTDeadLine
 2618                     			.c_end	01ff0h,281
 2619                     	;g_GameMTNearEnd=0
 2620                     			.c_start  01ff4h,282
 2621  5CF1     A9 00       			lda	#0
 2622  5CF3     8D 00 18    			sta	_g_GameMTNearEnd
 2623                     			.c_end	02009h,282
 2624                     	;g_GameMTEnd=0
 2625                     			.c_start  0200dh,283
 2626  5CF6     A9 00       			lda	#0
 2627  5CF8     8D 02 18    			sta	_g_GameMTEnd
 2628                     			.c_end	0201eh,283
 2629                     	;g_GameMTQuit=0
 2630                     			.c_start  02022h,284
 2631  5CFB     A9 00       			lda	#0
 2632  5CFD     8D 05 18    			sta	_g_GameMTQuit
 2633                     			.c_end	02034h,284
 2634                     	;GameMTTalk(5,0,1)
 2635                     			.c_start  02038h,285
 2636  5D00     A9 01       			lda	#1
 2637  5D02     20 AA DA    			jsr	__store_char_funct_arg
 2638  5D05     A9 00       			lda	#.low.0
 2639  5D07     85 20       			sta	__oper1
 2640  5D09     A9 00       			lda	#.high.0
 2641  5D0B     85 21       			sta	__oper1+1
 2642  5D0D     20 CA DA    			jsr	__store_int_funct_arg
 2643  5D10     A9 05       			lda	#5
 2644  5D12     A2 09       			ldx	#.low.&GameMTTalk
 2645  5D14     86 26       			stx	__addr_reg
 2646  5D16     A2 90       			ldx	#.high.&GameMTTalk+1
 2647  5D18     86 27       			stx	__addr_reg+1
 2648                     			.bf_call
 2649  5D1A     20 F6 D2    			jsr	__banked_function_call
 2650  5D1D     08          			php
 2651  5D1E     78          			sei
 2652  5D1F     18          			clc
 2653  5D20     A5 28       			lda	__stack_ptr
 2654  5D22     69 03       			adc	#.low.3
 2655  5D24     85 28       			sta	__stack_ptr
 2656  5D26     A5 29       			lda	__stack_ptr+1
 2657  5D28     69 00       			adc	#.high.3
 2658  5D2A     85 29       			sta	__stack_ptr+1
 2659  5D2C     28          			plp
 2660                     			.c_end	02049h,285
 2661                     	;GameMTTalk(5,5,1)
 2662                     			.c_start  0204dh,286
 2663  5D2D     A9 01       			lda	#1
 2664  5D2F     20 AA DA    			jsr	__store_char_funct_arg
 2665  5D32     A9 05       			lda	#.low.5
 2666  5D34     85 20       			sta	__oper1
 2667  5D36     A9 00       			lda	#.high.5
  Tue Jan 13 23:03:19 2026                                                                                               Page   48




 2668  5D38     85 21       			sta	__oper1+1
 2669  5D3A     20 CA DA    			jsr	__store_int_funct_arg
 2670  5D3D     A9 05       			lda	#5
 2671  5D3F     A2 09       			ldx	#.low.&GameMTTalk
 2672  5D41     86 26       			stx	__addr_reg
 2673  5D43     A2 90       			ldx	#.high.&GameMTTalk+1
 2674  5D45     86 27       			stx	__addr_reg+1
 2675                     			.bf_call
 2676  5D47     20 F6 D2    			jsr	__banked_function_call
 2677  5D4A     08          			php
 2678  5D4B     78          			sei
 2679  5D4C     18          			clc
 2680  5D4D     A5 28       			lda	__stack_ptr
 2681  5D4F     69 03       			adc	#.low.3
 2682  5D51     85 28       			sta	__stack_ptr
 2683  5D53     A5 29       			lda	__stack_ptr+1
 2684  5D55     69 00       			adc	#.high.3
 2685  5D57     85 29       			sta	__stack_ptr+1
 2686  5D59     28          			plp
 2687                     			.c_end	0205eh,286
 2688                     	;GameMTTalk(5,10,1)
 2689                     			.c_start  02062h,287
 2690  5D5A     A9 01       			lda	#1
 2691  5D5C     20 AA DA    			jsr	__store_char_funct_arg
 2692  5D5F     A9 0A       			lda	#.low.10
 2693  5D61     85 20       			sta	__oper1
 2694  5D63     A9 00       			lda	#.high.10
 2695  5D65     85 21       			sta	__oper1+1
 2696  5D67     20 CA DA    			jsr	__store_int_funct_arg
 2697  5D6A     A9 05       			lda	#5
 2698  5D6C     A2 09       			ldx	#.low.&GameMTTalk
 2699  5D6E     86 26       			stx	__addr_reg
 2700  5D70     A2 90       			ldx	#.high.&GameMTTalk+1
 2701  5D72     86 27       			stx	__addr_reg+1
 2702                     			.bf_call
 2703  5D74     20 F6 D2    			jsr	__banked_function_call
 2704  5D77     08          			php
 2705  5D78     78          			sei
 2706  5D79     18          			clc
 2707  5D7A     A5 28       			lda	__stack_ptr
 2708  5D7C     69 03       			adc	#.low.3
 2709  5D7E     85 28       			sta	__stack_ptr
 2710  5D80     A5 29       			lda	__stack_ptr+1
 2711  5D82     69 00       			adc	#.high.3
 2712  5D84     85 29       			sta	__stack_ptr+1
 2713  5D86     28          			plp
 2714                     			.c_end	02074h,287
 2715                     	;GameMTTalk(5,15,1)
 2716                     			.c_start  02078h,288
 2717  5D87     A9 01       			lda	#1
 2718  5D89     20 AA DA    			jsr	__store_char_funct_arg
 2719  5D8C     A9 0F       			lda	#.low.15
 2720  5D8E     85 20       			sta	__oper1
 2721  5D90     A9 00       			lda	#.high.15
 2722  5D92     85 21       			sta	__oper1+1
 2723  5D94     20 CA DA    			jsr	__store_int_funct_arg
 2724  5D97     A9 05       			lda	#5
  Tue Jan 13 23:03:19 2026                                                                                               Page   49




 2725  5D99     A2 09       			ldx	#.low.&GameMTTalk
 2726  5D9B     86 26       			stx	__addr_reg
 2727  5D9D     A2 90       			ldx	#.high.&GameMTTalk+1
 2728  5D9F     86 27       			stx	__addr_reg+1
 2729                     			.bf_call
 2730  5DA1     20 F6 D2    			jsr	__banked_function_call
 2731  5DA4     08          			php
 2732  5DA5     78          			sei
 2733  5DA6     18          			clc
 2734  5DA7     A5 28       			lda	__stack_ptr
 2735  5DA9     69 03       			adc	#.low.3
 2736  5DAB     85 28       			sta	__stack_ptr
 2737  5DAD     A5 29       			lda	__stack_ptr+1
 2738  5DAF     69 00       			adc	#.high.3
 2739  5DB1     85 29       			sta	__stack_ptr+1
 2740  5DB3     28          			plp
 2741                     			.c_end	0208ah,288
 2742                     	;GameMTTalk(5,20,5)
 2743                     			.c_start  0208eh,289
 2744  5DB4     A9 05       			lda	#5
 2745  5DB6     20 AA DA    			jsr	__store_char_funct_arg
 2746  5DB9     A9 14       			lda	#.low.20
 2747  5DBB     85 20       			sta	__oper1
 2748  5DBD     A9 00       			lda	#.high.20
 2749  5DBF     85 21       			sta	__oper1+1
 2750  5DC1     20 CA DA    			jsr	__store_int_funct_arg
 2751  5DC4     A9 05       			lda	#5
 2752  5DC6     A2 09       			ldx	#.low.&GameMTTalk
 2753  5DC8     86 26       			stx	__addr_reg
 2754  5DCA     A2 90       			ldx	#.high.&GameMTTalk+1
 2755  5DCC     86 27       			stx	__addr_reg+1
 2756                     			.bf_call
 2757  5DCE     20 F6 D2    			jsr	__banked_function_call
 2758  5DD1     08          			php
 2759  5DD2     78          			sei
 2760  5DD3     18          			clc
 2761  5DD4     A5 28       			lda	__stack_ptr
 2762  5DD6     69 03       			adc	#.low.3
 2763  5DD8     85 28       			sta	__stack_ptr
 2764  5DDA     A5 29       			lda	__stack_ptr+1
 2765  5DDC     69 00       			adc	#.high.3
 2766  5DDE     85 29       			sta	__stack_ptr+1
 2767  5DE0     28          			plp
 2768                     			.c_end	020a0h,289
 2769                     	;GameMTTalk(5,25,5)
 2770                     			.c_start  020a4h,290
 2771  5DE1     A9 05       			lda	#5
 2772  5DE3     20 AA DA    			jsr	__store_char_funct_arg
 2773  5DE6     A9 19       			lda	#.low.25
 2774  5DE8     85 20       			sta	__oper1
 2775  5DEA     A9 00       			lda	#.high.25
 2776  5DEC     85 21       			sta	__oper1+1
 2777  5DEE     20 CA DA    			jsr	__store_int_funct_arg
 2778  5DF1     A9 05       			lda	#5
 2779  5DF3     A2 09       			ldx	#.low.&GameMTTalk
 2780  5DF5     86 26       			stx	__addr_reg
 2781  5DF7     A2 90       			ldx	#.high.&GameMTTalk+1
  Tue Jan 13 23:03:19 2026                                                                                               Page   50




 2782  5DF9     86 27       			stx	__addr_reg+1
 2783                     			.bf_call
 2784  5DFB     20 F6 D2    			jsr	__banked_function_call
 2785  5DFE     08          			php
 2786  5DFF     78          			sei
 2787  5E00     18          			clc
 2788  5E01     A5 28       			lda	__stack_ptr
 2789  5E03     69 03       			adc	#.low.3
 2790  5E05     85 28       			sta	__stack_ptr
 2791  5E07     A5 29       			lda	__stack_ptr+1
 2792  5E09     69 00       			adc	#.high.3
 2793  5E0B     85 29       			sta	__stack_ptr+1
 2794  5E0D     28          			plp
 2795                     			.c_end	020b6h,290
 2796                     	;GameMTTalk(4,30,0)
 2797                     			.c_start  020bah,291
 2798  5E0E     A9 00       			lda	#0
 2799  5E10     20 AA DA    			jsr	__store_char_funct_arg
 2800  5E13     A9 1E       			lda	#.low.30
 2801  5E15     85 20       			sta	__oper1
 2802  5E17     A9 00       			lda	#.high.30
 2803  5E19     85 21       			sta	__oper1+1
 2804  5E1B     20 CA DA    			jsr	__store_int_funct_arg
 2805  5E1E     A9 04       			lda	#4
 2806  5E20     A2 09       			ldx	#.low.&GameMTTalk
 2807  5E22     86 26       			stx	__addr_reg
 2808  5E24     A2 90       			ldx	#.high.&GameMTTalk+1
 2809  5E26     86 27       			stx	__addr_reg+1
 2810                     			.bf_call
 2811  5E28     20 F6 D2    			jsr	__banked_function_call
 2812  5E2B     08          			php
 2813  5E2C     78          			sei
 2814  5E2D     18          			clc
 2815  5E2E     A5 28       			lda	__stack_ptr
 2816  5E30     69 03       			adc	#.low.3
 2817  5E32     85 28       			sta	__stack_ptr
 2818  5E34     A5 29       			lda	__stack_ptr+1
 2819  5E36     69 00       			adc	#.high.3
 2820  5E38     85 29       			sta	__stack_ptr+1
 2821  5E3A     28          			plp
 2822                     			.c_end	020cch,291
 2823                     	;(g_GameMTQuit)
 2824                     			.if_top	020d0h,?BOL23,1,292
 2825  5E3B     AD 05 18    			lda	_g_GameMTQuit
 2826  5E3E     D0 03       			bne	+3
 2827  5E40     4C 46 5E    			jmp	?BOL23
 2828         3114 5E43   	?PLC19:		.equal	$
 2829                     			.c_end	020dfh,292
 2830                     	;return
 2831                     			.c_start  020d0h,292
 2832  5E43     4C AC 62    			jmp	?BOF4
 2833                     			.c_end	020e6h,292
 2834                     	;;
 2835                     	;	
 2836                     	;GameMTGetMapData()
 2837         3414 5E46   	?BOL23:		.equal	$
 2838                     			.c_start  020eah,293
  Tue Jan 13 23:03:19 2026                                                                                               Page   51




 2839  5E46     A2 33       			ldx	#.low.&GameMTGetMapData
 2840  5E48     86 26       			stx	__addr_reg
 2841  5E4A     A2 90       			ldx	#.high.&GameMTGetMapData+1
 2842  5E4C     86 27       			stx	__addr_reg+1
 2843                     			.bf_call
 2844  5E4E     20 F6 D2    			jsr	__banked_function_call
 2845                     			.c_end	020fch,293
 2846                     	;i=0
 2847                     			.c_start  02100h,294
 2848  5E51     A0 04       			ldy	#-2+?LSC4
 2849  5E53     A9 00       			lda	#.low.0
 2850  5E55     91 28       			sta	(__stack_ptr),y
 2851  5E57     C8          			iny
 2852  5E58     91 28       			sta	(__stack_ptr),y
 2853                     			.c_end	02103h,294
 2854                     	;while
 2855         3915 5E5A   	?TOL24:		.equal	$
 2856                     	;(i<2662)
 2857                     	;	
 2858                     			.whi_top  02107h,?BOL24,1,295
 2859  5E5A     A9 66       			lda	#.low.2662
 2860  5E5C     85 23       			sta	__oper2
 2861  5E5E     A9 0A       			lda	#.high.2662
 2862  5E60     85 24       			sta	__oper2+1
 2863  5E62     A0 04       			ldy	#-2+?LSC4
 2864  5E64     B1 28       			lda	(__stack_ptr),y
 2865  5E66     85 20       			sta	__oper1
 2866  5E68     C8          			iny
 2867  5E69     B1 28       			lda	(__stack_ptr),y
 2868  5E6B     85 21       			sta	__oper1+1
 2869  5E6D     20 40 D3    			jsr	__cmp_int
 2870  5E70     90 03       			bcc	+3
 2871  5E72     4C D7 5E    			jmp	?BOL24
 2872         3317 5E75   	?PLC20:		.equal	$
 2873                     			.c_end	02115h,296
 2874                     	;g_GameMTCurMap[i]-=40
 2875                     			.c_start  0211ch,297
 2876  5E75     A0 04       			ldy	#-2+?LSC4
 2877  5E77     B1 28       			lda	(__stack_ptr),y
 2878  5E79     85 20       			sta	__oper1
 2879  5E7B     C8          			iny
 2880  5E7C     B1 28       			lda	(__stack_ptr),y
 2881  5E7E     85 21       			sta	__oper1+1
 2882  5E80     18          			clc
 2883  5E81     AD A8 1F    			lda	_g_GameMTCurMap
 2884  5E84     65 20       			adc	__oper1
 2885  5E86     85 20       			sta	__oper1
 2886  5E88     AD A9 1F    			lda	_g_GameMTCurMap+1
 2887  5E8B     65 21       			adc	__oper1+1
 2888  5E8D     85 21       			sta	__oper1+1
 2889  5E8F     A0 00       			ldy	#0
 2890  5E91     B1 20       			lda	(__oper1),y
 2891  5E93     38          			sec
 2892  5E94     E9 28       			sbc	#40
 2893  5E96     A0 06       			ldy	#+0+?LSC4
 2894  5E98     91 28       			sta	(__stack_ptr),y
 2895  5E9A     A0 04       			ldy	#-2+?LSC4
  Tue Jan 13 23:03:19 2026                                                                                               Page   52




 2896  5E9C     B1 28       			lda	(__stack_ptr),y
 2897  5E9E     85 20       			sta	__oper1
 2898  5EA0     C8          			iny
 2899  5EA1     B1 28       			lda	(__stack_ptr),y
 2900  5EA3     85 21       			sta	__oper1+1
 2901  5EA5     18          			clc
 2902  5EA6     AD A8 1F    			lda	_g_GameMTCurMap
 2903  5EA9     65 20       			adc	__oper1
 2904  5EAB     85 20       			sta	__oper1
 2905  5EAD     AD A9 1F    			lda	_g_GameMTCurMap+1
 2906  5EB0     65 21       			adc	__oper1+1
 2907  5EB2     85 21       			sta	__oper1+1
 2908  5EB4     A5 20       			lda	__oper1
 2909  5EB6     85 23       			sta	__oper2
 2910  5EB8     A5 21       			lda	__oper1+1
 2911  5EBA     85 24       			sta	__oper2+1
 2912  5EBC     A0 06       			ldy	#+0+?LSC4
 2913  5EBE     B1 28       			lda	(__stack_ptr),y
 2914  5EC0     A0 00       			ldy	#0
 2915  5EC2     91 23       			sta	(__oper2),y
 2916                     			.c_end	02131h,297
 2917                     	;i++
 2918                     			.c_start  02136h,298
 2919  5EC4     A0 04       			ldy	#-2+?LSC4
 2920  5EC6     18          			clc
 2921  5EC7     B1 28       			lda	(__stack_ptr),y
 2922  5EC9     69 01       			adc	#1
 2923  5ECB     91 28       			sta	(__stack_ptr),y
 2924  5ECD     C8          			iny
 2925  5ECE     B1 28       			lda	(__stack_ptr),y
 2926  5ED0     69 00       			adc	#0
 2927  5ED2     91 28       			sta	(__stack_ptr),y
 2928                     			.c_end	02139h,298
 2929                     	;
 2930                     			.whi_bot  1,299
 2931  5ED4     4C 5A 5E    			jmp	?TOL24
 2932         3524 5ED7   	?BOL24:		.equal	$
 2933                     	;g_GameMTKey[0]=0
 2934                     			.c_start  02141h,300
 2935  5ED7     A9 93       			lda	#.low._g_GameMTKey+0
 2936  5ED9     85 20       			sta	__oper1
 2937  5EDB     A9 1F       			lda	#.high._g_GameMTKey+0
 2938  5EDD     85 21       			sta	__oper1+1
 2939  5EDF     A5 20       			lda	__oper1
 2940  5EE1     85 23       			sta	__oper2
 2941  5EE3     A5 21       			lda	__oper1+1
 2942  5EE5     85 24       			sta	__oper2+1
 2943  5EE7     A9 00       			lda	#0
 2944  5EE9     A0 00       			ldy	#0
 2945  5EEB     91 23       			sta	(__oper2),y
 2946                     			.c_end	02151h,300
 2947                     	;g_GameMTKey[1]=0
 2948                     			.c_start  02155h,301
 2949  5EED     A9 94       			lda	#.low._g_GameMTKey+1
 2950  5EEF     85 20       			sta	__oper1
 2951  5EF1     A9 1F       			lda	#.high._g_GameMTKey+1
 2952  5EF3     85 21       			sta	__oper1+1
  Tue Jan 13 23:03:19 2026                                                                                               Page   53




 2953  5EF5     A5 20       			lda	__oper1
 2954  5EF7     85 23       			sta	__oper2
 2955  5EF9     A5 21       			lda	__oper1+1
 2956  5EFB     85 24       			sta	__oper2+1
 2957  5EFD     A9 00       			lda	#0
 2958  5EFF     A0 00       			ldy	#0
 2959  5F01     91 23       			sta	(__oper2),y
 2960                     			.c_end	02165h,301
 2961                     	;g_GameMTKey[2]=0
 2962                     			.c_start  02169h,302
 2963  5F03     A9 95       			lda	#.low._g_GameMTKey+2
 2964  5F05     85 20       			sta	__oper1
 2965  5F07     A9 1F       			lda	#.high._g_GameMTKey+2
 2966  5F09     85 21       			sta	__oper1+1
 2967  5F0B     A5 20       			lda	__oper1
 2968  5F0D     85 23       			sta	__oper2
 2969  5F0F     A5 21       			lda	__oper1+1
 2970  5F11     85 24       			sta	__oper2+1
 2971  5F13     A9 00       			lda	#0
 2972  5F15     A0 00       			ldy	#0
 2973  5F17     91 23       			sta	(__oper2),y
 2974                     			.c_end	02179h,302
 2975                     	;SysPicture(128,0,158,95,GameMTWorkPad,0)
 2976                     			.c_start  0217dh,303
 2977  5F19     A9 00       			lda	#0
 2978  5F1B     20 AA DA    			jsr	__store_char_funct_arg
 2979  5F1E     A9 6E       			lda	#.low._GameMTWorkPad
 2980  5F20     85 20       			sta	__oper1
 2981  5F22     A9 BD       			lda	#.high._GameMTWorkPad
 2982  5F24     85 21       			sta	__oper1+1
 2983  5F26     20 CA DA    			jsr	__store_int_funct_arg
 2984  5F29     A9 5F       			lda	#95
 2985  5F2B     20 AA DA    			jsr	__store_char_funct_arg
 2986  5F2E     A9 9E       			lda	#.low.158
 2987  5F30     85 20       			sta	__oper1
 2988  5F32     A9 00       			lda	#.high.158
 2989  5F34     85 21       			sta	__oper1+1
 2990  5F36     A5 20       			lda	__oper1
 2991  5F38     20 AA DA    			jsr	__store_char_funct_arg
 2992  5F3B     A9 00       			lda	#0
 2993  5F3D     20 AA DA    			jsr	__store_char_funct_arg
 2994  5F40     A9 80       			lda	#.low.128
 2995  5F42     85 20       			sta	__oper1
 2996  5F44     A9 00       			lda	#.high.128
 2997  5F46     85 21       			sta	__oper1+1
 2998  5F48     A5 20       			lda	__oper1
 2999  5F4A     A2 8E       			ldx	#.low.&SysPicture
 3000  5F4C     86 26       			stx	__addr_reg
 3001  5F4E     A2 E7       			ldx	#.high.&SysPicture+1
 3002  5F50     86 27       			stx	__addr_reg+1
 3003                     			.bf_call
 3004  5F52     20 F6 D2    			jsr	__banked_function_call
 3005  5F55     08          			php
 3006  5F56     78          			sei
 3007  5F57     18          			clc
 3008  5F58     A5 28       			lda	__stack_ptr
 3009  5F5A     69 06       			adc	#.low.6
  Tue Jan 13 23:03:19 2026                                                                                               Page   54




 3010  5F5C     85 28       			sta	__stack_ptr
 3011  5F5E     A5 29       			lda	__stack_ptr+1
 3012  5F60     69 00       			adc	#.high.6
 3013  5F62     85 29       			sta	__stack_ptr+1
 3014  5F64     28          			plp
 3015                     			.c_end	021a5h,303
 3016                     	;GameMTReNewR()
 3017                     			.c_start  021a9h,304
 3018  5F65     A2 2D       			ldx	#.low.&GameMTReNewR
 3019  5F67     86 26       			stx	__addr_reg
 3020  5F69     A2 90       			ldx	#.high.&GameMTReNewR+1
 3021  5F6B     86 27       			stx	__addr_reg+1
 3022                     			.bf_call
 3023  5F6D     20 F6 D2    			jsr	__banked_function_call
 3024                     			.c_end	021b7h,304
 3025                     	;i=0;
 3026                     			.c_start  021bbh,305
 3027  5F70     A0 04       			ldy	#-2+?LSC4
 3028  5F72     A9 00       			lda	#.low.0
 3029  5F74     91 28       			sta	(__stack_ptr),y
 3030  5F76     C8          			iny
 3031  5F77     91 28       			sta	(__stack_ptr),y
 3032                     			.c_end	021c2h,305
 3033         3817 5F79   	?FLC25:		.equal	$
 3034                     	;i<8;
 3035                     			.for_top  021c3h,?BOL25,?FLB25,?FLA25,1,305
 3036  5F79     A9 08       			lda	#.low.8
 3037  5F7B     85 23       			sta	__oper2
 3038  5F7D     A9 00       			lda	#.high.8
 3039  5F7F     85 24       			sta	__oper2+1
 3040  5F81     A0 04       			ldy	#-2+?LSC4
 3041  5F83     B1 28       			lda	(__stack_ptr),y
 3042  5F85     85 20       			sta	__oper1
 3043  5F87     C8          			iny
 3044  5F88     B1 28       			lda	(__stack_ptr),y
 3045  5F8A     85 21       			sta	__oper1+1
 3046  5F8C     20 40 D3    			jsr	__cmp_int
 3047  5F8F     90 03       			bcc	+3
 3048  5F91     4C BE 61    			jmp	?BOL25
 3049                     			.c_end	021c6h,305
 3050  5F94     4C AA 5F    			jmp	?FLB25
 3051         3519 5F97   	?FLA25:		.equal	$
 3052                     	;i++)
 3053                     	;		
 3054                     			.for_adj  021c7h,305
 3055  5F97     A0 04       			ldy	#-2+?LSC4
 3056  5F99     18          			clc
 3057  5F9A     B1 28       			lda	(__stack_ptr),y
 3058  5F9C     69 01       			adc	#1
 3059  5F9E     91 28       			sta	(__stack_ptr),y
 3060  5FA0     C8          			iny
 3061  5FA1     B1 28       			lda	(__stack_ptr),y
 3062  5FA3     69 00       			adc	#0
 3063  5FA5     91 28       			sta	(__stack_ptr),y
 3064                     			.c_end	021cch,306
 3065  5FA7     4C 79 5F    			jmp	?FLC25
 3066         3821 5FAA   	?FLB25:		.equal	$
  Tue Jan 13 23:03:19 2026                                                                                               Page   55




 3067                     	;j=0;
 3068                     			.c_start  021cfh,306
 3069  5FAA     A0 02       			ldy	#-4+?LSC4
 3070  5FAC     A9 00       			lda	#.low.0
 3071  5FAE     91 28       			sta	(__stack_ptr),y
 3072  5FB0     C8          			iny
 3073  5FB1     91 28       			sta	(__stack_ptr),y
 3074                     			.c_end	021d6h,306
 3075         3222 5FB3   	?FLC26:		.equal	$
 3076                     	;j<6;
 3077                     			.for_top  021d7h,?BOL26,?FLB26,?FLA26,2,306
 3078  5FB3     A9 06       			lda	#.low.6
 3079  5FB5     85 23       			sta	__oper2
 3080  5FB7     A9 00       			lda	#.high.6
 3081  5FB9     85 24       			sta	__oper2+1
 3082  5FBB     A0 02       			ldy	#-4+?LSC4
 3083  5FBD     B1 28       			lda	(__stack_ptr),y
 3084  5FBF     85 20       			sta	__oper1
 3085  5FC1     C8          			iny
 3086  5FC2     B1 28       			lda	(__stack_ptr),y
 3087  5FC4     85 21       			sta	__oper1+1
 3088  5FC6     20 40 D3    			jsr	__cmp_int
 3089  5FC9     90 03       			bcc	+3
 3090  5FCB     4C BB 61    			jmp	?BOL26
 3091                     			.c_end	021dah,306
 3092  5FCE     4C E4 5F    			jmp	?FLB26
 3093         4623 5FD1   	?FLA26:		.equal	$
 3094                     	;j++)
 3095                     	;			
 3096                     			.for_adj  021dbh,306
 3097  5FD1     A0 02       			ldy	#-4+?LSC4
 3098  5FD3     18          			clc
 3099  5FD4     B1 28       			lda	(__stack_ptr),y
 3100  5FD6     69 01       			adc	#1
 3101  5FD8     91 28       			sta	(__stack_ptr),y
 3102  5FDA     C8          			iny
 3103  5FDB     B1 28       			lda	(__stack_ptr),y
 3104  5FDD     69 00       			adc	#0
 3105  5FDF     91 28       			sta	(__stack_ptr),y
 3106                     			.c_end	021e0h,307
 3107  5FE1     4C B3 5F    			jmp	?FLC26
 3108         3225 5FE4   	?FLB26:		.equal	$
 3109                     	;SysPicture(i*16,j*16,i*16+15,j*16+15,GameMTUnitPic[g_GameMTCurMap[g_GameMTFloor*121+(g_GameMTMapY+j)*11+g_GameMTMap
                            X+i]],0)
 3110                     			.c_start  021e4h,307
 3111  5FE4     A9 10       			lda	#.low.16
 3112  5FE6     85 23       			sta	__oper2
 3113  5FE8     A9 00       			lda	#.high.16
 3114  5FEA     85 24       			sta	__oper2+1
 3115  5FEC     A0 04       			ldy	#-2+?LSC4
 3116  5FEE     B1 28       			lda	(__stack_ptr),y
 3117  5FF0     85 20       			sta	__oper1
 3118  5FF2     C8          			iny
 3119  5FF3     B1 28       			lda	(__stack_ptr),y
 3120  5FF5     85 21       			sta	__oper1+1
 3121  5FF7     20 F4 DC    			jsr	__uns_mult_int
 3122  5FFA     A0 06       			ldy	#+0+?LSC4
  Tue Jan 13 23:03:19 2026                                                                                               Page   56




 3123  5FFC     A5 20       			lda	__oper1
 3124  5FFE     91 28       			sta	(__stack_ptr),y
 3125  6000     C8          			iny
 3126  6001     A5 21       			lda	__oper1+1
 3127  6003     91 28       			sta	(__stack_ptr),y
 3128  6005     A9 10       			lda	#.low.16
 3129  6007     85 23       			sta	__oper2
 3130  6009     A9 00       			lda	#.high.16
 3131  600B     85 24       			sta	__oper2+1
 3132  600D     A0 02       			ldy	#-4+?LSC4
 3133  600F     B1 28       			lda	(__stack_ptr),y
 3134  6011     85 20       			sta	__oper1
 3135  6013     C8          			iny
 3136  6014     B1 28       			lda	(__stack_ptr),y
 3137  6016     85 21       			sta	__oper1+1
 3138  6018     20 F4 DC    			jsr	__uns_mult_int
 3139  601B     A0 08       			ldy	#+2+?LSC4
 3140  601D     A5 20       			lda	__oper1
 3141  601F     91 28       			sta	(__stack_ptr),y
 3142  6021     C8          			iny
 3143  6022     A5 21       			lda	__oper1+1
 3144  6024     91 28       			sta	(__stack_ptr),y
 3145  6026     A9 10       			lda	#.low.16
 3146  6028     85 23       			sta	__oper2
 3147  602A     A9 00       			lda	#.high.16
 3148  602C     85 24       			sta	__oper2+1
 3149  602E     A0 04       			ldy	#-2+?LSC4
 3150  6030     B1 28       			lda	(__stack_ptr),y
 3151  6032     85 20       			sta	__oper1
 3152  6034     C8          			iny
 3153  6035     B1 28       			lda	(__stack_ptr),y
 3154  6037     85 21       			sta	__oper1+1
 3155  6039     20 F4 DC    			jsr	__uns_mult_int
 3156  603C     A5 20       			lda	__oper1
 3157  603E     18          			clc
 3158  603F     69 0F       			adc	#.low.15
 3159  6041     85 20       			sta	__oper1
 3160  6043     A5 21       			lda	__oper1+1
 3161  6045     69 00       			adc	#.high.15
 3162  6047     85 21       			sta	__oper1+1
 3163  6049     A0 0A       			ldy	#+4+?LSC4
 3164  604B     A5 20       			lda	__oper1
 3165  604D     91 28       			sta	(__stack_ptr),y
 3166  604F     C8          			iny
 3167  6050     A5 21       			lda	__oper1+1
 3168  6052     91 28       			sta	(__stack_ptr),y
 3169  6054     A9 10       			lda	#.low.16
 3170  6056     85 23       			sta	__oper2
 3171  6058     A9 00       			lda	#.high.16
 3172  605A     85 24       			sta	__oper2+1
 3173  605C     A0 02       			ldy	#-4+?LSC4
 3174  605E     B1 28       			lda	(__stack_ptr),y
 3175  6060     85 20       			sta	__oper1
 3176  6062     C8          			iny
 3177  6063     B1 28       			lda	(__stack_ptr),y
 3178  6065     85 21       			sta	__oper1+1
 3179  6067     20 F4 DC    			jsr	__uns_mult_int
  Tue Jan 13 23:03:19 2026                                                                                               Page   57




 3180  606A     A5 20       			lda	__oper1
 3181  606C     18          			clc
 3182  606D     69 0F       			adc	#.low.15
 3183  606F     85 20       			sta	__oper1
 3184  6071     A5 21       			lda	__oper1+1
 3185  6073     69 00       			adc	#.high.15
 3186  6075     85 21       			sta	__oper1+1
 3187  6077     A0 0C       			ldy	#+6+?LSC4
 3188  6079     A5 20       			lda	__oper1
 3189  607B     91 28       			sta	(__stack_ptr),y
 3190  607D     C8          			iny
 3191  607E     A5 21       			lda	__oper1+1
 3192  6080     91 28       			sta	(__stack_ptr),y
 3193  6082     A9 79       			lda	#121
 3194  6084     85 23       			sta	__oper2
 3195  6086     AD A7 1F    			lda	_g_GameMTFloor
 3196  6089     20 EF DC    			jsr	__uns_mult_char
 3197  608C     A0 0E       			ldy	#+8+?LSC4
 3198  608E     91 28       			sta	(__stack_ptr),y
 3199  6090     A0 02       			ldy	#-4+?LSC4
 3200  6092     B1 28       			lda	(__stack_ptr),y
 3201  6094     85 23       			sta	__oper2
 3202  6096     C8          			iny
 3203  6097     B1 28       			lda	(__stack_ptr),y
 3204  6099     85 24       			sta	__oper2+1
 3205  609B     AD 0E 18    			lda	_g_GameMTMapY
 3206  609E     85 20       			sta	__oper1
 3207  60A0     A9 00       			lda	#0
 3208  60A2     85 21       			sta	__oper1+1
 3209  60A4     18          			clc
 3210  60A5     A5 20       			lda	__oper1
 3211  60A7     65 23       			adc	__oper2
 3212  60A9     85 20       			sta	__oper1
 3213  60AB     A5 21       			lda	__oper1+1
 3214  60AD     65 24       			adc	__oper2+1
 3215  60AF     85 21       			sta	__oper1+1
 3216  60B1     A9 0B       			lda	#.low.11
 3217  60B3     85 23       			sta	__oper2
 3218  60B5     A9 00       			lda	#.high.11
 3219  60B7     85 24       			sta	__oper2+1
 3220  60B9     20 F4 DC    			jsr	__uns_mult_int
 3221  60BC     A5 20       			lda	__oper1
 3222  60BE     85 23       			sta	__oper2
 3223  60C0     A5 21       			lda	__oper1+1
 3224  60C2     85 24       			sta	__oper2+1
 3225  60C4     A0 0E       			ldy	#+8+?LSC4
 3226  60C6     B1 28       			lda	(__stack_ptr),y
 3227  60C8     85 20       			sta	__oper1
 3228  60CA     A9 00       			lda	#0
 3229  60CC     85 21       			sta	__oper1+1
 3230  60CE     18          			clc
 3231  60CF     A5 20       			lda	__oper1
 3232  60D1     65 23       			adc	__oper2
 3233  60D3     85 20       			sta	__oper1
 3234  60D5     A5 21       			lda	__oper1+1
 3235  60D7     65 24       			adc	__oper2+1
 3236  60D9     85 21       			sta	__oper1+1
  Tue Jan 13 23:03:19 2026                                                                                               Page   58




 3237  60DB     A5 20       			lda	__oper1
 3238  60DD     85 23       			sta	__oper2
 3239  60DF     A5 21       			lda	__oper1+1
 3240  60E1     85 24       			sta	__oper2+1
 3241  60E3     AD 0D 18    			lda	_g_GameMTMapX
 3242  60E6     85 20       			sta	__oper1
 3243  60E8     A9 00       			lda	#0
 3244  60EA     85 21       			sta	__oper1+1
 3245  60EC     18          			clc
 3246  60ED     A5 20       			lda	__oper1
 3247  60EF     65 23       			adc	__oper2
 3248  60F1     85 20       			sta	__oper1
 3249  60F3     A5 21       			lda	__oper1+1
 3250  60F5     65 24       			adc	__oper2+1
 3251  60F7     85 21       			sta	__oper1+1
 3252  60F9     A0 04       			ldy	#-2+?LSC4
 3253  60FB     A5 20       			lda	__oper1
 3254  60FD     18          			clc
 3255  60FE     71 28       			adc	(__stack_ptr),y
 3256  6100     85 20       			sta	__oper1
 3257  6102     C8          			iny
 3258  6103     A5 21       			lda	__oper1+1
 3259  6105     71 28       			adc	(__stack_ptr),y
 3260  6107     85 21       			sta	__oper1+1
 3261  6109     18          			clc
 3262  610A     AD A8 1F    			lda	_g_GameMTCurMap
 3263  610D     65 20       			adc	__oper1
 3264  610F     85 20       			sta	__oper1
 3265  6111     AD A9 1F    			lda	_g_GameMTCurMap+1
 3266  6114     65 21       			adc	__oper1+1
 3267  6116     85 21       			sta	__oper1+1
 3268  6118     A0 00       			ldy	#0
 3269  611A     B1 20       			lda	(__oper1),y
 3270  611C     A0 0E       			ldy	#+8+?LSC4
 3271  611E     91 28       			sta	(__stack_ptr),y
 3272  6120     A9 20       			lda	#.low.32
 3273  6122     85 23       			sta	__oper2
 3274  6124     A9 00       			lda	#.high.32
 3275  6126     85 24       			sta	__oper2+1
 3276  6128     A0 0E       			ldy	#+8+?LSC4
 3277  612A     B1 28       			lda	(__stack_ptr),y
 3278  612C     85 20       			sta	__oper1
 3279  612E     A9 00       			lda	#0
 3280  6130     85 21       			sta	__oper1+1
 3281  6132     20 AF D6    			jsr	__mult_int
 3282  6135     18          			clc
 3283  6136     A5 20       			lda	__oper1
 3284  6138     69 16       			adc	#.low._GameMTUnitPic
 3285  613A     85 20       			sta	__oper1
 3286  613C     A5 21       			lda	__oper1+1
 3287  613E     69 B4       			adc	#.high._GameMTUnitPic
 3288  6140     85 21       			sta	__oper1+1
 3289  6142     A0 0E       			ldy	#+8+?LSC4
 3290  6144     A5 20       			lda	__oper1
 3291  6146     91 28       			sta	(__stack_ptr),y
 3292  6148     C8          			iny
 3293  6149     A5 21       			lda	__oper1+1
  Tue Jan 13 23:03:19 2026                                                                                               Page   59




 3294  614B     91 28       			sta	(__stack_ptr),y
 3295  614D     A9 00       			lda	#0
 3296  614F     20 AA DA    			jsr	__store_char_funct_arg
 3297  6152     A0 0F       			ldy	#+8+?LSC4+1
 3298  6154     B1 28       			lda	(__stack_ptr),y
 3299  6156     85 20       			sta	__oper1
 3300  6158     C8          			iny
 3301  6159     B1 28       			lda	(__stack_ptr),y
 3302  615B     85 21       			sta	__oper1+1
 3303  615D     20 CA DA    			jsr	__store_int_funct_arg
 3304  6160     A0 0F       			ldy	#+6+?LSC4+3
 3305  6162     B1 28       			lda	(__stack_ptr),y
 3306  6164     85 20       			sta	__oper1
 3307  6166     C8          			iny
 3308  6167     B1 28       			lda	(__stack_ptr),y
 3309  6169     85 21       			sta	__oper1+1
 3310  616B     A5 20       			lda	__oper1
 3311  616D     20 AA DA    			jsr	__store_char_funct_arg
 3312  6170     A0 0E       			ldy	#+4+?LSC4+4
 3313  6172     B1 28       			lda	(__stack_ptr),y
 3314  6174     85 20       			sta	__oper1
 3315  6176     C8          			iny
 3316  6177     B1 28       			lda	(__stack_ptr),y
 3317  6179     85 21       			sta	__oper1+1
 3318  617B     A5 20       			lda	__oper1
 3319  617D     20 AA DA    			jsr	__store_char_funct_arg
 3320  6180     A0 0D       			ldy	#+2+?LSC4+5
 3321  6182     B1 28       			lda	(__stack_ptr),y
 3322  6184     85 20       			sta	__oper1
 3323  6186     C8          			iny
 3324  6187     B1 28       			lda	(__stack_ptr),y
 3325  6189     85 21       			sta	__oper1+1
 3326  618B     A5 20       			lda	__oper1
 3327  618D     20 AA DA    			jsr	__store_char_funct_arg
 3328  6190     A0 0C       			ldy	#+0+?LSC4+6
 3329  6192     B1 28       			lda	(__stack_ptr),y
 3330  6194     85 20       			sta	__oper1
 3331  6196     C8          			iny
 3332  6197     B1 28       			lda	(__stack_ptr),y
 3333  6199     85 21       			sta	__oper1+1
 3334  619B     A5 20       			lda	__oper1
 3335  619D     A2 8E       			ldx	#.low.&SysPicture
 3336  619F     86 26       			stx	__addr_reg
 3337  61A1     A2 E7       			ldx	#.high.&SysPicture+1
 3338  61A3     86 27       			stx	__addr_reg+1
 3339                     			.bf_call
 3340  61A5     20 F6 D2    			jsr	__banked_function_call
 3341  61A8     08          			php
 3342  61A9     78          			sei
 3343  61AA     18          			clc
 3344  61AB     A5 28       			lda	__stack_ptr
 3345  61AD     69 06       			adc	#.low.6
 3346  61AF     85 28       			sta	__stack_ptr
 3347  61B1     A5 29       			lda	__stack_ptr+1
 3348  61B3     69 00       			adc	#.high.6
 3349  61B5     85 29       			sta	__stack_ptr+1
 3350  61B7     28          			plp
  Tue Jan 13 23:03:19 2026                                                                                               Page   60




 3351                     			.c_end	0225fh,307
 3352                     	;;
 3353                     	;	
 3354                     			.for_bot  2,307
 3355  61B8     4C D1 5F    			jmp	?FLA26
 3356         3922 61BB   	?BOL26:		.equal	$
 3357                     			.for_bot  1,307
 3358  61BB     4C 97 5F    			jmp	?FLA25
 3359         4322 61BE   	?BOL25:		.equal	$
 3360                     	;SysPicture((g_GameMTHeroX-g_GameMTMapX)*16,(g_GameMTHeroY-g_GameMTMapY)*16,(g_GameMTHeroX-g_GameMTMapX)*16+15,(g_Ga
                            meMTHeroY-g_GameMTMapY)*16+15,GameMTHeroPic[g_GameMTHeroDir],0)
 3361                     			.c_start  02263h,308
 3362  61BE     AD 0F 18    			lda	_g_GameMTHeroX
 3363  61C1     38          			sec
 3364  61C2     ED 0D 18    			sbc	_g_GameMTMapX
 3365  61C5     48          			pha
 3366  61C6     A9 10       			lda	#16
 3367  61C8     85 23       			sta	__oper2
 3368  61CA     68          			pla
 3369  61CB     20 EF DC    			jsr	__uns_mult_char
 3370  61CE     A0 06       			ldy	#+0+?LSC4
 3371  61D0     91 28       			sta	(__stack_ptr),y
 3372  61D2     AD 10 18    			lda	_g_GameMTHeroY
 3373  61D5     38          			sec
 3374  61D6     ED 0E 18    			sbc	_g_GameMTMapY
 3375  61D9     48          			pha
 3376  61DA     A9 10       			lda	#16
 3377  61DC     85 23       			sta	__oper2
 3378  61DE     68          			pla
 3379  61DF     20 EF DC    			jsr	__uns_mult_char
 3380  61E2     A0 07       			ldy	#+1+?LSC4
 3381  61E4     91 28       			sta	(__stack_ptr),y
 3382  61E6     AD 0F 18    			lda	_g_GameMTHeroX
 3383  61E9     38          			sec
 3384  61EA     ED 0D 18    			sbc	_g_GameMTMapX
 3385  61ED     48          			pha
 3386  61EE     A9 10       			lda	#16
 3387  61F0     85 23       			sta	__oper2
 3388  61F2     68          			pla
 3389  61F3     20 EF DC    			jsr	__uns_mult_char
 3390  61F6     18          			clc
 3391  61F7     69 0F       			adc	#15
 3392  61F9     A0 08       			ldy	#+2+?LSC4
 3393  61FB     91 28       			sta	(__stack_ptr),y
 3394  61FD     AD 10 18    			lda	_g_GameMTHeroY
 3395  6200     38          			sec
 3396  6201     ED 0E 18    			sbc	_g_GameMTMapY
 3397  6204     48          			pha
 3398  6205     A9 10       			lda	#16
 3399  6207     85 23       			sta	__oper2
 3400  6209     68          			pla
 3401  620A     20 EF DC    			jsr	__uns_mult_char
 3402  620D     18          			clc
 3403  620E     69 0F       			adc	#15
 3404  6210     A0 09       			ldy	#+3+?LSC4
 3405  6212     91 28       			sta	(__stack_ptr),y
 3406  6214     A9 20       			lda	#.low.32
  Tue Jan 13 23:03:19 2026                                                                                               Page   61




 3407  6216     85 23       			sta	__oper2
 3408  6218     A9 00       			lda	#.high.32
 3409  621A     85 24       			sta	__oper2+1
 3410  621C     AD A6 1F    			lda	_g_GameMTHeroDir
 3411  621F     85 20       			sta	__oper1
 3412  6221     A9 00       			lda	#0
 3413  6223     85 21       			sta	__oper1+1
 3414  6225     20 AF D6    			jsr	__mult_int
 3415  6228     18          			clc
 3416  6229     A5 20       			lda	__oper1
 3417  622B     69 9E       			adc	#.low._GameMTHeroPic
 3418  622D     85 20       			sta	__oper1
 3419  622F     A5 21       			lda	__oper1+1
 3420  6231     69 90       			adc	#.high._GameMTHeroPic
 3421  6233     85 21       			sta	__oper1+1
 3422  6235     A0 0A       			ldy	#+4+?LSC4
 3423  6237     A5 20       			lda	__oper1
 3424  6239     91 28       			sta	(__stack_ptr),y
 3425  623B     C8          			iny
 3426  623C     A5 21       			lda	__oper1+1
 3427  623E     91 28       			sta	(__stack_ptr),y
 3428  6240     A9 00       			lda	#0
 3429  6242     20 AA DA    			jsr	__store_char_funct_arg
 3430  6245     A0 0B       			ldy	#+4+?LSC4+1
 3431  6247     B1 28       			lda	(__stack_ptr),y
 3432  6249     85 20       			sta	__oper1
 3433  624B     C8          			iny
 3434  624C     B1 28       			lda	(__stack_ptr),y
 3435  624E     85 21       			sta	__oper1+1
 3436  6250     20 CA DA    			jsr	__store_int_funct_arg
 3437  6253     A0 0C       			ldy	#+3+?LSC4+3
 3438  6255     B1 28       			lda	(__stack_ptr),y
 3439  6257     20 AA DA    			jsr	__store_char_funct_arg
 3440  625A     A0 0C       			ldy	#+2+?LSC4+4
 3441  625C     B1 28       			lda	(__stack_ptr),y
 3442  625E     20 AA DA    			jsr	__store_char_funct_arg
 3443  6261     A0 0C       			ldy	#+1+?LSC4+5
 3444  6263     B1 28       			lda	(__stack_ptr),y
 3445  6265     20 AA DA    			jsr	__store_char_funct_arg
 3446  6268     A0 0C       			ldy	#+0+?LSC4+6
 3447  626A     B1 28       			lda	(__stack_ptr),y
 3448  626C     A2 8E       			ldx	#.low.&SysPicture
 3449  626E     86 26       			stx	__addr_reg
 3450  6270     A2 E7       			ldx	#.high.&SysPicture+1
 3451  6272     86 27       			stx	__addr_reg+1
 3452                     			.bf_call
 3453  6274     20 F6 D2    			jsr	__banked_function_call
 3454  6277     08          			php
 3455  6278     78          			sei
 3456  6279     18          			clc
 3457  627A     A5 28       			lda	__stack_ptr
 3458  627C     69 06       			adc	#.low.6
 3459  627E     85 28       			sta	__stack_ptr
 3460  6280     A5 29       			lda	__stack_ptr+1
 3461  6282     69 00       			adc	#.high.6
 3462  6284     85 29       			sta	__stack_ptr+1
 3463  6286     28          			plp
  Tue Jan 13 23:03:19 2026                                                                                               Page   62




 3464                     			.c_end	02315h,308
 3465                     	;g_GameMTCurMap[154]=33
 3466                     			.c_start  02319h,309
 3467  6287     AD A8 1F    			lda	_g_GameMTCurMap
 3468  628A     85 20       			sta	__oper1
 3469  628C     AD A9 1F    			lda	_g_GameMTCurMap+1
 3470  628F     85 21       			sta	__oper1+1
 3471  6291     18          			clc
 3472  6292     A5 20       			lda	__oper1
 3473  6294     69 9A       			adc	#.low.154
 3474  6296     85 20       			sta	__oper1
 3475  6298     A5 21       			lda	__oper1+1
 3476  629A     69 00       			adc	#.high.154
 3477  629C     85 21       			sta	__oper1+1
 3478  629E     A5 20       			lda	__oper1
 3479  62A0     85 23       			sta	__oper2
 3480  62A2     A5 21       			lda	__oper1+1
 3481  62A4     85 24       			sta	__oper2+1
 3482  62A6     A9 21       			lda	#33
 3483  62A8     A0 00       			ldy	#0
 3484  62AA     91 23       			sta	(__oper2),y
 3485                     			.c_end	0232fh,309
 3486                     	;
 3487                     			.f_end	02332h,310
 3488         4221 62AC   	?BOF4:		.equal	$
 3489  62AC     08          			php
 3490  62AD     78          			sei
 3491  62AE     18          			clc
 3492  62AF     A5 28       			lda	__stack_ptr
 3493  62B1     69 10       			adc	#.low.+?LSC4+?TSC4+0
 3494  62B3     85 28       			sta	__stack_ptr
 3495  62B5     A5 29       			lda	__stack_ptr+1
 3496  62B7     69 00       			adc	#.high.+?LSC4+?TSC4+0
 3497  62B9     85 29       			sta	__stack_ptr+1
 3498  62BB     28          			plp
 3499                     			.f_return
 3500  62BC     60          			rts
 3501                     	;
 3502                     			.f_start  024ech,322
 3503                     			.bank_table
 3504                     			.global	&GameMTMove
 3505  900C     BD 62 E0    	&GameMTMove:	.bankaddr	_GameMTMove
 3506                     			.ends
 3507         4410 62BD   	_GameMTMove:	.equal	$
 3508                     			.attrib	_GameMTMove,323,f,b
 3509                     	;
 3510                     	;
 3511         0000        	?ASC5:		.equal	0
 3512         0000        	?TSC5:		.equal	0
 3513         0000        	?LSC5:		.equal	0
 3514                     	;(g_GameMTReadKey)
 3515                     			.c_start  02502h,325
 3516  62BD     AD 06 18    			lda	_g_GameMTReadKey
 3517  62C0     85 23       			sta	__oper2
 3518  62C2     A2 00       			ldx	#0
 3519  62C4     86 24       			stx	__oper2+1
 3520         3523 62C6   	?PLC21:		.equal	$
  Tue Jan 13 23:03:19 2026                                                                                               Page   63




 3521                     			.c_end	02518h,325
 3522                     	;
 3523                     			.sw_start
 3524                     			.const_data_psnake
 3525  8D1B     0100        	?CGL3:	.word	1
 3526  8D1D     0200        			.word	2
 3527  8D1F     0300        			.word	3
 3528  8D21     0400        			.word	4
 3529  8D23     DD62        	?CGL4:	.word	?SWL10
 3530                     			.sw_case ?SWL10
 3531  8D25     1B63        			.word	?SWL11
 3532                     			.sw_case ?SWL11
 3533  8D27     4E63        			.word	?SWL12
 3534                     			.sw_case ?SWL12
 3535  8D29     8C63        			.word	?SWL13
 3536                     			.sw_case ?SWL13
 3537                     			.program_psnake
 3538  62C6     A9 1B       			lda	#.low.?CGL3
 3539  62C8     85 26       			sta	__addr_reg
 3540  62CA     A9 8D       			lda	#.high.?CGL3
 3541  62CC     85 27       			sta	__addr_reg+1
 3542                     			.sw_case ?BOL27
 3543  62CE     A2 04       			ldx	#.low.4
 3544  62D0     A0 00       			ldy	#.high.4
 3545  62D2     A9 BF       			lda	#.low.?BOL27
 3546  62D4     85 20       			sta	__oper1
 3547  62D6     A9 63       			lda	#.high.?BOL27
 3548  62D8     85 21       			sta	__oper1+1
 3549  62DA     4C 5C DB    			jmp	__switch_comparison
 3550                     			.sw_end
 3551                     	;case	1:
 3552                     	;				
 3553         4224 62DD   	?SWL10:		.equal	$
 3554                     	;(g_GameMTHeroX+1>1)
 3555                     			.if_top	0252ch,?BOL28,1,327
 3556  62DD     AD 0F 18    			lda	_g_GameMTHeroX
 3557  62E0     18          			clc
 3558  62E1     69 01       			adc	#1
 3559  62E3     38          			sec
 3560  62E4     E9 01       			sbc	#1
 3561  62E6     B0 03       			bcs	+3
 3562  62E8     4C F3 62    			jmp	?BOL28
 3563  62EB     D0 03       			bne	+3
 3564  62ED     4C F3 62    			jmp	?BOL28
 3565         4525 62F0   	?PLC22:		.equal	$
 3566                     			.c_end	02540h,327
 3567                     	;g_GameMTHeroX--
 3568                     			.c_start  0252ch,327
 3569  62F0     CE 0F 18    			dec	_g_GameMTHeroX
 3570                     			.c_end	02550h,327
 3571                     	;;
 3572                     	;				
 3573                     	;(g_GameMTMapX+1>1&&g_GameMTHeroX-g_GameMTMapX<3)
 3574         3126 62F3   	?BOL28:		.equal	$
 3575                     			.if_top	02557h,?BOL29,1,328
 3576  62F3     AD 0D 18    			lda	_g_GameMTMapX
 3577  62F6     18          			clc
  Tue Jan 13 23:03:19 2026                                                                                               Page   64




 3578  62F7     69 01       			adc	#1
 3579  62F9     38          			sec
 3580  62FA     E9 01       			sbc	#1
 3581  62FC     B0 03       			bcs	+3
 3582  62FE     4C 18 63    			jmp	?BOL29
 3583  6301     D0 03       			bne	+3
 3584  6303     4C 18 63    			jmp	?BOL29
 3585         3410 6306   	?ACC3:		.equal	$
 3586  6306     AD 0F 18    			lda	_g_GameMTHeroX
 3587  6309     38          			sec
 3588  630A     ED 0D 18    			sbc	_g_GameMTMapX
 3589  630D     38          			sec
 3590  630E     E9 03       			sbc	#3
 3591  6310     90 03       			bcc	+3
 3592  6312     4C 18 63    			jmp	?BOL29
 3593         3311 6315   	?PLC23:		.equal	$
 3594                     			.c_end	02588h,328
 3595                     	;g_GameMTMapX--
 3596                     			.c_start  02557h,328
 3597  6315     CE 0D 18    			dec	_g_GameMTMapX
 3598                     			.c_end	02597h,328
 3599                     	;;
 3600                     	;				
 3601                     	;break;
 3602                     	;			
 3603         3611 6318   	?BOL29:		.equal	$
 3604                     			.sw_break
 3605  6318     4C BF 63    			jmp	?BOL27
 3606                     	;case	2:
 3607                     	;				
 3608         3911 631B   	?SWL11:		.equal	$
 3609                     	;(g_GameMTHeroX<10)
 3610                     			.if_top	025b6h,?BOL30,1,331
 3611  631B     AD 0F 18    			lda	_g_GameMTHeroX
 3612  631E     38          			sec
 3613  631F     E9 0A       			sbc	#10
 3614  6321     90 03       			bcc	+3
 3615  6323     4C 29 63    			jmp	?BOL30
 3616         3412 6326   	?PLC24:		.equal	$
 3617                     			.c_end	025c9h,331
 3618                     	;g_GameMTHeroX++
 3619                     			.c_start  025b6h,331
 3620  6326     EE 0F 18    			inc	_g_GameMTHeroX
 3621                     			.c_end	025d9h,331
 3622                     	;;
 3623                     	;				
 3624                     	;(g_GameMTMapX<3&&g_GameMTHeroX-g_GameMTMapX>4)
 3625         3712 6329   	?BOL30:		.equal	$
 3626                     			.if_top	025e0h,?BOL31,1,332
 3627  6329     AD 0D 18    			lda	_g_GameMTMapX
 3628  632C     38          			sec
 3629  632D     E9 03       			sbc	#3
 3630  632F     90 03       			bcc	+3
 3631  6331     4C 4B 63    			jmp	?BOL31
 3632         3213 6334   	?ACC4:		.equal	$
 3633  6334     AD 0F 18    			lda	_g_GameMTHeroX
 3634  6337     38          			sec
  Tue Jan 13 23:03:19 2026                                                                                               Page   65




 3635  6338     ED 0D 18    			sbc	_g_GameMTMapX
 3636  633B     38          			sec
 3637  633C     E9 04       			sbc	#4
 3638  633E     B0 03       			bcs	+3
 3639  6340     4C 4B 63    			jmp	?BOL31
 3640  6343     D0 03       			bne	+3
 3641  6345     4C 4B 63    			jmp	?BOL31
 3642         3614 6348   	?PLC25:		.equal	$
 3643                     			.c_end	0260fh,332
 3644                     	;g_GameMTMapX++
 3645                     			.c_start  025e0h,332
 3646  6348     EE 0D 18    			inc	_g_GameMTMapX
 3647                     			.c_end	0261eh,332
 3648                     	;;
 3649                     	;				
 3650                     	;break;
 3651                     	;			
 3652         3914 634B   	?BOL31:		.equal	$
 3653                     			.sw_break
 3654  634B     4C BF 63    			jmp	?BOL27
 3655                     	;case	3:
 3656                     	;				
 3657         4314 634E   	?SWL12:		.equal	$
 3658                     	;(g_GameMTHeroY+1>1)
 3659                     			.if_top	0263dh,?BOL32,1,335
 3660  634E     AD 10 18    			lda	_g_GameMTHeroY
 3661  6351     18          			clc
 3662  6352     69 01       			adc	#1
 3663  6354     38          			sec
 3664  6355     E9 01       			sbc	#1
 3665  6357     B0 03       			bcs	+3
 3666  6359     4C 64 63    			jmp	?BOL32
 3667  635C     D0 03       			bne	+3
 3668  635E     4C 64 63    			jmp	?BOL32
 3669         4615 6361   	?PLC26:		.equal	$
 3670                     			.c_end	02651h,335
 3671                     	;g_GameMTHeroY--
 3672                     			.c_start  0263dh,335
 3673  6361     CE 10 18    			dec	_g_GameMTHeroY
 3674                     			.c_end	02661h,335
 3675                     	;;
 3676                     	;				
 3677                     	;(g_GameMTMapY+1>1&&g_GameMTHeroY-g_GameMTMapY<2)
 3678         3216 6364   	?BOL32:		.equal	$
 3679                     			.if_top	02668h,?BOL33,1,336
 3680  6364     AD 0E 18    			lda	_g_GameMTMapY
 3681  6367     18          			clc
 3682  6368     69 01       			adc	#1
 3683  636A     38          			sec
 3684  636B     E9 01       			sbc	#1
 3685  636D     B0 03       			bcs	+3
 3686  636F     4C 89 63    			jmp	?BOL33
 3687  6372     D0 03       			bne	+3
 3688  6374     4C 89 63    			jmp	?BOL33
 3689         3517 6377   	?ACC5:		.equal	$
 3690  6377     AD 10 18    			lda	_g_GameMTHeroY
 3691  637A     38          			sec
  Tue Jan 13 23:03:19 2026                                                                                               Page   66




 3692  637B     ED 0E 18    			sbc	_g_GameMTMapY
 3693  637E     38          			sec
 3694  637F     E9 02       			sbc	#2
 3695  6381     90 03       			bcc	+3
 3696  6383     4C 89 63    			jmp	?BOL33
 3697         3418 6386   	?PLC27:		.equal	$
 3698                     			.c_end	02699h,336
 3699                     	;g_GameMTMapY--
 3700                     			.c_start  02668h,336
 3701  6386     CE 0E 18    			dec	_g_GameMTMapY
 3702                     			.c_end	026a8h,336
 3703                     	;;
 3704                     	;				
 3705                     	;break;
 3706                     	;			
 3707         3718 6389   	?BOL33:		.equal	$
 3708                     			.sw_break
 3709  6389     4C BF 63    			jmp	?BOL27
 3710                     	;case	4:
 3711                     	;				
 3712         3A18 638C   	?SWL13:		.equal	$
 3713                     	;(g_GameMTHeroY<10)
 3714                     			.if_top	026c7h,?BOL34,1,339
 3715  638C     AD 10 18    			lda	_g_GameMTHeroY
 3716  638F     38          			sec
 3717  6390     E9 0A       			sbc	#10
 3718  6392     90 03       			bcc	+3
 3719  6394     4C 9A 63    			jmp	?BOL34
 3720         3519 6397   	?PLC28:		.equal	$
 3721                     			.c_end	026dah,339
 3722                     	;g_GameMTHeroY++
 3723                     			.c_start  026c7h,339
 3724  6397     EE 10 18    			inc	_g_GameMTHeroY
 3725                     			.c_end	026eah,339
 3726                     	;;
 3727                     	;				
 3728                     	;(g_GameMTMapY<5&&g_GameMTHeroY-g_GameMTMapY>3)
 3729         3819 639A   	?BOL34:		.equal	$
 3730                     			.if_top	026f1h,?BOL35,1,340
 3731  639A     AD 0E 18    			lda	_g_GameMTMapY
 3732  639D     38          			sec
 3733  639E     E9 05       			sbc	#5
 3734  63A0     90 03       			bcc	+3
 3735  63A2     4C BC 63    			jmp	?BOL35
 3736         3321 63A5   	?ACC6:		.equal	$
 3737  63A5     AD 10 18    			lda	_g_GameMTHeroY
 3738  63A8     38          			sec
 3739  63A9     ED 0E 18    			sbc	_g_GameMTMapY
 3740  63AC     38          			sec
 3741  63AD     E9 03       			sbc	#3
 3742  63AF     B0 03       			bcs	+3
 3743  63B1     4C BC 63    			jmp	?BOL35
 3744  63B4     D0 03       			bne	+3
 3745  63B6     4C BC 63    			jmp	?BOL35
 3746         3722 63B9   	?PLC29:		.equal	$
 3747                     			.c_end	02720h,340
 3748                     	;g_GameMTMapY++
  Tue Jan 13 23:03:19 2026                                                                                               Page   67




 3749                     			.c_start  026f1h,340
 3750  63B9     EE 0E 18    			inc	_g_GameMTMapY
 3751                     			.c_end	0272fh,340
 3752                     	;;
 3753                     	;				
 3754                     	;break;
 3755                     	;				
 3756         3A22 63BC   	?BOL35:		.equal	$
 3757                     			.sw_break
 3758  63BC     4C BF 63    			jmp	?BOL27
 3759                     	;
 3760         4422 63BF   	?BOL27:		.equal	$
 3761                     	;
 3762                     	;
 3763                     			.f_end	02746h,343
 3764         4502 63BF   	?BOF5:		.equal	$
 3765                     			.f_return
 3766  63BF     60          			rts
 3767                     	;
 3768                     			.f_start  02928h,355
 3769                     			.bank_table
 3770                     			.global	&GameMTPrintNum
 3771  900F     C0 63 E0    	&GameMTPrintNum:	.bankaddr	_GameMTPrintNum
 3772                     			.ends
 3773         4710 63C0   	_GameMTPrintNum:	.equal	$
 3774                     			.attrib	_GameMTPrintNum,356,f,b
 3775  63C0     20 AA DA    			jsr	__store_char_funct_arg
 3776                     	;
 3777                     	;
 3778         0006        	?ASC6:		.equal	6
 3779         0006        	?TSC6:		.equal	6
 3780         000E        	?LSC6:		.equal	14
 3781  63C3     08          			php
 3782  63C4     78          			sei
 3783  63C5     38          			sec
 3784  63C6     A5 28       			lda	__stack_ptr
 3785  63C8     E9 14       			sbc	#.low.+?LSC6+?TSC6
 3786  63CA     85 28       			sta	__stack_ptr
 3787  63CC     A5 29       			lda	__stack_ptr+1
 3788  63CE     E9 00       			sbc	#.high.+?LSC6+?TSC6
 3789  63D0     85 29       			sta	__stack_ptr+1
 3790  63D2     28          			plp
 3791                     	;{
 3792                     			.local	_flag,356,v,c,u,d,d,d,d,0+?LSC6+?TSC6+0,00h
 3793                     			.local	_number,356,v,l,u,d,d,d,d,1+?LSC6+?TSC6+0,00h
 3794                     			.local	_x,356,v,c,u,d,d,d,d,5+?LSC6+?TSC6+0,00h
 3795                     			.local	_y,356,v,c,u,d,d,d,d,6+?LSC6+?TSC6+0,00h
 3796                     	;unsigned int  i[6];
 3797                     	;	
 3798                     			.local	_i,357,v,i,u,d,d,d,d,-12+?LSC6+0,06h,00h
 3799                     	;unsigned char 	j=lengh;
 3800                     	;	
 3801                     			.local	_j,358,v,c,u,d,d,d,d,-13+?LSC6+0,00h
 3802                     			.local	_lengh,358,v,c,u,d,d,d,d,-14+?LSC6+0,00h
 3803                     	;i[0]=number-number/10*10
 3804                     			.c_start  02974h,359
 3805                     			.const_data_psnake
  Tue Jan 13 23:03:19 2026                                                                                               Page   68




 3806  8D2B     0A00 0000   	?CGL5:	.long	10
 3807                     			.program_psnake
 3808  63D3     A2 2B       			ldx	#.low.?CGL5
 3809  63D5     86 23       			stx	__oper2
 3810  63D7     A2 8D       			ldx	#.high.?CGL5
 3811  63D9     86 24       			stx	__oper2+1
 3812  63DB     18          			clc
 3813  63DC     A5 28       			lda	__stack_ptr
 3814  63DE     69 15       			adc	#.low.+1+?LSC6+?TSC6
 3815  63E0     85 20       			sta	__oper1
 3816  63E2     A5 29       			lda	__stack_ptr+1
 3817  63E4     69 00       			adc	#.high.+1+?LSC6+?TSC6
 3818  63E6     85 21       			sta	__oper1+1
 3819  63E8     20 83 DC    			jsr	__uns_div_long
 3820                     			.const_data_psnake
 3821  8D2F     0A00 0000   	?CGL6:	.long	10
 3822                     			.program_psnake
 3823  63EB     A2 2F       			ldx	#.low.?CGL6
 3824  63ED     86 23       			stx	__oper2
 3825  63EF     A2 8D       			ldx	#.high.?CGL6
 3826  63F1     86 24       			stx	__oper2+1
 3827  63F3     20 F7 DC    			jsr	__uns_mult_long
 3828  63F6     A5 20       			lda	__oper1
 3829  63F8     85 23       			sta	__oper2
 3830  63FA     A5 21       			lda	__oper1+1
 3831  63FC     85 24       			sta	__oper2+1
 3832  63FE     18          			clc
 3833  63FF     A5 28       			lda	__stack_ptr
 3834  6401     69 15       			adc	#.low.+1+?LSC6+?TSC6
 3835  6403     85 20       			sta	__oper1
 3836  6405     A5 29       			lda	__stack_ptr+1
 3837  6407     69 00       			adc	#.high.+1+?LSC6+?TSC6
 3838  6409     85 21       			sta	__oper1+1
 3839  640B     20 2F DB    			jsr	__sub_long
 3840  640E     A5 20       			lda	__oper1
 3841  6410     85 23       			sta	__oper2
 3842  6412     A5 21       			lda	__oper1+1
 3843  6414     85 24       			sta	__oper2+1
 3844  6416     18          			clc
 3845  6417     A5 28       			lda	__stack_ptr
 3846  6419     69 0E       			adc	#.low.+0+?LSC6
 3847  641B     85 20       			sta	__oper1
 3848  641D     A5 29       			lda	__stack_ptr+1
 3849  641F     69 00       			adc	#.high.+0+?LSC6
 3850  6421     85 21       			sta	__oper1+1
 3851  6423     20 E6 DA    			jsr	__store_long
 3852  6426     18          			clc
 3853  6427     A5 28       			lda	__stack_ptr
 3854  6429     69 02       			adc	#.low.-12+0+?LSC6
 3855  642B     85 20       			sta	__oper1
 3856  642D     A5 29       			lda	__stack_ptr+1
 3857  642F     69 00       			adc	#.high.-12+0+?LSC6
 3858  6431     85 21       			sta	__oper1+1
 3859  6433     A5 20       			lda	__oper1
 3860  6435     85 23       			sta	__oper2
 3861  6437     A5 21       			lda	__oper1+1
 3862  6439     85 24       			sta	__oper2+1
  Tue Jan 13 23:03:19 2026                                                                                               Page   69




 3863  643B     18          			clc
 3864  643C     A5 28       			lda	__stack_ptr
 3865  643E     69 0E       			adc	#.low.+0+?LSC6
 3866  6440     85 20       			sta	__oper1
 3867  6442     A5 29       			lda	__stack_ptr+1
 3868  6444     69 00       			adc	#.high.+0+?LSC6
 3869  6446     85 21       			sta	__oper1+1
 3870  6448     20 5F D8    			jsr	__oper1_long_to_int
 3871  644B     A0 00       			ldy	#0
 3872  644D     A5 20       			lda	__oper1
 3873  644F     91 23       			sta	(__oper2),y
 3874  6451     C8          			iny
 3875  6452     A5 21       			lda	__oper1+1
 3876  6454     91 23       			sta	(__oper2),y
 3877                     			.c_end	0298ch,359
 3878                     	;lengh=1
 3879                     			.c_start  02990h,360
 3880  6456     A0 00       			ldy	#-14+?LSC6
 3881  6458     A9 01       			lda	#1
 3882  645A     91 28       			sta	(__stack_ptr),y
 3883                     			.c_end	02997h,360
 3884                     	;(number>=10)
 3885                     	;	
 3886                     			.if_top	0299bh,?BOL36,1,361
 3887                     			.const_data_psnake
 3888  8D33     0A00 0000   	?CGL7:	.long	10
 3889                     			.program_psnake
 3890  645C     A2 33       			ldx	#.low.?CGL7
 3891  645E     86 23       			stx	__oper2
 3892  6460     A2 8D       			ldx	#.high.?CGL7
 3893  6462     86 24       			stx	__oper2+1
 3894  6464     18          			clc
 3895  6465     A5 28       			lda	__stack_ptr
 3896  6467     69 15       			adc	#.low.+1+?LSC6+?TSC6
 3897  6469     85 20       			sta	__oper1
 3898  646B     A5 29       			lda	__stack_ptr+1
 3899  646D     69 00       			adc	#.high.+1+?LSC6+?TSC6
 3900  646F     85 21       			sta	__oper1+1
 3901  6471     20 62 D3    			jsr	__cmp_long
 3902  6474     B0 03       			bcs	+3
 3903  6476     4C 32 65    			jmp	?BOL36
 3904         3717 6479   	?PLC30:		.equal	$
 3905                     			.c_end	029aah,362
 3906                     	;i[1]=number/10-number/100*10
 3907                     			.c_start  029b1h,363
 3908                     			.const_data_psnake
 3909  8D37     0A00 0000   	?CGL8:	.long	10
 3910                     			.program_psnake
 3911  6479     A2 37       			ldx	#.low.?CGL8
 3912  647B     86 23       			stx	__oper2
 3913  647D     A2 8D       			ldx	#.high.?CGL8
 3914  647F     86 24       			stx	__oper2+1
 3915  6481     18          			clc
 3916  6482     A5 28       			lda	__stack_ptr
 3917  6484     69 15       			adc	#.low.+1+?LSC6+?TSC6
 3918  6486     85 20       			sta	__oper1
 3919  6488     A5 29       			lda	__stack_ptr+1
  Tue Jan 13 23:03:19 2026                                                                                               Page   70




 3920  648A     69 00       			adc	#.high.+1+?LSC6+?TSC6
 3921  648C     85 21       			sta	__oper1+1
 3922  648E     20 83 DC    			jsr	__uns_div_long
 3923  6491     A5 20       			lda	__oper1
 3924  6493     85 23       			sta	__oper2
 3925  6495     A5 21       			lda	__oper1+1
 3926  6497     85 24       			sta	__oper2+1
 3927  6499     18          			clc
 3928  649A     A5 28       			lda	__stack_ptr
 3929  649C     69 0E       			adc	#.low.+0+?LSC6
 3930  649E     85 20       			sta	__oper1
 3931  64A0     A5 29       			lda	__stack_ptr+1
 3932  64A2     69 00       			adc	#.high.+0+?LSC6
 3933  64A4     85 21       			sta	__oper1+1
 3934  64A6     20 E6 DA    			jsr	__store_long
 3935                     			.const_data_psnake
 3936  8D3B     6400 0000   	?CGL9:	.long	100
 3937                     			.program_psnake
 3938  64A9     A2 3B       			ldx	#.low.?CGL9
 3939  64AB     86 23       			stx	__oper2
 3940  64AD     A2 8D       			ldx	#.high.?CGL9
 3941  64AF     86 24       			stx	__oper2+1
 3942  64B1     18          			clc
 3943  64B2     A5 28       			lda	__stack_ptr
 3944  64B4     69 15       			adc	#.low.+1+?LSC6+?TSC6
 3945  64B6     85 20       			sta	__oper1
 3946  64B8     A5 29       			lda	__stack_ptr+1
 3947  64BA     69 00       			adc	#.high.+1+?LSC6+?TSC6
 3948  64BC     85 21       			sta	__oper1+1
 3949  64BE     20 83 DC    			jsr	__uns_div_long
 3950                     			.const_data_psnake
 3951  8D3F     0A00 0000   	?CGL10:	.long	10
 3952                     			.program_psnake
 3953  64C1     A2 3F       			ldx	#.low.?CGL10
 3954  64C3     86 23       			stx	__oper2
 3955  64C5     A2 8D       			ldx	#.high.?CGL10
 3956  64C7     86 24       			stx	__oper2+1
 3957  64C9     20 F7 DC    			jsr	__uns_mult_long
 3958  64CC     A5 20       			lda	__oper1
 3959  64CE     85 23       			sta	__oper2
 3960  64D0     A5 21       			lda	__oper1+1
 3961  64D2     85 24       			sta	__oper2+1
 3962  64D4     18          			clc
 3963  64D5     A5 28       			lda	__stack_ptr
 3964  64D7     69 0E       			adc	#.low.+0+?LSC6
 3965  64D9     85 20       			sta	__oper1
 3966  64DB     A5 29       			lda	__stack_ptr+1
 3967  64DD     69 00       			adc	#.high.+0+?LSC6
 3968  64DF     85 21       			sta	__oper1+1
 3969  64E1     20 2F DB    			jsr	__sub_long
 3970  64E4     A5 20       			lda	__oper1
 3971  64E6     85 23       			sta	__oper2
 3972  64E8     A5 21       			lda	__oper1+1
 3973  64EA     85 24       			sta	__oper2+1
 3974  64EC     18          			clc
 3975  64ED     A5 28       			lda	__stack_ptr
 3976  64EF     69 0E       			adc	#.low.+0+?LSC6
  Tue Jan 13 23:03:19 2026                                                                                               Page   71




 3977  64F1     85 20       			sta	__oper1
 3978  64F3     A5 29       			lda	__stack_ptr+1
 3979  64F5     69 00       			adc	#.high.+0+?LSC6
 3980  64F7     85 21       			sta	__oper1+1
 3981  64F9     20 E6 DA    			jsr	__store_long
 3982  64FC     18          			clc
 3983  64FD     A5 28       			lda	__stack_ptr
 3984  64FF     69 04       			adc	#.low.-12+2+?LSC6
 3985  6501     85 20       			sta	__oper1
 3986  6503     A5 29       			lda	__stack_ptr+1
 3987  6505     69 00       			adc	#.high.-12+2+?LSC6
 3988  6507     85 21       			sta	__oper1+1
 3989  6509     A5 20       			lda	__oper1
 3990  650B     85 23       			sta	__oper2
 3991  650D     A5 21       			lda	__oper1+1
 3992  650F     85 24       			sta	__oper2+1
 3993  6511     18          			clc
 3994  6512     A5 28       			lda	__stack_ptr
 3995  6514     69 0E       			adc	#.low.+0+?LSC6
 3996  6516     85 20       			sta	__oper1
 3997  6518     A5 29       			lda	__stack_ptr+1
 3998  651A     69 00       			adc	#.high.+0+?LSC6
 3999  651C     85 21       			sta	__oper1+1
 4000  651E     20 5F D8    			jsr	__oper1_long_to_int
 4001  6521     A0 00       			ldy	#0
 4002  6523     A5 20       			lda	__oper1
 4003  6525     91 23       			sta	(__oper2),y
 4004  6527     C8          			iny
 4005  6528     A5 21       			lda	__oper1+1
 4006  652A     91 23       			sta	(__oper2),y
 4007                     			.c_end	029cdh,363
 4008                     	;lengh=2
 4009                     			.c_start  029d2h,364
 4010  652C     A0 00       			ldy	#-14+?LSC6
 4011  652E     A9 02       			lda	#2
 4012  6530     91 28       			sta	(__stack_ptr),y
 4013                     			.c_end	029d9h,364
 4014                     	;
 4015                     	;(number>=100)
 4016                     	;	
 4017         3113 6532   	?BOL36:		.equal	$
 4018                     			.if_top	029e1h,?BOL37,1,366
 4019                     			.const_data_psnake
 4020  8D43     6400 0000   	?CGL11:	.long	100
 4021                     			.program_psnake
 4022  6532     A2 43       			ldx	#.low.?CGL11
 4023  6534     86 23       			stx	__oper2
 4024  6536     A2 8D       			ldx	#.high.?CGL11
 4025  6538     86 24       			stx	__oper2+1
 4026  653A     18          			clc
 4027  653B     A5 28       			lda	__stack_ptr
 4028  653D     69 15       			adc	#.low.+1+?LSC6+?TSC6
 4029  653F     85 20       			sta	__oper1
 4030  6541     A5 29       			lda	__stack_ptr+1
 4031  6543     69 00       			adc	#.high.+1+?LSC6+?TSC6
 4032  6545     85 21       			sta	__oper1+1
 4033  6547     20 62 D3    			jsr	__cmp_long
  Tue Jan 13 23:03:19 2026                                                                                               Page   72




 4034  654A     B0 03       			bcs	+3
 4035  654C     4C 08 66    			jmp	?BOL37
 4036         4414 654F   	?PLC31:		.equal	$
 4037                     			.c_end	029f1h,367
 4038                     	;i[2]=number/100-number/1000*10
 4039                     			.c_start  029f8h,368
 4040                     			.const_data_psnake
 4041  8D47     6400 0000   	?CGL12:	.long	100
 4042                     			.program_psnake
 4043  654F     A2 47       			ldx	#.low.?CGL12
 4044  6551     86 23       			stx	__oper2
 4045  6553     A2 8D       			ldx	#.high.?CGL12
 4046  6555     86 24       			stx	__oper2+1
 4047  6557     18          			clc
 4048  6558     A5 28       			lda	__stack_ptr
 4049  655A     69 15       			adc	#.low.+1+?LSC6+?TSC6
 4050  655C     85 20       			sta	__oper1
 4051  655E     A5 29       			lda	__stack_ptr+1
 4052  6560     69 00       			adc	#.high.+1+?LSC6+?TSC6
 4053  6562     85 21       			sta	__oper1+1
 4054  6564     20 83 DC    			jsr	__uns_div_long
 4055  6567     A5 20       			lda	__oper1
 4056  6569     85 23       			sta	__oper2
 4057  656B     A5 21       			lda	__oper1+1
 4058  656D     85 24       			sta	__oper2+1
 4059  656F     18          			clc
 4060  6570     A5 28       			lda	__stack_ptr
 4061  6572     69 0E       			adc	#.low.+0+?LSC6
 4062  6574     85 20       			sta	__oper1
 4063  6576     A5 29       			lda	__stack_ptr+1
 4064  6578     69 00       			adc	#.high.+0+?LSC6
 4065  657A     85 21       			sta	__oper1+1
 4066  657C     20 E6 DA    			jsr	__store_long
 4067                     			.const_data_psnake
 4068  8D4B     E803 0000   	?CGL13:	.long	1000
 4069                     			.program_psnake
 4070  657F     A2 4B       			ldx	#.low.?CGL13
 4071  6581     86 23       			stx	__oper2
 4072  6583     A2 8D       			ldx	#.high.?CGL13
 4073  6585     86 24       			stx	__oper2+1
 4074  6587     18          			clc
 4075  6588     A5 28       			lda	__stack_ptr
 4076  658A     69 15       			adc	#.low.+1+?LSC6+?TSC6
 4077  658C     85 20       			sta	__oper1
 4078  658E     A5 29       			lda	__stack_ptr+1
 4079  6590     69 00       			adc	#.high.+1+?LSC6+?TSC6
 4080  6592     85 21       			sta	__oper1+1
 4081  6594     20 83 DC    			jsr	__uns_div_long
 4082                     			.const_data_psnake
 4083  8D4F     0A00 0000   	?CGL14:	.long	10
 4084                     			.program_psnake
 4085  6597     A2 4F       			ldx	#.low.?CGL14
 4086  6599     86 23       			stx	__oper2
 4087  659B     A2 8D       			ldx	#.high.?CGL14
 4088  659D     86 24       			stx	__oper2+1
 4089  659F     20 F7 DC    			jsr	__uns_mult_long
 4090  65A2     A5 20       			lda	__oper1
  Tue Jan 13 23:03:19 2026                                                                                               Page   73




 4091  65A4     85 23       			sta	__oper2
 4092  65A6     A5 21       			lda	__oper1+1
 4093  65A8     85 24       			sta	__oper2+1
 4094  65AA     18          			clc
 4095  65AB     A5 28       			lda	__stack_ptr
 4096  65AD     69 0E       			adc	#.low.+0+?LSC6
 4097  65AF     85 20       			sta	__oper1
 4098  65B1     A5 29       			lda	__stack_ptr+1
 4099  65B3     69 00       			adc	#.high.+0+?LSC6
 4100  65B5     85 21       			sta	__oper1+1
 4101  65B7     20 2F DB    			jsr	__sub_long
 4102  65BA     A5 20       			lda	__oper1
 4103  65BC     85 23       			sta	__oper2
 4104  65BE     A5 21       			lda	__oper1+1
 4105  65C0     85 24       			sta	__oper2+1
 4106  65C2     18          			clc
 4107  65C3     A5 28       			lda	__stack_ptr
 4108  65C5     69 0E       			adc	#.low.+0+?LSC6
 4109  65C7     85 20       			sta	__oper1
 4110  65C9     A5 29       			lda	__stack_ptr+1
 4111  65CB     69 00       			adc	#.high.+0+?LSC6
 4112  65CD     85 21       			sta	__oper1+1
 4113  65CF     20 E6 DA    			jsr	__store_long
 4114  65D2     18          			clc
 4115  65D3     A5 28       			lda	__stack_ptr
 4116  65D5     69 06       			adc	#.low.-12+4+?LSC6
 4117  65D7     85 20       			sta	__oper1
 4118  65D9     A5 29       			lda	__stack_ptr+1
 4119  65DB     69 00       			adc	#.high.-12+4+?LSC6
 4120  65DD     85 21       			sta	__oper1+1
 4121  65DF     A5 20       			lda	__oper1
 4122  65E1     85 23       			sta	__oper2
 4123  65E3     A5 21       			lda	__oper1+1
 4124  65E5     85 24       			sta	__oper2+1
 4125  65E7     18          			clc
 4126  65E8     A5 28       			lda	__stack_ptr
 4127  65EA     69 0E       			adc	#.low.+0+?LSC6
 4128  65EC     85 20       			sta	__oper1
 4129  65EE     A5 29       			lda	__stack_ptr+1
 4130  65F0     69 00       			adc	#.high.+0+?LSC6
 4131  65F2     85 21       			sta	__oper1+1
 4132  65F4     20 5F D8    			jsr	__oper1_long_to_int
 4133  65F7     A0 00       			ldy	#0
 4134  65F9     A5 20       			lda	__oper1
 4135  65FB     91 23       			sta	(__oper2),y
 4136  65FD     C8          			iny
 4137  65FE     A5 21       			lda	__oper1+1
 4138  6600     91 23       			sta	(__oper2),y
 4139                     			.c_end	02a16h,368
 4140                     	;lengh=3
 4141                     			.c_start  02a1bh,369
 4142  6602     A0 00       			ldy	#-14+?LSC6
 4143  6604     A9 03       			lda	#3
 4144  6606     91 28       			sta	(__stack_ptr),y
 4145                     			.c_end	02a22h,369
 4146                     	;
 4147                     	;(number>=1000)
  Tue Jan 13 23:03:19 2026                                                                                               Page   74




 4148                     	;	
 4149         3710 6608   	?BOL37:		.equal	$
 4150                     			.if_top	02a2ah,?BOL38,1,371
 4151                     			.const_data_psnake
 4152  8D53     E803 0000   	?CGL15:	.long	1000
 4153                     			.program_psnake
 4154  6608     A2 53       			ldx	#.low.?CGL15
 4155  660A     86 23       			stx	__oper2
 4156  660C     A2 8D       			ldx	#.high.?CGL15
 4157  660E     86 24       			stx	__oper2+1
 4158  6610     18          			clc
 4159  6611     A5 28       			lda	__stack_ptr
 4160  6613     69 15       			adc	#.low.+1+?LSC6+?TSC6
 4161  6615     85 20       			sta	__oper1
 4162  6617     A5 29       			lda	__stack_ptr+1
 4163  6619     69 00       			adc	#.high.+1+?LSC6+?TSC6
 4164  661B     85 21       			sta	__oper1+1
 4165  661D     20 62 D3    			jsr	__cmp_long
 4166  6620     B0 03       			bcs	+3
 4167  6622     4C DE 66    			jmp	?BOL38
 4168         3312 6625   	?PLC32:		.equal	$
 4169                     			.c_end	02a3bh,372
 4170                     	;i[3]=number/1000-number/10000*10
 4171                     			.c_start  02a42h,373
 4172                     			.const_data_psnake
 4173  8D57     E803 0000   	?CGL16:	.long	1000
 4174                     			.program_psnake
 4175  6625     A2 57       			ldx	#.low.?CGL16
 4176  6627     86 23       			stx	__oper2
 4177  6629     A2 8D       			ldx	#.high.?CGL16
 4178  662B     86 24       			stx	__oper2+1
 4179  662D     18          			clc
 4180  662E     A5 28       			lda	__stack_ptr
 4181  6630     69 15       			adc	#.low.+1+?LSC6+?TSC6
 4182  6632     85 20       			sta	__oper1
 4183  6634     A5 29       			lda	__stack_ptr+1
 4184  6636     69 00       			adc	#.high.+1+?LSC6+?TSC6
 4185  6638     85 21       			sta	__oper1+1
 4186  663A     20 83 DC    			jsr	__uns_div_long
 4187  663D     A5 20       			lda	__oper1
 4188  663F     85 23       			sta	__oper2
 4189  6641     A5 21       			lda	__oper1+1
 4190  6643     85 24       			sta	__oper2+1
 4191  6645     18          			clc
 4192  6646     A5 28       			lda	__stack_ptr
 4193  6648     69 0E       			adc	#.low.+0+?LSC6
 4194  664A     85 20       			sta	__oper1
 4195  664C     A5 29       			lda	__stack_ptr+1
 4196  664E     69 00       			adc	#.high.+0+?LSC6
 4197  6650     85 21       			sta	__oper1+1
 4198  6652     20 E6 DA    			jsr	__store_long
 4199                     			.const_data_psnake
 4200  8D5B     1027 0000   	?CGL17:	.long	10000
 4201                     			.program_psnake
 4202  6655     A2 5B       			ldx	#.low.?CGL17
 4203  6657     86 23       			stx	__oper2
 4204  6659     A2 8D       			ldx	#.high.?CGL17
  Tue Jan 13 23:03:19 2026                                                                                               Page   75




 4205  665B     86 24       			stx	__oper2+1
 4206  665D     18          			clc
 4207  665E     A5 28       			lda	__stack_ptr
 4208  6660     69 15       			adc	#.low.+1+?LSC6+?TSC6
 4209  6662     85 20       			sta	__oper1
 4210  6664     A5 29       			lda	__stack_ptr+1
 4211  6666     69 00       			adc	#.high.+1+?LSC6+?TSC6
 4212  6668     85 21       			sta	__oper1+1
 4213  666A     20 83 DC    			jsr	__uns_div_long
 4214                     			.const_data_psnake
 4215  8D5F     0A00 0000   	?CGL18:	.long	10
 4216                     			.program_psnake
 4217  666D     A2 5F       			ldx	#.low.?CGL18
 4218  666F     86 23       			stx	__oper2
 4219  6671     A2 8D       			ldx	#.high.?CGL18
 4220  6673     86 24       			stx	__oper2+1
 4221  6675     20 F7 DC    			jsr	__uns_mult_long
 4222  6678     A5 20       			lda	__oper1
 4223  667A     85 23       			sta	__oper2
 4224  667C     A5 21       			lda	__oper1+1
 4225  667E     85 24       			sta	__oper2+1
 4226  6680     18          			clc
 4227  6681     A5 28       			lda	__stack_ptr
 4228  6683     69 0E       			adc	#.low.+0+?LSC6
 4229  6685     85 20       			sta	__oper1
 4230  6687     A5 29       			lda	__stack_ptr+1
 4231  6689     69 00       			adc	#.high.+0+?LSC6
 4232  668B     85 21       			sta	__oper1+1
 4233  668D     20 2F DB    			jsr	__sub_long
 4234  6690     A5 20       			lda	__oper1
 4235  6692     85 23       			sta	__oper2
 4236  6694     A5 21       			lda	__oper1+1
 4237  6696     85 24       			sta	__oper2+1
 4238  6698     18          			clc
 4239  6699     A5 28       			lda	__stack_ptr
 4240  669B     69 0E       			adc	#.low.+0+?LSC6
 4241  669D     85 20       			sta	__oper1
 4242  669F     A5 29       			lda	__stack_ptr+1
 4243  66A1     69 00       			adc	#.high.+0+?LSC6
 4244  66A3     85 21       			sta	__oper1+1
 4245  66A5     20 E6 DA    			jsr	__store_long
 4246  66A8     18          			clc
 4247  66A9     A5 28       			lda	__stack_ptr
 4248  66AB     69 08       			adc	#.low.-12+6+?LSC6
 4249  66AD     85 20       			sta	__oper1
 4250  66AF     A5 29       			lda	__stack_ptr+1
 4251  66B1     69 00       			adc	#.high.-12+6+?LSC6
 4252  66B3     85 21       			sta	__oper1+1
 4253  66B5     A5 20       			lda	__oper1
 4254  66B7     85 23       			sta	__oper2
 4255  66B9     A5 21       			lda	__oper1+1
 4256  66BB     85 24       			sta	__oper2+1
 4257  66BD     18          			clc
 4258  66BE     A5 28       			lda	__stack_ptr
 4259  66C0     69 0E       			adc	#.low.+0+?LSC6
 4260  66C2     85 20       			sta	__oper1
 4261  66C4     A5 29       			lda	__stack_ptr+1
  Tue Jan 13 23:03:19 2026                                                                                               Page   76




 4262  66C6     69 00       			adc	#.high.+0+?LSC6
 4263  66C8     85 21       			sta	__oper1+1
 4264  66CA     20 5F D8    			jsr	__oper1_long_to_int
 4265  66CD     A0 00       			ldy	#0
 4266  66CF     A5 20       			lda	__oper1
 4267  66D1     91 23       			sta	(__oper2),y
 4268  66D3     C8          			iny
 4269  66D4     A5 21       			lda	__oper1+1
 4270  66D6     91 23       			sta	(__oper2),y
 4271                     			.c_end	02a62h,373
 4272                     	;lengh=4
 4273                     			.c_start  02a67h,374
 4274  66D8     A0 00       			ldy	#-14+?LSC6
 4275  66DA     A9 04       			lda	#4
 4276  66DC     91 28       			sta	(__stack_ptr),y
 4277                     			.c_end	02a6eh,374
 4278                     	;
 4279                     	;(number>=10000)
 4280                     	;	
 4281         4424 66DE   	?BOL38:		.equal	$
 4282                     			.if_top	02a76h,?BOL39,1,376
 4283                     			.const_data_psnake
 4284  8D63     1027 0000   	?CGL19:	.long	10000
 4285                     			.program_psnake
 4286  66DE     A2 63       			ldx	#.low.?CGL19
 4287  66E0     86 23       			stx	__oper2
 4288  66E2     A2 8D       			ldx	#.high.?CGL19
 4289  66E4     86 24       			stx	__oper2+1
 4290  66E6     18          			clc
 4291  66E7     A5 28       			lda	__stack_ptr
 4292  66E9     69 15       			adc	#.low.+1+?LSC6+?TSC6
 4293  66EB     85 20       			sta	__oper1
 4294  66ED     A5 29       			lda	__stack_ptr+1
 4295  66EF     69 00       			adc	#.high.+1+?LSC6+?TSC6
 4296  66F1     85 21       			sta	__oper1+1
 4297  66F3     20 62 D3    			jsr	__cmp_long
 4298  66F6     B0 03       			bcs	+3
 4299  66F8     4C B4 67    			jmp	?BOL39
 4300         3926 66FB   	?PLC33:		.equal	$
 4301                     			.c_end	02a88h,377
 4302                     	;i[4]=number/10000-number/100000*10
 4303                     			.c_start  02a8fh,378
 4304                     			.const_data_psnake
 4305  8D67     1027 0000   	?CGL20:	.long	10000
 4306                     			.program_psnake
 4307  66FB     A2 67       			ldx	#.low.?CGL20
 4308  66FD     86 23       			stx	__oper2
 4309  66FF     A2 8D       			ldx	#.high.?CGL20
 4310  6701     86 24       			stx	__oper2+1
 4311  6703     18          			clc
 4312  6704     A5 28       			lda	__stack_ptr
 4313  6706     69 15       			adc	#.low.+1+?LSC6+?TSC6
 4314  6708     85 20       			sta	__oper1
 4315  670A     A5 29       			lda	__stack_ptr+1
 4316  670C     69 00       			adc	#.high.+1+?LSC6+?TSC6
 4317  670E     85 21       			sta	__oper1+1
 4318  6710     20 83 DC    			jsr	__uns_div_long
  Tue Jan 13 23:03:19 2026                                                                                               Page   77




 4319  6713     A5 20       			lda	__oper1
 4320  6715     85 23       			sta	__oper2
 4321  6717     A5 21       			lda	__oper1+1
 4322  6719     85 24       			sta	__oper2+1
 4323  671B     18          			clc
 4324  671C     A5 28       			lda	__stack_ptr
 4325  671E     69 0E       			adc	#.low.+0+?LSC6
 4326  6720     85 20       			sta	__oper1
 4327  6722     A5 29       			lda	__stack_ptr+1
 4328  6724     69 00       			adc	#.high.+0+?LSC6
 4329  6726     85 21       			sta	__oper1+1
 4330  6728     20 E6 DA    			jsr	__store_long
 4331                     			.const_data_psnake
 4332  8D6B     A086 0100   	?CGL21:	.long	100000
 4333                     			.program_psnake
 4334  672B     A2 6B       			ldx	#.low.?CGL21
 4335  672D     86 23       			stx	__oper2
 4336  672F     A2 8D       			ldx	#.high.?CGL21
 4337  6731     86 24       			stx	__oper2+1
 4338  6733     18          			clc
 4339  6734     A5 28       			lda	__stack_ptr
 4340  6736     69 15       			adc	#.low.+1+?LSC6+?TSC6
 4341  6738     85 20       			sta	__oper1
 4342  673A     A5 29       			lda	__stack_ptr+1
 4343  673C     69 00       			adc	#.high.+1+?LSC6+?TSC6
 4344  673E     85 21       			sta	__oper1+1
 4345  6740     20 83 DC    			jsr	__uns_div_long
 4346                     			.const_data_psnake
 4347  8D6F     0A00 0000   	?CGL22:	.long	10
 4348                     			.program_psnake
 4349  6743     A2 6F       			ldx	#.low.?CGL22
 4350  6745     86 23       			stx	__oper2
 4351  6747     A2 8D       			ldx	#.high.?CGL22
 4352  6749     86 24       			stx	__oper2+1
 4353  674B     20 F7 DC    			jsr	__uns_mult_long
 4354  674E     A5 20       			lda	__oper1
 4355  6750     85 23       			sta	__oper2
 4356  6752     A5 21       			lda	__oper1+1
 4357  6754     85 24       			sta	__oper2+1
 4358  6756     18          			clc
 4359  6757     A5 28       			lda	__stack_ptr
 4360  6759     69 0E       			adc	#.low.+0+?LSC6
 4361  675B     85 20       			sta	__oper1
 4362  675D     A5 29       			lda	__stack_ptr+1
 4363  675F     69 00       			adc	#.high.+0+?LSC6
 4364  6761     85 21       			sta	__oper1+1
 4365  6763     20 2F DB    			jsr	__sub_long
 4366  6766     A5 20       			lda	__oper1
 4367  6768     85 23       			sta	__oper2
 4368  676A     A5 21       			lda	__oper1+1
 4369  676C     85 24       			sta	__oper2+1
 4370  676E     18          			clc
 4371  676F     A5 28       			lda	__stack_ptr
 4372  6771     69 0E       			adc	#.low.+0+?LSC6
 4373  6773     85 20       			sta	__oper1
 4374  6775     A5 29       			lda	__stack_ptr+1
 4375  6777     69 00       			adc	#.high.+0+?LSC6
  Tue Jan 13 23:03:19 2026                                                                                               Page   78




 4376  6779     85 21       			sta	__oper1+1
 4377  677B     20 E6 DA    			jsr	__store_long
 4378  677E     18          			clc
 4379  677F     A5 28       			lda	__stack_ptr
 4380  6781     69 0A       			adc	#.low.-12+8+?LSC6
 4381  6783     85 20       			sta	__oper1
 4382  6785     A5 29       			lda	__stack_ptr+1
 4383  6787     69 00       			adc	#.high.-12+8+?LSC6
 4384  6789     85 21       			sta	__oper1+1
 4385  678B     A5 20       			lda	__oper1
 4386  678D     85 23       			sta	__oper2
 4387  678F     A5 21       			lda	__oper1+1
 4388  6791     85 24       			sta	__oper2+1
 4389  6793     18          			clc
 4390  6794     A5 28       			lda	__stack_ptr
 4391  6796     69 0E       			adc	#.low.+0+?LSC6
 4392  6798     85 20       			sta	__oper1
 4393  679A     A5 29       			lda	__stack_ptr+1
 4394  679C     69 00       			adc	#.high.+0+?LSC6
 4395  679E     85 21       			sta	__oper1+1
 4396  67A0     20 5F D8    			jsr	__oper1_long_to_int
 4397  67A3     A0 00       			ldy	#0
 4398  67A5     A5 20       			lda	__oper1
 4399  67A7     91 23       			sta	(__oper2),y
 4400  67A9     C8          			iny
 4401  67AA     A5 21       			lda	__oper1+1
 4402  67AC     91 23       			sta	(__oper2),y
 4403                     			.c_end	02ab1h,378
 4404                     	;lengh=5
 4405                     			.c_start  02ab6h,379
 4406  67AE     A0 00       			ldy	#-14+?LSC6
 4407  67B0     A9 05       			lda	#5
 4408  67B2     91 28       			sta	(__stack_ptr),y
 4409                     			.c_end	02abdh,379
 4410                     	;
 4411                     	;(number>=100000)
 4412                     	;	
 4413         3322 67B4   	?BOL39:		.equal	$
 4414                     			.if_top	02ac5h,?BOL40,1,381
 4415                     			.const_data_psnake
 4416  8D73     A086 0100   	?CGL23:	.long	100000
 4417                     			.program_psnake
 4418  67B4     A2 73       			ldx	#.low.?CGL23
 4419  67B6     86 23       			stx	__oper2
 4420  67B8     A2 8D       			ldx	#.high.?CGL23
 4421  67BA     86 24       			stx	__oper2+1
 4422  67BC     18          			clc
 4423  67BD     A5 28       			lda	__stack_ptr
 4424  67BF     69 15       			adc	#.low.+1+?LSC6+?TSC6
 4425  67C1     85 20       			sta	__oper1
 4426  67C3     A5 29       			lda	__stack_ptr+1
 4427  67C5     69 00       			adc	#.high.+1+?LSC6+?TSC6
 4428  67C7     85 21       			sta	__oper1+1
 4429  67C9     20 62 D3    			jsr	__cmp_long
 4430  67CC     B0 03       			bcs	+3
 4431  67CE     4C 8A 68    			jmp	?BOL40
 4432         4623 67D1   	?PLC34:		.equal	$
  Tue Jan 13 23:03:19 2026                                                                                               Page   79




 4433                     			.c_end	02ad8h,382
 4434                     	;i[5]=number/100000-number/1000000*10
 4435                     			.c_start  02adfh,383
 4436                     			.const_data_psnake
 4437  8D77     A086 0100   	?CGL24:	.long	100000
 4438                     			.program_psnake
 4439  67D1     A2 77       			ldx	#.low.?CGL24
 4440  67D3     86 23       			stx	__oper2
 4441  67D5     A2 8D       			ldx	#.high.?CGL24
 4442  67D7     86 24       			stx	__oper2+1
 4443  67D9     18          			clc
 4444  67DA     A5 28       			lda	__stack_ptr
 4445  67DC     69 15       			adc	#.low.+1+?LSC6+?TSC6
 4446  67DE     85 20       			sta	__oper1
 4447  67E0     A5 29       			lda	__stack_ptr+1
 4448  67E2     69 00       			adc	#.high.+1+?LSC6+?TSC6
 4449  67E4     85 21       			sta	__oper1+1
 4450  67E6     20 83 DC    			jsr	__uns_div_long
 4451  67E9     A5 20       			lda	__oper1
 4452  67EB     85 23       			sta	__oper2
 4453  67ED     A5 21       			lda	__oper1+1
 4454  67EF     85 24       			sta	__oper2+1
 4455  67F1     18          			clc
 4456  67F2     A5 28       			lda	__stack_ptr
 4457  67F4     69 0E       			adc	#.low.+0+?LSC6
 4458  67F6     85 20       			sta	__oper1
 4459  67F8     A5 29       			lda	__stack_ptr+1
 4460  67FA     69 00       			adc	#.high.+0+?LSC6
 4461  67FC     85 21       			sta	__oper1+1
 4462  67FE     20 E6 DA    			jsr	__store_long
 4463                     			.const_data_psnake
 4464  8D7B     4042 0F00   	?CGL25:	.long	1000000
 4465                     			.program_psnake
 4466  6801     A2 7B       			ldx	#.low.?CGL25
 4467  6803     86 23       			stx	__oper2
 4468  6805     A2 8D       			ldx	#.high.?CGL25
 4469  6807     86 24       			stx	__oper2+1
 4470  6809     18          			clc
 4471  680A     A5 28       			lda	__stack_ptr
 4472  680C     69 15       			adc	#.low.+1+?LSC6+?TSC6
 4473  680E     85 20       			sta	__oper1
 4474  6810     A5 29       			lda	__stack_ptr+1
 4475  6812     69 00       			adc	#.high.+1+?LSC6+?TSC6
 4476  6814     85 21       			sta	__oper1+1
 4477  6816     20 83 DC    			jsr	__uns_div_long
 4478                     			.const_data_psnake
 4479  8D7F     0A00 0000   	?CGL26:	.long	10
 4480                     			.program_psnake
 4481  6819     A2 7F       			ldx	#.low.?CGL26
 4482  681B     86 23       			stx	__oper2
 4483  681D     A2 8D       			ldx	#.high.?CGL26
 4484  681F     86 24       			stx	__oper2+1
 4485  6821     20 F7 DC    			jsr	__uns_mult_long
 4486  6824     A5 20       			lda	__oper1
 4487  6826     85 23       			sta	__oper2
 4488  6828     A5 21       			lda	__oper1+1
 4489  682A     85 24       			sta	__oper2+1
  Tue Jan 13 23:03:19 2026                                                                                               Page   80




 4490  682C     18          			clc
 4491  682D     A5 28       			lda	__stack_ptr
 4492  682F     69 0E       			adc	#.low.+0+?LSC6
 4493  6831     85 20       			sta	__oper1
 4494  6833     A5 29       			lda	__stack_ptr+1
 4495  6835     69 00       			adc	#.high.+0+?LSC6
 4496  6837     85 21       			sta	__oper1+1
 4497  6839     20 2F DB    			jsr	__sub_long
 4498  683C     A5 20       			lda	__oper1
 4499  683E     85 23       			sta	__oper2
 4500  6840     A5 21       			lda	__oper1+1
 4501  6842     85 24       			sta	__oper2+1
 4502  6844     18          			clc
 4503  6845     A5 28       			lda	__stack_ptr
 4504  6847     69 0E       			adc	#.low.+0+?LSC6
 4505  6849     85 20       			sta	__oper1
 4506  684B     A5 29       			lda	__stack_ptr+1
 4507  684D     69 00       			adc	#.high.+0+?LSC6
 4508  684F     85 21       			sta	__oper1+1
 4509  6851     20 E6 DA    			jsr	__store_long
 4510  6854     18          			clc
 4511  6855     A5 28       			lda	__stack_ptr
 4512  6857     69 0C       			adc	#.low.-12+10+?LSC6
 4513  6859     85 20       			sta	__oper1
 4514  685B     A5 29       			lda	__stack_ptr+1
 4515  685D     69 00       			adc	#.high.-12+10+?LSC6
 4516  685F     85 21       			sta	__oper1+1
 4517  6861     A5 20       			lda	__oper1
 4518  6863     85 23       			sta	__oper2
 4519  6865     A5 21       			lda	__oper1+1
 4520  6867     85 24       			sta	__oper2+1
 4521  6869     18          			clc
 4522  686A     A5 28       			lda	__stack_ptr
 4523  686C     69 0E       			adc	#.low.+0+?LSC6
 4524  686E     85 20       			sta	__oper1
 4525  6870     A5 29       			lda	__stack_ptr+1
 4526  6872     69 00       			adc	#.high.+0+?LSC6
 4527  6874     85 21       			sta	__oper1+1
 4528  6876     20 5F D8    			jsr	__oper1_long_to_int
 4529  6879     A0 00       			ldy	#0
 4530  687B     A5 20       			lda	__oper1
 4531  687D     91 23       			sta	(__oper2),y
 4532  687F     C8          			iny
 4533  6880     A5 21       			lda	__oper1+1
 4534  6882     91 23       			sta	(__oper2),y
 4535                     			.c_end	02b03h,383
 4536                     	;lengh=6
 4537                     			.c_start  02b08h,384
 4538  6884     A0 00       			ldy	#-14+?LSC6
 4539  6886     A9 06       			lda	#6
 4540  6888     91 28       			sta	(__stack_ptr),y
 4541                     			.c_end	02b0fh,384
 4542                     	;
 4543                     	;(flag==1)
 4544         3918 688A   	?BOL40:		.equal	$
 4545                     			.if_top	02b17h,?BOL41,1,386
 4546  688A     A0 14       			ldy	#+0+?LSC6+?TSC6
  Tue Jan 13 23:03:19 2026                                                                                               Page   81




 4547  688C     B1 28       			lda	(__stack_ptr),y
 4548  688E     38          			sec
 4549  688F     E9 01       			sbc	#1
 4550  6891     F0 03       			beq	+3
 4551  6893     4C CE 69    			jmp	?BOL41
 4552         3419 6896   	?PLC35:		.equal	$
 4553                     			.c_end	02b21h,386
 4554                     	;j=0;
 4555                     			.c_start  02b23h,386
 4556  6896     A0 01       			ldy	#-13+?LSC6
 4557  6898     A9 00       			lda	#0
 4558  689A     91 28       			sta	(__stack_ptr),y
 4559                     			.c_end	02b2ah,386
 4560         4219 689C   	?FLC42:		.equal	$
 4561                     	;j<lengh;
 4562                     			.for_top  02b2bh,?BOL42,?FLB42,?FLA42,2,386
 4563  689C     A0 01       			ldy	#-13+?LSC6
 4564  689E     B1 28       			lda	(__stack_ptr),y
 4565  68A0     A0 00       			ldy	#-14+?LSC6
 4566  68A2     38          			sec
 4567  68A3     F1 28       			sbc	(__stack_ptr),y
 4568  68A5     90 03       			bcc	+3
 4569  68A7     4C CB 69    			jmp	?BOL42
 4570                     			.c_end	02b32h,386
 4571  68AA     4C B9 68    			jmp	?FLB42
 4572         4221 68AD   	?FLA42:		.equal	$
 4573                     	;j++)
 4574                     			.for_adj  02b33h,386
 4575  68AD     A0 01       			ldy	#-13+?LSC6
 4576  68AF     B1 28       			lda	(__stack_ptr),y
 4577  68B1     18          			clc
 4578  68B2     69 01       			adc	#1
 4579  68B4     91 28       			sta	(__stack_ptr),y
 4580                     			.c_end	02b36h,386
 4581  68B6     4C 9C 68    			jmp	?FLC42
 4582         3722 68B9   	?FLB42:		.equal	$
 4583                     	;SysPicture(x+lengh*2-j*4-3,y,x+lengh*2-j*4,y+8,GameMTNum39+9*i[j],0)
 4584                     			.c_start  02b33h,386
 4585  68B9     A9 02       			lda	#2
 4586  68BB     85 23       			sta	__oper2
 4587  68BD     A0 00       			ldy	#-14+?LSC6
 4588  68BF     B1 28       			lda	(__stack_ptr),y
 4589  68C1     20 EF DC    			jsr	__uns_mult_char
 4590  68C4     A0 19       			ldy	#+5+?LSC6+?TSC6
 4591  68C6     18          			clc
 4592  68C7     71 28       			adc	(__stack_ptr),y
 4593  68C9     A0 0E       			ldy	#+0+?LSC6
 4594  68CB     91 28       			sta	(__stack_ptr),y
 4595  68CD     A9 04       			lda	#4
 4596  68CF     85 23       			sta	__oper2
 4597  68D1     A0 01       			ldy	#-13+?LSC6
 4598  68D3     B1 28       			lda	(__stack_ptr),y
 4599  68D5     20 EF DC    			jsr	__uns_mult_char
 4600  68D8     85 23       			sta	__oper2
 4601  68DA     A0 0E       			ldy	#+0+?LSC6
 4602  68DC     B1 28       			lda	(__stack_ptr),y
 4603  68DE     38          			sec
  Tue Jan 13 23:03:19 2026                                                                                               Page   82




 4604  68DF     E5 23       			sbc	__oper2
 4605  68E1     38          			sec
 4606  68E2     E9 03       			sbc	#3
 4607  68E4     A0 0E       			ldy	#+0+?LSC6
 4608  68E6     91 28       			sta	(__stack_ptr),y
 4609  68E8     A9 02       			lda	#2
 4610  68EA     85 23       			sta	__oper2
 4611  68EC     A0 00       			ldy	#-14+?LSC6
 4612  68EE     B1 28       			lda	(__stack_ptr),y
 4613  68F0     20 EF DC    			jsr	__uns_mult_char
 4614  68F3     A0 19       			ldy	#+5+?LSC6+?TSC6
 4615  68F5     18          			clc
 4616  68F6     71 28       			adc	(__stack_ptr),y
 4617  68F8     A0 0F       			ldy	#+1+?LSC6
 4618  68FA     91 28       			sta	(__stack_ptr),y
 4619  68FC     A9 04       			lda	#4
 4620  68FE     85 23       			sta	__oper2
 4621  6900     A0 01       			ldy	#-13+?LSC6
 4622  6902     B1 28       			lda	(__stack_ptr),y
 4623  6904     20 EF DC    			jsr	__uns_mult_char
 4624  6907     85 23       			sta	__oper2
 4625  6909     A0 0F       			ldy	#+1+?LSC6
 4626  690B     B1 28       			lda	(__stack_ptr),y
 4627  690D     38          			sec
 4628  690E     E5 23       			sbc	__oper2
 4629  6910     A0 0F       			ldy	#+1+?LSC6
 4630  6912     91 28       			sta	(__stack_ptr),y
 4631  6914     A0 1A       			ldy	#+6+?LSC6+?TSC6
 4632  6916     B1 28       			lda	(__stack_ptr),y
 4633  6918     18          			clc
 4634  6919     69 08       			adc	#8
 4635  691B     A0 10       			ldy	#+2+?LSC6
 4636  691D     91 28       			sta	(__stack_ptr),y
 4637  691F     A0 01       			ldy	#-13+?LSC6
 4638  6921     B1 28       			lda	(__stack_ptr),y
 4639  6923     85 20       			sta	__oper1
 4640  6925     A9 00       			lda	#0
 4641  6927     85 21       			sta	__oper1+1
 4642  6929     06 20       			asl	__oper1
 4643  692B     26 21       			rol	__oper1+1
 4644  692D     18          			clc
 4645  692E     A5 28       			lda	__stack_ptr
 4646  6930     65 20       			adc	__oper1
 4647  6932     85 20       			sta	__oper1
 4648  6934     A5 29       			lda	__stack_ptr+1
 4649  6936     65 21       			adc	__oper1+1
 4650  6938     85 21       			sta	__oper1+1
 4651  693A     A0 02       			ldy	#-12+?LSC6
 4652  693C     B1 20       			lda	(__oper1),y
 4653  693E     AA          			tax
 4654  693F     C8          			iny
 4655  6940     B1 20       			lda	(__oper1),y
 4656  6942     85 21       			sta	__oper1+1
 4657  6944     86 20       			stx	__oper1
 4658  6946     A5 20       			lda	__oper1
 4659  6948     85 23       			sta	__oper2
 4660  694A     A5 21       			lda	__oper1+1
  Tue Jan 13 23:03:19 2026                                                                                               Page   83




 4661  694C     85 24       			sta	__oper2+1
 4662  694E     A9 09       			lda	#.low.9
 4663  6950     85 20       			sta	__oper1
 4664  6952     A9 00       			lda	#.high.9
 4665  6954     85 21       			sta	__oper1+1
 4666  6956     20 F4 DC    			jsr	__uns_mult_int
 4667  6959     A5 20       			lda	__oper1
 4668  695B     85 23       			sta	__oper2
 4669  695D     A5 21       			lda	__oper1+1
 4670  695F     85 24       			sta	__oper2+1
 4671  6961     A9 CC       			lda	#.low._GameMTNum39
 4672  6963     85 20       			sta	__oper1
 4673  6965     A9 AD       			lda	#.high._GameMTNum39
 4674  6967     85 21       			sta	__oper1+1
 4675  6969     18          			clc
 4676  696A     A5 20       			lda	__oper1
 4677  696C     65 23       			adc	__oper2
 4678  696E     85 20       			sta	__oper1
 4679  6970     A5 21       			lda	__oper1+1
 4680  6972     65 24       			adc	__oper2+1
 4681  6974     85 21       			sta	__oper1+1
 4682  6976     A0 12       			ldy	#+4+?LSC6
 4683  6978     A5 20       			lda	__oper1
 4684  697A     91 28       			sta	(__stack_ptr),y
 4685  697C     C8          			iny
 4686  697D     A5 21       			lda	__oper1+1
 4687  697F     91 28       			sta	(__stack_ptr),y
 4688  6981     A9 00       			lda	#0
 4689  6983     20 AA DA    			jsr	__store_char_funct_arg
 4690  6986     A0 13       			ldy	#+4+?LSC6+1
 4691  6988     B1 28       			lda	(__stack_ptr),y
 4692  698A     85 20       			sta	__oper1
 4693  698C     C8          			iny
 4694  698D     B1 28       			lda	(__stack_ptr),y
 4695  698F     85 21       			sta	__oper1+1
 4696  6991     20 CA DA    			jsr	__store_int_funct_arg
 4697  6994     A0 13       			ldy	#+2+?LSC6+3
 4698  6996     B1 28       			lda	(__stack_ptr),y
 4699  6998     20 AA DA    			jsr	__store_char_funct_arg
 4700  699B     A0 13       			ldy	#+1+?LSC6+4
 4701  699D     B1 28       			lda	(__stack_ptr),y
 4702  699F     20 AA DA    			jsr	__store_char_funct_arg
 4703  69A2     A0 1F       			ldy	#+6+?LSC6+?TSC6+5
 4704  69A4     B1 28       			lda	(__stack_ptr),y
 4705  69A6     20 AA DA    			jsr	__store_char_funct_arg
 4706  69A9     A0 14       			ldy	#+0+?LSC6+6
 4707  69AB     B1 28       			lda	(__stack_ptr),y
 4708  69AD     A2 8E       			ldx	#.low.&SysPicture
 4709  69AF     86 26       			stx	__addr_reg
 4710  69B1     A2 E7       			ldx	#.high.&SysPicture+1
 4711  69B3     86 27       			stx	__addr_reg+1
 4712                     			.bf_call
 4713  69B5     20 F6 D2    			jsr	__banked_function_call
 4714  69B8     08          			php
 4715  69B9     78          			sei
 4716  69BA     18          			clc
 4717  69BB     A5 28       			lda	__stack_ptr
  Tue Jan 13 23:03:19 2026                                                                                               Page   84




 4718  69BD     69 06       			adc	#.low.6
 4719  69BF     85 28       			sta	__stack_ptr
 4720  69C1     A5 29       			lda	__stack_ptr+1
 4721  69C3     69 00       			adc	#.high.6
 4722  69C5     85 29       			sta	__stack_ptr+1
 4723  69C7     28          			plp
 4724                     			.c_end	02b7bh,386
 4725                     	;;
 4726                     			.for_bot  2,386
 4727  69C8     4C AD 68    			jmp	?FLA42
 4728         3923 69CB   	?BOL42:		.equal	$
 4729                     	;
 4730                     	;else 	if
 4731  69CB     4C 47 6C    			jmp	?EOI41
 4732                     			.if_else  ?EOI41,1,387
 4733         4323 69CE   	?BOL41:		.equal	$
 4734                     	;(flag==2)
 4735                     			.if_top	02b87h,?BOL44,1,387
 4736  69CE     A0 14       			ldy	#+0+?LSC6+?TSC6
 4737  69D0     B1 28       			lda	(__stack_ptr),y
 4738  69D2     38          			sec
 4739  69D3     E9 02       			sbc	#2
 4740  69D5     F0 03       			beq	+3
 4741  69D7     4C 12 6B    			jmp	?BOL44
 4742         3824 69DA   	?PLC36:		.equal	$
 4743                     			.c_end	02b91h,387
 4744                     	;j=0;
 4745                     			.c_start  02b93h,387
 4746  69DA     A0 01       			ldy	#-13+?LSC6
 4747  69DC     A9 00       			lda	#0
 4748  69DE     91 28       			sta	(__stack_ptr),y
 4749                     			.c_end	02b9ah,387
 4750         4624 69E0   	?FLC45:		.equal	$
 4751                     	;j<lengh;
 4752                     			.for_top  02b9bh,?BOL45,?FLB45,?FLA45,2,387
 4753  69E0     A0 01       			ldy	#-13+?LSC6
 4754  69E2     B1 28       			lda	(__stack_ptr),y
 4755  69E4     A0 00       			ldy	#-14+?LSC6
 4756  69E6     38          			sec
 4757  69E7     F1 28       			sbc	(__stack_ptr),y
 4758  69E9     90 03       			bcc	+3
 4759  69EB     4C 0F 6B    			jmp	?BOL45
 4760                     			.c_end	02ba2h,387
 4761  69EE     4C FD 69    			jmp	?FLB45
 4762         4625 69F1   	?FLA45:		.equal	$
 4763                     	;j++)
 4764                     			.for_adj  02ba3h,387
 4765  69F1     A0 01       			ldy	#-13+?LSC6
 4766  69F3     B1 28       			lda	(__stack_ptr),y
 4767  69F5     18          			clc
 4768  69F6     69 01       			adc	#1
 4769  69F8     91 28       			sta	(__stack_ptr),y
 4770                     			.c_end	02ba6h,387
 4771  69FA     4C E0 69    			jmp	?FLC45
 4772         4226 69FD   	?FLB45:		.equal	$
 4773                     	;SysPicture(x+lengh*4-j*7-6,y,x+lengh*4-j*7,y+7,GameMTNum78+8*i[j],0)
 4774                     			.c_start  02ba3h,387
  Tue Jan 13 23:03:19 2026                                                                                               Page   85




 4775  69FD     A9 04       			lda	#4
 4776  69FF     85 23       			sta	__oper2
 4777  6A01     A0 00       			ldy	#-14+?LSC6
 4778  6A03     B1 28       			lda	(__stack_ptr),y
 4779  6A05     20 EF DC    			jsr	__uns_mult_char
 4780  6A08     A0 19       			ldy	#+5+?LSC6+?TSC6
 4781  6A0A     18          			clc
 4782  6A0B     71 28       			adc	(__stack_ptr),y
 4783  6A0D     A0 0E       			ldy	#+0+?LSC6
 4784  6A0F     91 28       			sta	(__stack_ptr),y
 4785  6A11     A9 07       			lda	#7
 4786  6A13     85 23       			sta	__oper2
 4787  6A15     A0 01       			ldy	#-13+?LSC6
 4788  6A17     B1 28       			lda	(__stack_ptr),y
 4789  6A19     20 EF DC    			jsr	__uns_mult_char
 4790  6A1C     85 23       			sta	__oper2
 4791  6A1E     A0 0E       			ldy	#+0+?LSC6
 4792  6A20     B1 28       			lda	(__stack_ptr),y
 4793  6A22     38          			sec
 4794  6A23     E5 23       			sbc	__oper2
 4795  6A25     38          			sec
 4796  6A26     E9 06       			sbc	#6
 4797  6A28     A0 0E       			ldy	#+0+?LSC6
 4798  6A2A     91 28       			sta	(__stack_ptr),y
 4799  6A2C     A9 04       			lda	#4
 4800  6A2E     85 23       			sta	__oper2
 4801  6A30     A0 00       			ldy	#-14+?LSC6
 4802  6A32     B1 28       			lda	(__stack_ptr),y
 4803  6A34     20 EF DC    			jsr	__uns_mult_char
 4804  6A37     A0 19       			ldy	#+5+?LSC6+?TSC6
 4805  6A39     18          			clc
 4806  6A3A     71 28       			adc	(__stack_ptr),y
 4807  6A3C     A0 0F       			ldy	#+1+?LSC6
 4808  6A3E     91 28       			sta	(__stack_ptr),y
 4809  6A40     A9 07       			lda	#7
 4810  6A42     85 23       			sta	__oper2
 4811  6A44     A0 01       			ldy	#-13+?LSC6
 4812  6A46     B1 28       			lda	(__stack_ptr),y
 4813  6A48     20 EF DC    			jsr	__uns_mult_char
 4814  6A4B     85 23       			sta	__oper2
 4815  6A4D     A0 0F       			ldy	#+1+?LSC6
 4816  6A4F     B1 28       			lda	(__stack_ptr),y
 4817  6A51     38          			sec
 4818  6A52     E5 23       			sbc	__oper2
 4819  6A54     A0 0F       			ldy	#+1+?LSC6
 4820  6A56     91 28       			sta	(__stack_ptr),y
 4821  6A58     A0 1A       			ldy	#+6+?LSC6+?TSC6
 4822  6A5A     B1 28       			lda	(__stack_ptr),y
 4823  6A5C     18          			clc
 4824  6A5D     69 07       			adc	#7
 4825  6A5F     A0 10       			ldy	#+2+?LSC6
 4826  6A61     91 28       			sta	(__stack_ptr),y
 4827  6A63     A0 01       			ldy	#-13+?LSC6
 4828  6A65     B1 28       			lda	(__stack_ptr),y
 4829  6A67     85 20       			sta	__oper1
 4830  6A69     A9 00       			lda	#0
 4831  6A6B     85 21       			sta	__oper1+1
  Tue Jan 13 23:03:19 2026                                                                                               Page   86




 4832  6A6D     06 20       			asl	__oper1
 4833  6A6F     26 21       			rol	__oper1+1
 4834  6A71     18          			clc
 4835  6A72     A5 28       			lda	__stack_ptr
 4836  6A74     65 20       			adc	__oper1
 4837  6A76     85 20       			sta	__oper1
 4838  6A78     A5 29       			lda	__stack_ptr+1
 4839  6A7A     65 21       			adc	__oper1+1
 4840  6A7C     85 21       			sta	__oper1+1
 4841  6A7E     A0 02       			ldy	#-12+?LSC6
 4842  6A80     B1 20       			lda	(__oper1),y
 4843  6A82     AA          			tax
 4844  6A83     C8          			iny
 4845  6A84     B1 20       			lda	(__oper1),y
 4846  6A86     85 21       			sta	__oper1+1
 4847  6A88     86 20       			stx	__oper1
 4848  6A8A     A5 20       			lda	__oper1
 4849  6A8C     85 23       			sta	__oper2
 4850  6A8E     A5 21       			lda	__oper1+1
 4851  6A90     85 24       			sta	__oper2+1
 4852  6A92     A9 08       			lda	#.low.8
 4853  6A94     85 20       			sta	__oper1
 4854  6A96     A9 00       			lda	#.high.8
 4855  6A98     85 21       			sta	__oper1+1
 4856  6A9A     20 F4 DC    			jsr	__uns_mult_int
 4857  6A9D     A5 20       			lda	__oper1
 4858  6A9F     85 23       			sta	__oper2
 4859  6AA1     A5 21       			lda	__oper1+1
 4860  6AA3     85 24       			sta	__oper2+1
 4861  6AA5     A9 7C       			lda	#.low._GameMTNum78
 4862  6AA7     85 20       			sta	__oper1
 4863  6AA9     A9 AD       			lda	#.high._GameMTNum78
 4864  6AAB     85 21       			sta	__oper1+1
 4865  6AAD     18          			clc
 4866  6AAE     A5 20       			lda	__oper1
 4867  6AB0     65 23       			adc	__oper2
 4868  6AB2     85 20       			sta	__oper1
 4869  6AB4     A5 21       			lda	__oper1+1
 4870  6AB6     65 24       			adc	__oper2+1
 4871  6AB8     85 21       			sta	__oper1+1
 4872  6ABA     A0 12       			ldy	#+4+?LSC6
 4873  6ABC     A5 20       			lda	__oper1
 4874  6ABE     91 28       			sta	(__stack_ptr),y
 4875  6AC0     C8          			iny
 4876  6AC1     A5 21       			lda	__oper1+1
 4877  6AC3     91 28       			sta	(__stack_ptr),y
 4878  6AC5     A9 00       			lda	#0
 4879  6AC7     20 AA DA    			jsr	__store_char_funct_arg
 4880  6ACA     A0 13       			ldy	#+4+?LSC6+1
 4881  6ACC     B1 28       			lda	(__stack_ptr),y
 4882  6ACE     85 20       			sta	__oper1
 4883  6AD0     C8          			iny
 4884  6AD1     B1 28       			lda	(__stack_ptr),y
 4885  6AD3     85 21       			sta	__oper1+1
 4886  6AD5     20 CA DA    			jsr	__store_int_funct_arg
 4887  6AD8     A0 13       			ldy	#+2+?LSC6+3
 4888  6ADA     B1 28       			lda	(__stack_ptr),y
  Tue Jan 13 23:03:19 2026                                                                                               Page   87




 4889  6ADC     20 AA DA    			jsr	__store_char_funct_arg
 4890  6ADF     A0 13       			ldy	#+1+?LSC6+4
 4891  6AE1     B1 28       			lda	(__stack_ptr),y
 4892  6AE3     20 AA DA    			jsr	__store_char_funct_arg
 4893  6AE6     A0 1F       			ldy	#+6+?LSC6+?TSC6+5
 4894  6AE8     B1 28       			lda	(__stack_ptr),y
 4895  6AEA     20 AA DA    			jsr	__store_char_funct_arg
 4896  6AED     A0 14       			ldy	#+0+?LSC6+6
 4897  6AEF     B1 28       			lda	(__stack_ptr),y
 4898  6AF1     A2 8E       			ldx	#.low.&SysPicture
 4899  6AF3     86 26       			stx	__addr_reg
 4900  6AF5     A2 E7       			ldx	#.high.&SysPicture+1
 4901  6AF7     86 27       			stx	__addr_reg+1
 4902                     			.bf_call
 4903  6AF9     20 F6 D2    			jsr	__banked_function_call
 4904  6AFC     08          			php
 4905  6AFD     78          			sei
 4906  6AFE     18          			clc
 4907  6AFF     A5 28       			lda	__stack_ptr
 4908  6B01     69 06       			adc	#.low.6
 4909  6B03     85 28       			sta	__stack_ptr
 4910  6B05     A5 29       			lda	__stack_ptr+1
 4911  6B07     69 00       			adc	#.high.6
 4912  6B09     85 29       			sta	__stack_ptr+1
 4913  6B0B     28          			plp
 4914                     			.c_end	02bebh,387
 4915                     	;;
 4916                     			.for_bot  2,387
 4917  6B0C     4C F1 69    			jmp	?FLA45
 4918         4410 6B0F   	?BOL45:		.equal	$
 4919                     	;
 4920                     	;else	
 4921  6B0F     4C 47 6C    			jmp	?EOI41
 4922                     			.if_else  ?EOI41,1,388
 4923         4710 6B12   	?BOL44:		.equal	$
 4924                     	;j=0;
 4925                     			.c_start  02bf7h,388
 4926  6B12     A0 01       			ldy	#-13+?LSC6
 4927  6B14     A9 00       			lda	#0
 4928  6B16     91 28       			sta	(__stack_ptr),y
 4929                     			.c_end	02bfeh,388
 4930         3711 6B18   	?FLC48:		.equal	$
 4931                     	;j<lengh;
 4932                     			.for_top  02bffh,?BOL48,?FLB48,?FLA48,2,388
 4933  6B18     A0 01       			ldy	#-13+?LSC6
 4934  6B1A     B1 28       			lda	(__stack_ptr),y
 4935  6B1C     A0 00       			ldy	#-14+?LSC6
 4936  6B1E     38          			sec
 4937  6B1F     F1 28       			sbc	(__stack_ptr),y
 4938  6B21     90 03       			bcc	+3
 4939  6B23     4C 47 6C    			jmp	?BOL48
 4940                     			.c_end	02c06h,388
 4941  6B26     4C 35 6B    			jmp	?FLB48
 4942         3712 6B29   	?FLA48:		.equal	$
 4943                     	;j++)
 4944                     			.for_adj  02c07h,388
 4945  6B29     A0 01       			ldy	#-13+?LSC6
  Tue Jan 13 23:03:19 2026                                                                                               Page   88




 4946  6B2B     B1 28       			lda	(__stack_ptr),y
 4947  6B2D     18          			clc
 4948  6B2E     69 01       			adc	#1
 4949  6B30     91 28       			sta	(__stack_ptr),y
 4950                     			.c_end	02c0ah,388
 4951  6B32     4C 18 6B    			jmp	?FLC48
 4952         3313 6B35   	?FLB48:		.equal	$
 4953                     	;SysPicture(x+lengh*2-j*4-3,y,x+lengh*2-j*4,y+4,GameMTNum35+5*i[j],0)
 4954                     			.c_start  02c07h,388
 4955  6B35     A9 02       			lda	#2
 4956  6B37     85 23       			sta	__oper2
 4957  6B39     A0 00       			ldy	#-14+?LSC6
 4958  6B3B     B1 28       			lda	(__stack_ptr),y
 4959  6B3D     20 EF DC    			jsr	__uns_mult_char
 4960  6B40     A0 19       			ldy	#+5+?LSC6+?TSC6
 4961  6B42     18          			clc
 4962  6B43     71 28       			adc	(__stack_ptr),y
 4963  6B45     A0 0E       			ldy	#+0+?LSC6
 4964  6B47     91 28       			sta	(__stack_ptr),y
 4965  6B49     A9 04       			lda	#4
 4966  6B4B     85 23       			sta	__oper2
 4967  6B4D     A0 01       			ldy	#-13+?LSC6
 4968  6B4F     B1 28       			lda	(__stack_ptr),y
 4969  6B51     20 EF DC    			jsr	__uns_mult_char
 4970  6B54     85 23       			sta	__oper2
 4971  6B56     A0 0E       			ldy	#+0+?LSC6
 4972  6B58     B1 28       			lda	(__stack_ptr),y
 4973  6B5A     38          			sec
 4974  6B5B     E5 23       			sbc	__oper2
 4975  6B5D     38          			sec
 4976  6B5E     E9 03       			sbc	#3
 4977  6B60     A0 0E       			ldy	#+0+?LSC6
 4978  6B62     91 28       			sta	(__stack_ptr),y
 4979  6B64     A9 02       			lda	#2
 4980  6B66     85 23       			sta	__oper2
 4981  6B68     A0 00       			ldy	#-14+?LSC6
 4982  6B6A     B1 28       			lda	(__stack_ptr),y
 4983  6B6C     20 EF DC    			jsr	__uns_mult_char
 4984  6B6F     A0 19       			ldy	#+5+?LSC6+?TSC6
 4985  6B71     18          			clc
 4986  6B72     71 28       			adc	(__stack_ptr),y
 4987  6B74     A0 0F       			ldy	#+1+?LSC6
 4988  6B76     91 28       			sta	(__stack_ptr),y
 4989  6B78     A9 04       			lda	#4
 4990  6B7A     85 23       			sta	__oper2
 4991  6B7C     A0 01       			ldy	#-13+?LSC6
 4992  6B7E     B1 28       			lda	(__stack_ptr),y
 4993  6B80     20 EF DC    			jsr	__uns_mult_char
 4994  6B83     85 23       			sta	__oper2
 4995  6B85     A0 0F       			ldy	#+1+?LSC6
 4996  6B87     B1 28       			lda	(__stack_ptr),y
 4997  6B89     38          			sec
 4998  6B8A     E5 23       			sbc	__oper2
 4999  6B8C     A0 0F       			ldy	#+1+?LSC6
 5000  6B8E     91 28       			sta	(__stack_ptr),y
 5001  6B90     A0 1A       			ldy	#+6+?LSC6+?TSC6
 5002  6B92     B1 28       			lda	(__stack_ptr),y
  Tue Jan 13 23:03:19 2026                                                                                               Page   89




 5003  6B94     18          			clc
 5004  6B95     69 04       			adc	#4
 5005  6B97     A0 10       			ldy	#+2+?LSC6
 5006  6B99     91 28       			sta	(__stack_ptr),y
 5007  6B9B     A0 01       			ldy	#-13+?LSC6
 5008  6B9D     B1 28       			lda	(__stack_ptr),y
 5009  6B9F     85 20       			sta	__oper1
 5010  6BA1     A9 00       			lda	#0
 5011  6BA3     85 21       			sta	__oper1+1
 5012  6BA5     06 20       			asl	__oper1
 5013  6BA7     26 21       			rol	__oper1+1
 5014  6BA9     18          			clc
 5015  6BAA     A5 28       			lda	__stack_ptr
 5016  6BAC     65 20       			adc	__oper1
 5017  6BAE     85 20       			sta	__oper1
 5018  6BB0     A5 29       			lda	__stack_ptr+1
 5019  6BB2     65 21       			adc	__oper1+1
 5020  6BB4     85 21       			sta	__oper1+1
 5021  6BB6     A0 02       			ldy	#-12+?LSC6
 5022  6BB8     B1 20       			lda	(__oper1),y
 5023  6BBA     AA          			tax
 5024  6BBB     C8          			iny
 5025  6BBC     B1 20       			lda	(__oper1),y
 5026  6BBE     85 21       			sta	__oper1+1
 5027  6BC0     86 20       			stx	__oper1
 5028  6BC2     A5 20       			lda	__oper1
 5029  6BC4     85 23       			sta	__oper2
 5030  6BC6     A5 21       			lda	__oper1+1
 5031  6BC8     85 24       			sta	__oper2+1
 5032  6BCA     A9 05       			lda	#.low.5
 5033  6BCC     85 20       			sta	__oper1
 5034  6BCE     A9 00       			lda	#.high.5
 5035  6BD0     85 21       			sta	__oper1+1
 5036  6BD2     20 F4 DC    			jsr	__uns_mult_int
 5037  6BD5     A5 20       			lda	__oper1
 5038  6BD7     85 23       			sta	__oper2
 5039  6BD9     A5 21       			lda	__oper1+1
 5040  6BDB     85 24       			sta	__oper2+1
 5041  6BDD     A9 26       			lda	#.low._GameMTNum35
 5042  6BDF     85 20       			sta	__oper1
 5043  6BE1     A9 AE       			lda	#.high._GameMTNum35
 5044  6BE3     85 21       			sta	__oper1+1
 5045  6BE5     18          			clc
 5046  6BE6     A5 20       			lda	__oper1
 5047  6BE8     65 23       			adc	__oper2
 5048  6BEA     85 20       			sta	__oper1
 5049  6BEC     A5 21       			lda	__oper1+1
 5050  6BEE     65 24       			adc	__oper2+1
 5051  6BF0     85 21       			sta	__oper1+1
 5052  6BF2     A0 12       			ldy	#+4+?LSC6
 5053  6BF4     A5 20       			lda	__oper1
 5054  6BF6     91 28       			sta	(__stack_ptr),y
 5055  6BF8     C8          			iny
 5056  6BF9     A5 21       			lda	__oper1+1
 5057  6BFB     91 28       			sta	(__stack_ptr),y
 5058  6BFD     A9 00       			lda	#0
 5059  6BFF     20 AA DA    			jsr	__store_char_funct_arg
  Tue Jan 13 23:03:19 2026                                                                                               Page   90




 5060  6C02     A0 13       			ldy	#+4+?LSC6+1
 5061  6C04     B1 28       			lda	(__stack_ptr),y
 5062  6C06     85 20       			sta	__oper1
 5063  6C08     C8          			iny
 5064  6C09     B1 28       			lda	(__stack_ptr),y
 5065  6C0B     85 21       			sta	__oper1+1
 5066  6C0D     20 CA DA    			jsr	__store_int_funct_arg
 5067  6C10     A0 13       			ldy	#+2+?LSC6+3
 5068  6C12     B1 28       			lda	(__stack_ptr),y
 5069  6C14     20 AA DA    			jsr	__store_char_funct_arg
 5070  6C17     A0 13       			ldy	#+1+?LSC6+4
 5071  6C19     B1 28       			lda	(__stack_ptr),y
 5072  6C1B     20 AA DA    			jsr	__store_char_funct_arg
 5073  6C1E     A0 1F       			ldy	#+6+?LSC6+?TSC6+5
 5074  6C20     B1 28       			lda	(__stack_ptr),y
 5075  6C22     20 AA DA    			jsr	__store_char_funct_arg
 5076  6C25     A0 14       			ldy	#+0+?LSC6+6
 5077  6C27     B1 28       			lda	(__stack_ptr),y
 5078  6C29     A2 8E       			ldx	#.low.&SysPicture
 5079  6C2B     86 26       			stx	__addr_reg
 5080  6C2D     A2 E7       			ldx	#.high.&SysPicture+1
 5081  6C2F     86 27       			stx	__addr_reg+1
 5082                     			.bf_call
 5083  6C31     20 F6 D2    			jsr	__banked_function_call
 5084  6C34     08          			php
 5085  6C35     78          			sei
 5086  6C36     18          			clc
 5087  6C37     A5 28       			lda	__stack_ptr
 5088  6C39     69 06       			adc	#.low.6
 5089  6C3B     85 28       			sta	__stack_ptr
 5090  6C3D     A5 29       			lda	__stack_ptr+1
 5091  6C3F     69 00       			adc	#.high.6
 5092  6C41     85 29       			sta	__stack_ptr+1
 5093  6C43     28          			plp
 5094                     			.c_end	02c4fh,388
 5095                     	;;
 5096                     	;
 5097                     			.for_bot  2,388
 5098  6C44     4C 29 6B    			jmp	?FLA48
 5099         3514 6C47   	?BOL48:		.equal	$
 5100         35F4 6C47   	?EOI41:		.equal	$
 5101                     	;
 5102                     			.f_end	02c52h,389
 5103         36D4 6C47   	?BOF6:		.equal	$
 5104  6C47     08          			php
 5105  6C48     78          			sei
 5106  6C49     18          			clc
 5107  6C4A     A5 28       			lda	__stack_ptr
 5108  6C4C     69 15       			adc	#.low.+?LSC6+?TSC6+1
 5109  6C4E     85 28       			sta	__stack_ptr
 5110  6C50     A5 29       			lda	__stack_ptr+1
 5111  6C52     69 00       			adc	#.high.+?LSC6+?TSC6+1
 5112  6C54     85 29       			sta	__stack_ptr+1
 5113  6C56     28          			plp
 5114                     			.f_return
 5115  6C57     60          			rts
 5116                     	;
  Tue Jan 13 23:03:19 2026                                                                                               Page   91




 5117                     			.f_start  02e15h,401
 5118                     			.bank_table
 5119                     			.global	&GameMTBattle
 5120  9012     58 6C E0    	&GameMTBattle:	.bankaddr	_GameMTBattle
 5121                     			.ends
 5122         3311 6C58   	_GameMTBattle:	.equal	$
 5123                     			.attrib	_GameMTBattle,402,f,b
 5124  6C58     20 AA DA    			jsr	__store_char_funct_arg
 5125                     	;
 5126                     	;
 5127         0000        	?ASC7:		.equal	0
 5128         0004        	?TSC7:		.equal	4
 5129         0026        	?LSC7:		.equal	38
 5130  6C5B     08          			php
 5131  6C5C     78          			sei
 5132  6C5D     38          			sec
 5133  6C5E     A5 28       			lda	__stack_ptr
 5134  6C60     E9 2A       			sbc	#.low.+?LSC7+?TSC7
 5135  6C62     85 28       			sta	__stack_ptr
 5136  6C64     A5 29       			lda	__stack_ptr+1
 5137  6C66     E9 00       			sbc	#.high.+?LSC7+?TSC7
 5138  6C68     85 29       			sta	__stack_ptr+1
 5139  6C6A     28          			plp
 5140                     	;{
 5141                     			.local	_number,402,v,c,u,d,d,d,d,0+?LSC7+?TSC7+0,00h
 5142                     	;unsigned char 	i=p=info[33]=temp;
 5143                     	;	
 5144                     			.local	_i,403,v,c,u,d,d,d,d,-1+?LSC7+0,00h
 5145                     			.local	_p,403,v,c,u,d,d,d,d,-2+?LSC7+0,00h
 5146                     			.local	_info,403,v,c,u,d,d,d,d,-35+?LSC7+0,021h,00h
 5147                     			.local	_temp,403,v,c,u,d,d,d,d,-36+?LSC7+0,00h
 5148                     	;unsigned int 	TempL;
 5149                     	;	
 5150                     			.local	_TempL,404,v,i,u,d,d,d,d,-38+?LSC7+0,00h
 5151                     	;i=0;
 5152                     			.c_start  02e57h,405
 5153  6C6B     A0 25       			ldy	#-1+?LSC7
 5154  6C6D     A9 00       			lda	#0
 5155  6C6F     91 28       			sta	(__stack_ptr),y
 5156                     			.c_end	02e5eh,405
 5157         4716 6C71   	?FLC49:		.equal	$
 5158                     	;i<13;
 5159                     			.for_top  02e5fh,?BOL49,?FLB49,?FLA49,1,405
 5160  6C71     A0 25       			ldy	#-1+?LSC7
 5161  6C73     B1 28       			lda	(__stack_ptr),y
 5162  6C75     38          			sec
 5163  6C76     E9 0D       			sbc	#13
 5164  6C78     90 03       			bcc	+3
 5165  6C7A     4C DE 6C    			jmp	?BOL49
 5166                     			.c_end	02e63h,405
 5167  6C7D     4C 8C 6C    			jmp	?FLB49
 5168         4517 6C80   	?FLA49:		.equal	$
 5169                     	;i++)
 5170                     			.for_adj  02e64h,405
 5171  6C80     A0 25       			ldy	#-1+?LSC7
 5172  6C82     B1 28       			lda	(__stack_ptr),y
 5173  6C84     18          			clc
  Tue Jan 13 23:03:19 2026                                                                                               Page   92




 5174  6C85     69 01       			adc	#1
 5175  6C87     91 28       			sta	(__stack_ptr),y
 5176                     			.c_end	02e63h,405
 5177  6C89     4C 71 6C    			jmp	?FLC49
 5178         3A18 6C8C   	?FLB49:		.equal	$
 5179                     	;info[i]=GameMTVictory[i]
 5180                     			.c_start  02e64h,405
 5181  6C8C     A0 25       			ldy	#-1+?LSC7
 5182  6C8E     B1 28       			lda	(__stack_ptr),y
 5183  6C90     85 20       			sta	__oper1
 5184  6C92     A9 00       			lda	#0
 5185  6C94     85 21       			sta	__oper1+1
 5186  6C96     18          			clc
 5187  6C97     A5 20       			lda	__oper1
 5188  6C99     69 34       			adc	#.low._GameMTVictory
 5189  6C9B     85 20       			sta	__oper1
 5190  6C9D     A5 21       			lda	__oper1+1
 5191  6C9F     69 AD       			adc	#.high._GameMTVictory
 5192  6CA1     85 21       			sta	__oper1+1
 5193  6CA3     A0 00       			ldy	#0
 5194  6CA5     B1 20       			lda	(__oper1),y
 5195  6CA7     A0 26       			ldy	#+0+?LSC7
 5196  6CA9     91 28       			sta	(__stack_ptr),y
 5197  6CAB     A0 25       			ldy	#-1+?LSC7
 5198  6CAD     B1 28       			lda	(__stack_ptr),y
 5199  6CAF     85 20       			sta	__oper1
 5200  6CB1     A9 00       			lda	#0
 5201  6CB3     85 21       			sta	__oper1+1
 5202  6CB5     18          			clc
 5203  6CB6     A5 28       			lda	__stack_ptr
 5204  6CB8     69 03       			adc	#.low.-35+?LSC7
 5205  6CBA     AA          			tax
 5206  6CBB     A5 29       			lda	__stack_ptr+1
 5207  6CBD     69 00       			adc	#.high.-35+?LSC7
 5208  6CBF     A8          			tay
 5209  6CC0     18          			clc
 5210  6CC1     8A          			txa
 5211  6CC2     65 20       			adc	__oper1
 5212  6CC4     85 20       			sta	__oper1
 5213  6CC6     98          			tya
 5214  6CC7     65 21       			adc	__oper1+1
 5215  6CC9     85 21       			sta	__oper1+1
 5216  6CCB     A5 20       			lda	__oper1
 5217  6CCD     85 23       			sta	__oper2
 5218  6CCF     A5 21       			lda	__oper1+1
 5219  6CD1     85 24       			sta	__oper2+1
 5220  6CD3     A0 26       			ldy	#+0+?LSC7
 5221  6CD5     B1 28       			lda	(__stack_ptr),y
 5222  6CD7     A0 00       			ldy	#0
 5223  6CD9     91 23       			sta	(__oper2),y
 5224                     			.c_end	02e80h,405
 5225                     	;;
 5226                     	;	
 5227                     			.for_bot  1,405
 5228  6CDB     4C 80 6C    			jmp	?FLA49
 5229         4324 6CDE   	?BOL49:		.equal	$
 5230                     	;p=1
  Tue Jan 13 23:03:19 2026                                                                                               Page   93




 5231                     			.c_start  02e84h,406
 5232  6CDE     A0 24       			ldy	#-2+?LSC7
 5233  6CE0     A9 01       			lda	#1
 5234  6CE2     91 28       			sta	(__stack_ptr),y
 5235                     			.c_end	02e87h,406
 5236                     	;temp=g_GameMTMapY
 5237                     			.c_start  02e8bh,407
 5238  6CE4     AD 0E 18    			lda	_g_GameMTMapY
 5239  6CE7     A0 02       			ldy	#-36+?LSC7
 5240  6CE9     91 28       			sta	(__stack_ptr),y
 5241                     			.c_end	02e9ch,407
 5242                     	;(GameMTMonData[number][3]>=10)
 5243                     	;	
 5244                     			.if_top	02ea0h,?BOL50,1,408
 5245  6CEB     A9 05       			lda	#.low.5
 5246  6CED     85 23       			sta	__oper2
 5247  6CEF     A9 00       			lda	#.high.5
 5248  6CF1     85 24       			sta	__oper2+1
 5249  6CF3     A0 2A       			ldy	#+0+?LSC7+?TSC7
 5250  6CF5     B1 28       			lda	(__stack_ptr),y
 5251  6CF7     85 20       			sta	__oper1
 5252  6CF9     A9 00       			lda	#0
 5253  6CFB     85 21       			sta	__oper1+1
 5254  6CFD     20 AF D6    			jsr	__mult_int
 5255  6D00     06 20       			asl	__oper1
 5256  6D02     26 21       			rol	__oper1+1
 5257  6D04     18          			clc
 5258  6D05     A5 20       			lda	__oper1
 5259  6D07     69 CC       			adc	#.low._GameMTMonData
 5260  6D09     85 20       			sta	__oper1
 5261  6D0B     A5 21       			lda	__oper1+1
 5262  6D0D     69 B2       			adc	#.high._GameMTMonData
 5263  6D0F     85 21       			sta	__oper1+1
 5264  6D11     A0 26       			ldy	#+0+?LSC7
 5265  6D13     A5 20       			lda	__oper1
 5266  6D15     91 28       			sta	(__stack_ptr),y
 5267  6D17     C8          			iny
 5268  6D18     A5 21       			lda	__oper1+1
 5269  6D1A     91 28       			sta	(__stack_ptr),y
 5270  6D1C     A0 26       			ldy	#+0+?LSC7
 5271  6D1E     B1 28       			lda	(__stack_ptr),y
 5272  6D20     AA          			tax
 5273  6D21     C8          			iny
 5274  6D22     B1 28       			lda	(__stack_ptr),y
 5275  6D24     85 27       			sta	__addr_reg+1
 5276  6D26     86 26       			stx	__addr_reg
 5277  6D28     A0 06       			ldy	#6
 5278  6D2A     B1 26       			lda	(__addr_reg),y
 5279  6D2C     AA          			tax
 5280  6D2D     C8          			iny
 5281  6D2E     B1 26       			lda	(__addr_reg),y
 5282  6D30     85 21       			sta	__oper1+1
 5283  6D32     86 20       			stx	__oper1
 5284  6D34     A9 0A       			lda	#.low.10
 5285  6D36     85 23       			sta	__oper2
 5286  6D38     A9 00       			lda	#.high.10
 5287  6D3A     85 24       			sta	__oper2+1
  Tue Jan 13 23:03:19 2026                                                                                               Page   94




 5288  6D3C     20 40 D3    			jsr	__cmp_int
 5289  6D3F     B0 03       			bcs	+3
 5290  6D41     4C 76 70    			jmp	?BOL50
 5291         3214 6D44   	?PLC37:		.equal	$
 5292                     			.c_end	02ec1h,409
 5293                     	;(GameMTMonData[number][3]>=100)
 5294                     	;		
 5295                     			.if_top	02ec8h,?BOL51,2,410
 5296  6D44     A9 05       			lda	#.low.5
 5297  6D46     85 23       			sta	__oper2
 5298  6D48     A9 00       			lda	#.high.5
 5299  6D4A     85 24       			sta	__oper2+1
 5300  6D4C     A0 2A       			ldy	#+0+?LSC7+?TSC7
 5301  6D4E     B1 28       			lda	(__stack_ptr),y
 5302  6D50     85 20       			sta	__oper1
 5303  6D52     A9 00       			lda	#0
 5304  6D54     85 21       			sta	__oper1+1
 5305  6D56     20 AF D6    			jsr	__mult_int
 5306  6D59     06 20       			asl	__oper1
 5307  6D5B     26 21       			rol	__oper1+1
 5308  6D5D     18          			clc
 5309  6D5E     A5 20       			lda	__oper1
 5310  6D60     69 CC       			adc	#.low._GameMTMonData
 5311  6D62     85 20       			sta	__oper1
 5312  6D64     A5 21       			lda	__oper1+1
 5313  6D66     69 B2       			adc	#.high._GameMTMonData
 5314  6D68     85 21       			sta	__oper1+1
 5315  6D6A     A0 26       			ldy	#+0+?LSC7
 5316  6D6C     A5 20       			lda	__oper1
 5317  6D6E     91 28       			sta	(__stack_ptr),y
 5318  6D70     C8          			iny
 5319  6D71     A5 21       			lda	__oper1+1
 5320  6D73     91 28       			sta	(__stack_ptr),y
 5321  6D75     A0 26       			ldy	#+0+?LSC7
 5322  6D77     B1 28       			lda	(__stack_ptr),y
 5323  6D79     AA          			tax
 5324  6D7A     C8          			iny
 5325  6D7B     B1 28       			lda	(__stack_ptr),y
 5326  6D7D     85 27       			sta	__addr_reg+1
 5327  6D7F     86 26       			stx	__addr_reg
 5328  6D81     A0 06       			ldy	#6
 5329  6D83     B1 26       			lda	(__addr_reg),y
 5330  6D85     AA          			tax
 5331  6D86     C8          			iny
 5332  6D87     B1 26       			lda	(__addr_reg),y
 5333  6D89     85 21       			sta	__oper1+1
 5334  6D8B     86 20       			stx	__oper1
 5335  6D8D     A9 64       			lda	#.low.100
 5336  6D8F     85 23       			sta	__oper2
 5337  6D91     A9 00       			lda	#.high.100
 5338  6D93     85 24       			sta	__oper2+1
 5339  6D95     20 40 D3    			jsr	__cmp_int
 5340  6D98     B0 03       			bcs	+3
 5341  6D9A     4C 54 6F    			jmp	?BOL51
 5342         4219 6D9D   	?PLC38:		.equal	$
 5343                     			.c_end	02eeah,411
 5344                     	;info[14]='0'+GameMTMonData[number][3]/10-GameMTMonData[number][3]/100*10
  Tue Jan 13 23:03:19 2026                                                                                               Page   95




 5345                     			.c_start  02ef3h,412
 5346  6D9D     A9 05       			lda	#.low.5
 5347  6D9F     85 23       			sta	__oper2
 5348  6DA1     A9 00       			lda	#.high.5
 5349  6DA3     85 24       			sta	__oper2+1
 5350  6DA5     A0 2A       			ldy	#+0+?LSC7+?TSC7
 5351  6DA7     B1 28       			lda	(__stack_ptr),y
 5352  6DA9     85 20       			sta	__oper1
 5353  6DAB     A9 00       			lda	#0
 5354  6DAD     85 21       			sta	__oper1+1
 5355  6DAF     20 AF D6    			jsr	__mult_int
 5356  6DB2     06 20       			asl	__oper1
 5357  6DB4     26 21       			rol	__oper1+1
 5358  6DB6     18          			clc
 5359  6DB7     A5 20       			lda	__oper1
 5360  6DB9     69 CC       			adc	#.low._GameMTMonData
 5361  6DBB     85 20       			sta	__oper1
 5362  6DBD     A5 21       			lda	__oper1+1
 5363  6DBF     69 B2       			adc	#.high._GameMTMonData
 5364  6DC1     85 21       			sta	__oper1+1
 5365  6DC3     A0 26       			ldy	#+0+?LSC7
 5366  6DC5     A5 20       			lda	__oper1
 5367  6DC7     91 28       			sta	(__stack_ptr),y
 5368  6DC9     C8          			iny
 5369  6DCA     A5 21       			lda	__oper1+1
 5370  6DCC     91 28       			sta	(__stack_ptr),y
 5371  6DCE     A0 26       			ldy	#+0+?LSC7
 5372  6DD0     B1 28       			lda	(__stack_ptr),y
 5373  6DD2     AA          			tax
 5374  6DD3     C8          			iny
 5375  6DD4     B1 28       			lda	(__stack_ptr),y
 5376  6DD6     85 27       			sta	__addr_reg+1
 5377  6DD8     86 26       			stx	__addr_reg
 5378  6DDA     A0 06       			ldy	#6
 5379  6DDC     B1 26       			lda	(__addr_reg),y
 5380  6DDE     AA          			tax
 5381  6DDF     C8          			iny
 5382  6DE0     B1 26       			lda	(__addr_reg),y
 5383  6DE2     85 21       			sta	__oper1+1
 5384  6DE4     86 20       			stx	__oper1
 5385  6DE6     A9 0A       			lda	#.low.10
 5386  6DE8     85 23       			sta	__oper2
 5387  6DEA     A9 00       			lda	#.high.10
 5388  6DEC     85 24       			sta	__oper2+1
 5389  6DEE     20 80 DC    			jsr	__uns_div_int
 5390  6DF1     A5 20       			lda	__oper1
 5391  6DF3     18          			clc
 5392  6DF4     69 30       			adc	#.low.48
 5393  6DF6     85 20       			sta	__oper1
 5394  6DF8     A5 21       			lda	__oper1+1
 5395  6DFA     69 00       			adc	#.high.48
 5396  6DFC     85 21       			sta	__oper1+1
 5397  6DFE     A0 26       			ldy	#+0+?LSC7
 5398  6E00     A5 20       			lda	__oper1
 5399  6E02     91 28       			sta	(__stack_ptr),y
 5400  6E04     C8          			iny
 5401  6E05     A5 21       			lda	__oper1+1
  Tue Jan 13 23:03:19 2026                                                                                               Page   96




 5402  6E07     91 28       			sta	(__stack_ptr),y
 5403  6E09     A9 05       			lda	#.low.5
 5404  6E0B     85 23       			sta	__oper2
 5405  6E0D     A9 00       			lda	#.high.5
 5406  6E0F     85 24       			sta	__oper2+1
 5407  6E11     A0 2A       			ldy	#+0+?LSC7+?TSC7
 5408  6E13     B1 28       			lda	(__stack_ptr),y
 5409  6E15     85 20       			sta	__oper1
 5410  6E17     A9 00       			lda	#0
 5411  6E19     85 21       			sta	__oper1+1
 5412  6E1B     20 AF D6    			jsr	__mult_int
 5413  6E1E     06 20       			asl	__oper1
 5414  6E20     26 21       			rol	__oper1+1
 5415  6E22     18          			clc
 5416  6E23     A5 20       			lda	__oper1
 5417  6E25     69 CC       			adc	#.low._GameMTMonData
 5418  6E27     85 20       			sta	__oper1
 5419  6E29     A5 21       			lda	__oper1+1
 5420  6E2B     69 B2       			adc	#.high._GameMTMonData
 5421  6E2D     85 21       			sta	__oper1+1
 5422  6E2F     A0 28       			ldy	#+2+?LSC7
 5423  6E31     A5 20       			lda	__oper1
 5424  6E33     91 28       			sta	(__stack_ptr),y
 5425  6E35     C8          			iny
 5426  6E36     A5 21       			lda	__oper1+1
 5427  6E38     91 28       			sta	(__stack_ptr),y
 5428  6E3A     A0 28       			ldy	#+2+?LSC7
 5429  6E3C     B1 28       			lda	(__stack_ptr),y
 5430  6E3E     AA          			tax
 5431  6E3F     C8          			iny
 5432  6E40     B1 28       			lda	(__stack_ptr),y
 5433  6E42     85 27       			sta	__addr_reg+1
 5434  6E44     86 26       			stx	__addr_reg
 5435  6E46     A0 06       			ldy	#6
 5436  6E48     B1 26       			lda	(__addr_reg),y
 5437  6E4A     AA          			tax
 5438  6E4B     C8          			iny
 5439  6E4C     B1 26       			lda	(__addr_reg),y
 5440  6E4E     85 21       			sta	__oper1+1
 5441  6E50     86 20       			stx	__oper1
 5442  6E52     A9 64       			lda	#.low.100
 5443  6E54     85 23       			sta	__oper2
 5444  6E56     A9 00       			lda	#.high.100
 5445  6E58     85 24       			sta	__oper2+1
 5446  6E5A     20 80 DC    			jsr	__uns_div_int
 5447  6E5D     A9 0A       			lda	#.low.10
 5448  6E5F     85 23       			sta	__oper2
 5449  6E61     A9 00       			lda	#.high.10
 5450  6E63     85 24       			sta	__oper2+1
 5451  6E65     20 F4 DC    			jsr	__uns_mult_int
 5452  6E68     A5 20       			lda	__oper1
 5453  6E6A     85 23       			sta	__oper2
 5454  6E6C     A5 21       			lda	__oper1+1
 5455  6E6E     85 24       			sta	__oper2+1
 5456  6E70     A0 26       			ldy	#+0+?LSC7
 5457  6E72     B1 28       			lda	(__stack_ptr),y
 5458  6E74     85 20       			sta	__oper1
  Tue Jan 13 23:03:19 2026                                                                                               Page   97




 5459  6E76     C8          			iny
 5460  6E77     B1 28       			lda	(__stack_ptr),y
 5461  6E79     85 21       			sta	__oper1+1
 5462  6E7B     38          			sec
 5463  6E7C     A5 20       			lda	__oper1
 5464  6E7E     E5 23       			sbc	__oper2
 5465  6E80     85 20       			sta	__oper1
 5466  6E82     A5 21       			lda	__oper1+1
 5467  6E84     E5 24       			sbc	__oper2+1
 5468  6E86     85 21       			sta	__oper1+1
 5469  6E88     A0 26       			ldy	#+0+?LSC7
 5470  6E8A     A5 20       			lda	__oper1
 5471  6E8C     91 28       			sta	(__stack_ptr),y
 5472  6E8E     C8          			iny
 5473  6E8F     A5 21       			lda	__oper1+1
 5474  6E91     91 28       			sta	(__stack_ptr),y
 5475  6E93     18          			clc
 5476  6E94     A5 28       			lda	__stack_ptr
 5477  6E96     69 11       			adc	#.low.-35+14+?LSC7
 5478  6E98     85 20       			sta	__oper1
 5479  6E9A     A5 29       			lda	__stack_ptr+1
 5480  6E9C     69 00       			adc	#.high.-35+14+?LSC7
 5481  6E9E     85 21       			sta	__oper1+1
 5482  6EA0     A5 20       			lda	__oper1
 5483  6EA2     85 23       			sta	__oper2
 5484  6EA4     A5 21       			lda	__oper1+1
 5485  6EA6     85 24       			sta	__oper2+1
 5486  6EA8     A0 26       			ldy	#+0+?LSC7
 5487  6EAA     B1 28       			lda	(__stack_ptr),y
 5488  6EAC     85 20       			sta	__oper1
 5489  6EAE     C8          			iny
 5490  6EAF     B1 28       			lda	(__stack_ptr),y
 5491  6EB1     85 21       			sta	__oper1+1
 5492  6EB3     A5 20       			lda	__oper1
 5493  6EB5     A0 00       			ldy	#0
 5494  6EB7     91 23       			sta	(__oper2),y
 5495                     			.c_end	02f3bh,412
 5496                     	;info[13]='0'+GameMTMonData[number][3]/100
 5497                     			.c_start  02f41h,413
 5498  6EB9     A9 05       			lda	#.low.5
 5499  6EBB     85 23       			sta	__oper2
 5500  6EBD     A9 00       			lda	#.high.5
 5501  6EBF     85 24       			sta	__oper2+1
 5502  6EC1     A0 2A       			ldy	#+0+?LSC7+?TSC7
 5503  6EC3     B1 28       			lda	(__stack_ptr),y
 5504  6EC5     85 20       			sta	__oper1
 5505  6EC7     A9 00       			lda	#0
 5506  6EC9     85 21       			sta	__oper1+1
 5507  6ECB     20 AF D6    			jsr	__mult_int
 5508  6ECE     06 20       			asl	__oper1
 5509  6ED0     26 21       			rol	__oper1+1
 5510  6ED2     18          			clc
 5511  6ED3     A5 20       			lda	__oper1
 5512  6ED5     69 CC       			adc	#.low._GameMTMonData
 5513  6ED7     85 20       			sta	__oper1
 5514  6ED9     A5 21       			lda	__oper1+1
 5515  6EDB     69 B2       			adc	#.high._GameMTMonData
  Tue Jan 13 23:03:19 2026                                                                                               Page   98




 5516  6EDD     85 21       			sta	__oper1+1
 5517  6EDF     A0 26       			ldy	#+0+?LSC7
 5518  6EE1     A5 20       			lda	__oper1
 5519  6EE3     91 28       			sta	(__stack_ptr),y
 5520  6EE5     C8          			iny
 5521  6EE6     A5 21       			lda	__oper1+1
 5522  6EE8     91 28       			sta	(__stack_ptr),y
 5523  6EEA     A0 26       			ldy	#+0+?LSC7
 5524  6EEC     B1 28       			lda	(__stack_ptr),y
 5525  6EEE     AA          			tax
 5526  6EEF     C8          			iny
 5527  6EF0     B1 28       			lda	(__stack_ptr),y
 5528  6EF2     85 27       			sta	__addr_reg+1
 5529  6EF4     86 26       			stx	__addr_reg
 5530  6EF6     A0 06       			ldy	#6
 5531  6EF8     B1 26       			lda	(__addr_reg),y
 5532  6EFA     AA          			tax
 5533  6EFB     C8          			iny
 5534  6EFC     B1 26       			lda	(__addr_reg),y
 5535  6EFE     85 21       			sta	__oper1+1
 5536  6F00     86 20       			stx	__oper1
 5537  6F02     A9 64       			lda	#.low.100
 5538  6F04     85 23       			sta	__oper2
 5539  6F06     A9 00       			lda	#.high.100
 5540  6F08     85 24       			sta	__oper2+1
 5541  6F0A     20 80 DC    			jsr	__uns_div_int
 5542  6F0D     A5 20       			lda	__oper1
 5543  6F0F     18          			clc
 5544  6F10     69 30       			adc	#.low.48
 5545  6F12     85 20       			sta	__oper1
 5546  6F14     A5 21       			lda	__oper1+1
 5547  6F16     69 00       			adc	#.high.48
 5548  6F18     85 21       			sta	__oper1+1
 5549  6F1A     A0 26       			ldy	#+0+?LSC7
 5550  6F1C     A5 20       			lda	__oper1
 5551  6F1E     91 28       			sta	(__stack_ptr),y
 5552  6F20     C8          			iny
 5553  6F21     A5 21       			lda	__oper1+1
 5554  6F23     91 28       			sta	(__stack_ptr),y
 5555  6F25     18          			clc
 5556  6F26     A5 28       			lda	__stack_ptr
 5557  6F28     69 10       			adc	#.low.-35+13+?LSC7
 5558  6F2A     85 20       			sta	__oper1
 5559  6F2C     A5 29       			lda	__stack_ptr+1
 5560  6F2E     69 00       			adc	#.high.-35+13+?LSC7
 5561  6F30     85 21       			sta	__oper1+1
 5562  6F32     A5 20       			lda	__oper1
 5563  6F34     85 23       			sta	__oper2
 5564  6F36     A5 21       			lda	__oper1+1
 5565  6F38     85 24       			sta	__oper2+1
 5566  6F3A     A0 26       			ldy	#+0+?LSC7
 5567  6F3C     B1 28       			lda	(__stack_ptr),y
 5568  6F3E     85 20       			sta	__oper1
 5569  6F40     C8          			iny
 5570  6F41     B1 28       			lda	(__stack_ptr),y
 5571  6F43     85 21       			sta	__oper1+1
 5572  6F45     A5 20       			lda	__oper1
  Tue Jan 13 23:03:19 2026                                                                                               Page   99




 5573  6F47     A0 00       			ldy	#0
 5574  6F49     91 23       			sta	(__oper2),y
 5575                     			.c_end	02f6ah,413
 5576                     	;p=3
 5577                     			.c_start  02f70h,414
 5578  6F4B     A0 24       			ldy	#-2+?LSC7
 5579  6F4D     A9 03       			lda	#3
 5580  6F4F     91 28       			sta	(__stack_ptr),y
 5581                     			.c_end	02f73h,414
 5582                     	;
 5583                     	;else 
 5584                     	;			
 5585  6F51     4C 76 70    			jmp	?EOI51
 5586                     			.if_else  ?EOI51,2,417
 5587         3215 6F54   	?BOL51:		.equal	$
 5588                     	;info[13]='0'+GameMTMonData[number][3]/10-GameMTMonData[number][3]/100*10
 5589                     			.c_start  02f8fh,418
 5590  6F54     A9 05       			lda	#.low.5
 5591  6F56     85 23       			sta	__oper2
 5592  6F58     A9 00       			lda	#.high.5
 5593  6F5A     85 24       			sta	__oper2+1
 5594  6F5C     A0 2A       			ldy	#+0+?LSC7+?TSC7
 5595  6F5E     B1 28       			lda	(__stack_ptr),y
 5596  6F60     85 20       			sta	__oper1
 5597  6F62     A9 00       			lda	#0
 5598  6F64     85 21       			sta	__oper1+1
 5599  6F66     20 AF D6    			jsr	__mult_int
 5600  6F69     06 20       			asl	__oper1
 5601  6F6B     26 21       			rol	__oper1+1
 5602  6F6D     18          			clc
 5603  6F6E     A5 20       			lda	__oper1
 5604  6F70     69 CC       			adc	#.low._GameMTMonData
 5605  6F72     85 20       			sta	__oper1
 5606  6F74     A5 21       			lda	__oper1+1
 5607  6F76     69 B2       			adc	#.high._GameMTMonData
 5608  6F78     85 21       			sta	__oper1+1
 5609  6F7A     A0 26       			ldy	#+0+?LSC7
 5610  6F7C     A5 20       			lda	__oper1
 5611  6F7E     91 28       			sta	(__stack_ptr),y
 5612  6F80     C8          			iny
 5613  6F81     A5 21       			lda	__oper1+1
 5614  6F83     91 28       			sta	(__stack_ptr),y
 5615  6F85     A0 26       			ldy	#+0+?LSC7
 5616  6F87     B1 28       			lda	(__stack_ptr),y
 5617  6F89     AA          			tax
 5618  6F8A     C8          			iny
 5619  6F8B     B1 28       			lda	(__stack_ptr),y
 5620  6F8D     85 27       			sta	__addr_reg+1
 5621  6F8F     86 26       			stx	__addr_reg
 5622  6F91     A0 06       			ldy	#6
 5623  6F93     B1 26       			lda	(__addr_reg),y
 5624  6F95     AA          			tax
 5625  6F96     C8          			iny
 5626  6F97     B1 26       			lda	(__addr_reg),y
 5627  6F99     85 21       			sta	__oper1+1
 5628  6F9B     86 20       			stx	__oper1
 5629  6F9D     A9 0A       			lda	#.low.10
  Tue Jan 13 23:03:19 2026                                                                                               Page  100




 5630  6F9F     85 23       			sta	__oper2
 5631  6FA1     A9 00       			lda	#.high.10
 5632  6FA3     85 24       			sta	__oper2+1
 5633  6FA5     20 80 DC    			jsr	__uns_div_int
 5634  6FA8     A5 20       			lda	__oper1
 5635  6FAA     18          			clc
 5636  6FAB     69 30       			adc	#.low.48
 5637  6FAD     85 20       			sta	__oper1
 5638  6FAF     A5 21       			lda	__oper1+1
 5639  6FB1     69 00       			adc	#.high.48
 5640  6FB3     85 21       			sta	__oper1+1
 5641  6FB5     A0 26       			ldy	#+0+?LSC7
 5642  6FB7     A5 20       			lda	__oper1
 5643  6FB9     91 28       			sta	(__stack_ptr),y
 5644  6FBB     C8          			iny
 5645  6FBC     A5 21       			lda	__oper1+1
 5646  6FBE     91 28       			sta	(__stack_ptr),y
 5647  6FC0     A9 05       			lda	#.low.5
 5648  6FC2     85 23       			sta	__oper2
 5649  6FC4     A9 00       			lda	#.high.5
 5650  6FC6     85 24       			sta	__oper2+1
 5651  6FC8     A0 2A       			ldy	#+0+?LSC7+?TSC7
 5652  6FCA     B1 28       			lda	(__stack_ptr),y
 5653  6FCC     85 20       			sta	__oper1
 5654  6FCE     A9 00       			lda	#0
 5655  6FD0     85 21       			sta	__oper1+1
 5656  6FD2     20 AF D6    			jsr	__mult_int
 5657  6FD5     06 20       			asl	__oper1
 5658  6FD7     26 21       			rol	__oper1+1
 5659  6FD9     18          			clc
 5660  6FDA     A5 20       			lda	__oper1
 5661  6FDC     69 CC       			adc	#.low._GameMTMonData
 5662  6FDE     85 20       			sta	__oper1
 5663  6FE0     A5 21       			lda	__oper1+1
 5664  6FE2     69 B2       			adc	#.high._GameMTMonData
 5665  6FE4     85 21       			sta	__oper1+1
 5666  6FE6     A0 28       			ldy	#+2+?LSC7
 5667  6FE8     A5 20       			lda	__oper1
 5668  6FEA     91 28       			sta	(__stack_ptr),y
 5669  6FEC     C8          			iny
 5670  6FED     A5 21       			lda	__oper1+1
 5671  6FEF     91 28       			sta	(__stack_ptr),y
 5672  6FF1     A0 28       			ldy	#+2+?LSC7
 5673  6FF3     B1 28       			lda	(__stack_ptr),y
 5674  6FF5     AA          			tax
 5675  6FF6     C8          			iny
 5676  6FF7     B1 28       			lda	(__stack_ptr),y
 5677  6FF9     85 27       			sta	__addr_reg+1
 5678  6FFB     86 26       			stx	__addr_reg
 5679  6FFD     A0 06       			ldy	#6
 5680  6FFF     B1 26       			lda	(__addr_reg),y
 5681  7001     AA          			tax
 5682  7002     C8          			iny
 5683  7003     B1 26       			lda	(__addr_reg),y
 5684  7005     85 21       			sta	__oper1+1
 5685  7007     86 20       			stx	__oper1
 5686  7009     A9 64       			lda	#.low.100
  Tue Jan 13 23:03:19 2026                                                                                               Page  101




 5687  700B     85 23       			sta	__oper2
 5688  700D     A9 00       			lda	#.high.100
 5689  700F     85 24       			sta	__oper2+1
 5690  7011     20 80 DC    			jsr	__uns_div_int
 5691  7014     A9 0A       			lda	#.low.10
 5692  7016     85 23       			sta	__oper2
 5693  7018     A9 00       			lda	#.high.10
 5694  701A     85 24       			sta	__oper2+1
 5695  701C     20 F4 DC    			jsr	__uns_mult_int
 5696  701F     A5 20       			lda	__oper1
 5697  7021     85 23       			sta	__oper2
 5698  7023     A5 21       			lda	__oper1+1
 5699  7025     85 24       			sta	__oper2+1
 5700  7027     A0 26       			ldy	#+0+?LSC7
 5701  7029     B1 28       			lda	(__stack_ptr),y
 5702  702B     85 20       			sta	__oper1
 5703  702D     C8          			iny
 5704  702E     B1 28       			lda	(__stack_ptr),y
 5705  7030     85 21       			sta	__oper1+1
 5706  7032     38          			sec
 5707  7033     A5 20       			lda	__oper1
 5708  7035     E5 23       			sbc	__oper2
 5709  7037     85 20       			sta	__oper1
 5710  7039     A5 21       			lda	__oper1+1
 5711  703B     E5 24       			sbc	__oper2+1
 5712  703D     85 21       			sta	__oper1+1
 5713  703F     A0 26       			ldy	#+0+?LSC7
 5714  7041     A5 20       			lda	__oper1
 5715  7043     91 28       			sta	(__stack_ptr),y
 5716  7045     C8          			iny
 5717  7046     A5 21       			lda	__oper1+1
 5718  7048     91 28       			sta	(__stack_ptr),y
 5719  704A     18          			clc
 5720  704B     A5 28       			lda	__stack_ptr
 5721  704D     69 10       			adc	#.low.-35+13+?LSC7
 5722  704F     85 20       			sta	__oper1
 5723  7051     A5 29       			lda	__stack_ptr+1
 5724  7053     69 00       			adc	#.high.-35+13+?LSC7
 5725  7055     85 21       			sta	__oper1+1
 5726  7057     A5 20       			lda	__oper1
 5727  7059     85 23       			sta	__oper2
 5728  705B     A5 21       			lda	__oper1+1
 5729  705D     85 24       			sta	__oper2+1
 5730  705F     A0 26       			ldy	#+0+?LSC7
 5731  7061     B1 28       			lda	(__stack_ptr),y
 5732  7063     85 20       			sta	__oper1
 5733  7065     C8          			iny
 5734  7066     B1 28       			lda	(__stack_ptr),y
 5735  7068     85 21       			sta	__oper1+1
 5736  706A     A5 20       			lda	__oper1
 5737  706C     A0 00       			ldy	#0
 5738  706E     91 23       			sta	(__oper2),y
 5739                     			.c_end	02fd7h,418
 5740                     	;p=2
 5741                     			.c_start  02fdeh,419
 5742  7070     A0 24       			ldy	#-2+?LSC7
 5743  7072     A9 02       			lda	#2
  Tue Jan 13 23:03:19 2026                                                                                               Page  102




 5744  7074     91 28       			sta	(__stack_ptr),y
 5745                     			.c_end	02fe1h,419
 5746                     	;
 5747         3517 7076   	?EOI51:		.equal	$
 5748                     	;
 5749                     	;info[12+p]='0'+GameMTMonData[number][3]-GameMTMonData[number][3]/10*10
 5750         35F7 7076   	?BOL50:		.equal	$
 5751                     			.c_start  02fefh,422
 5752  7076     A9 05       			lda	#.low.5
 5753  7078     85 23       			sta	__oper2
 5754  707A     A9 00       			lda	#.high.5
 5755  707C     85 24       			sta	__oper2+1
 5756  707E     A0 2A       			ldy	#+0+?LSC7+?TSC7
 5757  7080     B1 28       			lda	(__stack_ptr),y
 5758  7082     85 20       			sta	__oper1
 5759  7084     A9 00       			lda	#0
 5760  7086     85 21       			sta	__oper1+1
 5761  7088     20 AF D6    			jsr	__mult_int
 5762  708B     06 20       			asl	__oper1
 5763  708D     26 21       			rol	__oper1+1
 5764  708F     18          			clc
 5765  7090     A5 20       			lda	__oper1
 5766  7092     69 CC       			adc	#.low._GameMTMonData
 5767  7094     85 20       			sta	__oper1
 5768  7096     A5 21       			lda	__oper1+1
 5769  7098     69 B2       			adc	#.high._GameMTMonData
 5770  709A     85 21       			sta	__oper1+1
 5771  709C     A0 26       			ldy	#+0+?LSC7
 5772  709E     A5 20       			lda	__oper1
 5773  70A0     91 28       			sta	(__stack_ptr),y
 5774  70A2     C8          			iny
 5775  70A3     A5 21       			lda	__oper1+1
 5776  70A5     91 28       			sta	(__stack_ptr),y
 5777  70A7     A0 26       			ldy	#+0+?LSC7
 5778  70A9     B1 28       			lda	(__stack_ptr),y
 5779  70AB     AA          			tax
 5780  70AC     C8          			iny
 5781  70AD     B1 28       			lda	(__stack_ptr),y
 5782  70AF     85 27       			sta	__addr_reg+1
 5783  70B1     86 26       			stx	__addr_reg
 5784  70B3     A0 06       			ldy	#6
 5785  70B5     B1 26       			lda	(__addr_reg),y
 5786  70B7     AA          			tax
 5787  70B8     C8          			iny
 5788  70B9     B1 26       			lda	(__addr_reg),y
 5789  70BB     85 21       			sta	__oper1+1
 5790  70BD     86 20       			stx	__oper1
 5791  70BF     A5 20       			lda	__oper1
 5792  70C1     18          			clc
 5793  70C2     69 30       			adc	#.low.48
 5794  70C4     85 20       			sta	__oper1
 5795  70C6     A5 21       			lda	__oper1+1
 5796  70C8     69 00       			adc	#.high.48
 5797  70CA     85 21       			sta	__oper1+1
 5798  70CC     A0 26       			ldy	#+0+?LSC7
 5799  70CE     A5 20       			lda	__oper1
 5800  70D0     91 28       			sta	(__stack_ptr),y
  Tue Jan 13 23:03:19 2026                                                                                               Page  103




 5801  70D2     C8          			iny
 5802  70D3     A5 21       			lda	__oper1+1
 5803  70D5     91 28       			sta	(__stack_ptr),y
 5804  70D7     A9 05       			lda	#.low.5
 5805  70D9     85 23       			sta	__oper2
 5806  70DB     A9 00       			lda	#.high.5
 5807  70DD     85 24       			sta	__oper2+1
 5808  70DF     A0 2A       			ldy	#+0+?LSC7+?TSC7
 5809  70E1     B1 28       			lda	(__stack_ptr),y
 5810  70E3     85 20       			sta	__oper1
 5811  70E5     A9 00       			lda	#0
 5812  70E7     85 21       			sta	__oper1+1
 5813  70E9     20 AF D6    			jsr	__mult_int
 5814  70EC     06 20       			asl	__oper1
 5815  70EE     26 21       			rol	__oper1+1
 5816  70F0     18          			clc
 5817  70F1     A5 20       			lda	__oper1
 5818  70F3     69 CC       			adc	#.low._GameMTMonData
 5819  70F5     85 20       			sta	__oper1
 5820  70F7     A5 21       			lda	__oper1+1
 5821  70F9     69 B2       			adc	#.high._GameMTMonData
 5822  70FB     85 21       			sta	__oper1+1
 5823  70FD     A0 28       			ldy	#+2+?LSC7
 5824  70FF     A5 20       			lda	__oper1
 5825  7101     91 28       			sta	(__stack_ptr),y
 5826  7103     C8          			iny
 5827  7104     A5 21       			lda	__oper1+1
 5828  7106     91 28       			sta	(__stack_ptr),y
 5829  7108     A0 28       			ldy	#+2+?LSC7
 5830  710A     B1 28       			lda	(__stack_ptr),y
 5831  710C     AA          			tax
 5832  710D     C8          			iny
 5833  710E     B1 28       			lda	(__stack_ptr),y
 5834  7110     85 27       			sta	__addr_reg+1
 5835  7112     86 26       			stx	__addr_reg
 5836  7114     A0 06       			ldy	#6
 5837  7116     B1 26       			lda	(__addr_reg),y
 5838  7118     AA          			tax
 5839  7119     C8          			iny
 5840  711A     B1 26       			lda	(__addr_reg),y
 5841  711C     85 21       			sta	__oper1+1
 5842  711E     86 20       			stx	__oper1
 5843  7120     A9 0A       			lda	#.low.10
 5844  7122     85 23       			sta	__oper2
 5845  7124     A9 00       			lda	#.high.10
 5846  7126     85 24       			sta	__oper2+1
 5847  7128     20 80 DC    			jsr	__uns_div_int
 5848  712B     A9 0A       			lda	#.low.10
 5849  712D     85 23       			sta	__oper2
 5850  712F     A9 00       			lda	#.high.10
 5851  7131     85 24       			sta	__oper2+1
 5852  7133     20 F4 DC    			jsr	__uns_mult_int
 5853  7136     A5 20       			lda	__oper1
 5854  7138     85 23       			sta	__oper2
 5855  713A     A5 21       			lda	__oper1+1
 5856  713C     85 24       			sta	__oper2+1
 5857  713E     A0 26       			ldy	#+0+?LSC7
  Tue Jan 13 23:03:19 2026                                                                                               Page  104




 5858  7140     B1 28       			lda	(__stack_ptr),y
 5859  7142     85 20       			sta	__oper1
 5860  7144     C8          			iny
 5861  7145     B1 28       			lda	(__stack_ptr),y
 5862  7147     85 21       			sta	__oper1+1
 5863  7149     38          			sec
 5864  714A     A5 20       			lda	__oper1
 5865  714C     E5 23       			sbc	__oper2
 5866  714E     85 20       			sta	__oper1
 5867  7150     A5 21       			lda	__oper1+1
 5868  7152     E5 24       			sbc	__oper2+1
 5869  7154     85 21       			sta	__oper1+1
 5870  7156     A0 26       			ldy	#+0+?LSC7
 5871  7158     A5 20       			lda	__oper1
 5872  715A     91 28       			sta	(__stack_ptr),y
 5873  715C     C8          			iny
 5874  715D     A5 21       			lda	__oper1+1
 5875  715F     91 28       			sta	(__stack_ptr),y
 5876  7161     A9 0C       			lda	#12
 5877  7163     A0 24       			ldy	#-2+?LSC7
 5878  7165     18          			clc
 5879  7166     71 28       			adc	(__stack_ptr),y
 5880  7168     85 20       			sta	__oper1
 5881  716A     A9 00       			lda	#0
 5882  716C     85 21       			sta	__oper1+1
 5883  716E     18          			clc
 5884  716F     A5 28       			lda	__stack_ptr
 5885  7171     69 03       			adc	#.low.-35+?LSC7
 5886  7173     AA          			tax
 5887  7174     A5 29       			lda	__stack_ptr+1
 5888  7176     69 00       			adc	#.high.-35+?LSC7
 5889  7178     A8          			tay
 5890  7179     18          			clc
 5891  717A     8A          			txa
 5892  717B     65 20       			adc	__oper1
 5893  717D     85 20       			sta	__oper1
 5894  717F     98          			tya
 5895  7180     65 21       			adc	__oper1+1
 5896  7182     85 21       			sta	__oper1+1
 5897  7184     A5 20       			lda	__oper1
 5898  7186     85 23       			sta	__oper2
 5899  7188     A5 21       			lda	__oper1+1
 5900  718A     85 24       			sta	__oper2+1
 5901  718C     A0 26       			ldy	#+0+?LSC7
 5902  718E     B1 28       			lda	(__stack_ptr),y
 5903  7190     85 20       			sta	__oper1
 5904  7192     C8          			iny
 5905  7193     B1 28       			lda	(__stack_ptr),y
 5906  7195     85 21       			sta	__oper1+1
 5907  7197     A5 20       			lda	__oper1
 5908  7199     A0 00       			ldy	#0
 5909  719B     91 23       			sta	(__oper2),y
 5910                     			.c_end	03035h,422
 5911                     	;i=0;
 5912                     			.c_start  03039h,423
 5913  719D     A0 25       			ldy	#-1+?LSC7
 5914  719F     A9 00       			lda	#0
  Tue Jan 13 23:03:19 2026                                                                                               Page  105




 5915  71A1     91 28       			sta	(__stack_ptr),y
 5916                     			.c_end	03040h,423
 5917         3221 71A3   	?FLC52:		.equal	$
 5918                     	;i<8;
 5919                     			.for_top  03041h,?BOL52,?FLB52,?FLA52,1,423
 5920  71A3     A0 25       			ldy	#-1+?LSC7
 5921  71A5     B1 28       			lda	(__stack_ptr),y
 5922  71A7     38          			sec
 5923  71A8     E9 08       			sbc	#8
 5924  71AA     90 03       			bcc	+3
 5925  71AC     4C 1B 72    			jmp	?BOL52
 5926                     			.c_end	03044h,423
 5927  71AF     4C BE 71    			jmp	?FLB52
 5928         4721 71B2   	?FLA52:		.equal	$
 5929                     	;i++)
 5930                     			.for_adj  03045h,423
 5931  71B2     A0 25       			ldy	#-1+?LSC7
 5932  71B4     B1 28       			lda	(__stack_ptr),y
 5933  71B6     18          			clc
 5934  71B7     69 01       			adc	#1
 5935  71B9     91 28       			sta	(__stack_ptr),y
 5936                     			.c_end	03044h,423
 5937  71BB     4C A3 71    			jmp	?FLC52
 5938         4322 71BE   	?FLB52:		.equal	$
 5939                     	;info[13+p+i]=GameMTVictory[i+13]
 5940                     			.c_start  03045h,423
 5941  71BE     A0 25       			ldy	#-1+?LSC7
 5942  71C0     B1 28       			lda	(__stack_ptr),y
 5943  71C2     18          			clc
 5944  71C3     69 0D       			adc	#13
 5945  71C5     85 20       			sta	__oper1
 5946  71C7     A9 00       			lda	#0
 5947  71C9     85 21       			sta	__oper1+1
 5948  71CB     18          			clc
 5949  71CC     A5 20       			lda	__oper1
 5950  71CE     69 34       			adc	#.low._GameMTVictory
 5951  71D0     85 20       			sta	__oper1
 5952  71D2     A5 21       			lda	__oper1+1
 5953  71D4     69 AD       			adc	#.high._GameMTVictory
 5954  71D6     85 21       			sta	__oper1+1
 5955  71D8     A0 00       			ldy	#0
 5956  71DA     B1 20       			lda	(__oper1),y
 5957  71DC     A0 26       			ldy	#+0+?LSC7
 5958  71DE     91 28       			sta	(__stack_ptr),y
 5959  71E0     A9 0D       			lda	#13
 5960  71E2     A0 24       			ldy	#-2+?LSC7
 5961  71E4     18          			clc
 5962  71E5     71 28       			adc	(__stack_ptr),y
 5963  71E7     A0 25       			ldy	#-1+?LSC7
 5964  71E9     18          			clc
 5965  71EA     71 28       			adc	(__stack_ptr),y
 5966  71EC     85 20       			sta	__oper1
 5967  71EE     A9 00       			lda	#0
 5968  71F0     85 21       			sta	__oper1+1
 5969  71F2     18          			clc
 5970  71F3     A5 28       			lda	__stack_ptr
 5971  71F5     69 03       			adc	#.low.-35+?LSC7
  Tue Jan 13 23:03:19 2026                                                                                               Page  106




 5972  71F7     AA          			tax
 5973  71F8     A5 29       			lda	__stack_ptr+1
 5974  71FA     69 00       			adc	#.high.-35+?LSC7
 5975  71FC     A8          			tay
 5976  71FD     18          			clc
 5977  71FE     8A          			txa
 5978  71FF     65 20       			adc	__oper1
 5979  7201     85 20       			sta	__oper1
 5980  7203     98          			tya
 5981  7204     65 21       			adc	__oper1+1
 5982  7206     85 21       			sta	__oper1+1
 5983  7208     A5 20       			lda	__oper1
 5984  720A     85 23       			sta	__oper2
 5985  720C     A5 21       			lda	__oper1+1
 5986  720E     85 24       			sta	__oper2+1
 5987  7210     A0 26       			ldy	#+0+?LSC7
 5988  7212     B1 28       			lda	(__stack_ptr),y
 5989  7214     A0 00       			ldy	#0
 5990  7216     91 23       			sta	(__oper2),y
 5991                     			.c_end	03069h,423
 5992                     	;;
 5993                     	;	
 5994                     			.for_bot  1,423
 5995  7218     4C B2 71    			jmp	?FLA52
 5996         3911 721B   	?BOL52:		.equal	$
 5997                     	;(GameMTMonData[number][4]>=10)
 5998                     	;	
 5999                     			.if_top	0306dh,?BOL53,1,424
 6000  721B     A9 05       			lda	#.low.5
 6001  721D     85 23       			sta	__oper2
 6002  721F     A9 00       			lda	#.high.5
 6003  7221     85 24       			sta	__oper2+1
 6004  7223     A0 2A       			ldy	#+0+?LSC7+?TSC7
 6005  7225     B1 28       			lda	(__stack_ptr),y
 6006  7227     85 20       			sta	__oper1
 6007  7229     A9 00       			lda	#0
 6008  722B     85 21       			sta	__oper1+1
 6009  722D     20 AF D6    			jsr	__mult_int
 6010  7230     06 20       			asl	__oper1
 6011  7232     26 21       			rol	__oper1+1
 6012  7234     18          			clc
 6013  7235     A5 20       			lda	__oper1
 6014  7237     69 CC       			adc	#.low._GameMTMonData
 6015  7239     85 20       			sta	__oper1
 6016  723B     A5 21       			lda	__oper1+1
 6017  723D     69 B2       			adc	#.high._GameMTMonData
 6018  723F     85 21       			sta	__oper1+1
 6019  7241     A0 26       			ldy	#+0+?LSC7
 6020  7243     A5 20       			lda	__oper1
 6021  7245     91 28       			sta	(__stack_ptr),y
 6022  7247     C8          			iny
 6023  7248     A5 21       			lda	__oper1+1
 6024  724A     91 28       			sta	(__stack_ptr),y
 6025  724C     A0 26       			ldy	#+0+?LSC7
 6026  724E     B1 28       			lda	(__stack_ptr),y
 6027  7250     AA          			tax
 6028  7251     C8          			iny
  Tue Jan 13 23:03:19 2026                                                                                               Page  107




 6029  7252     B1 28       			lda	(__stack_ptr),y
 6030  7254     85 27       			sta	__addr_reg+1
 6031  7256     86 26       			stx	__addr_reg
 6032  7258     A0 08       			ldy	#8
 6033  725A     B1 26       			lda	(__addr_reg),y
 6034  725C     AA          			tax
 6035  725D     C8          			iny
 6036  725E     B1 26       			lda	(__addr_reg),y
 6037  7260     85 21       			sta	__oper1+1
 6038  7262     86 20       			stx	__oper1
 6039  7264     A9 0A       			lda	#.low.10
 6040  7266     85 23       			sta	__oper2
 6041  7268     A9 00       			lda	#.high.10
 6042  726A     85 24       			sta	__oper2+1
 6043  726C     20 40 D3    			jsr	__cmp_int
 6044  726F     B0 03       			bcs	+3
 6045  7271     4C F2 75    			jmp	?BOL53
 6046         3217 7274   	?PLC39:		.equal	$
 6047                     			.c_end	0308eh,425
 6048                     	;(GameMTMonData[number][4]>=100)
 6049                     	;		
 6050                     			.if_top	03095h,?BOL54,2,426
 6051  7274     A9 05       			lda	#.low.5
 6052  7276     85 23       			sta	__oper2
 6053  7278     A9 00       			lda	#.high.5
 6054  727A     85 24       			sta	__oper2+1
 6055  727C     A0 2A       			ldy	#+0+?LSC7+?TSC7
 6056  727E     B1 28       			lda	(__stack_ptr),y
 6057  7280     85 20       			sta	__oper1
 6058  7282     A9 00       			lda	#0
 6059  7284     85 21       			sta	__oper1+1
 6060  7286     20 AF D6    			jsr	__mult_int
 6061  7289     06 20       			asl	__oper1
 6062  728B     26 21       			rol	__oper1+1
 6063  728D     18          			clc
 6064  728E     A5 20       			lda	__oper1
 6065  7290     69 CC       			adc	#.low._GameMTMonData
 6066  7292     85 20       			sta	__oper1
 6067  7294     A5 21       			lda	__oper1+1
 6068  7296     69 B2       			adc	#.high._GameMTMonData
 6069  7298     85 21       			sta	__oper1+1
 6070  729A     A0 26       			ldy	#+0+?LSC7
 6071  729C     A5 20       			lda	__oper1
 6072  729E     91 28       			sta	(__stack_ptr),y
 6073  72A0     C8          			iny
 6074  72A1     A5 21       			lda	__oper1+1
 6075  72A3     91 28       			sta	(__stack_ptr),y
 6076  72A5     A0 26       			ldy	#+0+?LSC7
 6077  72A7     B1 28       			lda	(__stack_ptr),y
 6078  72A9     AA          			tax
 6079  72AA     C8          			iny
 6080  72AB     B1 28       			lda	(__stack_ptr),y
 6081  72AD     85 27       			sta	__addr_reg+1
 6082  72AF     86 26       			stx	__addr_reg
 6083  72B1     A0 08       			ldy	#8
 6084  72B3     B1 26       			lda	(__addr_reg),y
 6085  72B5     AA          			tax
  Tue Jan 13 23:03:19 2026                                                                                               Page  108




 6086  72B6     C8          			iny
 6087  72B7     B1 26       			lda	(__addr_reg),y
 6088  72B9     85 21       			sta	__oper1+1
 6089  72BB     86 20       			stx	__oper1
 6090  72BD     A9 64       			lda	#.low.100
 6091  72BF     85 23       			sta	__oper2
 6092  72C1     A9 00       			lda	#.high.100
 6093  72C3     85 24       			sta	__oper2+1
 6094  72C5     20 40 D3    			jsr	__cmp_int
 6095  72C8     B0 03       			bcs	+3
 6096  72CA     4C B5 74    			jmp	?BOL54
 6097         4223 72CD   	?PLC40:		.equal	$
 6098                     			.c_end	030b7h,427
 6099                     	;info[22+p]='0'+GameMTMonData[number][4]/10-GameMTMonData[number][4]/100*10
 6100                     			.c_start  030c0h,428
 6101  72CD     A9 05       			lda	#.low.5
 6102  72CF     85 23       			sta	__oper2
 6103  72D1     A9 00       			lda	#.high.5
 6104  72D3     85 24       			sta	__oper2+1
 6105  72D5     A0 2A       			ldy	#+0+?LSC7+?TSC7
 6106  72D7     B1 28       			lda	(__stack_ptr),y
 6107  72D9     85 20       			sta	__oper1
 6108  72DB     A9 00       			lda	#0
 6109  72DD     85 21       			sta	__oper1+1
 6110  72DF     20 AF D6    			jsr	__mult_int
 6111  72E2     06 20       			asl	__oper1
 6112  72E4     26 21       			rol	__oper1+1
 6113  72E6     18          			clc
 6114  72E7     A5 20       			lda	__oper1
 6115  72E9     69 CC       			adc	#.low._GameMTMonData
 6116  72EB     85 20       			sta	__oper1
 6117  72ED     A5 21       			lda	__oper1+1
 6118  72EF     69 B2       			adc	#.high._GameMTMonData
 6119  72F1     85 21       			sta	__oper1+1
 6120  72F3     A0 26       			ldy	#+0+?LSC7
 6121  72F5     A5 20       			lda	__oper1
 6122  72F7     91 28       			sta	(__stack_ptr),y
 6123  72F9     C8          			iny
 6124  72FA     A5 21       			lda	__oper1+1
 6125  72FC     91 28       			sta	(__stack_ptr),y
 6126  72FE     A0 26       			ldy	#+0+?LSC7
 6127  7300     B1 28       			lda	(__stack_ptr),y
 6128  7302     AA          			tax
 6129  7303     C8          			iny
 6130  7304     B1 28       			lda	(__stack_ptr),y
 6131  7306     85 27       			sta	__addr_reg+1
 6132  7308     86 26       			stx	__addr_reg
 6133  730A     A0 08       			ldy	#8
 6134  730C     B1 26       			lda	(__addr_reg),y
 6135  730E     AA          			tax
 6136  730F     C8          			iny
 6137  7310     B1 26       			lda	(__addr_reg),y
 6138  7312     85 21       			sta	__oper1+1
 6139  7314     86 20       			stx	__oper1
 6140  7316     A9 0A       			lda	#.low.10
 6141  7318     85 23       			sta	__oper2
 6142  731A     A9 00       			lda	#.high.10
  Tue Jan 13 23:03:19 2026                                                                                               Page  109




 6143  731C     85 24       			sta	__oper2+1
 6144  731E     20 80 DC    			jsr	__uns_div_int
 6145  7321     A5 20       			lda	__oper1
 6146  7323     18          			clc
 6147  7324     69 30       			adc	#.low.48
 6148  7326     85 20       			sta	__oper1
 6149  7328     A5 21       			lda	__oper1+1
 6150  732A     69 00       			adc	#.high.48
 6151  732C     85 21       			sta	__oper1+1
 6152  732E     A0 26       			ldy	#+0+?LSC7
 6153  7330     A5 20       			lda	__oper1
 6154  7332     91 28       			sta	(__stack_ptr),y
 6155  7334     C8          			iny
 6156  7335     A5 21       			lda	__oper1+1
 6157  7337     91 28       			sta	(__stack_ptr),y
 6158  7339     A9 05       			lda	#.low.5
 6159  733B     85 23       			sta	__oper2
 6160  733D     A9 00       			lda	#.high.5
 6161  733F     85 24       			sta	__oper2+1
 6162  7341     A0 2A       			ldy	#+0+?LSC7+?TSC7
 6163  7343     B1 28       			lda	(__stack_ptr),y
 6164  7345     85 20       			sta	__oper1
 6165  7347     A9 00       			lda	#0
 6166  7349     85 21       			sta	__oper1+1
 6167  734B     20 AF D6    			jsr	__mult_int
 6168  734E     06 20       			asl	__oper1
 6169  7350     26 21       			rol	__oper1+1
 6170  7352     18          			clc
 6171  7353     A5 20       			lda	__oper1
 6172  7355     69 CC       			adc	#.low._GameMTMonData
 6173  7357     85 20       			sta	__oper1
 6174  7359     A5 21       			lda	__oper1+1
 6175  735B     69 B2       			adc	#.high._GameMTMonData
 6176  735D     85 21       			sta	__oper1+1
 6177  735F     A0 28       			ldy	#+2+?LSC7
 6178  7361     A5 20       			lda	__oper1
 6179  7363     91 28       			sta	(__stack_ptr),y
 6180  7365     C8          			iny
 6181  7366     A5 21       			lda	__oper1+1
 6182  7368     91 28       			sta	(__stack_ptr),y
 6183  736A     A0 28       			ldy	#+2+?LSC7
 6184  736C     B1 28       			lda	(__stack_ptr),y
 6185  736E     AA          			tax
 6186  736F     C8          			iny
 6187  7370     B1 28       			lda	(__stack_ptr),y
 6188  7372     85 27       			sta	__addr_reg+1
 6189  7374     86 26       			stx	__addr_reg
 6190  7376     A0 08       			ldy	#8
 6191  7378     B1 26       			lda	(__addr_reg),y
 6192  737A     AA          			tax
 6193  737B     C8          			iny
 6194  737C     B1 26       			lda	(__addr_reg),y
 6195  737E     85 21       			sta	__oper1+1
 6196  7380     86 20       			stx	__oper1
 6197  7382     A9 64       			lda	#.low.100
 6198  7384     85 23       			sta	__oper2
 6199  7386     A9 00       			lda	#.high.100
  Tue Jan 13 23:03:19 2026                                                                                               Page  110




 6200  7388     85 24       			sta	__oper2+1
 6201  738A     20 80 DC    			jsr	__uns_div_int
 6202  738D     A9 0A       			lda	#.low.10
 6203  738F     85 23       			sta	__oper2
 6204  7391     A9 00       			lda	#.high.10
 6205  7393     85 24       			sta	__oper2+1
 6206  7395     20 F4 DC    			jsr	__uns_mult_int
 6207  7398     A5 20       			lda	__oper1
 6208  739A     85 23       			sta	__oper2
 6209  739C     A5 21       			lda	__oper1+1
 6210  739E     85 24       			sta	__oper2+1
 6211  73A0     A0 26       			ldy	#+0+?LSC7
 6212  73A2     B1 28       			lda	(__stack_ptr),y
 6213  73A4     85 20       			sta	__oper1
 6214  73A6     C8          			iny
 6215  73A7     B1 28       			lda	(__stack_ptr),y
 6216  73A9     85 21       			sta	__oper1+1
 6217  73AB     38          			sec
 6218  73AC     A5 20       			lda	__oper1
 6219  73AE     E5 23       			sbc	__oper2
 6220  73B0     85 20       			sta	__oper1
 6221  73B2     A5 21       			lda	__oper1+1
 6222  73B4     E5 24       			sbc	__oper2+1
 6223  73B6     85 21       			sta	__oper1+1
 6224  73B8     A0 26       			ldy	#+0+?LSC7
 6225  73BA     A5 20       			lda	__oper1
 6226  73BC     91 28       			sta	(__stack_ptr),y
 6227  73BE     C8          			iny
 6228  73BF     A5 21       			lda	__oper1+1
 6229  73C1     91 28       			sta	(__stack_ptr),y
 6230  73C3     A9 16       			lda	#22
 6231  73C5     A0 24       			ldy	#-2+?LSC7
 6232  73C7     18          			clc
 6233  73C8     71 28       			adc	(__stack_ptr),y
 6234  73CA     85 20       			sta	__oper1
 6235  73CC     A9 00       			lda	#0
 6236  73CE     85 21       			sta	__oper1+1
 6237  73D0     18          			clc
 6238  73D1     A5 28       			lda	__stack_ptr
 6239  73D3     69 03       			adc	#.low.-35+?LSC7
 6240  73D5     AA          			tax
 6241  73D6     A5 29       			lda	__stack_ptr+1
 6242  73D8     69 00       			adc	#.high.-35+?LSC7
 6243  73DA     A8          			tay
 6244  73DB     18          			clc
 6245  73DC     8A          			txa
 6246  73DD     65 20       			adc	__oper1
 6247  73DF     85 20       			sta	__oper1
 6248  73E1     98          			tya
 6249  73E2     65 21       			adc	__oper1+1
 6250  73E4     85 21       			sta	__oper1+1
 6251  73E6     A5 20       			lda	__oper1
 6252  73E8     85 23       			sta	__oper2
 6253  73EA     A5 21       			lda	__oper1+1
 6254  73EC     85 24       			sta	__oper2+1
 6255  73EE     A0 26       			ldy	#+0+?LSC7
 6256  73F0     B1 28       			lda	(__stack_ptr),y
  Tue Jan 13 23:03:19 2026                                                                                               Page  111




 6257  73F2     85 20       			sta	__oper1
 6258  73F4     C8          			iny
 6259  73F5     B1 28       			lda	(__stack_ptr),y
 6260  73F7     85 21       			sta	__oper1+1
 6261  73F9     A5 20       			lda	__oper1
 6262  73FB     A0 00       			ldy	#0
 6263  73FD     91 23       			sta	(__oper2),y
 6264                     			.c_end	0310ah,428
 6265                     	;info[21+p]='0'+GameMTMonData[number][4]/100
 6266                     			.c_start  03110h,429
 6267  73FF     A9 05       			lda	#.low.5
 6268  7401     85 23       			sta	__oper2
 6269  7403     A9 00       			lda	#.high.5
 6270  7405     85 24       			sta	__oper2+1
 6271  7407     A0 2A       			ldy	#+0+?LSC7+?TSC7
 6272  7409     B1 28       			lda	(__stack_ptr),y
 6273  740B     85 20       			sta	__oper1
 6274  740D     A9 00       			lda	#0
 6275  740F     85 21       			sta	__oper1+1
 6276  7411     20 AF D6    			jsr	__mult_int
 6277  7414     06 20       			asl	__oper1
 6278  7416     26 21       			rol	__oper1+1
 6279  7418     18          			clc
 6280  7419     A5 20       			lda	__oper1
 6281  741B     69 CC       			adc	#.low._GameMTMonData
 6282  741D     85 20       			sta	__oper1
 6283  741F     A5 21       			lda	__oper1+1
 6284  7421     69 B2       			adc	#.high._GameMTMonData
 6285  7423     85 21       			sta	__oper1+1
 6286  7425     A0 26       			ldy	#+0+?LSC7
 6287  7427     A5 20       			lda	__oper1
 6288  7429     91 28       			sta	(__stack_ptr),y
 6289  742B     C8          			iny
 6290  742C     A5 21       			lda	__oper1+1
 6291  742E     91 28       			sta	(__stack_ptr),y
 6292  7430     A0 26       			ldy	#+0+?LSC7
 6293  7432     B1 28       			lda	(__stack_ptr),y
 6294  7434     AA          			tax
 6295  7435     C8          			iny
 6296  7436     B1 28       			lda	(__stack_ptr),y
 6297  7438     85 27       			sta	__addr_reg+1
 6298  743A     86 26       			stx	__addr_reg
 6299  743C     A0 08       			ldy	#8
 6300  743E     B1 26       			lda	(__addr_reg),y
 6301  7440     AA          			tax
 6302  7441     C8          			iny
 6303  7442     B1 26       			lda	(__addr_reg),y
 6304  7444     85 21       			sta	__oper1+1
 6305  7446     86 20       			stx	__oper1
 6306  7448     A9 64       			lda	#.low.100
 6307  744A     85 23       			sta	__oper2
 6308  744C     A9 00       			lda	#.high.100
 6309  744E     85 24       			sta	__oper2+1
 6310  7450     20 80 DC    			jsr	__uns_div_int
 6311  7453     A5 20       			lda	__oper1
 6312  7455     18          			clc
 6313  7456     69 30       			adc	#.low.48
  Tue Jan 13 23:03:19 2026                                                                                               Page  112




 6314  7458     85 20       			sta	__oper1
 6315  745A     A5 21       			lda	__oper1+1
 6316  745C     69 00       			adc	#.high.48
 6317  745E     85 21       			sta	__oper1+1
 6318  7460     A0 26       			ldy	#+0+?LSC7
 6319  7462     A5 20       			lda	__oper1
 6320  7464     91 28       			sta	(__stack_ptr),y
 6321  7466     C8          			iny
 6322  7467     A5 21       			lda	__oper1+1
 6323  7469     91 28       			sta	(__stack_ptr),y
 6324  746B     A9 15       			lda	#21
 6325  746D     A0 24       			ldy	#-2+?LSC7
 6326  746F     18          			clc
 6327  7470     71 28       			adc	(__stack_ptr),y
 6328  7472     85 20       			sta	__oper1
 6329  7474     A9 00       			lda	#0
 6330  7476     85 21       			sta	__oper1+1
 6331  7478     18          			clc
 6332  7479     A5 28       			lda	__stack_ptr
 6333  747B     69 03       			adc	#.low.-35+?LSC7
 6334  747D     AA          			tax
 6335  747E     A5 29       			lda	__stack_ptr+1
 6336  7480     69 00       			adc	#.high.-35+?LSC7
 6337  7482     A8          			tay
 6338  7483     18          			clc
 6339  7484     8A          			txa
 6340  7485     65 20       			adc	__oper1
 6341  7487     85 20       			sta	__oper1
 6342  7489     98          			tya
 6343  748A     65 21       			adc	__oper1+1
 6344  748C     85 21       			sta	__oper1+1
 6345  748E     A5 20       			lda	__oper1
 6346  7490     85 23       			sta	__oper2
 6347  7492     A5 21       			lda	__oper1+1
 6348  7494     85 24       			sta	__oper2+1
 6349  7496     A0 26       			ldy	#+0+?LSC7
 6350  7498     B1 28       			lda	(__stack_ptr),y
 6351  749A     85 20       			sta	__oper1
 6352  749C     C8          			iny
 6353  749D     B1 28       			lda	(__stack_ptr),y
 6354  749F     85 21       			sta	__oper1+1
 6355  74A1     A5 20       			lda	__oper1
 6356  74A3     A0 00       			ldy	#0
 6357  74A5     91 23       			sta	(__oper2),y
 6358                     			.c_end	0313bh,429
 6359                     	;p+=2
 6360                     			.c_start  03141h,430
 6361  74A7     A0 24       			ldy	#-2+?LSC7
 6362  74A9     B1 28       			lda	(__stack_ptr),y
 6363  74AB     18          			clc
 6364  74AC     69 02       			adc	#2
 6365  74AE     A0 24       			ldy	#-2+?LSC7
 6366  74B0     91 28       			sta	(__stack_ptr),y
 6367                     			.c_end	03145h,430
 6368                     	;
 6369                     	;else 
 6370                     	;			
  Tue Jan 13 23:03:19 2026                                                                                               Page  113




 6371  74B2     4C F2 75    			jmp	?EOI54
 6372                     			.if_else  ?EOI54,2,433
 6373         3322 74B5   	?BOL54:		.equal	$
 6374                     	;info[21+p]='0'+GameMTMonData[number][4]/10-GameMTMonData[number][4]/100*10
 6375                     			.c_start  03161h,434
 6376  74B5     A9 05       			lda	#.low.5
 6377  74B7     85 23       			sta	__oper2
 6378  74B9     A9 00       			lda	#.high.5
 6379  74BB     85 24       			sta	__oper2+1
 6380  74BD     A0 2A       			ldy	#+0+?LSC7+?TSC7
 6381  74BF     B1 28       			lda	(__stack_ptr),y
 6382  74C1     85 20       			sta	__oper1
 6383  74C3     A9 00       			lda	#0
 6384  74C5     85 21       			sta	__oper1+1
 6385  74C7     20 AF D6    			jsr	__mult_int
 6386  74CA     06 20       			asl	__oper1
 6387  74CC     26 21       			rol	__oper1+1
 6388  74CE     18          			clc
 6389  74CF     A5 20       			lda	__oper1
 6390  74D1     69 CC       			adc	#.low._GameMTMonData
 6391  74D3     85 20       			sta	__oper1
 6392  74D5     A5 21       			lda	__oper1+1
 6393  74D7     69 B2       			adc	#.high._GameMTMonData
 6394  74D9     85 21       			sta	__oper1+1
 6395  74DB     A0 26       			ldy	#+0+?LSC7
 6396  74DD     A5 20       			lda	__oper1
 6397  74DF     91 28       			sta	(__stack_ptr),y
 6398  74E1     C8          			iny
 6399  74E2     A5 21       			lda	__oper1+1
 6400  74E4     91 28       			sta	(__stack_ptr),y
 6401  74E6     A0 26       			ldy	#+0+?LSC7
 6402  74E8     B1 28       			lda	(__stack_ptr),y
 6403  74EA     AA          			tax
 6404  74EB     C8          			iny
 6405  74EC     B1 28       			lda	(__stack_ptr),y
 6406  74EE     85 27       			sta	__addr_reg+1
 6407  74F0     86 26       			stx	__addr_reg
 6408  74F2     A0 08       			ldy	#8
 6409  74F4     B1 26       			lda	(__addr_reg),y
 6410  74F6     AA          			tax
 6411  74F7     C8          			iny
 6412  74F8     B1 26       			lda	(__addr_reg),y
 6413  74FA     85 21       			sta	__oper1+1
 6414  74FC     86 20       			stx	__oper1
 6415  74FE     A9 0A       			lda	#.low.10
 6416  7500     85 23       			sta	__oper2
 6417  7502     A9 00       			lda	#.high.10
 6418  7504     85 24       			sta	__oper2+1
 6419  7506     20 80 DC    			jsr	__uns_div_int
 6420  7509     A5 20       			lda	__oper1
 6421  750B     18          			clc
 6422  750C     69 30       			adc	#.low.48
 6423  750E     85 20       			sta	__oper1
 6424  7510     A5 21       			lda	__oper1+1
 6425  7512     69 00       			adc	#.high.48
 6426  7514     85 21       			sta	__oper1+1
 6427  7516     A0 26       			ldy	#+0+?LSC7
  Tue Jan 13 23:03:19 2026                                                                                               Page  114




 6428  7518     A5 20       			lda	__oper1
 6429  751A     91 28       			sta	(__stack_ptr),y
 6430  751C     C8          			iny
 6431  751D     A5 21       			lda	__oper1+1
 6432  751F     91 28       			sta	(__stack_ptr),y
 6433  7521     A9 05       			lda	#.low.5
 6434  7523     85 23       			sta	__oper2
 6435  7525     A9 00       			lda	#.high.5
 6436  7527     85 24       			sta	__oper2+1
 6437  7529     A0 2A       			ldy	#+0+?LSC7+?TSC7
 6438  752B     B1 28       			lda	(__stack_ptr),y
 6439  752D     85 20       			sta	__oper1
 6440  752F     A9 00       			lda	#0
 6441  7531     85 21       			sta	__oper1+1
 6442  7533     20 AF D6    			jsr	__mult_int
 6443  7536     06 20       			asl	__oper1
 6444  7538     26 21       			rol	__oper1+1
 6445  753A     18          			clc
 6446  753B     A5 20       			lda	__oper1
 6447  753D     69 CC       			adc	#.low._GameMTMonData
 6448  753F     85 20       			sta	__oper1
 6449  7541     A5 21       			lda	__oper1+1
 6450  7543     69 B2       			adc	#.high._GameMTMonData
 6451  7545     85 21       			sta	__oper1+1
 6452  7547     A0 28       			ldy	#+2+?LSC7
 6453  7549     A5 20       			lda	__oper1
 6454  754B     91 28       			sta	(__stack_ptr),y
 6455  754D     C8          			iny
 6456  754E     A5 21       			lda	__oper1+1
 6457  7550     91 28       			sta	(__stack_ptr),y
 6458  7552     A0 28       			ldy	#+2+?LSC7
 6459  7554     B1 28       			lda	(__stack_ptr),y
 6460  7556     AA          			tax
 6461  7557     C8          			iny
 6462  7558     B1 28       			lda	(__stack_ptr),y
 6463  755A     85 27       			sta	__addr_reg+1
 6464  755C     86 26       			stx	__addr_reg
 6465  755E     A0 08       			ldy	#8
 6466  7560     B1 26       			lda	(__addr_reg),y
 6467  7562     AA          			tax
 6468  7563     C8          			iny
 6469  7564     B1 26       			lda	(__addr_reg),y
 6470  7566     85 21       			sta	__oper1+1
 6471  7568     86 20       			stx	__oper1
 6472  756A     A9 64       			lda	#.low.100
 6473  756C     85 23       			sta	__oper2
 6474  756E     A9 00       			lda	#.high.100
 6475  7570     85 24       			sta	__oper2+1
 6476  7572     20 80 DC    			jsr	__uns_div_int
 6477  7575     A9 0A       			lda	#.low.10
 6478  7577     85 23       			sta	__oper2
 6479  7579     A9 00       			lda	#.high.10
 6480  757B     85 24       			sta	__oper2+1
 6481  757D     20 F4 DC    			jsr	__uns_mult_int
 6482  7580     A5 20       			lda	__oper1
 6483  7582     85 23       			sta	__oper2
 6484  7584     A5 21       			lda	__oper1+1
  Tue Jan 13 23:03:19 2026                                                                                               Page  115




 6485  7586     85 24       			sta	__oper2+1
 6486  7588     A0 26       			ldy	#+0+?LSC7
 6487  758A     B1 28       			lda	(__stack_ptr),y
 6488  758C     85 20       			sta	__oper1
 6489  758E     C8          			iny
 6490  758F     B1 28       			lda	(__stack_ptr),y
 6491  7591     85 21       			sta	__oper1+1
 6492  7593     38          			sec
 6493  7594     A5 20       			lda	__oper1
 6494  7596     E5 23       			sbc	__oper2
 6495  7598     85 20       			sta	__oper1
 6496  759A     A5 21       			lda	__oper1+1
 6497  759C     E5 24       			sbc	__oper2+1
 6498  759E     85 21       			sta	__oper1+1
 6499  75A0     A0 26       			ldy	#+0+?LSC7
 6500  75A2     A5 20       			lda	__oper1
 6501  75A4     91 28       			sta	(__stack_ptr),y
 6502  75A6     C8          			iny
 6503  75A7     A5 21       			lda	__oper1+1
 6504  75A9     91 28       			sta	(__stack_ptr),y
 6505  75AB     A9 15       			lda	#21
 6506  75AD     A0 24       			ldy	#-2+?LSC7
 6507  75AF     18          			clc
 6508  75B0     71 28       			adc	(__stack_ptr),y
 6509  75B2     85 20       			sta	__oper1
 6510  75B4     A9 00       			lda	#0
 6511  75B6     85 21       			sta	__oper1+1
 6512  75B8     18          			clc
 6513  75B9     A5 28       			lda	__stack_ptr
 6514  75BB     69 03       			adc	#.low.-35+?LSC7
 6515  75BD     AA          			tax
 6516  75BE     A5 29       			lda	__stack_ptr+1
 6517  75C0     69 00       			adc	#.high.-35+?LSC7
 6518  75C2     A8          			tay
 6519  75C3     18          			clc
 6520  75C4     8A          			txa
 6521  75C5     65 20       			adc	__oper1
 6522  75C7     85 20       			sta	__oper1
 6523  75C9     98          			tya
 6524  75CA     65 21       			adc	__oper1+1
 6525  75CC     85 21       			sta	__oper1+1
 6526  75CE     A5 20       			lda	__oper1
 6527  75D0     85 23       			sta	__oper2
 6528  75D2     A5 21       			lda	__oper1+1
 6529  75D4     85 24       			sta	__oper2+1
 6530  75D6     A0 26       			ldy	#+0+?LSC7
 6531  75D8     B1 28       			lda	(__stack_ptr),y
 6532  75DA     85 20       			sta	__oper1
 6533  75DC     C8          			iny
 6534  75DD     B1 28       			lda	(__stack_ptr),y
 6535  75DF     85 21       			sta	__oper1+1
 6536  75E1     A5 20       			lda	__oper1
 6537  75E3     A0 00       			ldy	#0
 6538  75E5     91 23       			sta	(__oper2),y
 6539                     			.c_end	031abh,434
 6540                     	;p+=1
 6541                     			.c_start  031b2h,435
  Tue Jan 13 23:03:19 2026                                                                                               Page  116




 6542  75E7     A0 24       			ldy	#-2+?LSC7
 6543  75E9     B1 28       			lda	(__stack_ptr),y
 6544  75EB     18          			clc
 6545  75EC     69 01       			adc	#1
 6546  75EE     A0 24       			ldy	#-2+?LSC7
 6547  75F0     91 28       			sta	(__stack_ptr),y
 6548                     			.c_end	031b6h,435
 6549                     	;
 6550         3126 75F2   	?EOI54:		.equal	$
 6551                     	;
 6552                     	;info[21+p]='0'+GameMTMonData[number][4]-GameMTMonData[number][4]/10*10
 6553         3206 75F2   	?BOL53:		.equal	$
 6554                     			.c_start  031c4h,438
 6555  75F2     A9 05       			lda	#.low.5
 6556  75F4     85 23       			sta	__oper2
 6557  75F6     A9 00       			lda	#.high.5
 6558  75F8     85 24       			sta	__oper2+1
 6559  75FA     A0 2A       			ldy	#+0+?LSC7+?TSC7
 6560  75FC     B1 28       			lda	(__stack_ptr),y
 6561  75FE     85 20       			sta	__oper1
 6562  7600     A9 00       			lda	#0
 6563  7602     85 21       			sta	__oper1+1
 6564  7604     20 AF D6    			jsr	__mult_int
 6565  7607     06 20       			asl	__oper1
 6566  7609     26 21       			rol	__oper1+1
 6567  760B     18          			clc
 6568  760C     A5 20       			lda	__oper1
 6569  760E     69 CC       			adc	#.low._GameMTMonData
 6570  7610     85 20       			sta	__oper1
 6571  7612     A5 21       			lda	__oper1+1
 6572  7614     69 B2       			adc	#.high._GameMTMonData
 6573  7616     85 21       			sta	__oper1+1
 6574  7618     A0 26       			ldy	#+0+?LSC7
 6575  761A     A5 20       			lda	__oper1
 6576  761C     91 28       			sta	(__stack_ptr),y
 6577  761E     C8          			iny
 6578  761F     A5 21       			lda	__oper1+1
 6579  7621     91 28       			sta	(__stack_ptr),y
 6580  7623     A0 26       			ldy	#+0+?LSC7
 6581  7625     B1 28       			lda	(__stack_ptr),y
 6582  7627     AA          			tax
 6583  7628     C8          			iny
 6584  7629     B1 28       			lda	(__stack_ptr),y
 6585  762B     85 27       			sta	__addr_reg+1
 6586  762D     86 26       			stx	__addr_reg
 6587  762F     A0 08       			ldy	#8
 6588  7631     B1 26       			lda	(__addr_reg),y
 6589  7633     AA          			tax
 6590  7634     C8          			iny
 6591  7635     B1 26       			lda	(__addr_reg),y
 6592  7637     85 21       			sta	__oper1+1
 6593  7639     86 20       			stx	__oper1
 6594  763B     A5 20       			lda	__oper1
 6595  763D     18          			clc
 6596  763E     69 30       			adc	#.low.48
 6597  7640     85 20       			sta	__oper1
 6598  7642     A5 21       			lda	__oper1+1
  Tue Jan 13 23:03:19 2026                                                                                               Page  117




 6599  7644     69 00       			adc	#.high.48
 6600  7646     85 21       			sta	__oper1+1
 6601  7648     A0 26       			ldy	#+0+?LSC7
 6602  764A     A5 20       			lda	__oper1
 6603  764C     91 28       			sta	(__stack_ptr),y
 6604  764E     C8          			iny
 6605  764F     A5 21       			lda	__oper1+1
 6606  7651     91 28       			sta	(__stack_ptr),y
 6607  7653     A9 05       			lda	#.low.5
 6608  7655     85 23       			sta	__oper2
 6609  7657     A9 00       			lda	#.high.5
 6610  7659     85 24       			sta	__oper2+1
 6611  765B     A0 2A       			ldy	#+0+?LSC7+?TSC7
 6612  765D     B1 28       			lda	(__stack_ptr),y
 6613  765F     85 20       			sta	__oper1
 6614  7661     A9 00       			lda	#0
 6615  7663     85 21       			sta	__oper1+1
 6616  7665     20 AF D6    			jsr	__mult_int
 6617  7668     06 20       			asl	__oper1
 6618  766A     26 21       			rol	__oper1+1
 6619  766C     18          			clc
 6620  766D     A5 20       			lda	__oper1
 6621  766F     69 CC       			adc	#.low._GameMTMonData
 6622  7671     85 20       			sta	__oper1
 6623  7673     A5 21       			lda	__oper1+1
 6624  7675     69 B2       			adc	#.high._GameMTMonData
 6625  7677     85 21       			sta	__oper1+1
 6626  7679     A0 28       			ldy	#+2+?LSC7
 6627  767B     A5 20       			lda	__oper1
 6628  767D     91 28       			sta	(__stack_ptr),y
 6629  767F     C8          			iny
 6630  7680     A5 21       			lda	__oper1+1
 6631  7682     91 28       			sta	(__stack_ptr),y
 6632  7684     A0 28       			ldy	#+2+?LSC7
 6633  7686     B1 28       			lda	(__stack_ptr),y
 6634  7688     AA          			tax
 6635  7689     C8          			iny
 6636  768A     B1 28       			lda	(__stack_ptr),y
 6637  768C     85 27       			sta	__addr_reg+1
 6638  768E     86 26       			stx	__addr_reg
 6639  7690     A0 08       			ldy	#8
 6640  7692     B1 26       			lda	(__addr_reg),y
 6641  7694     AA          			tax
 6642  7695     C8          			iny
 6643  7696     B1 26       			lda	(__addr_reg),y
 6644  7698     85 21       			sta	__oper1+1
 6645  769A     86 20       			stx	__oper1
 6646  769C     A9 0A       			lda	#.low.10
 6647  769E     85 23       			sta	__oper2
 6648  76A0     A9 00       			lda	#.high.10
 6649  76A2     85 24       			sta	__oper2+1
 6650  76A4     20 80 DC    			jsr	__uns_div_int
 6651  76A7     A9 0A       			lda	#.low.10
 6652  76A9     85 23       			sta	__oper2
 6653  76AB     A9 00       			lda	#.high.10
 6654  76AD     85 24       			sta	__oper2+1
 6655  76AF     20 F4 DC    			jsr	__uns_mult_int
  Tue Jan 13 23:03:19 2026                                                                                               Page  118




 6656  76B2     A5 20       			lda	__oper1
 6657  76B4     85 23       			sta	__oper2
 6658  76B6     A5 21       			lda	__oper1+1
 6659  76B8     85 24       			sta	__oper2+1
 6660  76BA     A0 26       			ldy	#+0+?LSC7
 6661  76BC     B1 28       			lda	(__stack_ptr),y
 6662  76BE     85 20       			sta	__oper1
 6663  76C0     C8          			iny
 6664  76C1     B1 28       			lda	(__stack_ptr),y
 6665  76C3     85 21       			sta	__oper1+1
 6666  76C5     38          			sec
 6667  76C6     A5 20       			lda	__oper1
 6668  76C8     E5 23       			sbc	__oper2
 6669  76CA     85 20       			sta	__oper1
 6670  76CC     A5 21       			lda	__oper1+1
 6671  76CE     E5 24       			sbc	__oper2+1
 6672  76D0     85 21       			sta	__oper1+1
 6673  76D2     A0 26       			ldy	#+0+?LSC7
 6674  76D4     A5 20       			lda	__oper1
 6675  76D6     91 28       			sta	(__stack_ptr),y
 6676  76D8     C8          			iny
 6677  76D9     A5 21       			lda	__oper1+1
 6678  76DB     91 28       			sta	(__stack_ptr),y
 6679  76DD     A9 15       			lda	#21
 6680  76DF     A0 24       			ldy	#-2+?LSC7
 6681  76E1     18          			clc
 6682  76E2     71 28       			adc	(__stack_ptr),y
 6683  76E4     85 20       			sta	__oper1
 6684  76E6     A9 00       			lda	#0
 6685  76E8     85 21       			sta	__oper1+1
 6686  76EA     18          			clc
 6687  76EB     A5 28       			lda	__stack_ptr
 6688  76ED     69 03       			adc	#.low.-35+?LSC7
 6689  76EF     AA          			tax
 6690  76F0     A5 29       			lda	__stack_ptr+1
 6691  76F2     69 00       			adc	#.high.-35+?LSC7
 6692  76F4     A8          			tay
 6693  76F5     18          			clc
 6694  76F6     8A          			txa
 6695  76F7     65 20       			adc	__oper1
 6696  76F9     85 20       			sta	__oper1
 6697  76FB     98          			tya
 6698  76FC     65 21       			adc	__oper1+1
 6699  76FE     85 21       			sta	__oper1+1
 6700  7700     A5 20       			lda	__oper1
 6701  7702     85 23       			sta	__oper2
 6702  7704     A5 21       			lda	__oper1+1
 6703  7706     85 24       			sta	__oper2+1
 6704  7708     A0 26       			ldy	#+0+?LSC7
 6705  770A     B1 28       			lda	(__stack_ptr),y
 6706  770C     85 20       			sta	__oper1
 6707  770E     C8          			iny
 6708  770F     B1 28       			lda	(__stack_ptr),y
 6709  7711     85 21       			sta	__oper1+1
 6710  7713     A5 20       			lda	__oper1
 6711  7715     A0 00       			ldy	#0
 6712  7717     91 23       			sta	(__oper2),y
  Tue Jan 13 23:03:19 2026                                                                                               Page  119




 6713                     			.c_end	0320ah,438
 6714                     	;i=0;
 6715                     			.c_start  0320eh,439
 6716  7719     A0 25       			ldy	#-1+?LSC7
 6717  771B     A9 00       			lda	#0
 6718  771D     91 28       			sta	(__stack_ptr),y
 6719                     			.c_end	03215h,439
 6720         4511 771F   	?FLC55:		.equal	$
 6721                     	;i<8;
 6722                     			.for_top  03216h,?BOL55,?FLB55,?FLA55,1,439
 6723  771F     A0 25       			ldy	#-1+?LSC7
 6724  7721     B1 28       			lda	(__stack_ptr),y
 6725  7723     38          			sec
 6726  7724     E9 08       			sbc	#8
 6727  7726     90 03       			bcc	+3
 6728  7728     4C 97 77    			jmp	?BOL55
 6729                     			.c_end	03219h,439
 6730  772B     4C 3A 77    			jmp	?FLB55
 6731         4312 772E   	?FLA55:		.equal	$
 6732                     	;i++)
 6733                     			.for_adj  0321ah,439
 6734  772E     A0 25       			ldy	#-1+?LSC7
 6735  7730     B1 28       			lda	(__stack_ptr),y
 6736  7732     18          			clc
 6737  7733     69 01       			adc	#1
 6738  7735     91 28       			sta	(__stack_ptr),y
 6739                     			.c_end	03219h,439
 6740  7737     4C 1F 77    			jmp	?FLC55
 6741         3813 773A   	?FLB55:		.equal	$
 6742                     	;info[22+p+i]=GameMTVictory[i+21]
 6743                     			.c_start  0321ah,439
 6744  773A     A0 25       			ldy	#-1+?LSC7
 6745  773C     B1 28       			lda	(__stack_ptr),y
 6746  773E     18          			clc
 6747  773F     69 15       			adc	#21
 6748  7741     85 20       			sta	__oper1
 6749  7743     A9 00       			lda	#0
 6750  7745     85 21       			sta	__oper1+1
 6751  7747     18          			clc
 6752  7748     A5 20       			lda	__oper1
 6753  774A     69 34       			adc	#.low._GameMTVictory
 6754  774C     85 20       			sta	__oper1
 6755  774E     A5 21       			lda	__oper1+1
 6756  7750     69 AD       			adc	#.high._GameMTVictory
 6757  7752     85 21       			sta	__oper1+1
 6758  7754     A0 00       			ldy	#0
 6759  7756     B1 20       			lda	(__oper1),y
 6760  7758     A0 26       			ldy	#+0+?LSC7
 6761  775A     91 28       			sta	(__stack_ptr),y
 6762  775C     A9 16       			lda	#22
 6763  775E     A0 24       			ldy	#-2+?LSC7
 6764  7760     18          			clc
 6765  7761     71 28       			adc	(__stack_ptr),y
 6766  7763     A0 25       			ldy	#-1+?LSC7
 6767  7765     18          			clc
 6768  7766     71 28       			adc	(__stack_ptr),y
 6769  7768     85 20       			sta	__oper1
  Tue Jan 13 23:03:19 2026                                                                                               Page  120




 6770  776A     A9 00       			lda	#0
 6771  776C     85 21       			sta	__oper1+1
 6772  776E     18          			clc
 6773  776F     A5 28       			lda	__stack_ptr
 6774  7771     69 03       			adc	#.low.-35+?LSC7
 6775  7773     AA          			tax
 6776  7774     A5 29       			lda	__stack_ptr+1
 6777  7776     69 00       			adc	#.high.-35+?LSC7
 6778  7778     A8          			tay
 6779  7779     18          			clc
 6780  777A     8A          			txa
 6781  777B     65 20       			adc	__oper1
 6782  777D     85 20       			sta	__oper1
 6783  777F     98          			tya
 6784  7780     65 21       			adc	__oper1+1
 6785  7782     85 21       			sta	__oper1+1
 6786  7784     A5 20       			lda	__oper1
 6787  7786     85 23       			sta	__oper2
 6788  7788     A5 21       			lda	__oper1+1
 6789  778A     85 24       			sta	__oper2+1
 6790  778C     A0 26       			ldy	#+0+?LSC7
 6791  778E     B1 28       			lda	(__stack_ptr),y
 6792  7790     A0 00       			ldy	#0
 6793  7792     91 23       			sta	(__oper2),y
 6794                     			.c_end	0323eh,439
 6795                     	;;
 6796                     	;	
 6797                     			.for_bot  1,439
 6798  7794     4C 2E 77    			jmp	?FLA55
 6799         3519 7797   	?BOL55:		.equal	$
 6800                     	;(GameMTMonData[number][2]>=g_GameMTHeroDamige)
 6801                     	;	
 6802                     			.if_top	03242h,?BOL56,1,440
 6803  7797     A9 05       			lda	#.low.5
 6804  7799     85 23       			sta	__oper2
 6805  779B     A9 00       			lda	#.high.5
 6806  779D     85 24       			sta	__oper2+1
 6807  779F     A0 2A       			ldy	#+0+?LSC7+?TSC7
 6808  77A1     B1 28       			lda	(__stack_ptr),y
 6809  77A3     85 20       			sta	__oper1
 6810  77A5     A9 00       			lda	#0
 6811  77A7     85 21       			sta	__oper1+1
 6812  77A9     20 AF D6    			jsr	__mult_int
 6813  77AC     06 20       			asl	__oper1
 6814  77AE     26 21       			rol	__oper1+1
 6815  77B0     18          			clc
 6816  77B1     A5 20       			lda	__oper1
 6817  77B3     69 CC       			adc	#.low._GameMTMonData
 6818  77B5     85 20       			sta	__oper1
 6819  77B7     A5 21       			lda	__oper1+1
 6820  77B9     69 B2       			adc	#.high._GameMTMonData
 6821  77BB     85 21       			sta	__oper1+1
 6822  77BD     A0 26       			ldy	#+0+?LSC7
 6823  77BF     A5 20       			lda	__oper1
 6824  77C1     91 28       			sta	(__stack_ptr),y
 6825  77C3     C8          			iny
 6826  77C4     A5 21       			lda	__oper1+1
  Tue Jan 13 23:03:19 2026                                                                                               Page  121




 6827  77C6     91 28       			sta	(__stack_ptr),y
 6828  77C8     A0 26       			ldy	#+0+?LSC7
 6829  77CA     B1 28       			lda	(__stack_ptr),y
 6830  77CC     AA          			tax
 6831  77CD     C8          			iny
 6832  77CE     B1 28       			lda	(__stack_ptr),y
 6833  77D0     85 27       			sta	__addr_reg+1
 6834  77D2     86 26       			stx	__addr_reg
 6835  77D4     A0 04       			ldy	#4
 6836  77D6     B1 26       			lda	(__addr_reg),y
 6837  77D8     AA          			tax
 6838  77D9     C8          			iny
 6839  77DA     B1 26       			lda	(__addr_reg),y
 6840  77DC     85 21       			sta	__oper1+1
 6841  77DE     86 20       			stx	__oper1
 6842  77E0     AD 9E 1F    			lda	_g_GameMTHeroDamige
 6843  77E3     85 23       			sta	__oper2
 6844  77E5     AD 9F 1F    			lda	_g_GameMTHeroDamige+1
 6845  77E8     85 24       			sta	__oper2+1
 6846  77EA     20 40 D3    			jsr	__cmp_int
 6847  77ED     B0 03       			bcs	+3
 6848  77EF     4C 2B 78    			jmp	?BOL56
 6849         4725 77F2   	?PLC41:		.equal	$
 6850                     			.c_end	03273h,441
 6851                     	;GameMTTalk(2,441,0)
 6852                     			.c_start  0327ah,442
 6853  77F2     A9 00       			lda	#0
 6854  77F4     20 AA DA    			jsr	__store_char_funct_arg
 6855  77F7     A9 B9       			lda	#.low.441
 6856  77F9     85 20       			sta	__oper1
 6857  77FB     A9 01       			lda	#.high.441
 6858  77FD     85 21       			sta	__oper1+1
 6859  77FF     20 CA DA    			jsr	__store_int_funct_arg
 6860  7802     A9 02       			lda	#2
 6861  7804     A2 09       			ldx	#.low.&GameMTTalk
 6862  7806     86 26       			stx	__addr_reg
 6863  7808     A2 90       			ldx	#.high.&GameMTTalk+1
 6864  780A     86 27       			stx	__addr_reg+1
 6865                     			.bf_call
 6866  780C     20 F6 D2    			jsr	__banked_function_call
 6867  780F     08          			php
 6868  7810     78          			sei
 6869  7811     18          			clc
 6870  7812     A5 28       			lda	__stack_ptr
 6871  7814     69 03       			adc	#.low.3
 6872  7816     85 28       			sta	__stack_ptr
 6873  7818     A5 29       			lda	__stack_ptr+1
 6874  781A     69 00       			adc	#.high.3
 6875  781C     85 29       			sta	__stack_ptr+1
 6876  781E     28          			plp
 6877                     			.c_end	0328dh,442
 6878                     	;g_GameMTMapY=temp
 6879                     			.c_start  03292h,443
 6880  781F     A0 02       			ldy	#-36+?LSC7
 6881  7821     B1 28       			lda	(__stack_ptr),y
 6882  7823     8D 0E 18    			sta	_g_GameMTMapY
 6883                     			.c_end	032a3h,443
  Tue Jan 13 23:03:19 2026                                                                                               Page  122




 6884                     	;return 0
 6885                     			.c_start  032a8h,444
 6886  7826     A9 00       			lda	#0
 6887  7828     4C 60 82    			jmp	?BOF7
 6888                     			.c_end	032b0h,444
 6889                     	;
 6890                     	;(GameMTMonData[number][1]>g_GameMTHeroDefence&&GameMTCountLose(number)>g_GameMTHeroLife)
 6891                     	;	
 6892         3912 782B   	?BOL56:		.equal	$
 6893                     			.if_top	032b8h,?BOL57,1,446
 6894  782B     A9 05       			lda	#.low.5
 6895  782D     85 23       			sta	__oper2
 6896  782F     A9 00       			lda	#.high.5
 6897  7831     85 24       			sta	__oper2+1
 6898  7833     A0 2A       			ldy	#+0+?LSC7+?TSC7
 6899  7835     B1 28       			lda	(__stack_ptr),y
 6900  7837     85 20       			sta	__oper1
 6901  7839     A9 00       			lda	#0
 6902  783B     85 21       			sta	__oper1+1
 6903  783D     20 AF D6    			jsr	__mult_int
 6904  7840     06 20       			asl	__oper1
 6905  7842     26 21       			rol	__oper1+1
 6906  7844     18          			clc
 6907  7845     A5 20       			lda	__oper1
 6908  7847     69 CC       			adc	#.low._GameMTMonData
 6909  7849     85 20       			sta	__oper1
 6910  784B     A5 21       			lda	__oper1+1
 6911  784D     69 B2       			adc	#.high._GameMTMonData
 6912  784F     85 21       			sta	__oper1+1
 6913  7851     A0 26       			ldy	#+0+?LSC7
 6914  7853     A5 20       			lda	__oper1
 6915  7855     91 28       			sta	(__stack_ptr),y
 6916  7857     C8          			iny
 6917  7858     A5 21       			lda	__oper1+1
 6918  785A     91 28       			sta	(__stack_ptr),y
 6919  785C     A0 26       			ldy	#+0+?LSC7
 6920  785E     B1 28       			lda	(__stack_ptr),y
 6921  7860     AA          			tax
 6922  7861     C8          			iny
 6923  7862     B1 28       			lda	(__stack_ptr),y
 6924  7864     85 27       			sta	__addr_reg+1
 6925  7866     86 26       			stx	__addr_reg
 6926  7868     A0 02       			ldy	#2
 6927  786A     B1 26       			lda	(__addr_reg),y
 6928  786C     AA          			tax
 6929  786D     C8          			iny
 6930  786E     B1 26       			lda	(__addr_reg),y
 6931  7870     85 21       			sta	__oper1+1
 6932  7872     86 20       			stx	__oper1
 6933  7874     AD A0 1F    			lda	_g_GameMTHeroDefence
 6934  7877     85 23       			sta	__oper2
 6935  7879     AD A1 1F    			lda	_g_GameMTHeroDefence+1
 6936  787C     85 24       			sta	__oper2+1
 6937  787E     20 40 D3    			jsr	__cmp_int
 6938  7881     B0 03       			bcs	+3
 6939  7883     4C E1 78    			jmp	?BOL57
 6940  7886     D0 03       			bne	+3
  Tue Jan 13 23:03:19 2026                                                                                               Page  123




 6941  7888     4C E1 78    			jmp	?BOL57
 6942         3918 788B   	?ACC7:		.equal	$
 6943  788B     A0 2A       			ldy	#+0+?LSC7+?TSC7
 6944  788D     B1 28       			lda	(__stack_ptr),y
 6945  788F     A2 27       			ldx	#.low.&GameMTCountLose
 6946  7891     86 26       			stx	__addr_reg
 6947  7893     A2 90       			ldx	#.high.&GameMTCountLose+1
 6948  7895     86 27       			stx	__addr_reg+1
 6949                     			.bf_call
 6950  7897     20 F6 D2    			jsr	__banked_function_call
 6951  789A     A9 AA       			lda	#.low._g_GameMTHeroLife
 6952  789C     85 23       			sta	__oper2
 6953  789E     A9 1F       			lda	#.high._g_GameMTHeroLife
 6954  78A0     85 24       			sta	__oper2+1
 6955  78A2     20 62 D3    			jsr	__cmp_long
 6956  78A5     B0 03       			bcs	+3
 6957  78A7     4C E1 78    			jmp	?BOL57
 6958  78AA     D0 03       			bne	+3
 6959  78AC     4C E1 78    			jmp	?BOL57
 6960         4421 78AF   	?PLC42:		.equal	$
 6961                     			.c_end	03313h,447
 6962                     	;GameMTTalk(2,443,0)
 6963                     			.c_start  0331ah,448
 6964  78AF     A9 00       			lda	#0
 6965  78B1     20 AA DA    			jsr	__store_char_funct_arg
 6966  78B4     A9 BB       			lda	#.low.443
 6967  78B6     85 20       			sta	__oper1
 6968  78B8     A9 01       			lda	#.high.443
 6969  78BA     85 21       			sta	__oper1+1
 6970  78BC     20 CA DA    			jsr	__store_int_funct_arg
 6971  78BF     A9 02       			lda	#2
 6972  78C1     A2 09       			ldx	#.low.&GameMTTalk
 6973  78C3     86 26       			stx	__addr_reg
 6974  78C5     A2 90       			ldx	#.high.&GameMTTalk+1
 6975  78C7     86 27       			stx	__addr_reg+1
 6976                     			.bf_call
 6977  78C9     20 F6 D2    			jsr	__banked_function_call
 6978  78CC     08          			php
 6979  78CD     78          			sei
 6980  78CE     18          			clc
 6981  78CF     A5 28       			lda	__stack_ptr
 6982  78D1     69 03       			adc	#.low.3
 6983  78D3     85 28       			sta	__stack_ptr
 6984  78D5     A5 29       			lda	__stack_ptr+1
 6985  78D7     69 00       			adc	#.high.3
 6986  78D9     85 29       			sta	__stack_ptr+1
 6987  78DB     28          			plp
 6988                     			.c_end	0332dh,448
 6989                     	;return 0
 6990                     			.c_start  03332h,449
 6991  78DC     A9 00       			lda	#0
 6992  78DE     4C 60 82    			jmp	?BOF7
 6993                     			.c_end	0333ah,449
 6994                     	;
 6995                     	;SysSaveScreen(8,14,119,81,g_GameMTBuf)
 6996         4624 78E1   	?BOL57:		.equal	$
 6997                     			.c_start  03342h,451
  Tue Jan 13 23:03:19 2026                                                                                               Page  124




 6998  78E1     A9 13       			lda	#.low._g_GameMTBuf
 6999  78E3     85 20       			sta	__oper1
 7000  78E5     A9 18       			lda	#.high._g_GameMTBuf
 7001  78E7     85 21       			sta	__oper1+1
 7002  78E9     20 CA DA    			jsr	__store_int_funct_arg
 7003  78EC     A9 51       			lda	#81
 7004  78EE     20 AA DA    			jsr	__store_char_funct_arg
 7005  78F1     A9 77       			lda	#119
 7006  78F3     20 AA DA    			jsr	__store_char_funct_arg
 7007  78F6     A9 0E       			lda	#14
 7008  78F8     20 AA DA    			jsr	__store_char_funct_arg
 7009  78FB     A9 08       			lda	#8
 7010  78FD     A2 77       			ldx	#.low.&SysSaveScreen
 7011  78FF     86 26       			stx	__addr_reg
 7012  7901     A2 E8       			ldx	#.high.&SysSaveScreen+1
 7013  7903     86 27       			stx	__addr_reg+1
 7014                     			.bf_call
 7015  7905     20 F6 D2    			jsr	__banked_function_call
 7016  7908     08          			php
 7017  7909     78          			sei
 7018  790A     18          			clc
 7019  790B     A5 28       			lda	__stack_ptr
 7020  790D     69 05       			adc	#.low.5
 7021  790F     85 28       			sta	__stack_ptr
 7022  7911     A5 29       			lda	__stack_ptr+1
 7023  7913     69 00       			adc	#.high.5
 7024  7915     85 29       			sta	__stack_ptr+1
 7025  7917     28          			plp
 7026                     			.c_end	03368h,451
 7027                     	;SysPicture(8,14,119,81,GameMTBattlePad,0)
 7028                     			.c_start  0336ch,452
 7029  7918     A9 00       			lda	#0
 7030  791A     20 AA DA    			jsr	__store_char_funct_arg
 7031  791D     A9 58       			lda	#.low._GameMTBattlePad
 7032  791F     85 20       			sta	__oper1
 7033  7921     A9 AE       			lda	#.high._GameMTBattlePad
 7034  7923     85 21       			sta	__oper1+1
 7035  7925     20 CA DA    			jsr	__store_int_funct_arg
 7036  7928     A9 51       			lda	#81
 7037  792A     20 AA DA    			jsr	__store_char_funct_arg
 7038  792D     A9 77       			lda	#119
 7039  792F     20 AA DA    			jsr	__store_char_funct_arg
 7040  7932     A9 0E       			lda	#14
 7041  7934     20 AA DA    			jsr	__store_char_funct_arg
 7042  7937     A9 08       			lda	#8
 7043  7939     A2 8E       			ldx	#.low.&SysPicture
 7044  793B     86 26       			stx	__addr_reg
 7045  793D     A2 E7       			ldx	#.high.&SysPicture+1
 7046  793F     86 27       			stx	__addr_reg+1
 7047                     			.bf_call
 7048  7941     20 F6 D2    			jsr	__banked_function_call
 7049  7944     08          			php
 7050  7945     78          			sei
 7051  7946     18          			clc
 7052  7947     A5 28       			lda	__stack_ptr
 7053  7949     69 06       			adc	#.low.6
 7054  794B     85 28       			sta	__stack_ptr
  Tue Jan 13 23:03:19 2026                                                                                               Page  125




 7055  794D     A5 29       			lda	__stack_ptr+1
 7056  794F     69 00       			adc	#.high.6
 7057  7951     85 29       			sta	__stack_ptr+1
 7058  7953     28          			plp
 7059                     			.c_end	03395h,452
 7060                     	;TempL=GameMTMonData[number][0]
 7061                     			.c_start  03399h,453
 7062  7954     A9 05       			lda	#.low.5
 7063  7956     85 23       			sta	__oper2
 7064  7958     A9 00       			lda	#.high.5
 7065  795A     85 24       			sta	__oper2+1
 7066  795C     A0 2A       			ldy	#+0+?LSC7+?TSC7
 7067  795E     B1 28       			lda	(__stack_ptr),y
 7068  7960     85 20       			sta	__oper1
 7069  7962     A9 00       			lda	#0
 7070  7964     85 21       			sta	__oper1+1
 7071  7966     20 AF D6    			jsr	__mult_int
 7072  7969     06 20       			asl	__oper1
 7073  796B     26 21       			rol	__oper1+1
 7074  796D     18          			clc
 7075  796E     A5 20       			lda	__oper1
 7076  7970     69 CC       			adc	#.low._GameMTMonData
 7077  7972     85 20       			sta	__oper1
 7078  7974     A5 21       			lda	__oper1+1
 7079  7976     69 B2       			adc	#.high._GameMTMonData
 7080  7978     85 21       			sta	__oper1+1
 7081  797A     A0 26       			ldy	#+0+?LSC7
 7082  797C     A5 20       			lda	__oper1
 7083  797E     91 28       			sta	(__stack_ptr),y
 7084  7980     C8          			iny
 7085  7981     A5 21       			lda	__oper1+1
 7086  7983     91 28       			sta	(__stack_ptr),y
 7087  7985     A0 26       			ldy	#+0+?LSC7
 7088  7987     B1 28       			lda	(__stack_ptr),y
 7089  7989     AA          			tax
 7090  798A     C8          			iny
 7091  798B     B1 28       			lda	(__stack_ptr),y
 7092  798D     85 27       			sta	__addr_reg+1
 7093  798F     86 26       			stx	__addr_reg
 7094  7991     A0 00       			ldy	#0
 7095  7993     B1 26       			lda	(__addr_reg),y
 7096  7995     AA          			tax
 7097  7996     C8          			iny
 7098  7997     B1 26       			lda	(__addr_reg),y
 7099  7999     85 21       			sta	__oper1+1
 7100  799B     86 20       			stx	__oper1
 7101  799D     A0 00       			ldy	#-38+?LSC7
 7102  799F     A5 20       			lda	__oper1
 7103  79A1     91 28       			sta	(__stack_ptr),y
 7104  79A3     C8          			iny
 7105  79A4     A5 21       			lda	__oper1+1
 7106  79A6     91 28       			sta	(__stack_ptr),y
 7107                     			.c_end	033b7h,453
 7108                     	;GameMTPrintNum(1,g_GameMTHeroLife,92,41)
 7109                     			.c_start  033bbh,454
 7110  79A8     A9 29       			lda	#41
 7111  79AA     20 AA DA    			jsr	__store_char_funct_arg
  Tue Jan 13 23:03:19 2026                                                                                               Page  126




 7112  79AD     A9 5C       			lda	#92
 7113  79AF     20 AA DA    			jsr	__store_char_funct_arg
 7114  79B2     A9 AA       			lda	#.low._g_GameMTHeroLife
 7115  79B4     85 20       			sta	__oper1
 7116  79B6     A9 1F       			lda	#.high._g_GameMTHeroLife
 7117  79B8     85 21       			sta	__oper1+1
 7118  79BA     20 FC DA    			jsr	__store_long_funct_arg
 7119  79BD     A9 01       			lda	#1
 7120  79BF     A2 0F       			ldx	#.low.&GameMTPrintNum
 7121  79C1     86 26       			stx	__addr_reg
 7122  79C3     A2 90       			ldx	#.high.&GameMTPrintNum+1
 7123  79C5     86 27       			stx	__addr_reg+1
 7124                     			.bf_call
 7125  79C7     20 F6 D2    			jsr	__banked_function_call
 7126  79CA     08          			php
 7127  79CB     78          			sei
 7128  79CC     18          			clc
 7129  79CD     A5 28       			lda	__stack_ptr
 7130  79CF     69 06       			adc	#.low.6
 7131  79D1     85 28       			sta	__stack_ptr
 7132  79D3     A5 29       			lda	__stack_ptr+1
 7133  79D5     69 00       			adc	#.high.6
 7134  79D7     85 29       			sta	__stack_ptr+1
 7135  79D9     28          			plp
 7136                     			.c_end	033e3h,454
 7137                     	;GameMTPrintNum(1,(unsigned long )g_GameMTHeroDamige,92,53)
 7138                     			.c_start  033e7h,455
 7139  79DA     AD 9E 1F    			lda	_g_GameMTHeroDamige
 7140  79DD     85 20       			sta	__oper1
 7141  79DF     AD 9F 1F    			lda	_g_GameMTHeroDamige+1
 7142  79E2     85 21       			sta	__oper1+1
 7143  79E4     20 38 DD    			jsr	__uns_oper1_int_to_long
 7144  79E7     A5 20       			lda	__oper1
 7145  79E9     85 23       			sta	__oper2
 7146  79EB     A5 21       			lda	__oper1+1
 7147  79ED     85 24       			sta	__oper2+1
 7148  79EF     18          			clc
 7149  79F0     A5 28       			lda	__stack_ptr
 7150  79F2     69 26       			adc	#.low.+0+?LSC7
 7151  79F4     85 20       			sta	__oper1
 7152  79F6     A5 29       			lda	__stack_ptr+1
 7153  79F8     69 00       			adc	#.high.+0+?LSC7
 7154  79FA     85 21       			sta	__oper1+1
 7155  79FC     20 E6 DA    			jsr	__store_long
 7156  79FF     A9 35       			lda	#53
 7157  7A01     20 AA DA    			jsr	__store_char_funct_arg
 7158  7A04     A9 5C       			lda	#92
 7159  7A06     20 AA DA    			jsr	__store_char_funct_arg
 7160  7A09     18          			clc
 7161  7A0A     A5 28       			lda	__stack_ptr
 7162  7A0C     69 28       			adc	#.low.+0+?LSC7+2
 7163  7A0E     85 20       			sta	__oper1
 7164  7A10     A5 29       			lda	__stack_ptr+1
 7165  7A12     69 00       			adc	#.high.+0+?LSC7+2
 7166  7A14     85 21       			sta	__oper1+1
 7167  7A16     20 FC DA    			jsr	__store_long_funct_arg
 7168  7A19     A9 01       			lda	#1
  Tue Jan 13 23:03:19 2026                                                                                               Page  127




 7169  7A1B     A2 0F       			ldx	#.low.&GameMTPrintNum
 7170  7A1D     86 26       			stx	__addr_reg
 7171  7A1F     A2 90       			ldx	#.high.&GameMTPrintNum+1
 7172  7A21     86 27       			stx	__addr_reg+1
 7173                     			.bf_call
 7174  7A23     20 F6 D2    			jsr	__banked_function_call
 7175  7A26     08          			php
 7176  7A27     78          			sei
 7177  7A28     18          			clc
 7178  7A29     A5 28       			lda	__stack_ptr
 7179  7A2B     69 06       			adc	#.low.6
 7180  7A2D     85 28       			sta	__stack_ptr
 7181  7A2F     A5 29       			lda	__stack_ptr+1
 7182  7A31     69 00       			adc	#.high.6
 7183  7A33     85 29       			sta	__stack_ptr+1
 7184  7A35     28          			plp
 7185                     			.c_end	03416h,455
 7186                     	;GameMTPrintNum(1,(unsigned long )g_GameMTHeroDefence,92,65)
 7187                     			.c_start  0341ah,456
 7188  7A36     AD A0 1F    			lda	_g_GameMTHeroDefence
 7189  7A39     85 20       			sta	__oper1
 7190  7A3B     AD A1 1F    			lda	_g_GameMTHeroDefence+1
 7191  7A3E     85 21       			sta	__oper1+1
 7192  7A40     20 38 DD    			jsr	__uns_oper1_int_to_long
 7193  7A43     A5 20       			lda	__oper1
 7194  7A45     85 23       			sta	__oper2
 7195  7A47     A5 21       			lda	__oper1+1
 7196  7A49     85 24       			sta	__oper2+1
 7197  7A4B     18          			clc
 7198  7A4C     A5 28       			lda	__stack_ptr
 7199  7A4E     69 26       			adc	#.low.+0+?LSC7
 7200  7A50     85 20       			sta	__oper1
 7201  7A52     A5 29       			lda	__stack_ptr+1
 7202  7A54     69 00       			adc	#.high.+0+?LSC7
 7203  7A56     85 21       			sta	__oper1+1
 7204  7A58     20 E6 DA    			jsr	__store_long
 7205  7A5B     A9 41       			lda	#65
 7206  7A5D     20 AA DA    			jsr	__store_char_funct_arg
 7207  7A60     A9 5C       			lda	#92
 7208  7A62     20 AA DA    			jsr	__store_char_funct_arg
 7209  7A65     18          			clc
 7210  7A66     A5 28       			lda	__stack_ptr
 7211  7A68     69 28       			adc	#.low.+0+?LSC7+2
 7212  7A6A     85 20       			sta	__oper1
 7213  7A6C     A5 29       			lda	__stack_ptr+1
 7214  7A6E     69 00       			adc	#.high.+0+?LSC7+2
 7215  7A70     85 21       			sta	__oper1+1
 7216  7A72     20 FC DA    			jsr	__store_long_funct_arg
 7217  7A75     A9 01       			lda	#1
 7218  7A77     A2 0F       			ldx	#.low.&GameMTPrintNum
 7219  7A79     86 26       			stx	__addr_reg
 7220  7A7B     A2 90       			ldx	#.high.&GameMTPrintNum+1
 7221  7A7D     86 27       			stx	__addr_reg+1
 7222                     			.bf_call
 7223  7A7F     20 F6 D2    			jsr	__banked_function_call
 7224  7A82     08          			php
 7225  7A83     78          			sei
  Tue Jan 13 23:03:19 2026                                                                                               Page  128




 7226  7A84     18          			clc
 7227  7A85     A5 28       			lda	__stack_ptr
 7228  7A87     69 06       			adc	#.low.6
 7229  7A89     85 28       			sta	__stack_ptr
 7230  7A8B     A5 29       			lda	__stack_ptr+1
 7231  7A8D     69 00       			adc	#.high.6
 7232  7A8F     85 29       			sta	__stack_ptr+1
 7233  7A91     28          			plp
 7234                     			.c_end	0344ah,456
 7235                     	;GameMTPrintNum(1,(unsigned long )GameMTMonData[number][0],33,41)
 7236                     			.c_start  0344eh,457
 7237  7A92     A9 05       			lda	#.low.5
 7238  7A94     85 23       			sta	__oper2
 7239  7A96     A9 00       			lda	#.high.5
 7240  7A98     85 24       			sta	__oper2+1
 7241  7A9A     A0 2A       			ldy	#+0+?LSC7+?TSC7
 7242  7A9C     B1 28       			lda	(__stack_ptr),y
 7243  7A9E     85 20       			sta	__oper1
 7244  7AA0     A9 00       			lda	#0
 7245  7AA2     85 21       			sta	__oper1+1
 7246  7AA4     20 AF D6    			jsr	__mult_int
 7247  7AA7     06 20       			asl	__oper1
 7248  7AA9     26 21       			rol	__oper1+1
 7249  7AAB     18          			clc
 7250  7AAC     A5 20       			lda	__oper1
 7251  7AAE     69 CC       			adc	#.low._GameMTMonData
 7252  7AB0     85 20       			sta	__oper1
 7253  7AB2     A5 21       			lda	__oper1+1
 7254  7AB4     69 B2       			adc	#.high._GameMTMonData
 7255  7AB6     85 21       			sta	__oper1+1
 7256  7AB8     A0 26       			ldy	#+0+?LSC7
 7257  7ABA     A5 20       			lda	__oper1
 7258  7ABC     91 28       			sta	(__stack_ptr),y
 7259  7ABE     C8          			iny
 7260  7ABF     A5 21       			lda	__oper1+1
 7261  7AC1     91 28       			sta	(__stack_ptr),y
 7262  7AC3     A0 26       			ldy	#+0+?LSC7
 7263  7AC5     B1 28       			lda	(__stack_ptr),y
 7264  7AC7     AA          			tax
 7265  7AC8     C8          			iny
 7266  7AC9     B1 28       			lda	(__stack_ptr),y
 7267  7ACB     85 27       			sta	__addr_reg+1
 7268  7ACD     86 26       			stx	__addr_reg
 7269  7ACF     A0 00       			ldy	#0
 7270  7AD1     B1 26       			lda	(__addr_reg),y
 7271  7AD3     AA          			tax
 7272  7AD4     C8          			iny
 7273  7AD5     B1 26       			lda	(__addr_reg),y
 7274  7AD7     85 21       			sta	__oper1+1
 7275  7AD9     86 20       			stx	__oper1
 7276  7ADB     20 38 DD    			jsr	__uns_oper1_int_to_long
 7277  7ADE     A5 20       			lda	__oper1
 7278  7AE0     85 23       			sta	__oper2
 7279  7AE2     A5 21       			lda	__oper1+1
 7280  7AE4     85 24       			sta	__oper2+1
 7281  7AE6     18          			clc
 7282  7AE7     A5 28       			lda	__stack_ptr
  Tue Jan 13 23:03:19 2026                                                                                               Page  129




 7283  7AE9     69 26       			adc	#.low.+0+?LSC7
 7284  7AEB     85 20       			sta	__oper1
 7285  7AED     A5 29       			lda	__stack_ptr+1
 7286  7AEF     69 00       			adc	#.high.+0+?LSC7
 7287  7AF1     85 21       			sta	__oper1+1
 7288  7AF3     20 E6 DA    			jsr	__store_long
 7289  7AF6     A9 29       			lda	#41
 7290  7AF8     20 AA DA    			jsr	__store_char_funct_arg
 7291  7AFB     A9 21       			lda	#33
 7292  7AFD     20 AA DA    			jsr	__store_char_funct_arg
 7293  7B00     18          			clc
 7294  7B01     A5 28       			lda	__stack_ptr
 7295  7B03     69 28       			adc	#.low.+0+?LSC7+2
 7296  7B05     85 20       			sta	__oper1
 7297  7B07     A5 29       			lda	__stack_ptr+1
 7298  7B09     69 00       			adc	#.high.+0+?LSC7+2
 7299  7B0B     85 21       			sta	__oper1+1
 7300  7B0D     20 FC DA    			jsr	__store_long_funct_arg
 7301  7B10     A9 01       			lda	#1
 7302  7B12     A2 0F       			ldx	#.low.&GameMTPrintNum
 7303  7B14     86 26       			stx	__addr_reg
 7304  7B16     A2 90       			ldx	#.high.&GameMTPrintNum+1
 7305  7B18     86 27       			stx	__addr_reg+1
 7306                     			.bf_call
 7307  7B1A     20 F6 D2    			jsr	__banked_function_call
 7308  7B1D     08          			php
 7309  7B1E     78          			sei
 7310  7B1F     18          			clc
 7311  7B20     A5 28       			lda	__stack_ptr
 7312  7B22     69 06       			adc	#.low.6
 7313  7B24     85 28       			sta	__stack_ptr
 7314  7B26     A5 29       			lda	__stack_ptr+1
 7315  7B28     69 00       			adc	#.high.6
 7316  7B2A     85 29       			sta	__stack_ptr+1
 7317  7B2C     28          			plp
 7318                     			.c_end	03483h,457
 7319                     	;GameMTPrintNum(1,(unsigned long )GameMTMonData[number][1],33,52)
 7320                     			.c_start  03487h,458
 7321  7B2D     A9 05       			lda	#.low.5
 7322  7B2F     85 23       			sta	__oper2
 7323  7B31     A9 00       			lda	#.high.5
 7324  7B33     85 24       			sta	__oper2+1
 7325  7B35     A0 2A       			ldy	#+0+?LSC7+?TSC7
 7326  7B37     B1 28       			lda	(__stack_ptr),y
 7327  7B39     85 20       			sta	__oper1
 7328  7B3B     A9 00       			lda	#0
 7329  7B3D     85 21       			sta	__oper1+1
 7330  7B3F     20 AF D6    			jsr	__mult_int
 7331  7B42     06 20       			asl	__oper1
 7332  7B44     26 21       			rol	__oper1+1
 7333  7B46     18          			clc
 7334  7B47     A5 20       			lda	__oper1
 7335  7B49     69 CC       			adc	#.low._GameMTMonData
 7336  7B4B     85 20       			sta	__oper1
 7337  7B4D     A5 21       			lda	__oper1+1
 7338  7B4F     69 B2       			adc	#.high._GameMTMonData
 7339  7B51     85 21       			sta	__oper1+1
  Tue Jan 13 23:03:19 2026                                                                                               Page  130




 7340  7B53     A0 26       			ldy	#+0+?LSC7
 7341  7B55     A5 20       			lda	__oper1
 7342  7B57     91 28       			sta	(__stack_ptr),y
 7343  7B59     C8          			iny
 7344  7B5A     A5 21       			lda	__oper1+1
 7345  7B5C     91 28       			sta	(__stack_ptr),y
 7346  7B5E     A0 26       			ldy	#+0+?LSC7
 7347  7B60     B1 28       			lda	(__stack_ptr),y
 7348  7B62     AA          			tax
 7349  7B63     C8          			iny
 7350  7B64     B1 28       			lda	(__stack_ptr),y
 7351  7B66     85 27       			sta	__addr_reg+1
 7352  7B68     86 26       			stx	__addr_reg
 7353  7B6A     A0 02       			ldy	#2
 7354  7B6C     B1 26       			lda	(__addr_reg),y
 7355  7B6E     AA          			tax
 7356  7B6F     C8          			iny
 7357  7B70     B1 26       			lda	(__addr_reg),y
 7358  7B72     85 21       			sta	__oper1+1
 7359  7B74     86 20       			stx	__oper1
 7360  7B76     20 38 DD    			jsr	__uns_oper1_int_to_long
 7361  7B79     A5 20       			lda	__oper1
 7362  7B7B     85 23       			sta	__oper2
 7363  7B7D     A5 21       			lda	__oper1+1
 7364  7B7F     85 24       			sta	__oper2+1
 7365  7B81     18          			clc
 7366  7B82     A5 28       			lda	__stack_ptr
 7367  7B84     69 26       			adc	#.low.+0+?LSC7
 7368  7B86     85 20       			sta	__oper1
 7369  7B88     A5 29       			lda	__stack_ptr+1
 7370  7B8A     69 00       			adc	#.high.+0+?LSC7
 7371  7B8C     85 21       			sta	__oper1+1
 7372  7B8E     20 E6 DA    			jsr	__store_long
 7373  7B91     A9 34       			lda	#52
 7374  7B93     20 AA DA    			jsr	__store_char_funct_arg
 7375  7B96     A9 21       			lda	#33
 7376  7B98     20 AA DA    			jsr	__store_char_funct_arg
 7377  7B9B     18          			clc
 7378  7B9C     A5 28       			lda	__stack_ptr
 7379  7B9E     69 28       			adc	#.low.+0+?LSC7+2
 7380  7BA0     85 20       			sta	__oper1
 7381  7BA2     A5 29       			lda	__stack_ptr+1
 7382  7BA4     69 00       			adc	#.high.+0+?LSC7+2
 7383  7BA6     85 21       			sta	__oper1+1
 7384  7BA8     20 FC DA    			jsr	__store_long_funct_arg
 7385  7BAB     A9 01       			lda	#1
 7386  7BAD     A2 0F       			ldx	#.low.&GameMTPrintNum
 7387  7BAF     86 26       			stx	__addr_reg
 7388  7BB1     A2 90       			ldx	#.high.&GameMTPrintNum+1
 7389  7BB3     86 27       			stx	__addr_reg+1
 7390                     			.bf_call
 7391  7BB5     20 F6 D2    			jsr	__banked_function_call
 7392  7BB8     08          			php
 7393  7BB9     78          			sei
 7394  7BBA     18          			clc
 7395  7BBB     A5 28       			lda	__stack_ptr
 7396  7BBD     69 06       			adc	#.low.6
  Tue Jan 13 23:03:19 2026                                                                                               Page  131




 7397  7BBF     85 28       			sta	__stack_ptr
 7398  7BC1     A5 29       			lda	__stack_ptr+1
 7399  7BC3     69 00       			adc	#.high.6
 7400  7BC5     85 29       			sta	__stack_ptr+1
 7401  7BC7     28          			plp
 7402                     			.c_end	034bch,458
 7403                     	;GameMTPrintNum(1,(unsigned long )GameMTMonData[number][2],33,65)
 7404                     			.c_start  034c0h,459
 7405  7BC8     A9 05       			lda	#.low.5
 7406  7BCA     85 23       			sta	__oper2
 7407  7BCC     A9 00       			lda	#.high.5
 7408  7BCE     85 24       			sta	__oper2+1
 7409  7BD0     A0 2A       			ldy	#+0+?LSC7+?TSC7
 7410  7BD2     B1 28       			lda	(__stack_ptr),y
 7411  7BD4     85 20       			sta	__oper1
 7412  7BD6     A9 00       			lda	#0
 7413  7BD8     85 21       			sta	__oper1+1
 7414  7BDA     20 AF D6    			jsr	__mult_int
 7415  7BDD     06 20       			asl	__oper1
 7416  7BDF     26 21       			rol	__oper1+1
 7417  7BE1     18          			clc
 7418  7BE2     A5 20       			lda	__oper1
 7419  7BE4     69 CC       			adc	#.low._GameMTMonData
 7420  7BE6     85 20       			sta	__oper1
 7421  7BE8     A5 21       			lda	__oper1+1
 7422  7BEA     69 B2       			adc	#.high._GameMTMonData
 7423  7BEC     85 21       			sta	__oper1+1
 7424  7BEE     A0 26       			ldy	#+0+?LSC7
 7425  7BF0     A5 20       			lda	__oper1
 7426  7BF2     91 28       			sta	(__stack_ptr),y
 7427  7BF4     C8          			iny
 7428  7BF5     A5 21       			lda	__oper1+1
 7429  7BF7     91 28       			sta	(__stack_ptr),y
 7430  7BF9     A0 26       			ldy	#+0+?LSC7
 7431  7BFB     B1 28       			lda	(__stack_ptr),y
 7432  7BFD     AA          			tax
 7433  7BFE     C8          			iny
 7434  7BFF     B1 28       			lda	(__stack_ptr),y
 7435  7C01     85 27       			sta	__addr_reg+1
 7436  7C03     86 26       			stx	__addr_reg
 7437  7C05     A0 04       			ldy	#4
 7438  7C07     B1 26       			lda	(__addr_reg),y
 7439  7C09     AA          			tax
 7440  7C0A     C8          			iny
 7441  7C0B     B1 26       			lda	(__addr_reg),y
 7442  7C0D     85 21       			sta	__oper1+1
 7443  7C0F     86 20       			stx	__oper1
 7444  7C11     20 38 DD    			jsr	__uns_oper1_int_to_long
 7445  7C14     A5 20       			lda	__oper1
 7446  7C16     85 23       			sta	__oper2
 7447  7C18     A5 21       			lda	__oper1+1
 7448  7C1A     85 24       			sta	__oper2+1
 7449  7C1C     18          			clc
 7450  7C1D     A5 28       			lda	__stack_ptr
 7451  7C1F     69 26       			adc	#.low.+0+?LSC7
 7452  7C21     85 20       			sta	__oper1
 7453  7C23     A5 29       			lda	__stack_ptr+1
  Tue Jan 13 23:03:19 2026                                                                                               Page  132




 7454  7C25     69 00       			adc	#.high.+0+?LSC7
 7455  7C27     85 21       			sta	__oper1+1
 7456  7C29     20 E6 DA    			jsr	__store_long
 7457  7C2C     A9 41       			lda	#65
 7458  7C2E     20 AA DA    			jsr	__store_char_funct_arg
 7459  7C31     A9 21       			lda	#33
 7460  7C33     20 AA DA    			jsr	__store_char_funct_arg
 7461  7C36     18          			clc
 7462  7C37     A5 28       			lda	__stack_ptr
 7463  7C39     69 28       			adc	#.low.+0+?LSC7+2
 7464  7C3B     85 20       			sta	__oper1
 7465  7C3D     A5 29       			lda	__stack_ptr+1
 7466  7C3F     69 00       			adc	#.high.+0+?LSC7+2
 7467  7C41     85 21       			sta	__oper1+1
 7468  7C43     20 FC DA    			jsr	__store_long_funct_arg
 7469  7C46     A9 01       			lda	#1
 7470  7C48     A2 0F       			ldx	#.low.&GameMTPrintNum
 7471  7C4A     86 26       			stx	__addr_reg
 7472  7C4C     A2 90       			ldx	#.high.&GameMTPrintNum+1
 7473  7C4E     86 27       			stx	__addr_reg+1
 7474                     			.bf_call
 7475  7C50     20 F6 D2    			jsr	__banked_function_call
 7476  7C53     08          			php
 7477  7C54     78          			sei
 7478  7C55     18          			clc
 7479  7C56     A5 28       			lda	__stack_ptr
 7480  7C58     69 06       			adc	#.low.6
 7481  7C5A     85 28       			sta	__stack_ptr
 7482  7C5C     A5 29       			lda	__stack_ptr+1
 7483  7C5E     69 00       			adc	#.high.6
 7484  7C60     85 29       			sta	__stack_ptr+1
 7485  7C62     28          			plp
 7486                     			.c_end	034f5h,459
 7487                     	;SysPicture(15,21,30,36,GameMTUnitPic[g_GameMTCurMap[(unsigned int )g_GameMTFloor*121+g_GameMTJuidgeY*11+g_GameMTJui
                            dgeX]],0)
 7488                     			.c_start  034f9h,460
 7489  7C63     AD A7 1F    			lda	_g_GameMTFloor
 7490  7C66     85 20       			sta	__oper1
 7491  7C68     A9 00       			lda	#0
 7492  7C6A     85 21       			sta	__oper1+1
 7493  7C6C     A9 79       			lda	#.low.121
 7494  7C6E     85 23       			sta	__oper2
 7495  7C70     A9 00       			lda	#.high.121
 7496  7C72     85 24       			sta	__oper2+1
 7497  7C74     20 F4 DC    			jsr	__uns_mult_int
 7498  7C77     A0 26       			ldy	#+0+?LSC7
 7499  7C79     A5 20       			lda	__oper1
 7500  7C7B     91 28       			sta	(__stack_ptr),y
 7501  7C7D     C8          			iny
 7502  7C7E     A5 21       			lda	__oper1+1
 7503  7C80     91 28       			sta	(__stack_ptr),y
 7504  7C82     A9 0B       			lda	#11
 7505  7C84     85 23       			sta	__oper2
 7506  7C86     AD 12 18    			lda	_g_GameMTJuidgeY
 7507  7C89     20 EF DC    			jsr	__uns_mult_char
 7508  7C8C     85 23       			sta	__oper2
 7509  7C8E     A2 00       			ldx	#0
  Tue Jan 13 23:03:19 2026                                                                                               Page  133




 7510  7C90     86 24       			stx	__oper2+1
 7511  7C92     A0 26       			ldy	#+0+?LSC7
 7512  7C94     B1 28       			lda	(__stack_ptr),y
 7513  7C96     85 20       			sta	__oper1
 7514  7C98     C8          			iny
 7515  7C99     B1 28       			lda	(__stack_ptr),y
 7516  7C9B     85 21       			sta	__oper1+1
 7517  7C9D     18          			clc
 7518  7C9E     A5 20       			lda	__oper1
 7519  7CA0     65 23       			adc	__oper2
 7520  7CA2     85 20       			sta	__oper1
 7521  7CA4     A5 21       			lda	__oper1+1
 7522  7CA6     65 24       			adc	__oper2+1
 7523  7CA8     85 21       			sta	__oper1+1
 7524  7CAA     A5 20       			lda	__oper1
 7525  7CAC     85 23       			sta	__oper2
 7526  7CAE     A5 21       			lda	__oper1+1
 7527  7CB0     85 24       			sta	__oper2+1
 7528  7CB2     AD 11 18    			lda	_g_GameMTJuidgeX
 7529  7CB5     85 20       			sta	__oper1
 7530  7CB7     A9 00       			lda	#0
 7531  7CB9     85 21       			sta	__oper1+1
 7532  7CBB     18          			clc
 7533  7CBC     A5 20       			lda	__oper1
 7534  7CBE     65 23       			adc	__oper2
 7535  7CC0     85 20       			sta	__oper1
 7536  7CC2     A5 21       			lda	__oper1+1
 7537  7CC4     65 24       			adc	__oper2+1
 7538  7CC6     85 21       			sta	__oper1+1
 7539  7CC8     18          			clc
 7540  7CC9     AD A8 1F    			lda	_g_GameMTCurMap
 7541  7CCC     65 20       			adc	__oper1
 7542  7CCE     85 20       			sta	__oper1
 7543  7CD0     AD A9 1F    			lda	_g_GameMTCurMap+1
 7544  7CD3     65 21       			adc	__oper1+1
 7545  7CD5     85 21       			sta	__oper1+1
 7546  7CD7     A0 00       			ldy	#0
 7547  7CD9     B1 20       			lda	(__oper1),y
 7548  7CDB     A0 26       			ldy	#+0+?LSC7
 7549  7CDD     91 28       			sta	(__stack_ptr),y
 7550  7CDF     A9 20       			lda	#.low.32
 7551  7CE1     85 23       			sta	__oper2
 7552  7CE3     A9 00       			lda	#.high.32
 7553  7CE5     85 24       			sta	__oper2+1
 7554  7CE7     A0 26       			ldy	#+0+?LSC7
 7555  7CE9     B1 28       			lda	(__stack_ptr),y
 7556  7CEB     85 20       			sta	__oper1
 7557  7CED     A9 00       			lda	#0
 7558  7CEF     85 21       			sta	__oper1+1
 7559  7CF1     20 AF D6    			jsr	__mult_int
 7560  7CF4     18          			clc
 7561  7CF5     A5 20       			lda	__oper1
 7562  7CF7     69 16       			adc	#.low._GameMTUnitPic
 7563  7CF9     85 20       			sta	__oper1
 7564  7CFB     A5 21       			lda	__oper1+1
 7565  7CFD     69 B4       			adc	#.high._GameMTUnitPic
 7566  7CFF     85 21       			sta	__oper1+1
  Tue Jan 13 23:03:19 2026                                                                                               Page  134




 7567  7D01     A0 26       			ldy	#+0+?LSC7
 7568  7D03     A5 20       			lda	__oper1
 7569  7D05     91 28       			sta	(__stack_ptr),y
 7570  7D07     C8          			iny
 7571  7D08     A5 21       			lda	__oper1+1
 7572  7D0A     91 28       			sta	(__stack_ptr),y
 7573  7D0C     A9 00       			lda	#0
 7574  7D0E     20 AA DA    			jsr	__store_char_funct_arg
 7575  7D11     A0 27       			ldy	#+0+?LSC7+1
 7576  7D13     B1 28       			lda	(__stack_ptr),y
 7577  7D15     85 20       			sta	__oper1
 7578  7D17     C8          			iny
 7579  7D18     B1 28       			lda	(__stack_ptr),y
 7580  7D1A     85 21       			sta	__oper1+1
 7581  7D1C     20 CA DA    			jsr	__store_int_funct_arg
 7582  7D1F     A9 24       			lda	#36
 7583  7D21     20 AA DA    			jsr	__store_char_funct_arg
 7584  7D24     A9 1E       			lda	#30
 7585  7D26     20 AA DA    			jsr	__store_char_funct_arg
 7586  7D29     A9 15       			lda	#21
 7587  7D2B     20 AA DA    			jsr	__store_char_funct_arg
 7588  7D2E     A9 0F       			lda	#15
 7589  7D30     A2 8E       			ldx	#.low.&SysPicture
 7590  7D32     86 26       			stx	__addr_reg
 7591  7D34     A2 E7       			ldx	#.high.&SysPicture+1
 7592  7D36     86 27       			stx	__addr_reg+1
 7593                     			.bf_call
 7594  7D38     20 F6 D2    			jsr	__banked_function_call
 7595  7D3B     08          			php
 7596  7D3C     78          			sei
 7597  7D3D     18          			clc
 7598  7D3E     A5 28       			lda	__stack_ptr
 7599  7D40     69 06       			adc	#.low.6
 7600  7D42     85 28       			sta	__stack_ptr
 7601  7D44     A5 29       			lda	__stack_ptr+1
 7602  7D46     69 00       			adc	#.high.6
 7603  7D48     85 29       			sta	__stack_ptr+1
 7604  7D4A     28          			plp
 7605                     			.c_end	0356bh,460
 7606                     	;g_GameMTTimeOut=0
 7607                     			.c_start  0356fh,461
 7608  7D4B     A9 00       			lda	#0
 7609  7D4D     8D 07 18    			sta	_g_GameMTTimeOut
 7610                     			.c_end	03580h,461
 7611                     	;while
 7612         4514 7D50   	?TOL58:		.equal	$
 7613                     	;(1)
 7614                     	;		
 7615                     			.whi_top  03584h,?BOL58,1,462
 7616  7D50     A9 01       			lda	#1
 7617  7D52     D0 03       			bne	+3
 7618  7D54     4C 9D 80    			jmp	?BOL58
 7619         3515 7D57   	?PLC43:		.equal	$
 7620                     			.c_end	0358dh,463
 7621                     	;GameMTGetInput()
 7622                     			.c_start  03596h,464
 7623  7D57     A2 03       			ldx	#.low.&GameMTGetInput
  Tue Jan 13 23:03:19 2026                                                                                               Page  135




 7624  7D59     86 26       			stx	__addr_reg
 7625  7D5B     A2 90       			ldx	#.high.&GameMTGetInput+1
 7626  7D5D     86 27       			stx	__addr_reg+1
 7627                     			.bf_call
 7628  7D5F     20 F6 D2    			jsr	__banked_function_call
 7629                     			.c_end	035a6h,464
 7630                     	;(g_GameMTQuit)
 7631                     			.if_top	035a7h,?BOL59,2,464
 7632  7D62     AD 05 18    			lda	_g_GameMTQuit
 7633  7D65     D0 03       			bne	+3
 7634  7D67     4C 6D 7D    			jmp	?BOL59
 7635         3816 7D6A   	?PLC44:		.equal	$
 7636                     			.c_end	035b6h,464
 7637                     	;break;
 7638                     	;			
 7639  7D6A     4C 9D 80    			jmp	?BOL58
 7640                     	;(TempL+1==1)
 7641         4216 7D6D   	?BOL59:		.equal	$
 7642                     			.if_top	035c2h,?BOL60,2,465
 7643  7D6D     A0 00       			ldy	#-38+?LSC7
 7644  7D6F     B1 28       			lda	(__stack_ptr),y
 7645  7D71     85 20       			sta	__oper1
 7646  7D73     C8          			iny
 7647  7D74     B1 28       			lda	(__stack_ptr),y
 7648  7D76     85 21       			sta	__oper1+1
 7649  7D78     A5 20       			lda	__oper1
 7650  7D7A     18          			clc
 7651  7D7B     69 01       			adc	#.low.1
 7652  7D7D     85 20       			sta	__oper1
 7653  7D7F     A5 21       			lda	__oper1+1
 7654  7D81     69 00       			adc	#.high.1
 7655  7D83     85 21       			sta	__oper1+1
 7656  7D85     A9 01       			lda	#.low.1
 7657  7D87     85 23       			sta	__oper2
 7658  7D89     A9 00       			lda	#.high.1
 7659  7D8B     85 24       			sta	__oper2+1
 7660  7D8D     20 40 D3    			jsr	__cmp_int
 7661  7D90     F0 03       			beq	+3
 7662  7D92     4C 98 7D    			jmp	?BOL60
 7663         3319 7D95   	?PLC45:		.equal	$
 7664                     			.c_end	035cfh,465
 7665                     	;break;
 7666                     	;			
 7667  7D95     4C 9D 80    			jmp	?BOL58
 7668                     	;g_GameMTTimeOut++
 7669         3619 7D98   	?BOL60:		.equal	$
 7670                     			.c_start  035dbh,466
 7671  7D98     EE 07 18    			inc	_g_GameMTTimeOut
 7672                     			.c_end	035ech,466
 7673                     	;(g_GameMTTimeOut==5)
 7674                     	;			
 7675                     			.if_top	035f2h,?BOL61,2,467
 7676  7D9B     AD 07 18    			lda	_g_GameMTTimeOut
 7677  7D9E     38          			sec
 7678  7D9F     E9 05       			sbc	#5
 7679  7DA1     F0 03       			beq	+3
 7680  7DA3     4C 9A 80    			jmp	?BOL61
  Tue Jan 13 23:03:19 2026                                                                                               Page  136




 7681         3421 7DA6   	?PLC46:		.equal	$
 7682                     			.c_end	03609h,468
 7683                     	;g_GameMTTimeOut=0
 7684                     			.c_start  03614h,469
 7685  7DA6     A9 00       			lda	#0
 7686  7DA8     8D 07 18    			sta	_g_GameMTTimeOut
 7687                     			.c_end	03625h,469
 7688                     	;(TempL>g_GameMTHeroDamige-GameMTMonData[number][2])
 7689                     	;					
 7690                     			.if_top	0362ch,?BOL62,3,470
 7691  7DAB     A9 05       			lda	#.low.5
 7692  7DAD     85 23       			sta	__oper2
 7693  7DAF     A9 00       			lda	#.high.5
 7694  7DB1     85 24       			sta	__oper2+1
 7695  7DB3     A0 2A       			ldy	#+0+?LSC7+?TSC7
 7696  7DB5     B1 28       			lda	(__stack_ptr),y
 7697  7DB7     85 20       			sta	__oper1
 7698  7DB9     A9 00       			lda	#0
 7699  7DBB     85 21       			sta	__oper1+1
 7700  7DBD     20 AF D6    			jsr	__mult_int
 7701  7DC0     06 20       			asl	__oper1
 7702  7DC2     26 21       			rol	__oper1+1
 7703  7DC4     18          			clc
 7704  7DC5     A5 20       			lda	__oper1
 7705  7DC7     69 CC       			adc	#.low._GameMTMonData
 7706  7DC9     85 20       			sta	__oper1
 7707  7DCB     A5 21       			lda	__oper1+1
 7708  7DCD     69 B2       			adc	#.high._GameMTMonData
 7709  7DCF     85 21       			sta	__oper1+1
 7710  7DD1     A0 26       			ldy	#+0+?LSC7
 7711  7DD3     A5 20       			lda	__oper1
 7712  7DD5     91 28       			sta	(__stack_ptr),y
 7713  7DD7     C8          			iny
 7714  7DD8     A5 21       			lda	__oper1+1
 7715  7DDA     91 28       			sta	(__stack_ptr),y
 7716  7DDC     A0 26       			ldy	#+0+?LSC7
 7717  7DDE     B1 28       			lda	(__stack_ptr),y
 7718  7DE0     AA          			tax
 7719  7DE1     C8          			iny
 7720  7DE2     B1 28       			lda	(__stack_ptr),y
 7721  7DE4     85 27       			sta	__addr_reg+1
 7722  7DE6     86 26       			stx	__addr_reg
 7723  7DE8     A0 04       			ldy	#4
 7724  7DEA     B1 26       			lda	(__addr_reg),y
 7725  7DEC     AA          			tax
 7726  7DED     C8          			iny
 7727  7DEE     B1 26       			lda	(__addr_reg),y
 7728  7DF0     85 21       			sta	__oper1+1
 7729  7DF2     86 20       			stx	__oper1
 7730  7DF4     A5 20       			lda	__oper1
 7731  7DF6     85 23       			sta	__oper2
 7732  7DF8     A5 21       			lda	__oper1+1
 7733  7DFA     85 24       			sta	__oper2+1
 7734  7DFC     AD 9E 1F    			lda	_g_GameMTHeroDamige
 7735  7DFF     85 20       			sta	__oper1
 7736  7E01     AD 9F 1F    			lda	_g_GameMTHeroDamige+1
 7737  7E04     85 21       			sta	__oper1+1
  Tue Jan 13 23:03:19 2026                                                                                               Page  137




 7738  7E06     38          			sec
 7739  7E07     A5 20       			lda	__oper1
 7740  7E09     E5 23       			sbc	__oper2
 7741  7E0B     85 20       			sta	__oper1
 7742  7E0D     A5 21       			lda	__oper1+1
 7743  7E0F     E5 24       			sbc	__oper2+1
 7744  7E11     85 21       			sta	__oper1+1
 7745  7E13     A5 20       			lda	__oper1
 7746  7E15     85 23       			sta	__oper2
 7747  7E17     A5 21       			lda	__oper1+1
 7748  7E19     85 24       			sta	__oper2+1
 7749  7E1B     A0 00       			ldy	#-38+?LSC7
 7750  7E1D     B1 28       			lda	(__stack_ptr),y
 7751  7E1F     85 20       			sta	__oper1
 7752  7E21     C8          			iny
 7753  7E22     B1 28       			lda	(__stack_ptr),y
 7754  7E24     85 21       			sta	__oper1+1
 7755  7E26     20 40 D3    			jsr	__cmp_int
 7756  7E29     B0 03       			bcs	+3
 7757  7E2B     4C C9 7E    			jmp	?BOL62
 7758  7E2E     D0 03       			bne	+3
 7759  7E30     4C C9 7E    			jmp	?BOL62
 7760         3113 7E33   	?PLC47:		.equal	$
 7761                     			.c_end	03662h,471
 7762                     	;TempL-=g_GameMTHeroDamige-GameMTMonData[number][2]
 7763                     			.c_start  03668h,471
 7764  7E33     A9 05       			lda	#.low.5
 7765  7E35     85 23       			sta	__oper2
 7766  7E37     A9 00       			lda	#.high.5
 7767  7E39     85 24       			sta	__oper2+1
 7768  7E3B     A0 2A       			ldy	#+0+?LSC7+?TSC7
 7769  7E3D     B1 28       			lda	(__stack_ptr),y
 7770  7E3F     85 20       			sta	__oper1
 7771  7E41     A9 00       			lda	#0
 7772  7E43     85 21       			sta	__oper1+1
 7773  7E45     20 AF D6    			jsr	__mult_int
 7774  7E48     06 20       			asl	__oper1
 7775  7E4A     26 21       			rol	__oper1+1
 7776  7E4C     18          			clc
 7777  7E4D     A5 20       			lda	__oper1
 7778  7E4F     69 CC       			adc	#.low._GameMTMonData
 7779  7E51     85 20       			sta	__oper1
 7780  7E53     A5 21       			lda	__oper1+1
 7781  7E55     69 B2       			adc	#.high._GameMTMonData
 7782  7E57     85 21       			sta	__oper1+1
 7783  7E59     A0 26       			ldy	#+0+?LSC7
 7784  7E5B     A5 20       			lda	__oper1
 7785  7E5D     91 28       			sta	(__stack_ptr),y
 7786  7E5F     C8          			iny
 7787  7E60     A5 21       			lda	__oper1+1
 7788  7E62     91 28       			sta	(__stack_ptr),y
 7789  7E64     A0 26       			ldy	#+0+?LSC7
 7790  7E66     B1 28       			lda	(__stack_ptr),y
 7791  7E68     AA          			tax
 7792  7E69     C8          			iny
 7793  7E6A     B1 28       			lda	(__stack_ptr),y
 7794  7E6C     85 27       			sta	__addr_reg+1
  Tue Jan 13 23:03:19 2026                                                                                               Page  138




 7795  7E6E     86 26       			stx	__addr_reg
 7796  7E70     A0 04       			ldy	#4
 7797  7E72     B1 26       			lda	(__addr_reg),y
 7798  7E74     AA          			tax
 7799  7E75     C8          			iny
 7800  7E76     B1 26       			lda	(__addr_reg),y
 7801  7E78     85 21       			sta	__oper1+1
 7802  7E7A     86 20       			stx	__oper1
 7803  7E7C     A5 20       			lda	__oper1
 7804  7E7E     85 23       			sta	__oper2
 7805  7E80     A5 21       			lda	__oper1+1
 7806  7E82     85 24       			sta	__oper2+1
 7807  7E84     AD 9E 1F    			lda	_g_GameMTHeroDamige
 7808  7E87     85 20       			sta	__oper1
 7809  7E89     AD 9F 1F    			lda	_g_GameMTHeroDamige+1
 7810  7E8C     85 21       			sta	__oper1+1
 7811  7E8E     38          			sec
 7812  7E8F     A5 20       			lda	__oper1
 7813  7E91     E5 23       			sbc	__oper2
 7814  7E93     85 20       			sta	__oper1
 7815  7E95     A5 21       			lda	__oper1+1
 7816  7E97     E5 24       			sbc	__oper2+1
 7817  7E99     85 21       			sta	__oper1+1
 7818  7E9B     A5 20       			lda	__oper1
 7819  7E9D     85 23       			sta	__oper2
 7820  7E9F     A5 21       			lda	__oper1+1
 7821  7EA1     85 24       			sta	__oper2+1
 7822  7EA3     A0 00       			ldy	#-38+?LSC7
 7823  7EA5     B1 28       			lda	(__stack_ptr),y
 7824  7EA7     85 20       			sta	__oper1
 7825  7EA9     C8          			iny
 7826  7EAA     B1 28       			lda	(__stack_ptr),y
 7827  7EAC     85 21       			sta	__oper1+1
 7828  7EAE     38          			sec
 7829  7EAF     A5 20       			lda	__oper1
 7830  7EB1     E5 23       			sbc	__oper2
 7831  7EB3     85 20       			sta	__oper1
 7832  7EB5     A5 21       			lda	__oper1+1
 7833  7EB7     E5 24       			sbc	__oper2+1
 7834  7EB9     85 21       			sta	__oper1+1
 7835  7EBB     A0 00       			ldy	#-38+?LSC7
 7836  7EBD     A5 20       			lda	__oper1
 7837  7EBF     91 28       			sta	(__stack_ptr),y
 7838  7EC1     C8          			iny
 7839  7EC2     A5 21       			lda	__oper1+1
 7840  7EC4     91 28       			sta	(__stack_ptr),y
 7841                     			.c_end	0369ah,471
 7842                     	;;
 7843                     	;					
 7844                     	;else 
 7845  7EC6     4C D2 7E    			jmp	?EOI62
 7846                     			.if_else  ?EOI62,3,472
 7847         3723 7EC9   	?BOL62:		.equal	$
 7848                     	;TempL=0
 7849                     			.c_start  036a7h,472
 7850  7EC9     A0 00       			ldy	#-38+?LSC7
 7851  7ECB     A9 00       			lda	#.low.0
  Tue Jan 13 23:03:19 2026                                                                                               Page  139




 7852  7ECD     91 28       			sta	(__stack_ptr),y
 7853  7ECF     C8          			iny
 7854  7ED0     91 28       			sta	(__stack_ptr),y
 7855                     			.c_end	036aeh,472
 7856                     	;;
 7857                     	;				
 7858         3124 7ED2   	?EOI62:		.equal	$
 7859                     	;SysLcdPartClear(23,41,43,49)
 7860                     			.c_start  036b5h,473
 7861  7ED2     A9 31       			lda	#49
 7862  7ED4     20 AA DA    			jsr	__store_char_funct_arg
 7863  7ED7     A9 2B       			lda	#43
 7864  7ED9     20 AA DA    			jsr	__store_char_funct_arg
 7865  7EDC     A9 29       			lda	#41
 7866  7EDE     20 AA DA    			jsr	__store_char_funct_arg
 7867  7EE1     A9 17       			lda	#23
 7868  7EE3     A2 5D       			ldx	#.low.&SysLcdPartClear
 7869  7EE5     86 26       			stx	__addr_reg
 7870  7EE7     A2 E8       			ldx	#.high.&SysLcdPartClear+1
 7871  7EE9     86 27       			stx	__addr_reg+1
 7872                     			.bf_call
 7873  7EEB     20 F6 D2    			jsr	__banked_function_call
 7874  7EEE     08          			php
 7875  7EEF     78          			sei
 7876  7EF0     18          			clc
 7877  7EF1     A5 28       			lda	__stack_ptr
 7878  7EF3     69 03       			adc	#.low.3
 7879  7EF5     85 28       			sta	__stack_ptr
 7880  7EF7     A5 29       			lda	__stack_ptr+1
 7881  7EF9     69 00       			adc	#.high.3
 7882  7EFB     85 29       			sta	__stack_ptr+1
 7883  7EFD     28          			plp
 7884                     			.c_end	036d1h,473
 7885                     	;GameMTPrintNum(1,(unsigned long )TempL,33,41)
 7886                     			.c_start  036d8h,474
 7887  7EFE     A0 00       			ldy	#-38+?LSC7
 7888  7F00     B1 28       			lda	(__stack_ptr),y
 7889  7F02     85 20       			sta	__oper1
 7890  7F04     C8          			iny
 7891  7F05     B1 28       			lda	(__stack_ptr),y
 7892  7F07     85 21       			sta	__oper1+1
 7893  7F09     20 38 DD    			jsr	__uns_oper1_int_to_long
 7894  7F0C     A5 20       			lda	__oper1
 7895  7F0E     85 23       			sta	__oper2
 7896  7F10     A5 21       			lda	__oper1+1
 7897  7F12     85 24       			sta	__oper2+1
 7898  7F14     18          			clc
 7899  7F15     A5 28       			lda	__stack_ptr
 7900  7F17     69 26       			adc	#.low.+0+?LSC7
 7901  7F19     85 20       			sta	__oper1
 7902  7F1B     A5 29       			lda	__stack_ptr+1
 7903  7F1D     69 00       			adc	#.high.+0+?LSC7
 7904  7F1F     85 21       			sta	__oper1+1
 7905  7F21     20 E6 DA    			jsr	__store_long
 7906  7F24     A9 29       			lda	#41
 7907  7F26     20 AA DA    			jsr	__store_char_funct_arg
 7908  7F29     A9 21       			lda	#33
  Tue Jan 13 23:03:19 2026                                                                                               Page  140




 7909  7F2B     20 AA DA    			jsr	__store_char_funct_arg
 7910  7F2E     18          			clc
 7911  7F2F     A5 28       			lda	__stack_ptr
 7912  7F31     69 28       			adc	#.low.+0+?LSC7+2
 7913  7F33     85 20       			sta	__oper1
 7914  7F35     A5 29       			lda	__stack_ptr+1
 7915  7F37     69 00       			adc	#.high.+0+?LSC7+2
 7916  7F39     85 21       			sta	__oper1+1
 7917  7F3B     20 FC DA    			jsr	__store_long_funct_arg
 7918  7F3E     A9 01       			lda	#1
 7919  7F40     A2 0F       			ldx	#.low.&GameMTPrintNum
 7920  7F42     86 26       			stx	__addr_reg
 7921  7F44     A2 90       			ldx	#.high.&GameMTPrintNum+1
 7922  7F46     86 27       			stx	__addr_reg+1
 7923                     			.bf_call
 7924  7F48     20 F6 D2    			jsr	__banked_function_call
 7925  7F4B     08          			php
 7926  7F4C     78          			sei
 7927  7F4D     18          			clc
 7928  7F4E     A5 28       			lda	__stack_ptr
 7929  7F50     69 06       			adc	#.low.6
 7930  7F52     85 28       			sta	__stack_ptr
 7931  7F54     A5 29       			lda	__stack_ptr+1
 7932  7F56     69 00       			adc	#.high.6
 7933  7F58     85 29       			sta	__stack_ptr+1
 7934  7F5A     28          			plp
 7935                     			.c_end	036fah,474
 7936                     	;(GameMTMonData[number][1]>g_GameMTHeroDefence)
 7937                     	;				
 7938                     			.if_top	03701h,?BOL63,3,475
 7939  7F5B     A9 05       			lda	#.low.5
 7940  7F5D     85 23       			sta	__oper2
 7941  7F5F     A9 00       			lda	#.high.5
 7942  7F61     85 24       			sta	__oper2+1
 7943  7F63     A0 2A       			ldy	#+0+?LSC7+?TSC7
 7944  7F65     B1 28       			lda	(__stack_ptr),y
 7945  7F67     85 20       			sta	__oper1
 7946  7F69     A9 00       			lda	#0
 7947  7F6B     85 21       			sta	__oper1+1
 7948  7F6D     20 AF D6    			jsr	__mult_int
 7949  7F70     06 20       			asl	__oper1
 7950  7F72     26 21       			rol	__oper1+1
 7951  7F74     18          			clc
 7952  7F75     A5 20       			lda	__oper1
 7953  7F77     69 CC       			adc	#.low._GameMTMonData
 7954  7F79     85 20       			sta	__oper1
 7955  7F7B     A5 21       			lda	__oper1+1
 7956  7F7D     69 B2       			adc	#.high._GameMTMonData
 7957  7F7F     85 21       			sta	__oper1+1
 7958  7F81     A0 26       			ldy	#+0+?LSC7
 7959  7F83     A5 20       			lda	__oper1
 7960  7F85     91 28       			sta	(__stack_ptr),y
 7961  7F87     C8          			iny
 7962  7F88     A5 21       			lda	__oper1+1
 7963  7F8A     91 28       			sta	(__stack_ptr),y
 7964  7F8C     A0 26       			ldy	#+0+?LSC7
 7965  7F8E     B1 28       			lda	(__stack_ptr),y
  Tue Jan 13 23:03:19 2026                                                                                               Page  141




 7966  7F90     AA          			tax
 7967  7F91     C8          			iny
 7968  7F92     B1 28       			lda	(__stack_ptr),y
 7969  7F94     85 27       			sta	__addr_reg+1
 7970  7F96     86 26       			stx	__addr_reg
 7971  7F98     A0 02       			ldy	#2
 7972  7F9A     B1 26       			lda	(__addr_reg),y
 7973  7F9C     AA          			tax
 7974  7F9D     C8          			iny
 7975  7F9E     B1 26       			lda	(__addr_reg),y
 7976  7FA0     85 21       			sta	__oper1+1
 7977  7FA2     86 20       			stx	__oper1
 7978  7FA4     AD A0 1F    			lda	_g_GameMTHeroDefence
 7979  7FA7     85 23       			sta	__oper2
 7980  7FA9     AD A1 1F    			lda	_g_GameMTHeroDefence+1
 7981  7FAC     85 24       			sta	__oper2+1
 7982  7FAE     20 40 D3    			jsr	__cmp_int
 7983  7FB1     B0 03       			bcs	+3
 7984  7FB3     4C 9A 80    			jmp	?BOL63
 7985  7FB6     D0 03       			bne	+3
 7986  7FB8     4C 9A 80    			jmp	?BOL63
 7987         3922 7FBB   	?PLC48:		.equal	$
 7988                     			.c_end	03732h,476
 7989                     	;g_GameMTHeroLife-=GameMTMonData[number][1]-g_GameMTHeroDefence
 7990                     			.c_start  0373fh,477
 7991  7FBB     A9 05       			lda	#.low.5
 7992  7FBD     85 23       			sta	__oper2
 7993  7FBF     A9 00       			lda	#.high.5
 7994  7FC1     85 24       			sta	__oper2+1
 7995  7FC3     A0 2A       			ldy	#+0+?LSC7+?TSC7
 7996  7FC5     B1 28       			lda	(__stack_ptr),y
 7997  7FC7     85 20       			sta	__oper1
 7998  7FC9     A9 00       			lda	#0
 7999  7FCB     85 21       			sta	__oper1+1
 8000  7FCD     20 AF D6    			jsr	__mult_int
 8001  7FD0     06 20       			asl	__oper1
 8002  7FD2     26 21       			rol	__oper1+1
 8003  7FD4     18          			clc
 8004  7FD5     A5 20       			lda	__oper1
 8005  7FD7     69 CC       			adc	#.low._GameMTMonData
 8006  7FD9     85 20       			sta	__oper1
 8007  7FDB     A5 21       			lda	__oper1+1
 8008  7FDD     69 B2       			adc	#.high._GameMTMonData
 8009  7FDF     85 21       			sta	__oper1+1
 8010  7FE1     A0 26       			ldy	#+0+?LSC7
 8011  7FE3     A5 20       			lda	__oper1
 8012  7FE5     91 28       			sta	(__stack_ptr),y
 8013  7FE7     C8          			iny
 8014  7FE8     A5 21       			lda	__oper1+1
 8015  7FEA     91 28       			sta	(__stack_ptr),y
 8016  7FEC     A0 26       			ldy	#+0+?LSC7
 8017  7FEE     B1 28       			lda	(__stack_ptr),y
 8018  7FF0     AA          			tax
 8019  7FF1     C8          			iny
 8020  7FF2     B1 28       			lda	(__stack_ptr),y
 8021  7FF4     85 27       			sta	__addr_reg+1
 8022  7FF6     86 26       			stx	__addr_reg
  Tue Jan 13 23:03:19 2026                                                                                               Page  142




 8023  7FF8     A0 02       			ldy	#2
 8024  7FFA     B1 26       			lda	(__addr_reg),y
 8025  7FFC     AA          			tax
 8026  7FFD     C8          			iny
 8027  7FFE     B1 26       			lda	(__addr_reg),y
 8028  8000     85 21       			sta	__oper1+1
 8029  8002     86 20       			stx	__oper1
 8030  8004     A5 20       			lda	__oper1
 8031  8006     38          			sec
 8032  8007     ED A0 1F    			sbc	_g_GameMTHeroDefence
 8033  800A     85 20       			sta	__oper1
 8034  800C     A5 21       			lda	__oper1+1
 8035  800E     ED A1 1F    			sbc	_g_GameMTHeroDefence+1
 8036  8011     85 21       			sta	__oper1+1
 8037  8013     A5 20       			lda	__oper1
 8038  8015     85 23       			sta	__oper2
 8039  8017     A5 21       			lda	__oper1+1
 8040  8019     85 24       			sta	__oper2+1
 8041  801B     20 75 DD    			jsr	__uns_oper2_int_to_long
 8042  801E     A9 AA       			lda	#.low._g_GameMTHeroLife
 8043  8020     85 20       			sta	__oper1
 8044  8022     A9 1F       			lda	#.high._g_GameMTHeroLife
 8045  8024     85 21       			sta	__oper1+1
 8046  8026     20 2F DB    			jsr	__sub_long
 8047  8029     A5 20       			lda	__oper1
 8048  802B     85 23       			sta	__oper2
 8049  802D     A5 21       			lda	__oper1+1
 8050  802F     85 24       			sta	__oper2+1
 8051  8031     A9 AA       			lda	#.low._g_GameMTHeroLife
 8052  8033     85 20       			sta	__oper1
 8053  8035     A9 1F       			lda	#.high._g_GameMTHeroLife
 8054  8037     85 21       			sta	__oper1+1
 8055  8039     20 E6 DA    			jsr	__store_long
 8056                     			.c_end	0377dh,477
 8057                     	;SysLcdPartClear(82,41,102,49)
 8058                     			.c_start  03785h,478
 8059  803C     A9 31       			lda	#49
 8060  803E     20 AA DA    			jsr	__store_char_funct_arg
 8061  8041     A9 66       			lda	#102
 8062  8043     20 AA DA    			jsr	__store_char_funct_arg
 8063  8046     A9 29       			lda	#41
 8064  8048     20 AA DA    			jsr	__store_char_funct_arg
 8065  804B     A9 52       			lda	#82
 8066  804D     A2 5D       			ldx	#.low.&SysLcdPartClear
 8067  804F     86 26       			stx	__addr_reg
 8068  8051     A2 E8       			ldx	#.high.&SysLcdPartClear+1
 8069  8053     86 27       			stx	__addr_reg+1
 8070                     			.bf_call
 8071  8055     20 F6 D2    			jsr	__banked_function_call
 8072  8058     08          			php
 8073  8059     78          			sei
 8074  805A     18          			clc
 8075  805B     A5 28       			lda	__stack_ptr
 8076  805D     69 03       			adc	#.low.3
 8077  805F     85 28       			sta	__stack_ptr
 8078  8061     A5 29       			lda	__stack_ptr+1
 8079  8063     69 00       			adc	#.high.3
  Tue Jan 13 23:03:19 2026                                                                                               Page  143




 8080  8065     85 29       			sta	__stack_ptr+1
 8081  8067     28          			plp
 8082                     			.c_end	037a2h,478
 8083                     	;GameMTPrintNum(1,g_GameMTHeroLife,92,41)
 8084                     			.c_start  037aah,479
 8085  8068     A9 29       			lda	#41
 8086  806A     20 AA DA    			jsr	__store_char_funct_arg
 8087  806D     A9 5C       			lda	#92
 8088  806F     20 AA DA    			jsr	__store_char_funct_arg
 8089  8072     A9 AA       			lda	#.low._g_GameMTHeroLife
 8090  8074     85 20       			sta	__oper1
 8091  8076     A9 1F       			lda	#.high._g_GameMTHeroLife
 8092  8078     85 21       			sta	__oper1+1
 8093  807A     20 FC DA    			jsr	__store_long_funct_arg
 8094  807D     A9 01       			lda	#1
 8095  807F     A2 0F       			ldx	#.low.&GameMTPrintNum
 8096  8081     86 26       			stx	__addr_reg
 8097  8083     A2 90       			ldx	#.high.&GameMTPrintNum+1
 8098  8085     86 27       			stx	__addr_reg+1
 8099                     			.bf_call
 8100  8087     20 F6 D2    			jsr	__banked_function_call
 8101  808A     08          			php
 8102  808B     78          			sei
 8103  808C     18          			clc
 8104  808D     A5 28       			lda	__stack_ptr
 8105  808F     69 06       			adc	#.low.6
 8106  8091     85 28       			sta	__stack_ptr
 8107  8093     A5 29       			lda	__stack_ptr+1
 8108  8095     69 00       			adc	#.high.6
 8109  8097     85 29       			sta	__stack_ptr+1
 8110  8099     28          			plp
 8111                     			.c_end	037d2h,479
 8112                     	;
 8113                     	;
 8114         3A19 809A   	?BOL63:		.equal	$
 8115                     	;
 8116         3AF9 809A   	?BOL61:		.equal	$
 8117                     			.whi_bot  1,482
 8118  809A     4C 50 7D    			jmp	?TOL58
 8119         4219 809D   	?BOL58:		.equal	$
 8120                     	;GuiMsgBox(info,100)
 8121                     			.c_start  037e8h,483
 8122  809D     A9 64       			lda	#.low.100
 8123  809F     85 20       			sta	__oper1
 8124  80A1     A9 00       			lda	#.high.100
 8125  80A3     85 21       			sta	__oper1+1
 8126  80A5     20 CA DA    			jsr	__store_int_funct_arg
 8127  80A8     18          			clc
 8128  80A9     A5 28       			lda	__stack_ptr
 8129  80AB     69 05       			adc	#.low.-35+?LSC7+2
 8130  80AD     85 20       			sta	__oper1
 8131  80AF     A5 29       			lda	__stack_ptr+1
 8132  80B1     69 00       			adc	#.high.-35+?LSC7+2
 8133  80B3     85 21       			sta	__oper1+1
 8134  80B5     20 CA DA    			jsr	__store_int_funct_arg
 8135  80B8     A2 53       			ldx	#.low.&GuiMsgBox
 8136  80BA     86 26       			stx	__addr_reg
  Tue Jan 13 23:03:19 2026                                                                                               Page  144




 8137  80BC     A2 E9       			ldx	#.high.&GuiMsgBox+1
 8138  80BE     86 27       			stx	__addr_reg+1
 8139                     			.bf_call
 8140  80C0     20 F6 D2    			jsr	__banked_function_call
 8141  80C3     08          			php
 8142  80C4     78          			sei
 8143  80C5     18          			clc
 8144  80C6     A5 28       			lda	__stack_ptr
 8145  80C8     69 04       			adc	#.low.4
 8146  80CA     85 28       			sta	__stack_ptr
 8147  80CC     A5 29       			lda	__stack_ptr+1
 8148  80CE     69 00       			adc	#.high.4
 8149  80D0     85 29       			sta	__stack_ptr+1
 8150  80D2     28          			plp
 8151                     			.c_end	037fbh,483
 8152                     	;g_GameMTCurMap[(unsigned int )g_GameMTFloor*121+g_GameMTJuidgeY*11+g_GameMTJuidgeX]=0
 8153                     			.c_start  037ffh,484
 8154  80D3     AD A7 1F    			lda	_g_GameMTFloor
 8155  80D6     85 20       			sta	__oper1
 8156  80D8     A9 00       			lda	#0
 8157  80DA     85 21       			sta	__oper1+1
 8158  80DC     A9 79       			lda	#.low.121
 8159  80DE     85 23       			sta	__oper2
 8160  80E0     A9 00       			lda	#.high.121
 8161  80E2     85 24       			sta	__oper2+1
 8162  80E4     20 F4 DC    			jsr	__uns_mult_int
 8163  80E7     A0 26       			ldy	#+0+?LSC7
 8164  80E9     A5 20       			lda	__oper1
 8165  80EB     91 28       			sta	(__stack_ptr),y
 8166  80ED     C8          			iny
 8167  80EE     A5 21       			lda	__oper1+1
 8168  80F0     91 28       			sta	(__stack_ptr),y
 8169  80F2     A9 0B       			lda	#11
 8170  80F4     85 23       			sta	__oper2
 8171  80F6     AD 12 18    			lda	_g_GameMTJuidgeY
 8172  80F9     20 EF DC    			jsr	__uns_mult_char
 8173  80FC     85 23       			sta	__oper2
 8174  80FE     A2 00       			ldx	#0
 8175  8100     86 24       			stx	__oper2+1
 8176  8102     A0 26       			ldy	#+0+?LSC7
 8177  8104     B1 28       			lda	(__stack_ptr),y
 8178  8106     85 20       			sta	__oper1
 8179  8108     C8          			iny
 8180  8109     B1 28       			lda	(__stack_ptr),y
 8181  810B     85 21       			sta	__oper1+1
 8182  810D     18          			clc
 8183  810E     A5 20       			lda	__oper1
 8184  8110     65 23       			adc	__oper2
 8185  8112     85 20       			sta	__oper1
 8186  8114     A5 21       			lda	__oper1+1
 8187  8116     65 24       			adc	__oper2+1
 8188  8118     85 21       			sta	__oper1+1
 8189  811A     A5 20       			lda	__oper1
 8190  811C     85 23       			sta	__oper2
 8191  811E     A5 21       			lda	__oper1+1
 8192  8120     85 24       			sta	__oper2+1
 8193  8122     AD 11 18    			lda	_g_GameMTJuidgeX
  Tue Jan 13 23:03:19 2026                                                                                               Page  145




 8194  8125     85 20       			sta	__oper1
 8195  8127     A9 00       			lda	#0
 8196  8129     85 21       			sta	__oper1+1
 8197  812B     18          			clc
 8198  812C     A5 20       			lda	__oper1
 8199  812E     65 23       			adc	__oper2
 8200  8130     85 20       			sta	__oper1
 8201  8132     A5 21       			lda	__oper1+1
 8202  8134     65 24       			adc	__oper2+1
 8203  8136     85 21       			sta	__oper1+1
 8204  8138     18          			clc
 8205  8139     AD A8 1F    			lda	_g_GameMTCurMap
 8206  813C     65 20       			adc	__oper1
 8207  813E     85 20       			sta	__oper1
 8208  8140     AD A9 1F    			lda	_g_GameMTCurMap+1
 8209  8143     65 21       			adc	__oper1+1
 8210  8145     85 21       			sta	__oper1+1
 8211  8147     A5 20       			lda	__oper1
 8212  8149     85 23       			sta	__oper2
 8213  814B     A5 21       			lda	__oper1+1
 8214  814D     85 24       			sta	__oper2+1
 8215  814F     A9 00       			lda	#0
 8216  8151     A0 00       			ldy	#0
 8217  8153     91 23       			sta	(__oper2),y
 8218                     			.c_end	0384ah,484
 8219                     	;g_GameMTHeroMoney+=GameMTMonData[number][3]
 8220                     			.c_start  0384eh,485
 8221  8155     A9 05       			lda	#.low.5
 8222  8157     85 23       			sta	__oper2
 8223  8159     A9 00       			lda	#.high.5
 8224  815B     85 24       			sta	__oper2+1
 8225  815D     A0 2A       			ldy	#+0+?LSC7+?TSC7
 8226  815F     B1 28       			lda	(__stack_ptr),y
 8227  8161     85 20       			sta	__oper1
 8228  8163     A9 00       			lda	#0
 8229  8165     85 21       			sta	__oper1+1
 8230  8167     20 AF D6    			jsr	__mult_int
 8231  816A     06 20       			asl	__oper1
 8232  816C     26 21       			rol	__oper1+1
 8233  816E     18          			clc
 8234  816F     A5 20       			lda	__oper1
 8235  8171     69 CC       			adc	#.low._GameMTMonData
 8236  8173     85 20       			sta	__oper1
 8237  8175     A5 21       			lda	__oper1+1
 8238  8177     69 B2       			adc	#.high._GameMTMonData
 8239  8179     85 21       			sta	__oper1+1
 8240  817B     A0 26       			ldy	#+0+?LSC7
 8241  817D     A5 20       			lda	__oper1
 8242  817F     91 28       			sta	(__stack_ptr),y
 8243  8181     C8          			iny
 8244  8182     A5 21       			lda	__oper1+1
 8245  8184     91 28       			sta	(__stack_ptr),y
 8246  8186     A0 26       			ldy	#+0+?LSC7
 8247  8188     B1 28       			lda	(__stack_ptr),y
 8248  818A     AA          			tax
 8249  818B     C8          			iny
 8250  818C     B1 28       			lda	(__stack_ptr),y
  Tue Jan 13 23:03:19 2026                                                                                               Page  146




 8251  818E     85 27       			sta	__addr_reg+1
 8252  8190     86 26       			stx	__addr_reg
 8253  8192     A0 06       			ldy	#6
 8254  8194     B1 26       			lda	(__addr_reg),y
 8255  8196     AA          			tax
 8256  8197     C8          			iny
 8257  8198     B1 26       			lda	(__addr_reg),y
 8258  819A     85 21       			sta	__oper1+1
 8259  819C     86 20       			stx	__oper1
 8260  819E     A5 20       			lda	__oper1
 8261  81A0     18          			clc
 8262  81A1     6D A2 1F    			adc	_g_GameMTHeroMoney
 8263  81A4     85 20       			sta	__oper1
 8264  81A6     A5 21       			lda	__oper1+1
 8265  81A8     6D A3 1F    			adc	_g_GameMTHeroMoney+1
 8266  81AB     85 21       			sta	__oper1+1
 8267  81AD     A5 20       			lda	__oper1
 8268  81AF     8D A2 1F    			sta	_g_GameMTHeroMoney
 8269  81B2     A5 21       			lda	__oper1+1
 8270  81B4     8D A3 1F    			sta	_g_GameMTHeroMoney+1
 8271                     			.c_end	03879h,485
 8272                     	;g_GameMTHeroExp+=GameMTMonData[number][4]
 8273                     			.c_start  0387dh,486
 8274  81B7     A9 05       			lda	#.low.5
 8275  81B9     85 23       			sta	__oper2
 8276  81BB     A9 00       			lda	#.high.5
 8277  81BD     85 24       			sta	__oper2+1
 8278  81BF     A0 2A       			ldy	#+0+?LSC7+?TSC7
 8279  81C1     B1 28       			lda	(__stack_ptr),y
 8280  81C3     85 20       			sta	__oper1
 8281  81C5     A9 00       			lda	#0
 8282  81C7     85 21       			sta	__oper1+1
 8283  81C9     20 AF D6    			jsr	__mult_int
 8284  81CC     06 20       			asl	__oper1
 8285  81CE     26 21       			rol	__oper1+1
 8286  81D0     18          			clc
 8287  81D1     A5 20       			lda	__oper1
 8288  81D3     69 CC       			adc	#.low._GameMTMonData
 8289  81D5     85 20       			sta	__oper1
 8290  81D7     A5 21       			lda	__oper1+1
 8291  81D9     69 B2       			adc	#.high._GameMTMonData
 8292  81DB     85 21       			sta	__oper1+1
 8293  81DD     A0 26       			ldy	#+0+?LSC7
 8294  81DF     A5 20       			lda	__oper1
 8295  81E1     91 28       			sta	(__stack_ptr),y
 8296  81E3     C8          			iny
 8297  81E4     A5 21       			lda	__oper1+1
 8298  81E6     91 28       			sta	(__stack_ptr),y
 8299  81E8     A0 26       			ldy	#+0+?LSC7
 8300  81EA     B1 28       			lda	(__stack_ptr),y
 8301  81EC     AA          			tax
 8302  81ED     C8          			iny
 8303  81EE     B1 28       			lda	(__stack_ptr),y
 8304  81F0     85 27       			sta	__addr_reg+1
 8305  81F2     86 26       			stx	__addr_reg
 8306  81F4     A0 08       			ldy	#8
 8307  81F6     B1 26       			lda	(__addr_reg),y
  Tue Jan 13 23:03:19 2026                                                                                               Page  147




 8308  81F8     AA          			tax
 8309  81F9     C8          			iny
 8310  81FA     B1 26       			lda	(__addr_reg),y
 8311  81FC     85 21       			sta	__oper1+1
 8312  81FE     86 20       			stx	__oper1
 8313  8200     A5 20       			lda	__oper1
 8314  8202     18          			clc
 8315  8203     6D A4 1F    			adc	_g_GameMTHeroExp
 8316  8206     85 20       			sta	__oper1
 8317  8208     A5 21       			lda	__oper1+1
 8318  820A     6D A5 1F    			adc	_g_GameMTHeroExp+1
 8319  820D     85 21       			sta	__oper1+1
 8320  820F     A5 20       			lda	__oper1
 8321  8211     8D A4 1F    			sta	_g_GameMTHeroExp
 8322  8214     A5 21       			lda	__oper1+1
 8323  8216     8D A5 1F    			sta	_g_GameMTHeroExp+1
 8324                     			.c_end	038a6h,486
 8325                     	;SysRestoreScreen(8,14,119,81,g_GameMTBuf)
 8326                     			.c_start  038aah,487
 8327  8219     A9 13       			lda	#.low._g_GameMTBuf
 8328  821B     85 20       			sta	__oper1
 8329  821D     A9 18       			lda	#.high._g_GameMTBuf
 8330  821F     85 21       			sta	__oper1+1
 8331  8221     20 CA DA    			jsr	__store_int_funct_arg
 8332  8224     A9 51       			lda	#81
 8333  8226     20 AA DA    			jsr	__store_char_funct_arg
 8334  8229     A9 77       			lda	#119
 8335  822B     20 AA DA    			jsr	__store_char_funct_arg
 8336  822E     A9 0E       			lda	#14
 8337  8230     20 AA DA    			jsr	__store_char_funct_arg
 8338  8233     A9 08       			lda	#8
 8339  8235     A2 7A       			ldx	#.low.&SysRestoreScreen
 8340  8237     86 26       			stx	__addr_reg
 8341  8239     A2 E8       			ldx	#.high.&SysRestoreScreen+1
 8342  823B     86 27       			stx	__addr_reg+1
 8343                     			.bf_call
 8344  823D     20 F6 D2    			jsr	__banked_function_call
 8345  8240     08          			php
 8346  8241     78          			sei
 8347  8242     18          			clc
 8348  8243     A5 28       			lda	__stack_ptr
 8349  8245     69 05       			adc	#.low.5
 8350  8247     85 28       			sta	__stack_ptr
 8351  8249     A5 29       			lda	__stack_ptr+1
 8352  824B     69 00       			adc	#.high.5
 8353  824D     85 29       			sta	__stack_ptr+1
 8354  824F     28          			plp
 8355                     			.c_end	038d3h,487
 8356                     	;GameMTReNewR()
 8357                     			.c_start  038d7h,488
 8358  8250     A2 2D       			ldx	#.low.&GameMTReNewR
 8359  8252     86 26       			stx	__addr_reg
 8360  8254     A2 90       			ldx	#.high.&GameMTReNewR+1
 8361  8256     86 27       			stx	__addr_reg+1
 8362                     			.bf_call
 8363  8258     20 F6 D2    			jsr	__banked_function_call
 8364                     			.c_end	038e5h,488
  Tue Jan 13 23:03:19 2026                                                                                               Page  148




 8365                     	;return 1
 8366                     			.c_start  038e9h,489
 8367  825B     A9 01       			lda	#1
 8368  825D     4C 60 82    			jmp	?BOF7
 8369                     			.c_end	038f1h,489
 8370                     	;
 8371                     			.f_end	038f4h,490
 8372         4515 8260   	?BOF7:		.equal	$
 8373  8260     08          			php
 8374  8261     78          			sei
 8375  8262     A8          			tay
 8376  8263     18          			clc
 8377  8264     A5 28       			lda	__stack_ptr
 8378  8266     69 2B       			adc	#.low.+?LSC7+?TSC7+1
 8379  8268     85 28       			sta	__stack_ptr
 8380  826A     A5 29       			lda	__stack_ptr+1
 8381  826C     69 00       			adc	#.high.+?LSC7+?TSC7+1
 8382  826E     85 29       			sta	__stack_ptr+1
 8383  8270     98          			tya
 8384  8271     28          			plp
 8385                     			.f_return
 8386  8272     60          			rts
 8387                     	;
 8388                     			.f_start  03abah,502
 8389                     			.bank_table
 8390                     			.global	&GameMTOpenDoor
 8391  9015     73 82 E0    	&GameMTOpenDoor:	.bankaddr	_GameMTOpenDoor
 8392                     			.ends
 8393         3611 8273   	_GameMTOpenDoor:	.equal	$
 8394                     			.attrib	_GameMTOpenDoor,503,f,b
 8395                     	;
 8396                     	;
 8397         0000        	?ASC8:		.equal	0
 8398         0006        	?TSC8:		.equal	6
 8399         0022        	?LSC8:		.equal	34
 8400  8273     08          			php
 8401  8274     78          			sei
 8402  8275     38          			sec
 8403  8276     A5 28       			lda	__stack_ptr
 8404  8278     E9 28       			sbc	#.low.+?LSC8+?TSC8
 8405  827A     85 28       			sta	__stack_ptr
 8406  827C     A5 29       			lda	__stack_ptr+1
 8407  827E     E9 00       			sbc	#.high.+?LSC8+?TSC8
 8408  8280     85 29       			sta	__stack_ptr+1
 8409  8282     28          			plp
 8410                     	;unsigned char 	i=Buf[32]=flag;
 8411                     	;	 
 8412                     			.local	_i,504,v,c,u,d,d,d,d,-1+?LSC8+0,00h
 8413                     			.local	_Buf,504,v,c,u,d,d,d,d,-33+?LSC8+0,020h,00h
 8414                     			.local	_flag,504,v,c,u,d,d,d,d,-34+?LSC8+0,00h
 8415                     	;i=0;
 8416                     			.c_start  03ae7h,505
 8417  8283     A0 21       			ldy	#-1+?LSC8
 8418  8285     A9 00       			lda	#0
 8419  8287     91 28       			sta	(__stack_ptr),y
 8420                     			.c_end	03aeeh,505
 8421         3818 8289   	?FLC64:		.equal	$
  Tue Jan 13 23:03:19 2026                                                                                               Page  149




 8422                     	;i<32;
 8423                     			.for_top  03aefh,?BOL64,?FLB64,?FLA64,1,505
 8424  8289     A0 21       			ldy	#-1+?LSC8
 8425  828B     B1 28       			lda	(__stack_ptr),y
 8426  828D     38          			sec
 8427  828E     E9 20       			sbc	#32
 8428  8290     90 03       			bcc	+3
 8429  8292     4C A2 83    			jmp	?BOL64
 8430                     			.c_end	03af3h,505
 8431  8295     4C A4 82    			jmp	?FLB64
 8432         3619 8298   	?FLA64:		.equal	$
 8433                     	;i++)
 8434                     			.for_adj  03af4h,505
 8435  8298     A0 21       			ldy	#-1+?LSC8
 8436  829A     B1 28       			lda	(__stack_ptr),y
 8437  829C     18          			clc
 8438  829D     69 01       			adc	#1
 8439  829F     91 28       			sta	(__stack_ptr),y
 8440                     			.c_end	03af7h,505
 8441  82A1     4C 89 82    			jmp	?FLC64
 8442         3221 82A4   	?FLB64:		.equal	$
 8443                     	;Buf[i]=GameMTUnitPic[g_GameMTCurMap[(unsigned int )g_GameMTFloor*121+g_GameMTJuidgeY*11+g_GameMTJuidgeX]][i]
 8444                     			.c_start  03af4h,505
 8445  82A4     AD A7 1F    			lda	_g_GameMTFloor
 8446  82A7     85 20       			sta	__oper1
 8447  82A9     A9 00       			lda	#0
 8448  82AB     85 21       			sta	__oper1+1
 8449  82AD     A9 79       			lda	#.low.121
 8450  82AF     85 23       			sta	__oper2
 8451  82B1     A9 00       			lda	#.high.121
 8452  82B3     85 24       			sta	__oper2+1
 8453  82B5     20 F4 DC    			jsr	__uns_mult_int
 8454  82B8     A0 22       			ldy	#+0+?LSC8
 8455  82BA     A5 20       			lda	__oper1
 8456  82BC     91 28       			sta	(__stack_ptr),y
 8457  82BE     C8          			iny
 8458  82BF     A5 21       			lda	__oper1+1
 8459  82C1     91 28       			sta	(__stack_ptr),y
 8460  82C3     A9 0B       			lda	#11
 8461  82C5     85 23       			sta	__oper2
 8462  82C7     AD 12 18    			lda	_g_GameMTJuidgeY
 8463  82CA     20 EF DC    			jsr	__uns_mult_char
 8464  82CD     85 23       			sta	__oper2
 8465  82CF     A2 00       			ldx	#0
 8466  82D1     86 24       			stx	__oper2+1
 8467  82D3     A0 22       			ldy	#+0+?LSC8
 8468  82D5     B1 28       			lda	(__stack_ptr),y
 8469  82D7     85 20       			sta	__oper1
 8470  82D9     C8          			iny
 8471  82DA     B1 28       			lda	(__stack_ptr),y
 8472  82DC     85 21       			sta	__oper1+1
 8473  82DE     18          			clc
 8474  82DF     A5 20       			lda	__oper1
 8475  82E1     65 23       			adc	__oper2
 8476  82E3     85 20       			sta	__oper1
 8477  82E5     A5 21       			lda	__oper1+1
 8478  82E7     65 24       			adc	__oper2+1
  Tue Jan 13 23:03:19 2026                                                                                               Page  150




 8479  82E9     85 21       			sta	__oper1+1
 8480  82EB     A5 20       			lda	__oper1
 8481  82ED     85 23       			sta	__oper2
 8482  82EF     A5 21       			lda	__oper1+1
 8483  82F1     85 24       			sta	__oper2+1
 8484  82F3     AD 11 18    			lda	_g_GameMTJuidgeX
 8485  82F6     85 20       			sta	__oper1
 8486  82F8     A9 00       			lda	#0
 8487  82FA     85 21       			sta	__oper1+1
 8488  82FC     18          			clc
 8489  82FD     A5 20       			lda	__oper1
 8490  82FF     65 23       			adc	__oper2
 8491  8301     85 20       			sta	__oper1
 8492  8303     A5 21       			lda	__oper1+1
 8493  8305     65 24       			adc	__oper2+1
 8494  8307     85 21       			sta	__oper1+1
 8495  8309     18          			clc
 8496  830A     AD A8 1F    			lda	_g_GameMTCurMap
 8497  830D     65 20       			adc	__oper1
 8498  830F     85 20       			sta	__oper1
 8499  8311     AD A9 1F    			lda	_g_GameMTCurMap+1
 8500  8314     65 21       			adc	__oper1+1
 8501  8316     85 21       			sta	__oper1+1
 8502  8318     A0 00       			ldy	#0
 8503  831A     B1 20       			lda	(__oper1),y
 8504  831C     A0 22       			ldy	#+0+?LSC8
 8505  831E     91 28       			sta	(__stack_ptr),y
 8506  8320     A9 20       			lda	#.low.32
 8507  8322     85 23       			sta	__oper2
 8508  8324     A9 00       			lda	#.high.32
 8509  8326     85 24       			sta	__oper2+1
 8510  8328     A0 22       			ldy	#+0+?LSC8
 8511  832A     B1 28       			lda	(__stack_ptr),y
 8512  832C     85 20       			sta	__oper1
 8513  832E     A9 00       			lda	#0
 8514  8330     85 21       			sta	__oper1+1
 8515  8332     20 AF D6    			jsr	__mult_int
 8516  8335     18          			clc
 8517  8336     A5 20       			lda	__oper1
 8518  8338     69 16       			adc	#.low._GameMTUnitPic
 8519  833A     85 20       			sta	__oper1
 8520  833C     A5 21       			lda	__oper1+1
 8521  833E     69 B4       			adc	#.high._GameMTUnitPic
 8522  8340     85 21       			sta	__oper1+1
 8523  8342     A0 22       			ldy	#+0+?LSC8
 8524  8344     A5 20       			lda	__oper1
 8525  8346     91 28       			sta	(__stack_ptr),y
 8526  8348     C8          			iny
 8527  8349     A5 21       			lda	__oper1+1
 8528  834B     91 28       			sta	(__stack_ptr),y
 8529  834D     A0 21       			ldy	#-1+?LSC8
 8530  834F     B1 28       			lda	(__stack_ptr),y
 8531  8351     85 20       			sta	__oper1
 8532  8353     A9 00       			lda	#0
 8533  8355     85 21       			sta	__oper1+1
 8534  8357     A0 22       			ldy	#+0+?LSC8
 8535  8359     18          			clc
  Tue Jan 13 23:03:19 2026                                                                                               Page  151




 8536  835A     B1 28       			lda	(__stack_ptr),y
 8537  835C     65 20       			adc	__oper1
 8538  835E     85 20       			sta	__oper1
 8539  8360     C8          			iny
 8540  8361     B1 28       			lda	(__stack_ptr),y
 8541  8363     65 21       			adc	__oper1+1
 8542  8365     85 21       			sta	__oper1+1
 8543  8367     A0 00       			ldy	#0
 8544  8369     B1 20       			lda	(__oper1),y
 8545  836B     A0 22       			ldy	#+0+?LSC8
 8546  836D     91 28       			sta	(__stack_ptr),y
 8547  836F     A0 21       			ldy	#-1+?LSC8
 8548  8371     B1 28       			lda	(__stack_ptr),y
 8549  8373     85 20       			sta	__oper1
 8550  8375     A9 00       			lda	#0
 8551  8377     85 21       			sta	__oper1+1
 8552  8379     18          			clc
 8553  837A     A5 28       			lda	__stack_ptr
 8554  837C     69 01       			adc	#.low.-33+?LSC8
 8555  837E     AA          			tax
 8556  837F     A5 29       			lda	__stack_ptr+1
 8557  8381     69 00       			adc	#.high.-33+?LSC8
 8558  8383     A8          			tay
 8559  8384     18          			clc
 8560  8385     8A          			txa
 8561  8386     65 20       			adc	__oper1
 8562  8388     85 20       			sta	__oper1
 8563  838A     98          			tya
 8564  838B     65 21       			adc	__oper1+1
 8565  838D     85 21       			sta	__oper1+1
 8566  838F     A5 20       			lda	__oper1
 8567  8391     85 23       			sta	__oper2
 8568  8393     A5 21       			lda	__oper1+1
 8569  8395     85 24       			sta	__oper2+1
 8570  8397     A0 22       			ldy	#+0+?LSC8
 8571  8399     B1 28       			lda	(__stack_ptr),y
 8572  839B     A0 00       			ldy	#0
 8573  839D     91 23       			sta	(__oper2),y
 8574                     			.c_end	03b5ah,505
 8575                     	;;
 8576                     	;	 
 8577                     			.for_bot  1,505
 8578  839F     4C 98 82    			jmp	?FLA64
 8579         4719 83A2   	?BOL64:		.equal	$
 8580                     	;flag=g_GameMTCurMap[(unsigned int )g_GameMTFloor*121+g_GameMTJuidgeY*11+g_GameMTJuidgeX]
 8581                     			.c_start  03b5fh,506
 8582  83A2     AD A7 1F    			lda	_g_GameMTFloor
 8583  83A5     85 20       			sta	__oper1
 8584  83A7     A9 00       			lda	#0
 8585  83A9     85 21       			sta	__oper1+1
 8586  83AB     A9 79       			lda	#.low.121
 8587  83AD     85 23       			sta	__oper2
 8588  83AF     A9 00       			lda	#.high.121
 8589  83B1     85 24       			sta	__oper2+1
 8590  83B3     20 F4 DC    			jsr	__uns_mult_int
 8591  83B6     A0 22       			ldy	#+0+?LSC8
 8592  83B8     A5 20       			lda	__oper1
  Tue Jan 13 23:03:19 2026                                                                                               Page  152




 8593  83BA     91 28       			sta	(__stack_ptr),y
 8594  83BC     C8          			iny
 8595  83BD     A5 21       			lda	__oper1+1
 8596  83BF     91 28       			sta	(__stack_ptr),y
 8597  83C1     A9 0B       			lda	#11
 8598  83C3     85 23       			sta	__oper2
 8599  83C5     AD 12 18    			lda	_g_GameMTJuidgeY
 8600  83C8     20 EF DC    			jsr	__uns_mult_char
 8601  83CB     85 23       			sta	__oper2
 8602  83CD     A2 00       			ldx	#0
 8603  83CF     86 24       			stx	__oper2+1
 8604  83D1     A0 22       			ldy	#+0+?LSC8
 8605  83D3     B1 28       			lda	(__stack_ptr),y
 8606  83D5     85 20       			sta	__oper1
 8607  83D7     C8          			iny
 8608  83D8     B1 28       			lda	(__stack_ptr),y
 8609  83DA     85 21       			sta	__oper1+1
 8610  83DC     18          			clc
 8611  83DD     A5 20       			lda	__oper1
 8612  83DF     65 23       			adc	__oper2
 8613  83E1     85 20       			sta	__oper1
 8614  83E3     A5 21       			lda	__oper1+1
 8615  83E5     65 24       			adc	__oper2+1
 8616  83E7     85 21       			sta	__oper1+1
 8617  83E9     A5 20       			lda	__oper1
 8618  83EB     85 23       			sta	__oper2
 8619  83ED     A5 21       			lda	__oper1+1
 8620  83EF     85 24       			sta	__oper2+1
 8621  83F1     AD 11 18    			lda	_g_GameMTJuidgeX
 8622  83F4     85 20       			sta	__oper1
 8623  83F6     A9 00       			lda	#0
 8624  83F8     85 21       			sta	__oper1+1
 8625  83FA     18          			clc
 8626  83FB     A5 20       			lda	__oper1
 8627  83FD     65 23       			adc	__oper2
 8628  83FF     85 20       			sta	__oper1
 8629  8401     A5 21       			lda	__oper1+1
 8630  8403     65 24       			adc	__oper2+1
 8631  8405     85 21       			sta	__oper1+1
 8632  8407     18          			clc
 8633  8408     AD A8 1F    			lda	_g_GameMTCurMap
 8634  840B     65 20       			adc	__oper1
 8635  840D     85 20       			sta	__oper1
 8636  840F     AD A9 1F    			lda	_g_GameMTCurMap+1
 8637  8412     65 21       			adc	__oper1+1
 8638  8414     85 21       			sta	__oper1+1
 8639  8416     A0 00       			ldy	#0
 8640  8418     B1 20       			lda	(__oper1),y
 8641  841A     A0 00       			ldy	#-34+?LSC8
 8642  841C     91 28       			sta	(__stack_ptr),y
 8643                     			.c_end	03badh,506
 8644                     	;(flag==8)
 8645                     	;	 
 8646                     			.if_top	03bb2h,?BOL65,1,507
 8647  841E     A0 00       			ldy	#-34+?LSC8
 8648  8420     B1 28       			lda	(__stack_ptr),y
 8649  8422     38          			sec
  Tue Jan 13 23:03:19 2026                                                                                               Page  153




 8650  8423     E9 08       			sbc	#8
 8651  8425     F0 03       			beq	+3
 8652  8427     4C E2 85    			jmp	?BOL65
 8653         3812 842A   	?PLC49:		.equal	$
 8654                     			.c_end	03bbeh,508
 8655                     	;i=0;
 8656                     			.c_start  03bc8h,509
 8657  842A     A0 21       			ldy	#-1+?LSC8
 8658  842C     A9 00       			lda	#0
 8659  842E     91 28       			sta	(__stack_ptr),y
 8660                     			.c_end	03bcfh,509
 8661         4612 8430   	?FLC66:		.equal	$
 8662                     	;i<16;
 8663                     			.for_top  03bd0h,?BOL66,?FLB66,?FLA66,2,509
 8664  8430     A0 21       			ldy	#-1+?LSC8
 8665  8432     B1 28       			lda	(__stack_ptr),y
 8666  8434     38          			sec
 8667  8435     E9 10       			sbc	#16
 8668  8437     90 03       			bcc	+3
 8669  8439     4C DF 85    			jmp	?BOL66
 8670                     			.c_end	03bd4h,509
 8671  843C     4C 4B 84    			jmp	?FLB66
 8672         4413 843F   	?FLA66:		.equal	$
 8673                     	;i++)
 8674                     	;	 		
 8675                     			.for_adj  03bd5h,509
 8676  843F     A0 21       			ldy	#-1+?LSC8
 8677  8441     B1 28       			lda	(__stack_ptr),y
 8678  8443     18          			clc
 8679  8444     69 01       			adc	#1
 8680  8446     91 28       			sta	(__stack_ptr),y
 8681                     			.c_end	03bdah,510
 8682  8448     4C 30 84    			jmp	?FLC66
 8683         3914 844B   	?FLB66:		.equal	$
 8684                     	;GameMTGetInput()
 8685                     			.c_start  03be7h,511
 8686  844B     A2 03       			ldx	#.low.&GameMTGetInput
 8687  844D     86 26       			stx	__addr_reg
 8688  844F     A2 90       			ldx	#.high.&GameMTGetInput+1
 8689  8451     86 27       			stx	__addr_reg+1
 8690                     			.bf_call
 8691  8453     20 F6 D2    			jsr	__banked_function_call
 8692                     			.c_end	03bf7h,511
 8693                     	;(g_GameMTQuit)
 8694                     			.if_top	03bffh,?BOL67,3,512
 8695  8456     AD 05 18    			lda	_g_GameMTQuit
 8696  8459     D0 03       			bne	+3
 8697  845B     4C 61 84    			jmp	?BOL67
 8698         4315 845E   	?PLC50:		.equal	$
 8699                     			.c_end	03c0eh,512
 8700                     	;return
 8701                     			.c_start  03bffh,512
 8702  845E     4C B1 87    			jmp	?BOF8
 8703                     			.c_end	03c15h,512
 8704                     	;;
 8705                     	;	 			
 8706                     	;SysPicture((g_GameMTJuidgeX-g_GameMTMapX)*16,(g_GameMTJuidgeY-g_GameMTMapY)*16,(g_GameMTJuidgeX-g_GameMTMapX)*16+15
                            ,(g_GameMTJuidgeY-g_GameMTMapY)*16+15-i,Buf+i*2,0)
  Tue Jan 13 23:03:19 2026                                                                                               Page  154




 8707         4615 8461   	?BOL67:		.equal	$
 8708                     			.c_start  03c1dh,513
 8709  8461     AD 11 18    			lda	_g_GameMTJuidgeX
 8710  8464     38          			sec
 8711  8465     ED 0D 18    			sbc	_g_GameMTMapX
 8712  8468     48          			pha
 8713  8469     A9 10       			lda	#16
 8714  846B     85 23       			sta	__oper2
 8715  846D     68          			pla
 8716  846E     20 EF DC    			jsr	__uns_mult_char
 8717  8471     A0 22       			ldy	#+0+?LSC8
 8718  8473     91 28       			sta	(__stack_ptr),y
 8719  8475     AD 12 18    			lda	_g_GameMTJuidgeY
 8720  8478     38          			sec
 8721  8479     ED 0E 18    			sbc	_g_GameMTMapY
 8722  847C     48          			pha
 8723  847D     A9 10       			lda	#16
 8724  847F     85 23       			sta	__oper2
 8725  8481     68          			pla
 8726  8482     20 EF DC    			jsr	__uns_mult_char
 8727  8485     A0 23       			ldy	#+1+?LSC8
 8728  8487     91 28       			sta	(__stack_ptr),y
 8729  8489     AD 11 18    			lda	_g_GameMTJuidgeX
 8730  848C     38          			sec
 8731  848D     ED 0D 18    			sbc	_g_GameMTMapX
 8732  8490     48          			pha
 8733  8491     A9 10       			lda	#16
 8734  8493     85 23       			sta	__oper2
 8735  8495     68          			pla
 8736  8496     20 EF DC    			jsr	__uns_mult_char
 8737  8499     18          			clc
 8738  849A     69 0F       			adc	#15
 8739  849C     A0 24       			ldy	#+2+?LSC8
 8740  849E     91 28       			sta	(__stack_ptr),y
 8741  84A0     AD 12 18    			lda	_g_GameMTJuidgeY
 8742  84A3     38          			sec
 8743  84A4     ED 0E 18    			sbc	_g_GameMTMapY
 8744  84A7     48          			pha
 8745  84A8     A9 10       			lda	#16
 8746  84AA     85 23       			sta	__oper2
 8747  84AC     68          			pla
 8748  84AD     20 EF DC    			jsr	__uns_mult_char
 8749  84B0     18          			clc
 8750  84B1     69 0F       			adc	#15
 8751  84B3     A0 21       			ldy	#-1+?LSC8
 8752  84B5     38          			sec
 8753  84B6     F1 28       			sbc	(__stack_ptr),y
 8754  84B8     A0 25       			ldy	#+3+?LSC8
 8755  84BA     91 28       			sta	(__stack_ptr),y
 8756  84BC     A9 02       			lda	#2
 8757  84BE     85 23       			sta	__oper2
 8758  84C0     A0 21       			ldy	#-1+?LSC8
 8759  84C2     B1 28       			lda	(__stack_ptr),y
 8760  84C4     20 EF DC    			jsr	__uns_mult_char
 8761  84C7     85 23       			sta	__oper2
 8762  84C9     A2 00       			ldx	#0
 8763  84CB     86 24       			stx	__oper2+1
  Tue Jan 13 23:03:19 2026                                                                                               Page  155




 8764  84CD     18          			clc
 8765  84CE     A5 28       			lda	__stack_ptr
 8766  84D0     69 01       			adc	#.low.-33+?LSC8
 8767  84D2     85 20       			sta	__oper1
 8768  84D4     A5 29       			lda	__stack_ptr+1
 8769  84D6     69 00       			adc	#.high.-33+?LSC8
 8770  84D8     85 21       			sta	__oper1+1
 8771  84DA     18          			clc
 8772  84DB     A5 20       			lda	__oper1
 8773  84DD     65 23       			adc	__oper2
 8774  84DF     85 20       			sta	__oper1
 8775  84E1     A5 21       			lda	__oper1+1
 8776  84E3     65 24       			adc	__oper2+1
 8777  84E5     85 21       			sta	__oper1+1
 8778  84E7     A0 26       			ldy	#+4+?LSC8
 8779  84E9     A5 20       			lda	__oper1
 8780  84EB     91 28       			sta	(__stack_ptr),y
 8781  84ED     C8          			iny
 8782  84EE     A5 21       			lda	__oper1+1
 8783  84F0     91 28       			sta	(__stack_ptr),y
 8784  84F2     A9 00       			lda	#0
 8785  84F4     20 AA DA    			jsr	__store_char_funct_arg
 8786  84F7     A0 27       			ldy	#+4+?LSC8+1
 8787  84F9     B1 28       			lda	(__stack_ptr),y
 8788  84FB     85 20       			sta	__oper1
 8789  84FD     C8          			iny
 8790  84FE     B1 28       			lda	(__stack_ptr),y
 8791  8500     85 21       			sta	__oper1+1
 8792  8502     20 CA DA    			jsr	__store_int_funct_arg
 8793  8505     A0 28       			ldy	#+3+?LSC8+3
 8794  8507     B1 28       			lda	(__stack_ptr),y
 8795  8509     20 AA DA    			jsr	__store_char_funct_arg
 8796  850C     A0 28       			ldy	#+2+?LSC8+4
 8797  850E     B1 28       			lda	(__stack_ptr),y
 8798  8510     20 AA DA    			jsr	__store_char_funct_arg
 8799  8513     A0 28       			ldy	#+1+?LSC8+5
 8800  8515     B1 28       			lda	(__stack_ptr),y
 8801  8517     20 AA DA    			jsr	__store_char_funct_arg
 8802  851A     A0 28       			ldy	#+0+?LSC8+6
 8803  851C     B1 28       			lda	(__stack_ptr),y
 8804  851E     A2 8E       			ldx	#.low.&SysPicture
 8805  8520     86 26       			stx	__addr_reg
 8806  8522     A2 E7       			ldx	#.high.&SysPicture+1
 8807  8524     86 27       			stx	__addr_reg+1
 8808                     			.bf_call
 8809  8526     20 F6 D2    			jsr	__banked_function_call
 8810  8529     08          			php
 8811  852A     78          			sei
 8812  852B     18          			clc
 8813  852C     A5 28       			lda	__stack_ptr
 8814  852E     69 06       			adc	#.low.6
 8815  8530     85 28       			sta	__stack_ptr
 8816  8532     A5 29       			lda	__stack_ptr+1
 8817  8534     69 00       			adc	#.high.6
 8818  8536     85 29       			sta	__stack_ptr+1
 8819  8538     28          			plp
 8820                     			.c_end	03cc2h,513
  Tue Jan 13 23:03:19 2026                                                                                               Page  156




 8821                     	;(i+1>1)
 8822                     			.if_top	03ccah,?BOL68,3,514
 8823  8539     A0 21       			ldy	#-1+?LSC8
 8824  853B     B1 28       			lda	(__stack_ptr),y
 8825  853D     18          			clc
 8826  853E     69 01       			adc	#1
 8827  8540     38          			sec
 8828  8541     E9 01       			sbc	#1
 8829  8543     B0 03       			bcs	+3
 8830  8545     4C DC 85    			jmp	?BOL68
 8831  8548     D0 03       			bne	+3
 8832  854A     4C DC 85    			jmp	?BOL68
 8833         4214 854D   	?PLC51:		.equal	$
 8834                     			.c_end	03cd2h,514
 8835                     	;SysLcdPartClear((g_GameMTJuidgeX-g_GameMTMapX)*16,(g_GameMTJuidgeY-g_GameMTMapY)*16+16-i,(g_GameMTJuidgeX-g_GameMTM
                            apX)*16+15,(g_GameMTJuidgeY-g_GameMTMapY)*16+16-i)
 8836                     			.c_start  03ccah,514
 8837  854D     AD 11 18    			lda	_g_GameMTJuidgeX
 8838  8550     38          			sec
 8839  8551     ED 0D 18    			sbc	_g_GameMTMapX
 8840  8554     48          			pha
 8841  8555     A9 10       			lda	#16
 8842  8557     85 23       			sta	__oper2
 8843  8559     68          			pla
 8844  855A     20 EF DC    			jsr	__uns_mult_char
 8845  855D     A0 22       			ldy	#+0+?LSC8
 8846  855F     91 28       			sta	(__stack_ptr),y
 8847  8561     AD 12 18    			lda	_g_GameMTJuidgeY
 8848  8564     38          			sec
 8849  8565     ED 0E 18    			sbc	_g_GameMTMapY
 8850  8568     48          			pha
 8851  8569     A9 10       			lda	#16
 8852  856B     85 23       			sta	__oper2
 8853  856D     68          			pla
 8854  856E     20 EF DC    			jsr	__uns_mult_char
 8855  8571     18          			clc
 8856  8572     69 10       			adc	#16
 8857  8574     A0 21       			ldy	#-1+?LSC8
 8858  8576     38          			sec
 8859  8577     F1 28       			sbc	(__stack_ptr),y
 8860  8579     A0 23       			ldy	#+1+?LSC8
 8861  857B     91 28       			sta	(__stack_ptr),y
 8862  857D     AD 11 18    			lda	_g_GameMTJuidgeX
 8863  8580     38          			sec
 8864  8581     ED 0D 18    			sbc	_g_GameMTMapX
 8865  8584     48          			pha
 8866  8585     A9 10       			lda	#16
 8867  8587     85 23       			sta	__oper2
 8868  8589     68          			pla
 8869  858A     20 EF DC    			jsr	__uns_mult_char
 8870  858D     18          			clc
 8871  858E     69 0F       			adc	#15
 8872  8590     A0 24       			ldy	#+2+?LSC8
 8873  8592     91 28       			sta	(__stack_ptr),y
 8874  8594     AD 12 18    			lda	_g_GameMTJuidgeY
 8875  8597     38          			sec
 8876  8598     ED 0E 18    			sbc	_g_GameMTMapY
  Tue Jan 13 23:03:19 2026                                                                                               Page  157




 8877  859B     48          			pha
 8878  859C     A9 10       			lda	#16
 8879  859E     85 23       			sta	__oper2
 8880  85A0     68          			pla
 8881  85A1     20 EF DC    			jsr	__uns_mult_char
 8882  85A4     18          			clc
 8883  85A5     69 10       			adc	#16
 8884  85A7     A0 21       			ldy	#-1+?LSC8
 8885  85A9     38          			sec
 8886  85AA     F1 28       			sbc	(__stack_ptr),y
 8887  85AC     20 AA DA    			jsr	__store_char_funct_arg
 8888  85AF     A0 25       			ldy	#+2+?LSC8+1
 8889  85B1     B1 28       			lda	(__stack_ptr),y
 8890  85B3     20 AA DA    			jsr	__store_char_funct_arg
 8891  85B6     A0 25       			ldy	#+1+?LSC8+2
 8892  85B8     B1 28       			lda	(__stack_ptr),y
 8893  85BA     20 AA DA    			jsr	__store_char_funct_arg
 8894  85BD     A0 25       			ldy	#+0+?LSC8+3
 8895  85BF     B1 28       			lda	(__stack_ptr),y
 8896  85C1     A2 5D       			ldx	#.low.&SysLcdPartClear
 8897  85C3     86 26       			stx	__addr_reg
 8898  85C5     A2 E8       			ldx	#.high.&SysLcdPartClear+1
 8899  85C7     86 27       			stx	__addr_reg+1
 8900                     			.bf_call
 8901  85C9     20 F6 D2    			jsr	__banked_function_call
 8902  85CC     08          			php
 8903  85CD     78          			sei
 8904  85CE     18          			clc
 8905  85CF     A5 28       			lda	__stack_ptr
 8906  85D1     69 03       			adc	#.low.3
 8907  85D3     85 28       			sta	__stack_ptr
 8908  85D5     A5 29       			lda	__stack_ptr+1
 8909  85D7     69 00       			adc	#.high.3
 8910  85D9     85 29       			sta	__stack_ptr+1
 8911  85DB     28          			plp
 8912                     			.c_end	03d78h,514
 8913                     	;;
 8914                     	;	 		
 8915                     	;
 8916         4324 85DC   	?BOL68:		.equal	$
 8917                     			.for_bot  2,515
 8918  85DC     4C 3F 84    			jmp	?FLA66
 8919         4424 85DF   	?BOL66:		.equal	$
 8920                     	;
 8921                     	;else 
 8922                     	;	 
 8923  85DF     4C B1 87    			jmp	?EOI65
 8924                     			.if_else  ?EOI65,1,518
 8925         4724 85E2   	?BOL65:		.equal	$
 8926                     	;i=0;
 8927                     			.c_start  03d99h,519
 8928  85E2     A0 21       			ldy	#-1+?LSC8
 8929  85E4     A9 00       			lda	#0
 8930  85E6     91 28       			sta	(__stack_ptr),y
 8931                     			.c_end	03da0h,519
 8932         3725 85E8   	?FLC69:		.equal	$
 8933                     	;i<8;
  Tue Jan 13 23:03:19 2026                                                                                               Page  158




 8934                     			.for_top  03da1h,?BOL69,?FLB69,?FLA69,2,519
 8935  85E8     A0 21       			ldy	#-1+?LSC8
 8936  85EA     B1 28       			lda	(__stack_ptr),y
 8937  85EC     38          			sec
 8938  85ED     E9 08       			sbc	#8
 8939  85EF     90 03       			bcc	+3
 8940  85F1     4C B1 87    			jmp	?BOL69
 8941                     			.c_end	03da4h,519
 8942  85F4     4C 03 86    			jmp	?FLB69
 8943         3526 85F7   	?FLA69:		.equal	$
 8944                     	;i++)
 8945                     	;	 		
 8946                     			.for_adj  03da5h,519
 8947  85F7     A0 21       			ldy	#-1+?LSC8
 8948  85F9     B1 28       			lda	(__stack_ptr),y
 8949  85FB     18          			clc
 8950  85FC     69 01       			adc	#1
 8951  85FE     91 28       			sta	(__stack_ptr),y
 8952                     			.c_end	03daah,520
 8953  8600     4C E8 85    			jmp	?FLC69
 8954         3110 8603   	?FLB69:		.equal	$
 8955                     	;GameMTGetInput()
 8956                     			.c_start  03db7h,521
 8957  8603     A2 03       			ldx	#.low.&GameMTGetInput
 8958  8605     86 26       			stx	__addr_reg
 8959  8607     A2 90       			ldx	#.high.&GameMTGetInput+1
 8960  8609     86 27       			stx	__addr_reg+1
 8961                     			.bf_call
 8962  860B     20 F6 D2    			jsr	__banked_function_call
 8963                     			.c_end	03dc7h,521
 8964                     	;(g_GameMTQuit)
 8965                     			.if_top	03dc8h,?BOL70,3,521
 8966  860E     AD 05 18    			lda	_g_GameMTQuit
 8967  8611     D0 03       			bne	+3
 8968  8613     4C 19 86    			jmp	?BOL70
 8969         3411 8616   	?PLC52:		.equal	$
 8970                     			.c_end	03dd7h,521
 8971                     	;return
 8972                     			.c_start  03dc8h,521
 8973  8616     4C B1 87    			jmp	?BOF8
 8974                     			.c_end	03ddeh,521
 8975                     	;;
 8976                     	;	 			
 8977                     	;flag=0;
 8978         3711 8619   	?BOL70:		.equal	$
 8979                     			.c_start  03de6h,522
 8980  8619     A0 00       			ldy	#-34+?LSC8
 8981  861B     A9 00       			lda	#0
 8982  861D     91 28       			sta	(__stack_ptr),y
 8983                     			.c_end	03df0h,522
 8984         4511 861F   	?FLC71:		.equal	$
 8985                     	;flag<16;
 8986                     			.for_top  03df1h,?BOL71,?FLB71,?FLA71,3,522
 8987  861F     A0 00       			ldy	#-34+?LSC8
 8988  8621     B1 28       			lda	(__stack_ptr),y
 8989  8623     38          			sec
 8990  8624     E9 10       			sbc	#16
  Tue Jan 13 23:03:19 2026                                                                                               Page  159




 8991  8626     90 03       			bcc	+3
 8992  8628     4C 0F 87    			jmp	?BOL71
 8993                     			.c_end	03df8h,522
 8994  862B     4C 3A 86    			jmp	?FLB71
 8995         4312 862E   	?FLA71:		.equal	$
 8996                     	;flag++)
 8997                     	;	 			
 8998                     			.for_adj  03df9h,522
 8999  862E     A0 00       			ldy	#-34+?LSC8
 9000  8630     B1 28       			lda	(__stack_ptr),y
 9001  8632     18          			clc
 9002  8633     69 01       			adc	#1
 9003  8635     91 28       			sta	(__stack_ptr),y
 9004                     			.c_end	03e01h,523
 9005  8637     4C 1F 86    			jmp	?FLC71
 9006         3813 863A   	?FLB71:		.equal	$
 9007                     	;Buf[flag*2]=Buf[flag*2]<<1
 9008                     			.c_start  03e10h,524
 9009  863A     A9 02       			lda	#2
 9010  863C     85 23       			sta	__oper2
 9011  863E     A0 00       			ldy	#-34+?LSC8
 9012  8640     B1 28       			lda	(__stack_ptr),y
 9013  8642     20 EF DC    			jsr	__uns_mult_char
 9014  8645     85 20       			sta	__oper1
 9015  8647     A9 00       			lda	#0
 9016  8649     85 21       			sta	__oper1+1
 9017  864B     18          			clc
 9018  864C     A5 28       			lda	__stack_ptr
 9019  864E     65 20       			adc	__oper1
 9020  8650     85 20       			sta	__oper1
 9021  8652     A5 29       			lda	__stack_ptr+1
 9022  8654     65 21       			adc	__oper1+1
 9023  8656     85 21       			sta	__oper1+1
 9024  8658     A0 01       			ldy	#-33+?LSC8
 9025  865A     B1 20       			lda	(__oper1),y
 9026  865C     48          			pha
 9027  865D     A9 01       			lda	#1
 9028  865F     85 23       			sta	__oper2
 9029  8661     68          			pla
 9030  8662     20 09 DA    			jsr	__sl_char
 9031  8665     A0 22       			ldy	#+0+?LSC8
 9032  8667     91 28       			sta	(__stack_ptr),y
 9033  8669     A9 02       			lda	#2
 9034  866B     85 23       			sta	__oper2
 9035  866D     A0 00       			ldy	#-34+?LSC8
 9036  866F     B1 28       			lda	(__stack_ptr),y
 9037  8671     20 EF DC    			jsr	__uns_mult_char
 9038  8674     85 20       			sta	__oper1
 9039  8676     A9 00       			lda	#0
 9040  8678     85 21       			sta	__oper1+1
 9041  867A     18          			clc
 9042  867B     A5 28       			lda	__stack_ptr
 9043  867D     69 01       			adc	#.low.-33+?LSC8
 9044  867F     AA          			tax
 9045  8680     A5 29       			lda	__stack_ptr+1
 9046  8682     69 00       			adc	#.high.-33+?LSC8
 9047  8684     A8          			tay
  Tue Jan 13 23:03:19 2026                                                                                               Page  160




 9048  8685     18          			clc
 9049  8686     8A          			txa
 9050  8687     65 20       			adc	__oper1
 9051  8689     85 20       			sta	__oper1
 9052  868B     98          			tya
 9053  868C     65 21       			adc	__oper1+1
 9054  868E     85 21       			sta	__oper1+1
 9055  8690     A5 20       			lda	__oper1
 9056  8692     85 23       			sta	__oper2
 9057  8694     A5 21       			lda	__oper1+1
 9058  8696     85 24       			sta	__oper2+1
 9059  8698     A0 22       			ldy	#+0+?LSC8
 9060  869A     B1 28       			lda	(__stack_ptr),y
 9061  869C     A0 00       			ldy	#0
 9062  869E     91 23       			sta	(__oper2),y
 9063                     			.c_end	03e2ah,524
 9064                     	;Buf[flag*2+1]=Buf[flag*2+1]>>1
 9065                     			.c_start  03e33h,525
 9066  86A0     A9 02       			lda	#2
 9067  86A2     85 23       			sta	__oper2
 9068  86A4     A0 00       			ldy	#-34+?LSC8
 9069  86A6     B1 28       			lda	(__stack_ptr),y
 9070  86A8     20 EF DC    			jsr	__uns_mult_char
 9071  86AB     18          			clc
 9072  86AC     69 01       			adc	#1
 9073  86AE     85 20       			sta	__oper1
 9074  86B0     A9 00       			lda	#0
 9075  86B2     85 21       			sta	__oper1+1
 9076  86B4     18          			clc
 9077  86B5     A5 28       			lda	__stack_ptr
 9078  86B7     65 20       			adc	__oper1
 9079  86B9     85 20       			sta	__oper1
 9080  86BB     A5 29       			lda	__stack_ptr+1
 9081  86BD     65 21       			adc	__oper1+1
 9082  86BF     85 21       			sta	__oper1+1
 9083  86C1     A0 01       			ldy	#-33+?LSC8
 9084  86C3     B1 20       			lda	(__oper1),y
 9085  86C5     48          			pha
 9086  86C6     A9 01       			lda	#1
 9087  86C8     85 23       			sta	__oper2
 9088  86CA     68          			pla
 9089  86CB     20 E1 DB    			jsr	__u_sr_char
 9090  86CE     A0 22       			ldy	#+0+?LSC8
 9091  86D0     91 28       			sta	(__stack_ptr),y
 9092  86D2     A9 02       			lda	#2
 9093  86D4     85 23       			sta	__oper2
 9094  86D6     A0 00       			ldy	#-34+?LSC8
 9095  86D8     B1 28       			lda	(__stack_ptr),y
 9096  86DA     20 EF DC    			jsr	__uns_mult_char
 9097  86DD     18          			clc
 9098  86DE     69 01       			adc	#1
 9099  86E0     85 20       			sta	__oper1
 9100  86E2     A9 00       			lda	#0
 9101  86E4     85 21       			sta	__oper1+1
 9102  86E6     18          			clc
 9103  86E7     A5 28       			lda	__stack_ptr
 9104  86E9     69 01       			adc	#.low.-33+?LSC8
  Tue Jan 13 23:03:19 2026                                                                                               Page  161




 9105  86EB     AA          			tax
 9106  86EC     A5 29       			lda	__stack_ptr+1
 9107  86EE     69 00       			adc	#.high.-33+?LSC8
 9108  86F0     A8          			tay
 9109  86F1     18          			clc
 9110  86F2     8A          			txa
 9111  86F3     65 20       			adc	__oper1
 9112  86F5     85 20       			sta	__oper1
 9113  86F7     98          			tya
 9114  86F8     65 21       			adc	__oper1+1
 9115  86FA     85 21       			sta	__oper1+1
 9116  86FC     A5 20       			lda	__oper1
 9117  86FE     85 23       			sta	__oper2
 9118  8700     A5 21       			lda	__oper1+1
 9119  8702     85 24       			sta	__oper2+1
 9120  8704     A0 22       			ldy	#+0+?LSC8
 9121  8706     B1 28       			lda	(__stack_ptr),y
 9122  8708     A0 00       			ldy	#0
 9123  870A     91 23       			sta	(__oper2),y
 9124                     			.c_end	03e51h,525
 9125                     	;
 9126                     			.for_bot  3,526
 9127  870C     4C 2E 86    			jmp	?FLA71
 9128         4410 870F   	?BOL71:		.equal	$
 9129                     	;SysPicture((g_GameMTJuidgeX-g_GameMTMapX)*16,(g_GameMTJuidgeY-g_GameMTMapY)*16,(g_GameMTJuidgeX-g_GameMTMapX)*16+15
                            ,(g_GameMTJuidgeY-g_GameMTMapY)*16+15,Buf,0)
 9130                     			.c_start  03e61h,527
 9131  870F     AD 11 18    			lda	_g_GameMTJuidgeX
 9132  8712     38          			sec
 9133  8713     ED 0D 18    			sbc	_g_GameMTMapX
 9134  8716     48          			pha
 9135  8717     A9 10       			lda	#16
 9136  8719     85 23       			sta	__oper2
 9137  871B     68          			pla
 9138  871C     20 EF DC    			jsr	__uns_mult_char
 9139  871F     A0 22       			ldy	#+0+?LSC8
 9140  8721     91 28       			sta	(__stack_ptr),y
 9141  8723     AD 12 18    			lda	_g_GameMTJuidgeY
 9142  8726     38          			sec
 9143  8727     ED 0E 18    			sbc	_g_GameMTMapY
 9144  872A     48          			pha
 9145  872B     A9 10       			lda	#16
 9146  872D     85 23       			sta	__oper2
 9147  872F     68          			pla
 9148  8730     20 EF DC    			jsr	__uns_mult_char
 9149  8733     A0 23       			ldy	#+1+?LSC8
 9150  8735     91 28       			sta	(__stack_ptr),y
 9151  8737     AD 11 18    			lda	_g_GameMTJuidgeX
 9152  873A     38          			sec
 9153  873B     ED 0D 18    			sbc	_g_GameMTMapX
 9154  873E     48          			pha
 9155  873F     A9 10       			lda	#16
 9156  8741     85 23       			sta	__oper2
 9157  8743     68          			pla
 9158  8744     20 EF DC    			jsr	__uns_mult_char
 9159  8747     18          			clc
 9160  8748     69 0F       			adc	#15
  Tue Jan 13 23:03:19 2026                                                                                               Page  162




 9161  874A     A0 24       			ldy	#+2+?LSC8
 9162  874C     91 28       			sta	(__stack_ptr),y
 9163  874E     AD 12 18    			lda	_g_GameMTJuidgeY
 9164  8751     38          			sec
 9165  8752     ED 0E 18    			sbc	_g_GameMTMapY
 9166  8755     48          			pha
 9167  8756     A9 10       			lda	#16
 9168  8758     85 23       			sta	__oper2
 9169  875A     68          			pla
 9170  875B     20 EF DC    			jsr	__uns_mult_char
 9171  875E     18          			clc
 9172  875F     69 0F       			adc	#15
 9173  8761     A0 25       			ldy	#+3+?LSC8
 9174  8763     91 28       			sta	(__stack_ptr),y
 9175  8765     A9 00       			lda	#0
 9176  8767     20 AA DA    			jsr	__store_char_funct_arg
 9177  876A     18          			clc
 9178  876B     A5 28       			lda	__stack_ptr
 9179  876D     69 02       			adc	#.low.-33+?LSC8+1
 9180  876F     85 20       			sta	__oper1
 9181  8771     A5 29       			lda	__stack_ptr+1
 9182  8773     69 00       			adc	#.high.-33+?LSC8+1
 9183  8775     85 21       			sta	__oper1+1
 9184  8777     20 CA DA    			jsr	__store_int_funct_arg
 9185  877A     A0 28       			ldy	#+3+?LSC8+3
 9186  877C     B1 28       			lda	(__stack_ptr),y
 9187  877E     20 AA DA    			jsr	__store_char_funct_arg
 9188  8781     A0 28       			ldy	#+2+?LSC8+4
 9189  8783     B1 28       			lda	(__stack_ptr),y
 9190  8785     20 AA DA    			jsr	__store_char_funct_arg
 9191  8788     A0 28       			ldy	#+1+?LSC8+5
 9192  878A     B1 28       			lda	(__stack_ptr),y
 9193  878C     20 AA DA    			jsr	__store_char_funct_arg
 9194  878F     A0 28       			ldy	#+0+?LSC8+6
 9195  8791     B1 28       			lda	(__stack_ptr),y
 9196  8793     A2 8E       			ldx	#.low.&SysPicture
 9197  8795     86 26       			stx	__addr_reg
 9198  8797     A2 E7       			ldx	#.high.&SysPicture+1
 9199  8799     86 27       			stx	__addr_reg+1
 9200                     			.bf_call
 9201  879B     20 F6 D2    			jsr	__banked_function_call
 9202  879E     08          			php
 9203  879F     78          			sei
 9204  87A0     18          			clc
 9205  87A1     A5 28       			lda	__stack_ptr
 9206  87A3     69 06       			adc	#.low.6
 9207  87A5     85 28       			sta	__stack_ptr
 9208  87A7     A5 29       			lda	__stack_ptr+1
 9209  87A9     69 00       			adc	#.high.6
 9210  87AB     85 29       			sta	__stack_ptr+1
 9211  87AD     28          			plp
 9212                     			.c_end	03f00h,527
 9213                     	;
 9214                     			.for_bot  2,528
 9215  87AE     4C F7 85    			jmp	?FLA69
 9216         4621 87B1   	?BOL69:		.equal	$
 9217                     	;
  Tue Jan 13 23:03:19 2026                                                                                               Page  163




 9218         4701 87B1   	?EOI65:		.equal	$
 9219                     	;
 9220                     			.f_end	03f0fh,530
 9221         47E1 87B1   	?BOF8:		.equal	$
 9222  87B1     08          			php
 9223  87B2     78          			sei
 9224  87B3     18          			clc
 9225  87B4     A5 28       			lda	__stack_ptr
 9226  87B6     69 28       			adc	#.low.+?LSC8+?TSC8+0
 9227  87B8     85 28       			sta	__stack_ptr
 9228  87BA     A5 29       			lda	__stack_ptr+1
 9229  87BC     69 00       			adc	#.high.+?LSC8+?TSC8+0
 9230  87BE     85 29       			sta	__stack_ptr+1
 9231  87C0     28          			plp
 9232                     			.f_return
 9233  87C1     60          			rts
 9234                     	;
 9235                     			.f_start  040cdh,542
 9236                     			.bank_table
 9237                     			.global	&GameMTNewFloor
 9238  9018     C2 87 E0    	&GameMTNewFloor:	.bankaddr	_GameMTNewFloor
 9239                     			.ends
 9240         3911 87C2   	_GameMTNewFloor:	.equal	$
 9241                     			.attrib	_GameMTNewFloor,543,f,b
 9242                     	;
 9243                     	;
 9244         0000        	?ASC9:		.equal	0
 9245         0002        	?TSC9:		.equal	2
 9246         000F        	?LSC9:		.equal	15
 9247  87C2     08          			php
 9248  87C3     78          			sei
 9249  87C4     38          			sec
 9250  87C5     A5 28       			lda	__stack_ptr
 9251  87C7     E9 11       			sbc	#.low.+?LSC9+?TSC9
 9252  87C9     85 28       			sta	__stack_ptr
 9253  87CB     A5 29       			lda	__stack_ptr+1
 9254  87CD     E9 00       			sbc	#.high.+?LSC9+?TSC9
 9255  87CF     85 29       			sta	__stack_ptr+1
 9256  87D1     28          			plp
 9257                     	;unsigned char 	text[14]=f;
 9258                     	;	
 9259                     			.local	_text,544,v,c,u,d,d,d,d,-14+?LSC9+0,0eh,00h
 9260                     			.local	_f,544,v,c,u,d,d,d,d,-15+?LSC9+0,00h
 9261                     	;f=g_GameMTFloor/10
 9262                     			.c_start  040f4h,545
 9263  87D2     A9 0A       			lda	#10
 9264  87D4     85 23       			sta	__oper2
 9265  87D6     AD A7 1F    			lda	_g_GameMTFloor
 9266  87D9     20 7B DC    			jsr	__uns_div_char
 9267  87DC     A0 00       			ldy	#-15+?LSC9
 9268  87DE     91 28       			sta	(__stack_ptr),y
 9269                     			.c_end	04106h,545
 9270                     	;(g_GameMTHeroX>6)
 9271                     			.if_top	0410ah,?BOL72,1,546
 9272  87E0     AD 0F 18    			lda	_g_GameMTHeroX
 9273  87E3     38          			sec
 9274  87E4     E9 06       			sbc	#6
  Tue Jan 13 23:03:19 2026                                                                                               Page  164




 9275  87E6     B0 03       			bcs	+3
 9276  87E8     4C F8 87    			jmp	?BOL72
 9277  87EB     D0 03       			bne	+3
 9278  87ED     4C F8 87    			jmp	?BOL72
 9279         4525 87F0   	?PLC53:		.equal	$
 9280                     			.c_end	0411ch,546
 9281                     	;g_GameMTMapX=3
 9282                     			.c_start  0410ah,546
 9283  87F0     A9 03       			lda	#3
 9284  87F2     8D 0D 18    			sta	_g_GameMTMapX
 9285                     			.c_end	0412bh,546
 9286                     	;;
 9287                     	;		
 9288                     	;else if
 9289  87F5     4C 19 88    			jmp	?EOI72
 9290                     			.if_else  ?EOI72,1,547
 9291         3626 87F8   	?BOL72:		.equal	$
 9292                     	;(g_GameMTHeroX>4)
 9293                     			.if_top	04135h,?BOL74,1,547
 9294  87F8     AD 0F 18    			lda	_g_GameMTHeroX
 9295  87FB     38          			sec
 9296  87FC     E9 04       			sbc	#4
 9297  87FE     B0 03       			bcs	+3
 9298  8800     4C 14 88    			jmp	?BOL74
 9299  8803     D0 03       			bne	+3
 9300  8805     4C 14 88    			jmp	?BOL74
 9301         3610 8808   	?PLC54:		.equal	$
 9302                     			.c_end	04147h,547
 9303                     	;g_GameMTMapX=g_GameMTHeroX-4
 9304                     			.c_start  04135h,547
 9305  8808     AD 0F 18    			lda	_g_GameMTHeroX
 9306  880B     38          			sec
 9307  880C     E9 04       			sbc	#4
 9308  880E     8D 0D 18    			sta	_g_GameMTMapX
 9309                     			.c_end	04164h,547
 9310                     	;;
 9311                     	;			
 9312                     	;else 
 9313  8811     4C 19 88    			jmp	?EOI72
 9314                     			.if_else  ?EOI72,1,548
 9315         3211 8814   	?BOL74:		.equal	$
 9316                     	;g_GameMTMapX=0
 9317                     			.c_start  0416fh,548
 9318  8814     A9 00       			lda	#0
 9319  8816     8D 0D 18    			sta	_g_GameMTMapX
 9320                     			.c_end	0417dh,548
 9321                     	;;
 9322                     	;	
 9323         3711 8819   	?EOI72:		.equal	$
 9324                     	;(g_GameMTHeroY>7)
 9325                     			.if_top	04181h,?BOL76,1,549
 9326  8819     AD 10 18    			lda	_g_GameMTHeroY
 9327  881C     38          			sec
 9328  881D     E9 07       			sbc	#7
 9329  881F     B0 03       			bcs	+3
 9330  8821     4C 31 88    			jmp	?BOL76
 9331  8824     D0 03       			bne	+3
  Tue Jan 13 23:03:19 2026                                                                                               Page  165




 9332  8826     4C 31 88    			jmp	?BOL76
 9333         3712 8829   	?PLC55:		.equal	$
 9334                     			.c_end	04193h,549
 9335                     	;g_GameMTMapY=5
 9336                     			.c_start  04181h,549
 9337  8829     A9 05       			lda	#5
 9338  882B     8D 0E 18    			sta	_g_GameMTMapY
 9339                     			.c_end	041a2h,549
 9340                     	;;
 9341                     	;		
 9342                     	;else if
 9343  882E     4C 52 88    			jmp	?EOI76
 9344                     			.if_else  ?EOI76,1,550
 9345         4612 8831   	?BOL76:		.equal	$
 9346                     	;(g_GameMTHeroY>3)
 9347                     			.if_top	041ach,?BOL78,1,550
 9348  8831     AD 10 18    			lda	_g_GameMTHeroY
 9349  8834     38          			sec
 9350  8835     E9 03       			sbc	#3
 9351  8837     B0 03       			bcs	+3
 9352  8839     4C 4D 88    			jmp	?BOL78
 9353  883C     D0 03       			bne	+3
 9354  883E     4C 4D 88    			jmp	?BOL78
 9355         4613 8841   	?PLC56:		.equal	$
 9356                     			.c_end	041beh,550
 9357                     	;g_GameMTMapY=g_GameMTHeroY-3
 9358                     			.c_start  041ach,550
 9359  8841     AD 10 18    			lda	_g_GameMTHeroY
 9360  8844     38          			sec
 9361  8845     E9 03       			sbc	#3
 9362  8847     8D 0E 18    			sta	_g_GameMTMapY
 9363                     			.c_end	041dbh,550
 9364                     	;;
 9365                     	;			
 9366                     	;else 
 9367  884A     4C 52 88    			jmp	?EOI76
 9368                     			.if_else  ?EOI76,1,551
 9369         4214 884D   	?BOL78:		.equal	$
 9370                     	;g_GameMTMapY=0
 9371                     			.c_start  041e6h,551
 9372  884D     A9 00       			lda	#0
 9373  884F     8D 0E 18    			sta	_g_GameMTMapY
 9374                     			.c_end	041f4h,551
 9375                     	;;
 9376                     	;	
 9377         4714 8852   	?EOI76:		.equal	$
 9378                     	;g_GameMTJuidgeY=g_GameMTHeroX
 9379                     			.c_start  041f8h,552
 9380  8852     AD 0F 18    			lda	_g_GameMTHeroX
 9381  8855     8D 12 18    			sta	_g_GameMTJuidgeY
 9382                     			.c_end	04215h,552
 9383                     	;g_GameMTJuidgeX=g_GameMTHeroY
 9384                     			.c_start  04219h,553
 9385  8858     AD 10 18    			lda	_g_GameMTHeroY
 9386  885B     8D 11 18    			sta	_g_GameMTJuidgeX
 9387                     			.c_end	04236h,553
 9388                     	;SysMemcpy(text,"   ",9)
  Tue Jan 13 23:03:19 2026                                                                                               Page  166




 9389                     			.c_start  0423ah,554
 9390                     			.const_data_psnake
 9391  8D83     20 20 20 C4 A7 	?PLC57:		.byte	"   ",0
              CB FE B5 DA 00 
 9392                     			.program_psnake
 9393  885E     A9 09       			lda	#.low.9
 9394  8860     85 20       			sta	__oper1
 9395  8862     A9 00       			lda	#.high.9
 9396  8864     85 21       			sta	__oper1+1
 9397  8866     20 CA DA    			jsr	__store_int_funct_arg
 9398  8869     A9 83       			lda	#.low.?PLC57
 9399  886B     85 20       			sta	__oper1
 9400  886D     A9 8D       			lda	#.high.?PLC57
 9401  886F     85 21       			sta	__oper1+1
 9402  8871     20 CA DA    			jsr	__store_int_funct_arg
 9403  8874     18          			clc
 9404  8875     A5 28       			lda	__stack_ptr
 9405  8877     69 05       			adc	#.low.-14+?LSC9+4
 9406  8879     85 20       			sta	__oper1
 9407  887B     A5 29       			lda	__stack_ptr+1
 9408  887D     69 00       			adc	#.high.-14+?LSC9+4
 9409  887F     85 21       			sta	__oper1+1
 9410  8881     20 CA DA    			jsr	__store_int_funct_arg
 9411                     			.f_call	_SysMemcpy
 9412  8884     20 01 E9    			jsr	_SysMemcpy
 9413  8887     08          			php
 9414  8888     78          			sei
 9415  8889     18          			clc
 9416  888A     A5 28       			lda	__stack_ptr
 9417  888C     69 06       			adc	#.low.6
 9418  888E     85 28       			sta	__stack_ptr
 9419  8890     A5 29       			lda	__stack_ptr+1
 9420  8892     69 00       			adc	#.high.6
 9421  8894     85 29       			sta	__stack_ptr+1
 9422  8896     28          			plp
 9423                     			.c_end	04257h,554
 9424                     	;(f+1>1)
 9425                     	;	
 9426                     			.if_top	0425bh,?BOL80,1,555
 9427  8897     A0 00       			ldy	#-15+?LSC9
 9428  8899     B1 28       			lda	(__stack_ptr),y
 9429  889B     18          			clc
 9430  889C     69 01       			adc	#1
 9431  889E     38          			sec
 9432  889F     E9 01       			sbc	#1
 9433  88A1     B0 03       			bcs	+3
 9434  88A3     4C 79 89    			jmp	?BOL80
 9435  88A6     D0 03       			bne	+3
 9436  88A8     4C 79 89    			jmp	?BOL80
 9437         3921 88AB   	?PLC58:		.equal	$
 9438                     			.c_end	04265h,556
 9439                     	;text[9]='0'+f
 9440                     			.c_start  0426ch,557
 9441  88AB     A9 30       			lda	#48
 9442  88AD     A0 00       			ldy	#-15+?LSC9
 9443  88AF     18          			clc
 9444  88B0     71 28       			adc	(__stack_ptr),y
  Tue Jan 13 23:03:19 2026                                                                                               Page  167




 9445  88B2     A0 0F       			ldy	#+0+?LSC9
 9446  88B4     91 28       			sta	(__stack_ptr),y
 9447  88B6     18          			clc
 9448  88B7     A5 28       			lda	__stack_ptr
 9449  88B9     69 0A       			adc	#.low.-14+9+?LSC9
 9450  88BB     85 20       			sta	__oper1
 9451  88BD     A5 29       			lda	__stack_ptr+1
 9452  88BF     69 00       			adc	#.high.-14+9+?LSC9
 9453  88C1     85 21       			sta	__oper1+1
 9454  88C3     A5 20       			lda	__oper1
 9455  88C5     85 23       			sta	__oper2
 9456  88C7     A5 21       			lda	__oper1+1
 9457  88C9     85 24       			sta	__oper2+1
 9458  88CB     A0 0F       			ldy	#+0+?LSC9
 9459  88CD     B1 28       			lda	(__stack_ptr),y
 9460  88CF     A0 00       			ldy	#0
 9461  88D1     91 23       			sta	(__oper2),y
 9462                     			.c_end	04279h,557
 9463                     	;text[10]='0'+g_GameMTFloor-10*f
 9464                     			.c_start  0427eh,558
 9465  88D3     A9 30       			lda	#48
 9466  88D5     18          			clc
 9467  88D6     6D A7 1F    			adc	_g_GameMTFloor
 9468  88D9     A0 0F       			ldy	#+0+?LSC9
 9469  88DB     91 28       			sta	(__stack_ptr),y
 9470  88DD     A0 00       			ldy	#-15+?LSC9
 9471  88DF     B1 28       			lda	(__stack_ptr),y
 9472  88E1     85 23       			sta	__oper2
 9473  88E3     A9 0A       			lda	#10
 9474  88E5     20 EF DC    			jsr	__uns_mult_char
 9475  88E8     85 23       			sta	__oper2
 9476  88EA     A0 0F       			ldy	#+0+?LSC9
 9477  88EC     B1 28       			lda	(__stack_ptr),y
 9478  88EE     38          			sec
 9479  88EF     E5 23       			sbc	__oper2
 9480  88F1     A0 0F       			ldy	#+0+?LSC9
 9481  88F3     91 28       			sta	(__stack_ptr),y
 9482  88F5     18          			clc
 9483  88F6     A5 28       			lda	__stack_ptr
 9484  88F8     69 0B       			adc	#.low.-14+10+?LSC9
 9485  88FA     85 20       			sta	__oper1
 9486  88FC     A5 29       			lda	__stack_ptr+1
 9487  88FE     69 00       			adc	#.high.-14+10+?LSC9
 9488  8900     85 21       			sta	__oper1+1
 9489  8902     A5 20       			lda	__oper1
 9490  8904     85 23       			sta	__oper2
 9491  8906     A5 21       			lda	__oper1+1
 9492  8908     85 24       			sta	__oper2+1
 9493  890A     A0 0F       			ldy	#+0+?LSC9
 9494  890C     B1 28       			lda	(__stack_ptr),y
 9495  890E     A0 00       			ldy	#0
 9496  8910     91 23       			sta	(__oper2),y
 9497                     			.c_end	0429dh,558
 9498                     	;SysMemcpy(text+11,"\0",3)
 9499                     			.c_start  042a2h,559
 9500                     			.const_data_psnake
 9501  8D8D     B2 E3 00 00 	?PLC59:		.byte	"",0o,0
  Tue Jan 13 23:03:19 2026                                                                                               Page  168




 9502                     			.program_psnake
 9503  8912     A9 0B       			lda	#.low.11
 9504  8914     85 23       			sta	__oper2
 9505  8916     A9 00       			lda	#.high.11
 9506  8918     85 24       			sta	__oper2+1
 9507  891A     18          			clc
 9508  891B     A5 28       			lda	__stack_ptr
 9509  891D     69 01       			adc	#.low.-14+?LSC9
 9510  891F     85 20       			sta	__oper1
 9511  8921     A5 29       			lda	__stack_ptr+1
 9512  8923     69 00       			adc	#.high.-14+?LSC9
 9513  8925     85 21       			sta	__oper1+1
 9514  8927     18          			clc
 9515  8928     A5 20       			lda	__oper1
 9516  892A     65 23       			adc	__oper2
 9517  892C     85 20       			sta	__oper1
 9518  892E     A5 21       			lda	__oper1+1
 9519  8930     65 24       			adc	__oper2+1
 9520  8932     85 21       			sta	__oper1+1
 9521  8934     A0 0F       			ldy	#+0+?LSC9
 9522  8936     A5 20       			lda	__oper1
 9523  8938     91 28       			sta	(__stack_ptr),y
 9524  893A     C8          			iny
 9525  893B     A5 21       			lda	__oper1+1
 9526  893D     91 28       			sta	(__stack_ptr),y
 9527  893F     A9 03       			lda	#.low.3
 9528  8941     85 20       			sta	__oper1
 9529  8943     A9 00       			lda	#.high.3
 9530  8945     85 21       			sta	__oper1+1
 9531  8947     20 CA DA    			jsr	__store_int_funct_arg
 9532  894A     A9 8D       			lda	#.low.?PLC59
 9533  894C     85 20       			sta	__oper1
 9534  894E     A9 8D       			lda	#.high.?PLC59
 9535  8950     85 21       			sta	__oper1+1
 9536  8952     20 CA DA    			jsr	__store_int_funct_arg
 9537  8955     A0 13       			ldy	#+0+?LSC9+4
 9538  8957     B1 28       			lda	(__stack_ptr),y
 9539  8959     85 20       			sta	__oper1
 9540  895B     C8          			iny
 9541  895C     B1 28       			lda	(__stack_ptr),y
 9542  895E     85 21       			sta	__oper1+1
 9543  8960     20 CA DA    			jsr	__store_int_funct_arg
 9544                     			.f_call	_SysMemcpy
 9545  8963     20 01 E9    			jsr	_SysMemcpy
 9546  8966     08          			php
 9547  8967     78          			sei
 9548  8968     18          			clc
 9549  8969     A5 28       			lda	__stack_ptr
 9550  896B     69 06       			adc	#.low.6
 9551  896D     85 28       			sta	__stack_ptr
 9552  896F     A5 29       			lda	__stack_ptr+1
 9553  8971     69 00       			adc	#.high.6
 9554  8973     85 29       			sta	__stack_ptr+1
 9555  8975     28          			plp
 9556                     			.c_end	042bdh,559
 9557                     	;
 9558                     	;else
  Tue Jan 13 23:03:19 2026                                                                                               Page  169




 9559                     	;		
 9560  8976     4C 04 8A    			jmp	?EOI80
 9561                     			.if_else  ?EOI80,1,562
 9562         3717 8979   	?BOL80:		.equal	$
 9563                     	;text[9]='0'+g_GameMTFloor
 9564                     			.c_start  042d4h,563
 9565  8979     A9 30       			lda	#48
 9566  897B     18          			clc
 9567  897C     6D A7 1F    			adc	_g_GameMTFloor
 9568  897F     A0 0F       			ldy	#+0+?LSC9
 9569  8981     91 28       			sta	(__stack_ptr),y
 9570  8983     18          			clc
 9571  8984     A5 28       			lda	__stack_ptr
 9572  8986     69 0A       			adc	#.low.-14+9+?LSC9
 9573  8988     85 20       			sta	__oper1
 9574  898A     A5 29       			lda	__stack_ptr+1
 9575  898C     69 00       			adc	#.high.-14+9+?LSC9
 9576  898E     85 21       			sta	__oper1+1
 9577  8990     A5 20       			lda	__oper1
 9578  8992     85 23       			sta	__oper2
 9579  8994     A5 21       			lda	__oper1+1
 9580  8996     85 24       			sta	__oper2+1
 9581  8998     A0 0F       			ldy	#+0+?LSC9
 9582  899A     B1 28       			lda	(__stack_ptr),y
 9583  899C     A0 00       			ldy	#0
 9584  899E     91 23       			sta	(__oper2),y
 9585                     			.c_end	042edh,563
 9586                     	;SysMemcpy(text+10,"\0",3)
 9587                     			.c_start  042f3h,564
 9588                     			.const_data_psnake
 9589  8D91     B2 E3 00 00 	?PLC60:		.byte	"",0o,0
 9590                     			.program_psnake
 9591  89A0     A9 0A       			lda	#.low.10
 9592  89A2     85 23       			sta	__oper2
 9593  89A4     A9 00       			lda	#.high.10
 9594  89A6     85 24       			sta	__oper2+1
 9595  89A8     18          			clc
 9596  89A9     A5 28       			lda	__stack_ptr
 9597  89AB     69 01       			adc	#.low.-14+?LSC9
 9598  89AD     85 20       			sta	__oper1
 9599  89AF     A5 29       			lda	__stack_ptr+1
 9600  89B1     69 00       			adc	#.high.-14+?LSC9
 9601  89B3     85 21       			sta	__oper1+1
 9602  89B5     18          			clc
 9603  89B6     A5 20       			lda	__oper1
 9604  89B8     65 23       			adc	__oper2
 9605  89BA     85 20       			sta	__oper1
 9606  89BC     A5 21       			lda	__oper1+1
 9607  89BE     65 24       			adc	__oper2+1
 9608  89C0     85 21       			sta	__oper1+1
 9609  89C2     A0 0F       			ldy	#+0+?LSC9
 9610  89C4     A5 20       			lda	__oper1
 9611  89C6     91 28       			sta	(__stack_ptr),y
 9612  89C8     C8          			iny
 9613  89C9     A5 21       			lda	__oper1+1
 9614  89CB     91 28       			sta	(__stack_ptr),y
 9615  89CD     A9 03       			lda	#.low.3
  Tue Jan 13 23:03:19 2026                                                                                               Page  170




 9616  89CF     85 20       			sta	__oper1
 9617  89D1     A9 00       			lda	#.high.3
 9618  89D3     85 21       			sta	__oper1+1
 9619  89D5     20 CA DA    			jsr	__store_int_funct_arg
 9620  89D8     A9 91       			lda	#.low.?PLC60
 9621  89DA     85 20       			sta	__oper1
 9622  89DC     A9 8D       			lda	#.high.?PLC60
 9623  89DE     85 21       			sta	__oper1+1
 9624  89E0     20 CA DA    			jsr	__store_int_funct_arg
 9625  89E3     A0 13       			ldy	#+0+?LSC9+4
 9626  89E5     B1 28       			lda	(__stack_ptr),y
 9627  89E7     85 20       			sta	__oper1
 9628  89E9     C8          			iny
 9629  89EA     B1 28       			lda	(__stack_ptr),y
 9630  89EC     85 21       			sta	__oper1+1
 9631  89EE     20 CA DA    			jsr	__store_int_funct_arg
 9632                     			.f_call	_SysMemcpy
 9633  89F1     20 01 E9    			jsr	_SysMemcpy
 9634  89F4     08          			php
 9635  89F5     78          			sei
 9636  89F6     18          			clc
 9637  89F7     A5 28       			lda	__stack_ptr
 9638  89F9     69 06       			adc	#.low.6
 9639  89FB     85 28       			sta	__stack_ptr
 9640  89FD     A5 29       			lda	__stack_ptr+1
 9641  89FF     69 00       			adc	#.high.6
 9642  8A01     85 29       			sta	__stack_ptr+1
 9643  8A03     28          			plp
 9644                     			.c_end	0430eh,564
 9645                     	;
 9646         3410 8A04   	?EOI80:		.equal	$
 9647                     	;GameMTRefresh()
 9648                     			.c_start  04317h,566
 9649  8A04     A2 06       			ldx	#.low.&GameMTRefresh
 9650  8A06     86 26       			stx	__addr_reg
 9651  8A08     A2 90       			ldx	#.high.&GameMTRefresh+1
 9652  8A0A     86 27       			stx	__addr_reg+1
 9653                     			.bf_call
 9654  8A0C     20 F6 D2    			jsr	__banked_function_call
 9655                     			.c_end	04326h,566
 9656                     	;GuiMsgBox(text,100)
 9657                     			.c_start  0432ah,567
 9658  8A0F     A9 64       			lda	#.low.100
 9659  8A11     85 20       			sta	__oper1
 9660  8A13     A9 00       			lda	#.high.100
 9661  8A15     85 21       			sta	__oper1+1
 9662  8A17     20 CA DA    			jsr	__store_int_funct_arg
 9663  8A1A     18          			clc
 9664  8A1B     A5 28       			lda	__stack_ptr
 9665  8A1D     69 03       			adc	#.low.-14+?LSC9+2
 9666  8A1F     85 20       			sta	__oper1
 9667  8A21     A5 29       			lda	__stack_ptr+1
 9668  8A23     69 00       			adc	#.high.-14+?LSC9+2
 9669  8A25     85 21       			sta	__oper1+1
 9670  8A27     20 CA DA    			jsr	__store_int_funct_arg
 9671  8A2A     A2 53       			ldx	#.low.&GuiMsgBox
 9672  8A2C     86 26       			stx	__addr_reg
  Tue Jan 13 23:03:19 2026                                                                                               Page  171




 9673  8A2E     A2 E9       			ldx	#.high.&GuiMsgBox+1
 9674  8A30     86 27       			stx	__addr_reg+1
 9675                     			.bf_call
 9676  8A32     20 F6 D2    			jsr	__banked_function_call
 9677  8A35     08          			php
 9678  8A36     78          			sei
 9679  8A37     18          			clc
 9680  8A38     A5 28       			lda	__stack_ptr
 9681  8A3A     69 04       			adc	#.low.4
 9682  8A3C     85 28       			sta	__stack_ptr
 9683  8A3E     A5 29       			lda	__stack_ptr+1
 9684  8A40     69 00       			adc	#.high.4
 9685  8A42     85 29       			sta	__stack_ptr+1
 9686  8A44     28          			plp
 9687                     			.c_end	0433dh,567
 9688                     	;
 9689                     			.f_end	04340h,568
 9690         3514 8A45   	?BOF9:		.equal	$
 9691  8A45     08          			php
 9692  8A46     78          			sei
 9693  8A47     18          			clc
 9694  8A48     A5 28       			lda	__stack_ptr
 9695  8A4A     69 11       			adc	#.low.+?LSC9+?TSC9+0
 9696  8A4C     85 28       			sta	__stack_ptr
 9697  8A4E     A5 29       			lda	__stack_ptr+1
 9698  8A50     69 00       			adc	#.high.+?LSC9+?TSC9+0
 9699  8A52     85 29       			sta	__stack_ptr+1
 9700  8A54     28          			plp
 9701                     			.f_return
 9702  8A55     60          			rts
 9703                     	;
 9704                     			.f_start  04501h,580
 9705                     			.bank_table
 9706                     			.global	&GameMTEndFace
 9707  901B     56 8A E0    	&GameMTEndFace:	.bankaddr	_GameMTEndFace
 9708                     			.ends
 9709         4311 8A56   	_GameMTEndFace:	.equal	$
 9710                     			.attrib	_GameMTEndFace,581,f,b
 9711                     	;
 9712                     	;
 9713         0000        	?ASC10:		.equal	0
 9714         0000        	?TSC10:		.equal	0
 9715         0003        	?LSC10:		.equal	3
 9716  8A56     08          			php
 9717  8A57     78          			sei
 9718  8A58     38          			sec
 9719  8A59     A5 28       			lda	__stack_ptr
 9720  8A5B     E9 03       			sbc	#.low.+?LSC10+?TSC10
 9721  8A5D     85 28       			sta	__stack_ptr
 9722  8A5F     A5 29       			lda	__stack_ptr+1
 9723  8A61     E9 00       			sbc	#.high.+?LSC10+?TSC10
 9724  8A63     85 29       			sta	__stack_ptr+1
 9725  8A65     28          			plp
 9726                     	;unsigned char  temp[3];
 9727                     	;	
 9728                     			.local	_temp,582,v,c,u,d,d,d,d,-3+?LSC10+0,03h,00h
 9729                     	;g_GameMTNearEnd=1
  Tue Jan 13 23:03:19 2026                                                                                               Page  172




 9730                     			.c_start  04524h,583
 9731  8A66     A9 01       			lda	#1
 9732  8A68     8D 00 18    			sta	_g_GameMTNearEnd
 9733                     			.c_end	04538h,583
 9734                     	;SysLcdPartClear(129,0,158,95)
 9735                     			.c_start  0453ch,584
 9736  8A6B     A9 5F       			lda	#95
 9737  8A6D     20 AA DA    			jsr	__store_char_funct_arg
 9738  8A70     A9 9E       			lda	#.low.158
 9739  8A72     85 20       			sta	__oper1
 9740  8A74     A9 00       			lda	#.high.158
 9741  8A76     85 21       			sta	__oper1+1
 9742  8A78     A5 20       			lda	__oper1
 9743  8A7A     20 AA DA    			jsr	__store_char_funct_arg
 9744  8A7D     A9 00       			lda	#0
 9745  8A7F     20 AA DA    			jsr	__store_char_funct_arg
 9746  8A82     A9 81       			lda	#.low.129
 9747  8A84     85 20       			sta	__oper1
 9748  8A86     A9 00       			lda	#.high.129
 9749  8A88     85 21       			sta	__oper1+1
 9750  8A8A     A5 20       			lda	__oper1
 9751  8A8C     A2 5D       			ldx	#.low.&SysLcdPartClear
 9752  8A8E     86 26       			stx	__addr_reg
 9753  8A90     A2 E8       			ldx	#.high.&SysLcdPartClear+1
 9754  8A92     86 27       			stx	__addr_reg+1
 9755                     			.bf_call
 9756  8A94     20 F6 D2    			jsr	__banked_function_call
 9757  8A97     08          			php
 9758  8A98     78          			sei
 9759  8A99     18          			clc
 9760  8A9A     A5 28       			lda	__stack_ptr
 9761  8A9C     69 03       			adc	#.low.3
 9762  8A9E     85 28       			sta	__stack_ptr
 9763  8AA0     A5 29       			lda	__stack_ptr+1
 9764  8AA2     69 00       			adc	#.high.3
 9765  8AA4     85 29       			sta	__stack_ptr+1
 9766  8AA6     28          			plp
 9767                     			.c_end	04559h,584
 9768                     	;SysMemcpy(temp,"\0",3)
 9769                     			.c_start  0455dh,585
 9770                     			.const_data_psnake
 9771  8D95     B5 B9 00 00 	?PLC61:		.byte	"",0o,0
 9772                     			.program_psnake
 9773  8AA7     A9 03       			lda	#.low.3
 9774  8AA9     85 20       			sta	__oper1
 9775  8AAB     A9 00       			lda	#.high.3
 9776  8AAD     85 21       			sta	__oper1+1
 9777  8AAF     20 CA DA    			jsr	__store_int_funct_arg
 9778  8AB2     A9 95       			lda	#.low.?PLC61
 9779  8AB4     85 20       			sta	__oper1
 9780  8AB6     A9 8D       			lda	#.high.?PLC61
 9781  8AB8     85 21       			sta	__oper1+1
 9782  8ABA     20 CA DA    			jsr	__store_int_funct_arg
 9783  8ABD     18          			clc
 9784  8ABE     A5 28       			lda	__stack_ptr
 9785  8AC0     69 04       			adc	#.low.-3+?LSC10+4
 9786  8AC2     85 20       			sta	__oper1
  Tue Jan 13 23:03:19 2026                                                                                               Page  173




 9787  8AC4     A5 29       			lda	__stack_ptr+1
 9788  8AC6     69 00       			adc	#.high.-3+?LSC10+4
 9789  8AC8     85 21       			sta	__oper1+1
 9790  8ACA     20 CA DA    			jsr	__store_int_funct_arg
 9791                     			.f_call	_SysMemcpy
 9792  8ACD     20 01 E9    			jsr	_SysMemcpy
 9793  8AD0     08          			php
 9794  8AD1     78          			sei
 9795  8AD2     18          			clc
 9796  8AD3     A5 28       			lda	__stack_ptr
 9797  8AD5     69 06       			adc	#.low.6
 9798  8AD7     85 28       			sta	__stack_ptr
 9799  8AD9     A5 29       			lda	__stack_ptr+1
 9800  8ADB     69 00       			adc	#.high.6
 9801  8ADD     85 29       			sta	__stack_ptr+1
 9802  8ADF     28          			plp
 9803                     			.c_end	04575h,585
 9804                     	;SysPrintString(136,0,temp)
 9805                     			.c_start  04579h,586
 9806  8AE0     18          			clc
 9807  8AE1     A5 28       			lda	__stack_ptr
 9808  8AE3     69 00       			adc	#.low.-3+?LSC10
 9809  8AE5     85 20       			sta	__oper1
 9810  8AE7     A5 29       			lda	__stack_ptr+1
 9811  8AE9     69 00       			adc	#.high.-3+?LSC10
 9812  8AEB     85 21       			sta	__oper1+1
 9813  8AED     20 CA DA    			jsr	__store_int_funct_arg
 9814  8AF0     A9 00       			lda	#0
 9815  8AF2     20 AA DA    			jsr	__store_char_funct_arg
 9816  8AF5     A9 88       			lda	#.low.136
 9817  8AF7     85 20       			sta	__oper1
 9818  8AF9     A9 00       			lda	#.high.136
 9819  8AFB     85 21       			sta	__oper1+1
 9820  8AFD     A5 20       			lda	__oper1
 9821  8AFF     A2 9A       			ldx	#.low.&SysPrintString
 9822  8B01     86 26       			stx	__addr_reg
 9823  8B03     A2 E7       			ldx	#.high.&SysPrintString+1
 9824  8B05     86 27       			stx	__addr_reg+1
 9825                     			.bf_call
 9826  8B07     20 F6 D2    			jsr	__banked_function_call
 9827  8B0A     08          			php
 9828  8B0B     78          			sei
 9829  8B0C     18          			clc
 9830  8B0D     A5 28       			lda	__stack_ptr
 9831  8B0F     69 03       			adc	#.low.3
 9832  8B11     85 28       			sta	__stack_ptr
 9833  8B13     A5 29       			lda	__stack_ptr+1
 9834  8B15     69 00       			adc	#.high.3
 9835  8B17     85 29       			sta	__stack_ptr+1
 9836  8B19     28          			plp
 9837                     			.c_end	04593h,586
 9838                     	;SysMemcpy(temp,"\0",3)
 9839                     			.c_start  04597h,587
 9840                     			.const_data_psnake
 9841  8D99     BC C6 00 00 	?PLC62:		.byte	"",0o,0
 9842                     			.program_psnake
 9843  8B1A     A9 03       			lda	#.low.3
  Tue Jan 13 23:03:19 2026                                                                                               Page  174




 9844  8B1C     85 20       			sta	__oper1
 9845  8B1E     A9 00       			lda	#.high.3
 9846  8B20     85 21       			sta	__oper1+1
 9847  8B22     20 CA DA    			jsr	__store_int_funct_arg
 9848  8B25     A9 99       			lda	#.low.?PLC62
 9849  8B27     85 20       			sta	__oper1
 9850  8B29     A9 8D       			lda	#.high.?PLC62
 9851  8B2B     85 21       			sta	__oper1+1
 9852  8B2D     20 CA DA    			jsr	__store_int_funct_arg
 9853  8B30     18          			clc
 9854  8B31     A5 28       			lda	__stack_ptr
 9855  8B33     69 04       			adc	#.low.-3+?LSC10+4
 9856  8B35     85 20       			sta	__oper1
 9857  8B37     A5 29       			lda	__stack_ptr+1
 9858  8B39     69 00       			adc	#.high.-3+?LSC10+4
 9859  8B3B     85 21       			sta	__oper1+1
 9860  8B3D     20 CA DA    			jsr	__store_int_funct_arg
 9861                     			.f_call	_SysMemcpy
 9862  8B40     20 01 E9    			jsr	_SysMemcpy
 9863  8B43     08          			php
 9864  8B44     78          			sei
 9865  8B45     18          			clc
 9866  8B46     A5 28       			lda	__stack_ptr
 9867  8B48     69 06       			adc	#.low.6
 9868  8B4A     85 28       			sta	__stack_ptr
 9869  8B4C     A5 29       			lda	__stack_ptr+1
 9870  8B4E     69 00       			adc	#.high.6
 9871  8B50     85 29       			sta	__stack_ptr+1
 9872  8B52     28          			plp
 9873                     			.c_end	045afh,587
 9874                     	;SysPrintString(136,16,temp)
 9875                     			.c_start  045b3h,588
 9876  8B53     18          			clc
 9877  8B54     A5 28       			lda	__stack_ptr
 9878  8B56     69 00       			adc	#.low.-3+?LSC10
 9879  8B58     85 20       			sta	__oper1
 9880  8B5A     A5 29       			lda	__stack_ptr+1
 9881  8B5C     69 00       			adc	#.high.-3+?LSC10
 9882  8B5E     85 21       			sta	__oper1+1
 9883  8B60     20 CA DA    			jsr	__store_int_funct_arg
 9884  8B63     A9 10       			lda	#16
 9885  8B65     20 AA DA    			jsr	__store_char_funct_arg
 9886  8B68     A9 88       			lda	#.low.136
 9887  8B6A     85 20       			sta	__oper1
 9888  8B6C     A9 00       			lda	#.high.136
 9889  8B6E     85 21       			sta	__oper1+1
 9890  8B70     A5 20       			lda	__oper1
 9891  8B72     A2 9A       			ldx	#.low.&SysPrintString
 9892  8B74     86 26       			stx	__addr_reg
 9893  8B76     A2 E7       			ldx	#.high.&SysPrintString+1
 9894  8B78     86 27       			stx	__addr_reg+1
 9895                     			.bf_call
 9896  8B7A     20 F6 D2    			jsr	__banked_function_call
 9897  8B7D     08          			php
 9898  8B7E     78          			sei
 9899  8B7F     18          			clc
 9900  8B80     A5 28       			lda	__stack_ptr
  Tue Jan 13 23:03:19 2026                                                                                               Page  175




 9901  8B82     69 03       			adc	#.low.3
 9902  8B84     85 28       			sta	__stack_ptr
 9903  8B86     A5 29       			lda	__stack_ptr+1
 9904  8B88     69 00       			adc	#.high.3
 9905  8B8A     85 29       			sta	__stack_ptr+1
 9906  8B8C     28          			plp
 9907                     			.c_end	045ceh,588
 9908                     	;SysMemcpy(temp,"\0",3)
 9909                     			.c_start  045d1h,589
 9910                     			.const_data_psnake
 9911  8D9D     CA B1 00 00 	?PLC63:		.byte	"",0o,0
 9912                     			.program_psnake
 9913  8B8D     A9 03       			lda	#.low.3
 9914  8B8F     85 20       			sta	__oper1
 9915  8B91     A9 00       			lda	#.high.3
 9916  8B93     85 21       			sta	__oper1+1
 9917  8B95     20 CA DA    			jsr	__store_int_funct_arg
 9918  8B98     A9 9D       			lda	#.low.?PLC63
 9919  8B9A     85 20       			sta	__oper1
 9920  8B9C     A9 8D       			lda	#.high.?PLC63
 9921  8B9E     85 21       			sta	__oper1+1
 9922  8BA0     20 CA DA    			jsr	__store_int_funct_arg
 9923  8BA3     18          			clc
 9924  8BA4     A5 28       			lda	__stack_ptr
 9925  8BA6     69 04       			adc	#.low.-3+?LSC10+4
 9926  8BA8     85 20       			sta	__oper1
 9927  8BAA     A5 29       			lda	__stack_ptr+1
 9928  8BAC     69 00       			adc	#.high.-3+?LSC10+4
 9929  8BAE     85 21       			sta	__oper1+1
 9930  8BB0     20 CA DA    			jsr	__store_int_funct_arg
 9931                     			.f_call	_SysMemcpy
 9932  8BB3     20 01 E9    			jsr	_SysMemcpy
 9933  8BB6     08          			php
 9934  8BB7     78          			sei
 9935  8BB8     18          			clc
 9936  8BB9     A5 28       			lda	__stack_ptr
 9937  8BBB     69 06       			adc	#.low.6
 9938  8BBD     85 28       			sta	__stack_ptr
 9939  8BBF     A5 29       			lda	__stack_ptr+1
 9940  8BC1     69 00       			adc	#.high.6
 9941  8BC3     85 29       			sta	__stack_ptr+1
 9942  8BC5     28          			plp
 9943                     			.c_end	045e9h,589
 9944                     	;SysPrintString(136,32,temp)
 9945                     			.c_start  045edh,590
 9946  8BC6     18          			clc
 9947  8BC7     A5 28       			lda	__stack_ptr
 9948  8BC9     69 00       			adc	#.low.-3+?LSC10
 9949  8BCB     85 20       			sta	__oper1
 9950  8BCD     A5 29       			lda	__stack_ptr+1
 9951  8BCF     69 00       			adc	#.high.-3+?LSC10
 9952  8BD1     85 21       			sta	__oper1+1
 9953  8BD3     20 CA DA    			jsr	__store_int_funct_arg
 9954  8BD6     A9 20       			lda	#32
 9955  8BD8     20 AA DA    			jsr	__store_char_funct_arg
 9956  8BDB     A9 88       			lda	#.low.136
 9957  8BDD     85 20       			sta	__oper1
  Tue Jan 13 23:03:19 2026                                                                                               Page  176




 9958  8BDF     A9 00       			lda	#.high.136
 9959  8BE1     85 21       			sta	__oper1+1
 9960  8BE3     A5 20       			lda	__oper1
 9961  8BE5     A2 9A       			ldx	#.low.&SysPrintString
 9962  8BE7     86 26       			stx	__addr_reg
 9963  8BE9     A2 E7       			ldx	#.high.&SysPrintString+1
 9964  8BEB     86 27       			stx	__addr_reg+1
 9965                     			.bf_call
 9966  8BED     20 F6 D2    			jsr	__banked_function_call
 9967  8BF0     08          			php
 9968  8BF1     78          			sei
 9969  8BF2     18          			clc
 9970  8BF3     A5 28       			lda	__stack_ptr
 9971  8BF5     69 03       			adc	#.low.3
 9972  8BF7     85 28       			sta	__stack_ptr
 9973  8BF9     A5 29       			lda	__stack_ptr+1
 9974  8BFB     69 00       			adc	#.high.3
 9975  8BFD     85 29       			sta	__stack_ptr+1
 9976  8BFF     28          			plp
 9977                     			.c_end	04608h,590
 9978                     	;SysMemcpy(temp,"\0",3)
 9979                     			.c_start  0460ch,591
 9980                     			.const_data_psnake
 9981  8DA1     A3 BA 00 00 	?PLC64:		.byte	"",0o,0
 9982                     			.program_psnake
 9983  8C00     A9 03       			lda	#.low.3
 9984  8C02     85 20       			sta	__oper1
 9985  8C04     A9 00       			lda	#.high.3
 9986  8C06     85 21       			sta	__oper1+1
 9987  8C08     20 CA DA    			jsr	__store_int_funct_arg
 9988  8C0B     A9 A1       			lda	#.low.?PLC64
 9989  8C0D     85 20       			sta	__oper1
 9990  8C0F     A9 8D       			lda	#.high.?PLC64
 9991  8C11     85 21       			sta	__oper1+1
 9992  8C13     20 CA DA    			jsr	__store_int_funct_arg
 9993  8C16     18          			clc
 9994  8C17     A5 28       			lda	__stack_ptr
 9995  8C19     69 04       			adc	#.low.-3+?LSC10+4
 9996  8C1B     85 20       			sta	__oper1
 9997  8C1D     A5 29       			lda	__stack_ptr+1
 9998  8C1F     69 00       			adc	#.high.-3+?LSC10+4
 9999  8C21     85 21       			sta	__oper1+1
10000  8C23     20 CA DA    			jsr	__store_int_funct_arg
10001                     			.f_call	_SysMemcpy
10002  8C26     20 01 E9    			jsr	_SysMemcpy
10003  8C29     08          			php
10004  8C2A     78          			sei
10005  8C2B     18          			clc
10006  8C2C     A5 28       			lda	__stack_ptr
10007  8C2E     69 06       			adc	#.low.6
10008  8C30     85 28       			sta	__stack_ptr
10009  8C32     A5 29       			lda	__stack_ptr+1
10010  8C34     69 00       			adc	#.high.6
10011  8C36     85 29       			sta	__stack_ptr+1
10012  8C38     28          			plp
10013                     			.c_end	04624h,591
10014                     	;SysPrintString(140,48,temp)
  Tue Jan 13 23:03:19 2026                                                                                               Page  177




10015                     			.c_start  04628h,592
10016  8C39     18          			clc
10017  8C3A     A5 28       			lda	__stack_ptr
10018  8C3C     69 00       			adc	#.low.-3+?LSC10
10019  8C3E     85 20       			sta	__oper1
10020  8C40     A5 29       			lda	__stack_ptr+1
10021  8C42     69 00       			adc	#.high.-3+?LSC10
10022  8C44     85 21       			sta	__oper1+1
10023  8C46     20 CA DA    			jsr	__store_int_funct_arg
10024  8C49     A9 30       			lda	#48
10025  8C4B     20 AA DA    			jsr	__store_char_funct_arg
10026  8C4E     A9 8C       			lda	#.low.140
10027  8C50     85 20       			sta	__oper1
10028  8C52     A9 00       			lda	#.high.140
10029  8C54     85 21       			sta	__oper1+1
10030  8C56     A5 20       			lda	__oper1
10031  8C58     A2 9A       			ldx	#.low.&SysPrintString
10032  8C5A     86 26       			stx	__addr_reg
10033  8C5C     A2 E7       			ldx	#.high.&SysPrintString+1
10034  8C5E     86 27       			stx	__addr_reg+1
10035                     			.bf_call
10036  8C60     20 F6 D2    			jsr	__banked_function_call
10037  8C63     08          			php
10038  8C64     78          			sei
10039  8C65     18          			clc
10040  8C66     A5 28       			lda	__stack_ptr
10041  8C68     69 03       			adc	#.low.3
10042  8C6A     85 28       			sta	__stack_ptr
10043  8C6C     A5 29       			lda	__stack_ptr+1
10044  8C6E     69 00       			adc	#.high.3
10045  8C70     85 29       			sta	__stack_ptr+1
10046  8C72     28          			plp
10047                     			.c_end	04643h,592
10048                     	;SysMemcpy(temp,"\0",3)
10049                     			.c_start  04647h,593
10050                     			.const_data_psnake
10051  8DA5     C3 EB 00 00 	?PLC65:		.byte	"",0o,0
10052                     			.program_psnake
10053  8C73     A9 03       			lda	#.low.3
10054  8C75     85 20       			sta	__oper1
10055  8C77     A9 00       			lda	#.high.3
10056  8C79     85 21       			sta	__oper1+1
10057  8C7B     20 CA DA    			jsr	__store_int_funct_arg
10058  8C7E     A9 A5       			lda	#.low.?PLC65
10059  8C80     85 20       			sta	__oper1
10060  8C82     A9 8D       			lda	#.high.?PLC65
10061  8C84     85 21       			sta	__oper1+1
10062  8C86     20 CA DA    			jsr	__store_int_funct_arg
10063  8C89     18          			clc
10064  8C8A     A5 28       			lda	__stack_ptr
10065  8C8C     69 04       			adc	#.low.-3+?LSC10+4
10066  8C8E     85 20       			sta	__oper1
10067  8C90     A5 29       			lda	__stack_ptr+1
10068  8C92     69 00       			adc	#.high.-3+?LSC10+4
10069  8C94     85 21       			sta	__oper1+1
10070  8C96     20 CA DA    			jsr	__store_int_funct_arg
10071                     			.f_call	_SysMemcpy
  Tue Jan 13 23:03:19 2026                                                                                               Page  178




10072  8C99     20 01 E9    			jsr	_SysMemcpy
10073  8C9C     08          			php
10074  8C9D     78          			sei
10075  8C9E     18          			clc
10076  8C9F     A5 28       			lda	__stack_ptr
10077  8CA1     69 06       			adc	#.low.6
10078  8CA3     85 28       			sta	__stack_ptr
10079  8CA5     A5 29       			lda	__stack_ptr+1
10080  8CA7     69 00       			adc	#.high.6
10081  8CA9     85 29       			sta	__stack_ptr+1
10082  8CAB     28          			plp
10083                     			.c_end	0465fh,593
10084                     	;SysPrintString(136,80,temp)
10085                     			.c_start  04663h,594
10086  8CAC     18          			clc
10087  8CAD     A5 28       			lda	__stack_ptr
10088  8CAF     69 00       			adc	#.low.-3+?LSC10
10089  8CB1     85 20       			sta	__oper1
10090  8CB3     A5 29       			lda	__stack_ptr+1
10091  8CB5     69 00       			adc	#.high.-3+?LSC10
10092  8CB7     85 21       			sta	__oper1+1
10093  8CB9     20 CA DA    			jsr	__store_int_funct_arg
10094  8CBC     A9 50       			lda	#80
10095  8CBE     20 AA DA    			jsr	__store_char_funct_arg
10096  8CC1     A9 88       			lda	#.low.136
10097  8CC3     85 20       			sta	__oper1
10098  8CC5     A9 00       			lda	#.high.136
10099  8CC7     85 21       			sta	__oper1+1
10100  8CC9     A5 20       			lda	__oper1
10101  8CCB     A2 9A       			ldx	#.low.&SysPrintString
10102  8CCD     86 26       			stx	__addr_reg
10103  8CCF     A2 E7       			ldx	#.high.&SysPrintString+1
10104  8CD1     86 27       			stx	__addr_reg+1
10105                     			.bf_call
10106  8CD3     20 F6 D2    			jsr	__banked_function_call
10107  8CD6     08          			php
10108  8CD7     78          			sei
10109  8CD8     18          			clc
10110  8CD9     A5 28       			lda	__stack_ptr
10111  8CDB     69 03       			adc	#.low.3
10112  8CDD     85 28       			sta	__stack_ptr
10113  8CDF     A5 29       			lda	__stack_ptr+1
10114  8CE1     69 00       			adc	#.high.3
10115  8CE3     85 29       			sta	__stack_ptr+1
10116  8CE5     28          			plp
10117                     			.c_end	0467eh,594
10118                     	;
10119                     			.f_end	04681h,595
10120         3625 8CE6   	?BOF10:		.equal	$
10121  8CE6     08          			php
10122  8CE7     78          			sei
10123  8CE8     18          			clc
10124  8CE9     A5 28       			lda	__stack_ptr
10125  8CEB     69 03       			adc	#.low.+?LSC10+?TSC10+0
10126  8CED     85 28       			sta	__stack_ptr
10127  8CEF     A5 29       			lda	__stack_ptr+1
10128  8CF1     69 00       			adc	#.high.+?LSC10+?TSC10+0
  Tue Jan 13 23:03:19 2026                                                                                               Page  179




10129  8CF3     85 29       			sta	__stack_ptr+1
10130  8CF5     28          			plp
10131                     			.f_return
10132  8CF6     60          			rts
10133                     	
10134                     			.global	_GameMTTalk
10135                     			.extern	_GameMTReNewR, &GameMTReNewR
10136                     			.extern	_GameMTTalkData
10137                     			.extern	_GameMTTalkSide
10138                     			.extern	_GameMTTalkDown
10139                     			.extern	_GameMTTalkUp
10140                     			.extern	_GameMTTalkSigh
10141                     			.extern	_GameMTUnknown
10142                     			.extern	_SysIconAllClear, &SysIconAllClear
10143                     			.extern	_GameMTNotice
10144                     			.extern	_GuiSetKbdType, &GuiSetKbdType
10145                     			.extern	_GuiGetKbdState, &GuiGetKbdState
10146                     			.extern	_GuiSetKbdState, &GuiSetKbdState
10147                     			.global	_GameMTMove
10148                     			.extern	_SysTimer1Open, &SysTimer1Open
10149                     			.extern	_SysTimer1Close, &SysTimer1Close
10150                     			.extern	_GameMTDi
10151                     			.extern	_GameMTChar
10152                     			.global	_GameMTNewFloor
10153                     			.extern	_SysMemcpy
10154                     			.extern	_GuiGetMsg, &GuiGetMsg
10155                     			.global	_GameMTEndFace
10156                     			.global	_g_GameMTBuf
10157                     			.extern	_GameMTWorkPad
10158                     			.extern	_SysLcdPartClear, &SysLcdPartClear
10159                     			.extern	_GameMTEvent, &GameMTEvent
10160                     			.global	_g_GameMTCurTime
10161                     			.global	_g_GameMTCheck
10162                     			.global	_g_GameMTCurMap
10163                     			.global	_g_GameMTDeadLine
10164                     			.global	_g_GameMTEnd
10165                     			.extern	_GameMTEagle
10166                     			.extern	_GuiSetInputFilter, &GuiSetInputFilter
10167                     			.global	_g_GameMTFloor
10168                     			.extern	_SysSaveScreen, &SysSaveScreen
10169                     			.global	_g_GameMTGameOver
10170                     			.global	_g_GameMTHeroLv
10171                     			.global	_g_GameMTHeroX
10172                     			.global	_g_GameMTHeroY
10173                     			.global	_g_GameMTHeroDamige
10174                     			.global	_g_GameMTHeroDefence
10175                     			.global	_g_GameMTHeroMoney
10176                     			.global	_g_GameMTHeroExp
10177                     			.global	_g_GameMTHeroDir
10178                     			.global	_g_GameMTHeroLife
10179                     			.extern	_SysRestoreScreen, &SysRestoreScreen
10180                     			.global	_g_GameMTInit
10181                     			.extern	_GuiInit, &GuiInit
10182                     			.global	_g_GameMTJuidgeX
10183                     			.global	_g_GameMTJuidgeY
10184                     			.global	_g_GameMTJuidgeNow
10185                     			.extern	_GameMTCeng
  Tue Jan 13 23:03:19 2026                                                                                               Page  180




10186                     			.global	_GameMTInit
10187                     			.global	_g_GameMTKBState
10188                     			.global	_g_GameMTKey
10189                     			.extern	_SysPicture, &SysPicture
10190                     			.global	_GameMTOpenDoor
10191                     			.global	_g_GameMTMapX
10192                     			.global	_g_GameMTMapY
10193                     			.extern	_GameMTStartPoint
10194                     			.extern	_GameMTHelpData
10195                     			.global	_g_GameMTNearEnd
10196                     			.global	_GameMTBattle
10197                     			.extern	_GameMTMainMenu, &GameMTMainMenu
10198                     			.extern	_GameMTBattlePad
10199                     			.extern	_GameMTMainFace
10200                     			.extern	_SysMemAllocate, &SysMemAllocate
10201                     			.extern	_GameMTLiKai
10202                     			.extern	_SysPrintString, &SysPrintString
10203                     			.global	_GameMTRefresh
10204                     			.extern	_GameMTCountLose, &GameMTCountLose
10205                     			.global	_g_GameMTQuit
10206                     			.extern	_GameMTHappyEnd
10207                     			.global	_GameMTPrintNum
10208                     			.global	_g_GameMTReadKey
10209                     			.extern	_GameMTVictory
10210                     			.extern	_GameMTHeroPic
10211                     			.extern	_GuiTranslateMsg, &GuiTranslateMsg
10212                     			.global	_GameMTGetInput
10213                     			.extern	_GameMTGetTalk, &GameMTGetTalk
10214                     			.extern	_GameMTGetMapData, &GameMTGetMapData
10215                     			.global	_g_GameMTTimeOut
10216                     			.global	_g_GameMTTopFloor
10217                     			.extern	_GameMTNum39
10218                     			.extern	_GameMTNum35
10219                     			.extern	_GameMTNum78
10220                     			.extern	_GameMTMonData
10221                     			.extern	_GameMTMonName
10222                     			.extern	_SysMemInit, &SysMemInit
10223                     			.extern	_GuiDownAppHelp, &GuiDownAppHelp
10224                     			.extern	_GuiMsgBox, &GuiMsgBox
10225                     			.global	_GameTanShiShe
10226                     			.extern	_GameMTUnitPic
10227                     			.extern	__store_long
10228                     			.extern	__store_char_funct_arg
10229                     			.extern	__store_int_funct_arg
10230                     			.extern	__store_long_funct_arg
10231                     			.extern	__uns_oper1_int_to_long
10232                     			.extern	__uns_oper2_int_to_long
10233                     			.extern	__oper1_long_to_int
10234                     			.extern	__switch_comparison
10235                     			.extern	__cmp_int
10236                     			.extern	__cmp_long
10237                     			.extern	__sub_long
10238                     			.extern	__mult_int
10239                     			.extern	__uns_mult_char
10240                     			.extern	__uns_mult_int
10241                     			.extern	__uns_mult_long
10242                     			.extern	__uns_div_char
  Tue Jan 13 23:03:19 2026                                                                                               Page  181




10243                     			.extern	__uns_div_int
10244                     			.extern	__uns_div_long
10245                     			.extern	__u_sr_char
10246                     			.extern	__sl_char
10247                     			.extern	__banked_function_call
10248                     	
10249                     			.end


             Lines Assembled : 10249                  Errors : 0


