  Tue Jan 13 23:03:19 2026                                                                                               Page    1







               2500 A.D. 6502 Macro Assembler  -  Version 5.02b
               ------------------------------------------------

                       Input  Filename : psnakefar2.asm
                       Output Filename : psnakefar2.obj
                       Listing Has Been Relocated                               


    1                     	program_psfar2:	.section
    2                     	const_data_psfar2:	.section
    3                     	init_data_psfar2:	.section
    4                     	uninit_data_psfar2:	.section
    5                     	bank_table:	.section
    6                     	bank_table:	.section
    7                     			.program_psfar2
    8  5000                 			.filetype	C
    9                     			.symbols
   10                     			.llchar		?
   11                     			.longchk	off
   12                     			.extern	page0	__oper1
   13                     			.extern	page0	__oper1_high8
   14                     			.extern	page0	__oper2
   15                     			.extern	page0	__oper2_high8
   16                     			.extern	page0	__addr_reg
   17                     			.extern	page0	__stack_ptr
   18                     			.extern	page0	__lib_temp_ptr
   19                     	;.filename psnakefar2.c
   20                     	;
   21                     			.filename	psnakefar2.c
   22                     	;.filename .\os\inc\dictsys.h
   23                     	;
   24                     			.filename	.\os\inc\dictsys.h
   25                     	;.filename .\os\inc\keytable.h
   26                     	;
   27                     			.filename	.\os\inc\keytable.h
   28                     	;.endinc .\os\inc\dictsys.h
   29                     			.filename	.\os\inc\dictsys.h
   30                     	;struct tagMsgType {
   31                     	;	
   32                     			.strname  _tagMsgType
   33                     	;unsigned char 		type;
   34                     	;	
   35                     			.strdef	_type,73,v,c,u,0,g,d,d,d,d,00h
   36                     	;unsigned int 		param;
   37                     	;
   38                     			.strdef	_param,74,v,i,u,1,g,d,d,d,d,00h
   39                     	;}
   40                     			.strend	_tagMsgType,3,2
   41                     	;struct tagMsgByteType {
   42                     	;	
   43                     			.strname  _tagMsgByteType
   44                     	;unsigned char 		type;
   45                     	;	
   46                     			.strdef	_type,78,v,c,u,0,g,d,d,d,d,00h
  Tue Jan 13 23:03:19 2026                                                                                               Page    2




   47                     	;unsigned char 		prmLow;
   48                     	;	
   49                     			.strdef	_prmLow,79,v,c,u,1,g,d,d,d,d,00h
   50                     	;unsigned char 		prmHi;
   51                     	;
   52                     			.strdef	_prmHi,80,v,c,u,2,g,d,d,d,d,00h
   53                     	;}
   54                     			.strend	_tagMsgByteType,3,3
   55                     	;struct tagDate {
   56                     	;	
   57                     			.strname  _tagDate
   58                     	;unsigned char 	day;
   59                     	;	
   60                     			.strdef	_day,115,v,c,u,0,g,d,d,d,d,00h
   61                     	;unsigned char 	month;
   62                     	;	
   63                     			.strdef	_month,116,v,c,u,1,g,d,d,d,d,00h
   64                     	;unsigned char 	year;
   65                     	;	
   66                     			.strdef	_year,117,v,c,u,2,g,d,d,d,d,00h
   67                     	;unsigned char 	wday;				
   68                     	;
   69                     			.strdef	_wday,118,v,c,u,3,g,d,d,d,d,00h
   70                     	;}
   71                     			.strend	_tagDate,4,4
   72                     	;struct tagTime {
   73                     	;	
   74                     			.strname  _tagTime
   75                     	;unsigned char 	second;
   76                     	;	
   77                     			.strdef	_second,123,v,c,u,0,g,d,d,d,d,00h
   78                     	;unsigned char 	minute;
   79                     	;	
   80                     			.strdef	_minute,124,v,c,u,1,g,d,d,d,d,00h
   81                     	;unsigned char 	hour;
   82                     	;
   83                     			.strdef	_hour,125,v,c,u,2,g,d,d,d,d,00h
   84                     	;}
   85                     			.strend	_tagTime,3,3
   86                     	;struct tagGuiMenuItemType {
   87                     	;	
   88                     			.strname  _tagGuiMenuItemType
   89                     	;unsigned char 		strLen;				
   90                     	;	
   91                     			.strdef	_strLen,143,v,c,u,0,g,d,d,d,d,00h
   92                     	;unsigned char 		*str;				
   93                     	;	
   94                     			.strdef	_str,144,v,pc1,u,1,g,d,d,d,d,00h
   95                     	;unsigned char 		*bmpData0;			
   96                     	;	
   97                     			.strdef	_bmpData0,145,v,pc1,u,3,g,d,d,d,d,00h
   98                     	;unsigned char 		*bmpData1;			
   99                     	;
  100                     			.strdef	_bmpData1,146,v,pc1,u,5,g,d,d,d,d,00h
  101                     	;}
  102                     			.strend	_tagGuiMenuItemType,7,4
  103                     	;struct tagGuiMenu {
  Tue Jan 13 23:03:19 2026                                                                                               Page    3




  104                     	;	
  105                     			.strname  _tagGuiMenu
  106                     	;unsigned char 					itemNum;			
  107                     	;	
  108                     			.strdef	_itemNum,151,v,c,u,0,g,d,d,d,d,00h
  109                     	;unsigned char 					colNum;				
  110                     	;	
  111                     			.strdef	_colNum,152,v,c,u,1,g,d,d,d,d,00h
  112                     	;unsigned char 					*colPos;			
  113                     	;	
  114                     			.strdef	_colPos,153,v,pc1,u,2,g,d,d,d,d,00h
  115                     	;unsigned char 					style;				
  116                     	;	
  117                     			.strdef	_style,154,v,c,u,4,g,d,d,d,d,00h
  118                     	;struct tagGuiMenuItemType *	*menuItems ;		
  119                     	;
  120                     			.strdef	_menuItems,155,v,ps2,_tagGuiMenuItemType,s,5,g,d,d,d,d,00h
  121                     	;}
  122                     			.strend	_tagGuiMenu,7,5
  123                     	;struct tagMenuEnv {
  124                     	;	
  125                     			.strname  _tagMenuEnv
  126                     	;unsigned char 		x0;					
  127                     	;	
  128                     			.strdef	_x0,160,v,c,u,0,g,d,d,d,d,00h
  129                     	;unsigned char 		x1;
  130                     	;	
  131                     			.strdef	_x1,161,v,c,u,1,g,d,d,d,d,00h
  132                     	;unsigned char 		y0;
  133                     	;	
  134                     			.strdef	_y0,162,v,c,u,2,g,d,d,d,d,00h
  135                     	;unsigned char 		y1;
  136                     	;	
  137                     			.strdef	_y1,163,v,c,u,3,g,d,d,d,d,00h
  138                     	;unsigned char 		startDispItem;		
  139                     	;
  140                     	;
  141                     	;	
  142                     			.strdef	_startDispItem,164,v,c,u,4,g,d,d,d,d,00h
  143                     	;unsigned char 		maxDispItem;		
  144                     	;	
  145                     			.strdef	_maxDispItem,167,v,c,u,5,g,d,d,d,d,00h
  146                     	;unsigned char 		dispItemNum;		
  147                     	;	
  148                     			.strdef	_dispItemNum,168,v,c,u,6,g,d,d,d,d,00h
  149                     	;unsigned char 		nFocus;				
  150                     	;
  151                     			.strdef	_nFocus,169,v,c,u,7,g,d,d,d,d,00h
  152                     	;}
  153                     			.strend	_tagMenuEnv,8,8
  154                     	;struct tagRect {
  155                     	;	
  156                     			.strname  _tagRect
  157                     	;unsigned char 		left;					
  158                     	;	
  159                     			.strdef	_left,174,v,c,u,0,g,d,d,d,d,00h
  160                     	;unsigned char 		top;					
  Tue Jan 13 23:03:19 2026                                                                                               Page    4




  161                     	;	
  162                     			.strdef	_top,175,v,c,u,1,g,d,d,d,d,00h
  163                     	;unsigned char 		height;					
  164                     	;	
  165                     			.strdef	_height,176,v,c,u,2,g,d,d,d,d,00h
  166                     	;unsigned char 		width;					
  167                     	;
  168                     			.strdef	_width,177,v,c,u,3,g,d,d,d,d,00h
  169                     	;}
  170                     			.strend	_tagRect,4,4
  171                     	;struct tagRandEnv {
  172                     	;	
  173                     			.strname  _tagRandEnv
  174                     	;unsigned long  next 	;
  175                     	; 	
  176                     			.strdef	_next,182,v,l,u,0,g,d,d,d,d,00h
  177                     	;unsigned int  randMax	;
  178                     	;
  179                     			.strdef	_randMax,183,v,i,u,4,g,d,d,d,d,00h
  180                     	;}
  181                     			.strend	_tagRandEnv,6,2
  182                     	;struct tagQryBoxBmp {
  183                     	;	
  184                     			.strname  _tagQryBoxBmp
  185                     	;unsigned char 		left;					
  186                     	;	
  187                     			.strdef	_left,188,v,c,u,0,g,d,d,d,d,00h
  188                     	;unsigned char 		top;					
  189                     	;	
  190                     			.strdef	_top,189,v,c,u,1,g,d,d,d,d,00h
  191                     	;unsigned char 		height;					
  192                     	;	
  193                     			.strdef	_height,190,v,c,u,2,g,d,d,d,d,00h
  194                     	;unsigned char 		width;					
  195                     	;	
  196                     			.strdef	_width,191,v,c,u,3,g,d,d,d,d,00h
  197                     	;unsigned char 		*bmpData;				
  198                     	;
  199                     			.strdef	_bmpData,192,v,pc1,u,4,g,d,d,d,d,00h
  200                     	;}
  201                     			.strend	_tagQryBoxBmp,6,5
  202                     	;struct tagAppSwitchInfo {
  203                     	;	
  204                     			.strname  _tagAppSwitchInfo
  205                     	;unsigned int 		currentAppID;							
  206                     	;	
  207                     			.strdef	_currentAppID,237,v,i,u,0,g,d,d,d,d,00h
  208                     	;unsigned int 		heirAppID;								
  209                     	;	
  210                     			.strdef	_heirAppID,238,v,i,u,2,g,d,d,d,d,00h
  211                     	;unsigned long 		downAppPhyAddr;							
  212                     	;	
  213                     			.strdef	_downAppPhyAddr,239,v,l,u,4,g,d,d,d,d,00h
  214                     	;unsigned char 		currentAppAttr;							
  215                     	;	
  216                     			.strdef	_currentAppAttr,240,v,c,u,8,g,d,d,d,d,00h
  217                     	;unsigned char 		heirAppAttr;
  Tue Jan 13 23:03:19 2026                                                                                               Page    5




  218                     	;
  219                     			.strdef	_heirAppAttr,241,v,c,u,9,g,d,d,d,d,00h
  220                     	;}
  221                     			.strend	_tagAppSwitchInfo,10,5
  222                     	;struct tagSysIconEnv {
  223                     	;	
  224                     			.strname  _tagSysIconEnv
  225                     	;unsigned char 		iconSaveBuf[12];
  226                     	;
  227                     			.strdef	_iconSaveBuf,327,v,c,u,0,g,d,d,d,d,0ch,00h
  228                     	;}
  229                     			.strend	_tagSysIconEnv,12,1
  230                     	;.macstart 19335,525
  231                     	;
  232                     			.c_start  04b87h,525
  233                     	;.asm
  234                     	;	
  235  5000                 			.CHIP	6502
  236                     			.LINKLIST
  237                     			.SYMBOLS
  238                     			.DEBUG	ASM
  239                     			.LIST	ON
  240                     	;.optimize	off
  241                     	;	
  242                     	;.endasm
  243                     	;
  244                     	;
  245                     	;.macend 19418,532
  246                     	;
  247                     			.c_end	04bdah,532
  248                     	;.endinc psnakefar2.c
  249                     			.filename	psnakefar2.c
  250                     	;.filename mtower.h
  251                     	;
  252                     			.filename	mtower.h
  253                     	;.endinc psnakefar2.c
  254                     			.filename	psnakefar2.c
  255                     	;
  256                     			.f_start  057ch,39
  257                     			.bank_table
  258                     			.global	&GameMTGetTalk
  259  905A     00 50 E2    	&GameMTGetTalk:	.bankaddr	_GameMTGetTalk
  260                     			.ends
  261         4217 5000   	_GameMTGetTalk:	.equal	$
  262                     			.attrib	_GameMTGetTalk,40,f,b
  263                     	;
  264                     	;
  265         0004        	?ASC0:		.equal	4
  266         0000        	?TSC0:		.equal	0
  267         0000        	?LSC0:		.equal	0
  268                     	;{
  269                     			.local	_number,40,v,i,u,d,d,d,d,0+?LSC0+?TSC0+0,00h
  270                     			.local	_chars,40,v,pc1,u,f,d,f,d,2+?LSC0+?TSC0+0,00h
  271                     	;(number)
  272                     	;	
  273                     			.c_start  05a5h,41
  274  5000     A0 00       			ldy	#+0+?LSC0+?TSC0
  Tue Jan 13 23:03:19 2026                                                                                               Page    6




  275  5002     B1 28       			lda	(__stack_ptr),y
  276  5004     85 23       			sta	__oper2
  277  5006     C8          			iny
  278  5007     B1 28       			lda	(__stack_ptr),y
  279  5009     85 24       			sta	__oper2+1
  280         3A12 500B   	?PLC0:		.equal	$
  281                     			.c_end	05b4h,42
  282                     	;
  283                     			.sw_start
  284                     			.const_data_psfar2
  285  73E2     5701        	?CGL0:	.word	343
  286  73E4     5801        			.word	344
  287  73E6     5901        			.word	345
  288  73E8     5A01        			.word	346
  289  73EA     5B01        			.word	347
  290  73EC     5C01        			.word	348
  291  73EE     5D01        			.word	349
  292  73F0     5E01        			.word	350
  293  73F2     5F01        			.word	351
  294  73F4     6001        			.word	352
  295  73F6     6101        			.word	353
  296  73F8     6201        			.word	354
  297  73FA     6301        			.word	355
  298  73FC     6401        			.word	356
  299  73FE     6501        			.word	357
  300  7400     6601        			.word	358
  301  7402     6701        			.word	359
  302  7404     6801        			.word	360
  303  7406     6901        			.word	361
  304  7408     6A01        			.word	362
  305  740A     6B01        			.word	363
  306  740C     6C01        			.word	364
  307  740E     6D01        			.word	365
  308  7410     6E01        			.word	366
  309  7412     6F01        			.word	367
  310  7414     7001        			.word	368
  311  7416     7101        			.word	369
  312  7418     7201        			.word	370
  313  741A     7301        			.word	371
  314  741C     7401        			.word	372
  315  741E     7501        			.word	373
  316  7420     7601        			.word	374
  317  7422     7701        			.word	375
  318  7424     7801        			.word	376
  319  7426     7901        			.word	377
  320  7428     7A01        			.word	378
  321  742A     7B01        			.word	379
  322  742C     7C01        			.word	380
  323  742E     7D01        			.word	381
  324  7430     7E01        			.word	382
  325  7432     7F01        			.word	383
  326  7434     8001        			.word	384
  327  7436     8101        			.word	385
  328  7438     8201        			.word	386
  329  743A     8301        			.word	387
  330  743C     8401        			.word	388
  331  743E     8501        			.word	389
  Tue Jan 13 23:03:19 2026                                                                                               Page    7




  332  7440     8601        			.word	390
  333  7442     8701        			.word	391
  334  7444     8801        			.word	392
  335  7446     8901        			.word	393
  336  7448     8A01        			.word	394
  337  744A     8B01        			.word	395
  338  744C     8C01        			.word	396
  339  744E     8D01        			.word	397
  340  7450     8E01        			.word	398
  341  7452     8F01        			.word	399
  342  7454     9001        			.word	400
  343  7456     9101        			.word	401
  344  7458     9201        			.word	402
  345  745A     9301        			.word	403
  346  745C     9401        			.word	404
  347  745E     9501        			.word	405
  348  7460     9601        			.word	406
  349  7462     9701        			.word	407
  350  7464     9801        			.word	408
  351  7466     9901        			.word	409
  352  7468     9A01        			.word	410
  353  746A     9B01        			.word	411
  354  746C     9C01        			.word	412
  355  746E     9D01        			.word	413
  356  7470     9E01        			.word	414
  357  7472     9F01        			.word	415
  358  7474     A001        			.word	416
  359  7476     A101        			.word	417
  360  7478     A201        			.word	418
  361  747A     A301        			.word	419
  362  747C     A401        			.word	420
  363  747E     A501        			.word	421
  364  7480     A601        			.word	422
  365  7482     A701        			.word	423
  366  7484     A801        			.word	424
  367  7486     A901        			.word	425
  368  7488     AA01        			.word	426
  369  748A     AB01        			.word	427
  370  748C     AC01        			.word	428
  371  748E     AD01        			.word	429
  372  7490     AE01        			.word	430
  373  7492     AF01        			.word	431
  374  7494     B001        			.word	432
  375  7496     B101        			.word	433
  376  7498     B201        			.word	434
  377  749A     B301        			.word	435
  378  749C     B401        			.word	436
  379  749E     B501        			.word	437
  380  74A0     B601        			.word	438
  381  74A2     B701        			.word	439
  382  74A4     B801        			.word	440
  383  74A6     B901        			.word	441
  384  74A8     BA01        			.word	442
  385  74AA     BB01        			.word	443
  386  74AC     BC01        			.word	444
  387  74AE     BD01        			.word	445
  388  74B0     BE01        			.word	446
  Tue Jan 13 23:03:19 2026                                                                                               Page    8




  389  74B2     BF01        			.word	447
  390  74B4     C001        			.word	448
  391  74B6     C101        			.word	449
  392  74B8     C201        			.word	450
  393  74BA     C301        			.word	451
  394  74BC     C401        			.word	452
  395  74BE     C501        			.word	453
  396  74C0     C601        			.word	454
  397  74C2     C701        			.word	455
  398  74C4     C801        			.word	456
  399  74C6     C901        			.word	457
  400  74C8     CA01        			.word	458
  401  74CA     CB01        			.word	459
  402  74CC     CC01        			.word	460
  403  74CE     CD01        			.word	461
  404  74D0     CE01        			.word	462
  405  74D2     CF01        			.word	463
  406  74D4     D001        			.word	464
  407  74D6     D101        			.word	465
  408  74D8     D201        			.word	466
  409  74DA     D301        			.word	467
  410  74DC     D401        			.word	468
  411  74DE     D501        			.word	469
  412  74E0     D601        			.word	470
  413  74E2     D701        			.word	471
  414  74E4     D801        			.word	472
  415  74E6     D901        			.word	473
  416  74E8     DA01        			.word	474
  417  74EA     DB01        			.word	475
  418  74EC     DC01        			.word	476
  419  74EE     DD01        			.word	477
  420  74F0     DE01        			.word	478
  421  74F2     DF01        			.word	479
  422  74F4     E001        			.word	480
  423  74F6     E101        			.word	481
  424  74F8     E201        			.word	482
  425  74FA     E301        			.word	483
  426  74FC     E401        			.word	484
  427  74FE     E501        			.word	485
  428  7500     E601        			.word	486
  429  7502     E701        			.word	487
  430  7504     E801        			.word	488
  431  7506     E901        			.word	489
  432  7508     EA01        			.word	490
  433  750A     EB01        			.word	491
  434  750C     EC01        			.word	492
  435  750E     ED01        			.word	493
  436  7510     EE01        			.word	494
  437  7512     EF01        			.word	495
  438  7514     2250        	?CGL1:	.word	?SWL0
  439                     			.sw_case ?SWL0
  440  7516     5C50        			.word	?SWL1
  441                     			.sw_case ?SWL1
  442  7518     9650        			.word	?SWL2
  443                     			.sw_case ?SWL2
  444  751A     D050        			.word	?SWL3
  445                     			.sw_case ?SWL3
  Tue Jan 13 23:03:19 2026                                                                                               Page    9




  446  751C     0A51        			.word	?SWL4
  447                     			.sw_case ?SWL4
  448  751E     4451        			.word	?SWL5
  449                     			.sw_case ?SWL5
  450  7520     7E51        			.word	?SWL6
  451                     			.sw_case ?SWL6
  452  7522     B851        			.word	?SWL7
  453                     			.sw_case ?SWL7
  454  7524     F251        			.word	?SWL8
  455                     			.sw_case ?SWL8
  456  7526     2C52        			.word	?SWL9
  457                     			.sw_case ?SWL9
  458  7528     6652        			.word	?SWL10
  459                     			.sw_case ?SWL10
  460  752A     A052        			.word	?SWL11
  461                     			.sw_case ?SWL11
  462  752C     DA52        			.word	?SWL12
  463                     			.sw_case ?SWL12
  464  752E     1453        			.word	?SWL13
  465                     			.sw_case ?SWL13
  466  7530     4E53        			.word	?SWL14
  467                     			.sw_case ?SWL14
  468  7532     8853        			.word	?SWL15
  469                     			.sw_case ?SWL15
  470  7534     C253        			.word	?SWL16
  471                     			.sw_case ?SWL16
  472  7536     FC53        			.word	?SWL17
  473                     			.sw_case ?SWL17
  474  7538     3654        			.word	?SWL18
  475                     			.sw_case ?SWL18
  476  753A     7054        			.word	?SWL19
  477                     			.sw_case ?SWL19
  478  753C     AA54        			.word	?SWL20
  479                     			.sw_case ?SWL20
  480  753E     E454        			.word	?SWL21
  481                     			.sw_case ?SWL21
  482  7540     1E55        			.word	?SWL22
  483                     			.sw_case ?SWL22
  484  7542     5855        			.word	?SWL23
  485                     			.sw_case ?SWL23
  486  7544     9255        			.word	?SWL24
  487                     			.sw_case ?SWL24
  488  7546     CC55        			.word	?SWL25
  489                     			.sw_case ?SWL25
  490  7548     0656        			.word	?SWL26
  491                     			.sw_case ?SWL26
  492  754A     4056        			.word	?SWL27
  493                     			.sw_case ?SWL27
  494  754C     7A56        			.word	?SWL28
  495                     			.sw_case ?SWL28
  496  754E     B456        			.word	?SWL29
  497                     			.sw_case ?SWL29
  498  7550     EE56        			.word	?SWL30
  499                     			.sw_case ?SWL30
  500  7552     2857        			.word	?SWL31
  501                     			.sw_case ?SWL31
  502  7554     6257        			.word	?SWL32
  Tue Jan 13 23:03:19 2026                                                                                               Page   10




  503                     			.sw_case ?SWL32
  504  7556     9C57        			.word	?SWL33
  505                     			.sw_case ?SWL33
  506  7558     D657        			.word	?SWL34
  507                     			.sw_case ?SWL34
  508  755A     1058        			.word	?SWL35
  509                     			.sw_case ?SWL35
  510  755C     4A58        			.word	?SWL36
  511                     			.sw_case ?SWL36
  512  755E     8458        			.word	?SWL37
  513                     			.sw_case ?SWL37
  514  7560     BE58        			.word	?SWL38
  515                     			.sw_case ?SWL38
  516  7562     F858        			.word	?SWL39
  517                     			.sw_case ?SWL39
  518  7564     3259        			.word	?SWL40
  519                     			.sw_case ?SWL40
  520  7566     6C59        			.word	?SWL41
  521                     			.sw_case ?SWL41
  522  7568     A659        			.word	?SWL42
  523                     			.sw_case ?SWL42
  524  756A     E059        			.word	?SWL43
  525                     			.sw_case ?SWL43
  526  756C     1A5A        			.word	?SWL44
  527                     			.sw_case ?SWL44
  528  756E     545A        			.word	?SWL45
  529                     			.sw_case ?SWL45
  530  7570     8E5A        			.word	?SWL46
  531                     			.sw_case ?SWL46
  532  7572     C85A        			.word	?SWL47
  533                     			.sw_case ?SWL47
  534  7574     025B        			.word	?SWL48
  535                     			.sw_case ?SWL48
  536  7576     3C5B        			.word	?SWL49
  537                     			.sw_case ?SWL49
  538  7578     765B        			.word	?SWL50
  539                     			.sw_case ?SWL50
  540  757A     B05B        			.word	?SWL51
  541                     			.sw_case ?SWL51
  542  757C     EA5B        			.word	?SWL52
  543                     			.sw_case ?SWL52
  544  757E     245C        			.word	?SWL53
  545                     			.sw_case ?SWL53
  546  7580     5E5C        			.word	?SWL54
  547                     			.sw_case ?SWL54
  548  7582     985C        			.word	?SWL55
  549                     			.sw_case ?SWL55
  550  7584     D25C        			.word	?SWL56
  551                     			.sw_case ?SWL56
  552  7586     0C5D        			.word	?SWL57
  553                     			.sw_case ?SWL57
  554  7588     465D        			.word	?SWL58
  555                     			.sw_case ?SWL58
  556  758A     805D        			.word	?SWL59
  557                     			.sw_case ?SWL59
  558  758C     BA5D        			.word	?SWL60
  559                     			.sw_case ?SWL60
  Tue Jan 13 23:03:19 2026                                                                                               Page   11




  560  758E     F45D        			.word	?SWL61
  561                     			.sw_case ?SWL61
  562  7590     2E5E        			.word	?SWL62
  563                     			.sw_case ?SWL62
  564  7592     685E        			.word	?SWL63
  565                     			.sw_case ?SWL63
  566  7594     A25E        			.word	?SWL64
  567                     			.sw_case ?SWL64
  568  7596     DC5E        			.word	?SWL65
  569                     			.sw_case ?SWL65
  570  7598     165F        			.word	?SWL66
  571                     			.sw_case ?SWL66
  572  759A     505F        			.word	?SWL67
  573                     			.sw_case ?SWL67
  574  759C     8A5F        			.word	?SWL68
  575                     			.sw_case ?SWL68
  576  759E     C45F        			.word	?SWL69
  577                     			.sw_case ?SWL69
  578  75A0     FE5F        			.word	?SWL70
  579                     			.sw_case ?SWL70
  580  75A2     3860        			.word	?SWL71
  581                     			.sw_case ?SWL71
  582  75A4     7260        			.word	?SWL72
  583                     			.sw_case ?SWL72
  584  75A6     AC60        			.word	?SWL73
  585                     			.sw_case ?SWL73
  586  75A8     E660        			.word	?SWL74
  587                     			.sw_case ?SWL74
  588  75AA     2061        			.word	?SWL75
  589                     			.sw_case ?SWL75
  590  75AC     5A61        			.word	?SWL76
  591                     			.sw_case ?SWL76
  592  75AE     9461        			.word	?SWL77
  593                     			.sw_case ?SWL77
  594  75B0     CE61        			.word	?SWL78
  595                     			.sw_case ?SWL78
  596  75B2     0862        			.word	?SWL79
  597                     			.sw_case ?SWL79
  598  75B4     4262        			.word	?SWL80
  599                     			.sw_case ?SWL80
  600  75B6     7C62        			.word	?SWL81
  601                     			.sw_case ?SWL81
  602  75B8     B662        			.word	?SWL82
  603                     			.sw_case ?SWL82
  604  75BA     F062        			.word	?SWL83
  605                     			.sw_case ?SWL83
  606  75BC     2A63        			.word	?SWL84
  607                     			.sw_case ?SWL84
  608  75BE     6463        			.word	?SWL85
  609                     			.sw_case ?SWL85
  610  75C0     9E63        			.word	?SWL86
  611                     			.sw_case ?SWL86
  612  75C2     D863        			.word	?SWL87
  613                     			.sw_case ?SWL87
  614  75C4     1264        			.word	?SWL88
  615                     			.sw_case ?SWL88
  616  75C6     4C64        			.word	?SWL89
  Tue Jan 13 23:03:19 2026                                                                                               Page   12




  617                     			.sw_case ?SWL89
  618  75C8     8664        			.word	?SWL90
  619                     			.sw_case ?SWL90
  620  75CA     C064        			.word	?SWL91
  621                     			.sw_case ?SWL91
  622  75CC     FA64        			.word	?SWL92
  623                     			.sw_case ?SWL92
  624  75CE     3465        			.word	?SWL93
  625                     			.sw_case ?SWL93
  626  75D0     6E65        			.word	?SWL94
  627                     			.sw_case ?SWL94
  628  75D2     A865        			.word	?SWL95
  629                     			.sw_case ?SWL95
  630  75D4     E265        			.word	?SWL96
  631                     			.sw_case ?SWL96
  632  75D6     1C66        			.word	?SWL97
  633                     			.sw_case ?SWL97
  634  75D8     5666        			.word	?SWL98
  635                     			.sw_case ?SWL98
  636  75DA     9066        			.word	?SWL99
  637                     			.sw_case ?SWL99
  638  75DC     CA66        			.word	?SWL100
  639                     			.sw_case ?SWL100
  640  75DE     0467        			.word	?SWL101
  641                     			.sw_case ?SWL101
  642  75E0     3E67        			.word	?SWL102
  643                     			.sw_case ?SWL102
  644  75E2     7867        			.word	?SWL103
  645                     			.sw_case ?SWL103
  646  75E4     B267        			.word	?SWL104
  647                     			.sw_case ?SWL104
  648  75E6     EC67        			.word	?SWL105
  649                     			.sw_case ?SWL105
  650  75E8     2668        			.word	?SWL106
  651                     			.sw_case ?SWL106
  652  75EA     6068        			.word	?SWL107
  653                     			.sw_case ?SWL107
  654  75EC     9A68        			.word	?SWL108
  655                     			.sw_case ?SWL108
  656  75EE     D468        			.word	?SWL109
  657                     			.sw_case ?SWL109
  658  75F0     0E69        			.word	?SWL110
  659                     			.sw_case ?SWL110
  660  75F2     4869        			.word	?SWL111
  661                     			.sw_case ?SWL111
  662  75F4     8269        			.word	?SWL112
  663                     			.sw_case ?SWL112
  664  75F6     BC69        			.word	?SWL113
  665                     			.sw_case ?SWL113
  666  75F8     F669        			.word	?SWL114
  667                     			.sw_case ?SWL114
  668  75FA     306A        			.word	?SWL115
  669                     			.sw_case ?SWL115
  670  75FC     6A6A        			.word	?SWL116
  671                     			.sw_case ?SWL116
  672  75FE     A46A        			.word	?SWL117
  673                     			.sw_case ?SWL117
  Tue Jan 13 23:03:19 2026                                                                                               Page   13




  674  7600     DE6A        			.word	?SWL118
  675                     			.sw_case ?SWL118
  676  7602     186B        			.word	?SWL119
  677                     			.sw_case ?SWL119
  678  7604     526B        			.word	?SWL120
  679                     			.sw_case ?SWL120
  680  7606     8C6B        			.word	?SWL121
  681                     			.sw_case ?SWL121
  682  7608     C66B        			.word	?SWL122
  683                     			.sw_case ?SWL122
  684  760A     006C        			.word	?SWL123
  685                     			.sw_case ?SWL123
  686  760C     3A6C        			.word	?SWL124
  687                     			.sw_case ?SWL124
  688  760E     746C        			.word	?SWL125
  689                     			.sw_case ?SWL125
  690  7610     AE6C        			.word	?SWL126
  691                     			.sw_case ?SWL126
  692  7612     E86C        			.word	?SWL127
  693                     			.sw_case ?SWL127
  694  7614     226D        			.word	?SWL128
  695                     			.sw_case ?SWL128
  696  7616     5C6D        			.word	?SWL129
  697                     			.sw_case ?SWL129
  698  7618     966D        			.word	?SWL130
  699                     			.sw_case ?SWL130
  700  761A     D06D        			.word	?SWL131
  701                     			.sw_case ?SWL131
  702  761C     0A6E        			.word	?SWL132
  703                     			.sw_case ?SWL132
  704  761E     446E        			.word	?SWL133
  705                     			.sw_case ?SWL133
  706  7620     7E6E        			.word	?SWL134
  707                     			.sw_case ?SWL134
  708  7622     B86E        			.word	?SWL135
  709                     			.sw_case ?SWL135
  710  7624     F26E        			.word	?SWL136
  711                     			.sw_case ?SWL136
  712  7626     2C6F        			.word	?SWL137
  713                     			.sw_case ?SWL137
  714  7628     666F        			.word	?SWL138
  715                     			.sw_case ?SWL138
  716  762A     A06F        			.word	?SWL139
  717                     			.sw_case ?SWL139
  718  762C     DA6F        			.word	?SWL140
  719                     			.sw_case ?SWL140
  720  762E     1470        			.word	?SWL141
  721                     			.sw_case ?SWL141
  722  7630     4E70        			.word	?SWL142
  723                     			.sw_case ?SWL142
  724  7632     8870        			.word	?SWL143
  725                     			.sw_case ?SWL143
  726  7634     C270        			.word	?SWL144
  727                     			.sw_case ?SWL144
  728  7636     FC70        			.word	?SWL145
  729                     			.sw_case ?SWL145
  730  7638     3671        			.word	?SWL146
  Tue Jan 13 23:03:19 2026                                                                                               Page   14




  731                     			.sw_case ?SWL146
  732  763A     7071        			.word	?SWL147
  733                     			.sw_case ?SWL147
  734  763C     AA71        			.word	?SWL148
  735                     			.sw_case ?SWL148
  736  763E     E471        			.word	?SWL149
  737                     			.sw_case ?SWL149
  738  7640     1E72        			.word	?SWL150
  739                     			.sw_case ?SWL150
  740  7642     5872        			.word	?SWL151
  741                     			.sw_case ?SWL151
  742  7644     9272        			.word	?SWL152
  743                     			.sw_case ?SWL152
  744                     			.program_psfar2
  745  500B     A9 E2       			lda	#.low.?CGL0
  746  500D     85 26       			sta	__addr_reg
  747  500F     A9 73       			lda	#.high.?CGL0
  748  5011     85 27       			sta	__addr_reg+1
  749                     			.sw_case ?BOL0
  750  5013     A2 99       			ldx	#.low.153
  751  5015     A0 00       			ldy	#.high.153
  752  5017     A9 CC       			lda	#.low.?BOL0
  753  5019     85 20       			sta	__oper1
  754  501B     A9 72       			lda	#.high.?BOL0
  755  501D     85 21       			sta	__oper1+1
  756  501F     4C 5C DB    			jmp	__switch_comparison
  757                     			.sw_end
  758                     	;case 343:		
  759         4713 5022   	?SWL0:		.equal	$
  760                     	;SysMemcpy(chars,"勇士：我现在就要带",20)
  761                     			.c_start  01d48h,140
  762                     			.const_data_psfar2
  763  7646     D3 C2 CA BF A3 	?PLC1:		.byte	"勇士：我现在就要带",0
              BA CE D2 CF D6 
              D4 DA BE CD D2 
              AA B4 F8 00 
  764                     			.program_psfar2
  765  5022     A9 14       			lda	#.low.20
  766  5024     85 20       			sta	__oper1
  767  5026     A9 00       			lda	#.high.20
  768  5028     85 21       			sta	__oper1+1
  769  502A     20 CA DA    			jsr	__store_int_funct_arg
  770  502D     A9 46       			lda	#.low.?PLC1
  771  502F     85 20       			sta	__oper1
  772  5031     A9 76       			lda	#.high.?PLC1
  773  5033     85 21       			sta	__oper1+1
  774  5035     20 CA DA    			jsr	__store_int_funct_arg
  775  5038     A0 06       			ldy	#+2+?LSC0+?TSC0+4
  776  503A     B1 28       			lda	(__stack_ptr),y
  777  503C     85 20       			sta	__oper1
  778  503E     C8          			iny
  779  503F     B1 28       			lda	(__stack_ptr),y
  780  5041     85 21       			sta	__oper1+1
  781  5043     20 CA DA    			jsr	__store_int_funct_arg
  782                     			.f_call	_SysMemcpy
  783  5046     20 01 E9    			jsr	_SysMemcpy
  784  5049     08          			php
  Tue Jan 13 23:03:19 2026                                                                                               Page   15




  785  504A     78          			sei
  786  504B     18          			clc
  787  504C     A5 28       			lda	__stack_ptr
  788  504E     69 06       			adc	#.low.6
  789  5050     85 28       			sta	__stack_ptr
  790  5052     A5 29       			lda	__stack_ptr+1
  791  5054     69 00       			adc	#.high.6
  792  5056     85 29       			sta	__stack_ptr+1
  793  5058     28          			plp
  794                     			.c_end	01d70h,140
  795                     	;break;
  796                     	;		
  797                     			.sw_break
  798  5059     4C CC 72    			jmp	?BOL0
  799                     	;case 344:		
  800         3A17 505C   	?SWL1:		.equal	$
  801                     	;SysMemcpy(chars,"走公主，你不等阻止",20)
  802                     			.c_start  01d86h,141
  803                     			.const_data_psfar2
  804  7659     D7 DF B9 AB D6 	?PLC2:		.byte	"走公主，你不等阻止",0
              F7 A3 AC C4 E3 
              B2 BB B5 C8 D7 
              E8 D6 B9 00 
  805                     			.program_psfar2
  806  505C     A9 14       			lda	#.low.20
  807  505E     85 20       			sta	__oper1
  808  5060     A9 00       			lda	#.high.20
  809  5062     85 21       			sta	__oper1+1
  810  5064     20 CA DA    			jsr	__store_int_funct_arg
  811  5067     A9 59       			lda	#.low.?PLC2
  812  5069     85 20       			sta	__oper1
  813  506B     A9 76       			lda	#.high.?PLC2
  814  506D     85 21       			sta	__oper1+1
  815  506F     20 CA DA    			jsr	__store_int_funct_arg
  816  5072     A0 06       			ldy	#+2+?LSC0+?TSC0+4
  817  5074     B1 28       			lda	(__stack_ptr),y
  818  5076     85 20       			sta	__oper1
  819  5078     C8          			iny
  820  5079     B1 28       			lda	(__stack_ptr),y
  821  507B     85 21       			sta	__oper1+1
  822  507D     20 CA DA    			jsr	__store_int_funct_arg
  823                     			.f_call	_SysMemcpy
  824  5080     20 01 E9    			jsr	_SysMemcpy
  825  5083     08          			php
  826  5084     78          			sei
  827  5085     18          			clc
  828  5086     A5 28       			lda	__stack_ptr
  829  5088     69 06       			adc	#.low.6
  830  508A     85 28       			sta	__stack_ptr
  831  508C     A5 29       			lda	__stack_ptr+1
  832  508E     69 00       			adc	#.high.6
  833  5090     85 29       			sta	__stack_ptr+1
  834  5092     28          			plp
  835                     			.c_end	01daeh,141
  836                     	;break;
  837                     	;		
  838                     			.sw_break
  Tue Jan 13 23:03:19 2026                                                                                               Page   16




  839  5093     4C CC 72    			jmp	?BOL0
  840                     	;case 345:		
  841         341B 5096   	?SWL2:		.equal	$
  842                     	;SysMemcpy(chars,"我了吧？          ",20)
  843                     			.c_start  01dc4h,142
  844                     			.const_data_psfar2
  845  766C     CE D2 C1 CB B0 	?PLC3:		.byte	"我了吧？          ",0
              C9 A3 BF 20 20 
              20 20 20 20 20 
              20 20 20 00 
  846                     			.program_psfar2
  847  5096     A9 14       			lda	#.low.20
  848  5098     85 20       			sta	__oper1
  849  509A     A9 00       			lda	#.high.20
  850  509C     85 21       			sta	__oper1+1
  851  509E     20 CA DA    			jsr	__store_int_funct_arg
  852  50A1     A9 6C       			lda	#.low.?PLC3
  853  50A3     85 20       			sta	__oper1
  854  50A5     A9 76       			lda	#.high.?PLC3
  855  50A7     85 21       			sta	__oper1+1
  856  50A9     20 CA DA    			jsr	__store_int_funct_arg
  857  50AC     A0 06       			ldy	#+2+?LSC0+?TSC0+4
  858  50AE     B1 28       			lda	(__stack_ptr),y
  859  50B0     85 20       			sta	__oper1
  860  50B2     C8          			iny
  861  50B3     B1 28       			lda	(__stack_ptr),y
  862  50B5     85 21       			sta	__oper1+1
  863  50B7     20 CA DA    			jsr	__store_int_funct_arg
  864                     			.f_call	_SysMemcpy
  865  50BA     20 01 E9    			jsr	_SysMemcpy
  866  50BD     08          			php
  867  50BE     78          			sei
  868  50BF     18          			clc
  869  50C0     A5 28       			lda	__stack_ptr
  870  50C2     69 06       			adc	#.low.6
  871  50C4     85 28       			sta	__stack_ptr
  872  50C6     A5 29       			lda	__stack_ptr+1
  873  50C8     69 00       			adc	#.high.6
  874  50CA     85 29       			sta	__stack_ptr+1
  875  50CC     28          			plp
  876                     			.c_end	01dech,142
  877                     	;break;
  878                     	;		
  879                     			.sw_break
  880  50CD     4C CC 72    			jmp	?BOL0
  881                     	;case 346:		
  882         4525 50D0   	?SWL3:		.equal	$
  883                     	;SysMemcpy(chars,"冥灵魔王：哈哈哈，",20)
  884                     			.c_start  01e02h,143
  885                     			.const_data_psfar2
  886  767F     DA A4 C1 E9 C4 	?PLC4:		.byte	"冥灵魔王：哈哈哈，",0
              A7 CD F5 A3 BA 
              B9 FE B9 FE B9 
              FE A3 AC 00 
  887                     			.program_psfar2
  888  50D0     A9 14       			lda	#.low.20
  889  50D2     85 20       			sta	__oper1
  Tue Jan 13 23:03:19 2026                                                                                               Page   17




  890  50D4     A9 00       			lda	#.high.20
  891  50D6     85 21       			sta	__oper1+1
  892  50D8     20 CA DA    			jsr	__store_int_funct_arg
  893  50DB     A9 7F       			lda	#.low.?PLC4
  894  50DD     85 20       			sta	__oper1
  895  50DF     A9 76       			lda	#.high.?PLC4
  896  50E1     85 21       			sta	__oper1+1
  897  50E3     20 CA DA    			jsr	__store_int_funct_arg
  898  50E6     A0 06       			ldy	#+2+?LSC0+?TSC0+4
  899  50E8     B1 28       			lda	(__stack_ptr),y
  900  50EA     85 20       			sta	__oper1
  901  50EC     C8          			iny
  902  50ED     B1 28       			lda	(__stack_ptr),y
  903  50EF     85 21       			sta	__oper1+1
  904  50F1     20 CA DA    			jsr	__store_int_funct_arg
  905                     			.f_call	_SysMemcpy
  906  50F4     20 01 E9    			jsr	_SysMemcpy
  907  50F7     08          			php
  908  50F8     78          			sei
  909  50F9     18          			clc
  910  50FA     A5 28       			lda	__stack_ptr
  911  50FC     69 06       			adc	#.low.6
  912  50FE     85 28       			sta	__stack_ptr
  913  5100     A5 29       			lda	__stack_ptr+1
  914  5102     69 00       			adc	#.high.6
  915  5104     85 29       			sta	__stack_ptr+1
  916  5106     28          			plp
  917                     			.c_end	01e2ah,143
  918                     	;break;
  919                     	;		
  920                     			.sw_break
  921  5107     4C CC 72    			jmp	?BOL0
  922                     	;case 347:		
  923         3812 510A   	?SWL4:		.equal	$
  924                     	;SysMemcpy(chars,"就算你现在带走公主",20)
  925                     			.c_start  01e40h,144
  926                     			.const_data_psfar2
  927  7692     BE CD CB E3 C4 	?PLC5:		.byte	"就算你现在带走公主",0
              E3 CF D6 D4 DA 
              B4 F8 D7 DF B9 
              AB D6 F7 00 
  928                     			.program_psfar2
  929  510A     A9 14       			lda	#.low.20
  930  510C     85 20       			sta	__oper1
  931  510E     A9 00       			lda	#.high.20
  932  5110     85 21       			sta	__oper1+1
  933  5112     20 CA DA    			jsr	__store_int_funct_arg
  934  5115     A9 92       			lda	#.low.?PLC5
  935  5117     85 20       			sta	__oper1
  936  5119     A9 76       			lda	#.high.?PLC5
  937  511B     85 21       			sta	__oper1+1
  938  511D     20 CA DA    			jsr	__store_int_funct_arg
  939  5120     A0 06       			ldy	#+2+?LSC0+?TSC0+4
  940  5122     B1 28       			lda	(__stack_ptr),y
  941  5124     85 20       			sta	__oper1
  942  5126     C8          			iny
  943  5127     B1 28       			lda	(__stack_ptr),y
  Tue Jan 13 23:03:19 2026                                                                                               Page   18




  944  5129     85 21       			sta	__oper1+1
  945  512B     20 CA DA    			jsr	__store_int_funct_arg
  946                     			.f_call	_SysMemcpy
  947  512E     20 01 E9    			jsr	_SysMemcpy
  948  5131     08          			php
  949  5132     78          			sei
  950  5133     18          			clc
  951  5134     A5 28       			lda	__stack_ptr
  952  5136     69 06       			adc	#.low.6
  953  5138     85 28       			sta	__stack_ptr
  954  513A     A5 29       			lda	__stack_ptr+1
  955  513C     69 00       			adc	#.high.6
  956  513E     85 29       			sta	__stack_ptr+1
  957  5140     28          			plp
  958                     			.c_end	01e68h,144
  959                     	;break;
  960                     	;		
  961                     			.sw_break
  962  5141     4C CC 72    			jmp	?BOL0
  963                     	;case 348:		
  964         3216 5144   	?SWL5:		.equal	$
  965                     	;SysMemcpy(chars,"也来不及了，因为我",20)
  966                     			.c_start  01e7eh,145
  967                     			.const_data_psfar2
  968  76A5     D2 B2 C0 B4 B2 	?PLC6:		.byte	"也来不及了，因为我",0
              BB BC B0 C1 CB 
              A3 AC D2 F2 CE 
              AA CE D2 00 
  969                     			.program_psfar2
  970  5144     A9 14       			lda	#.low.20
  971  5146     85 20       			sta	__oper1
  972  5148     A9 00       			lda	#.high.20
  973  514A     85 21       			sta	__oper1+1
  974  514C     20 CA DA    			jsr	__store_int_funct_arg
  975  514F     A9 A5       			lda	#.low.?PLC6
  976  5151     85 20       			sta	__oper1
  977  5153     A9 76       			lda	#.high.?PLC6
  978  5155     85 21       			sta	__oper1+1
  979  5157     20 CA DA    			jsr	__store_int_funct_arg
  980  515A     A0 06       			ldy	#+2+?LSC0+?TSC0+4
  981  515C     B1 28       			lda	(__stack_ptr),y
  982  515E     85 20       			sta	__oper1
  983  5160     C8          			iny
  984  5161     B1 28       			lda	(__stack_ptr),y
  985  5163     85 21       			sta	__oper1+1
  986  5165     20 CA DA    			jsr	__store_int_funct_arg
  987                     			.f_call	_SysMemcpy
  988  5168     20 01 E9    			jsr	_SysMemcpy
  989  516B     08          			php
  990  516C     78          			sei
  991  516D     18          			clc
  992  516E     A5 28       			lda	__stack_ptr
  993  5170     69 06       			adc	#.low.6
  994  5172     85 28       			sta	__stack_ptr
  995  5174     A5 29       			lda	__stack_ptr+1
  996  5176     69 00       			adc	#.high.6
  997  5178     85 29       			sta	__stack_ptr+1
  Tue Jan 13 23:03:19 2026                                                                                               Page   19




  998  517A     28          			plp
  999                     			.c_end	01ea6h,145
 1000                     	;break;
 1001                     	;		
 1002                     			.sw_break
 1003  517B     4C CC 72    			jmp	?BOL0
 1004                     	;case 349:		
 1005         4319 517E   	?SWL6:		.equal	$
 1006                     	;SysMemcpy(chars,"使用了魔法，这座塔",20)
 1007                     			.c_start  01ebch,146
 1008                     			.const_data_psfar2
 1009  76B8     CA B9 D3 C3 C1 	?PLC7:		.byte	"使用了魔法，这座塔",0
              CB C4 A7 B7 A8 
              A3 AC D5 E2 D7 
              F9 CB FE 00 
 1010                     			.program_psfar2
 1011  517E     A9 14       			lda	#.low.20
 1012  5180     85 20       			sta	__oper1
 1013  5182     A9 00       			lda	#.high.20
 1014  5184     85 21       			sta	__oper1+1
 1015  5186     20 CA DA    			jsr	__store_int_funct_arg
 1016  5189     A9 B8       			lda	#.low.?PLC7
 1017  518B     85 20       			sta	__oper1
 1018  518D     A9 76       			lda	#.high.?PLC7
 1019  518F     85 21       			sta	__oper1+1
 1020  5191     20 CA DA    			jsr	__store_int_funct_arg
 1021  5194     A0 06       			ldy	#+2+?LSC0+?TSC0+4
 1022  5196     B1 28       			lda	(__stack_ptr),y
 1023  5198     85 20       			sta	__oper1
 1024  519A     C8          			iny
 1025  519B     B1 28       			lda	(__stack_ptr),y
 1026  519D     85 21       			sta	__oper1+1
 1027  519F     20 CA DA    			jsr	__store_int_funct_arg
 1028                     			.f_call	_SysMemcpy
 1029  51A2     20 01 E9    			jsr	_SysMemcpy
 1030  51A5     08          			php
 1031  51A6     78          			sei
 1032  51A7     18          			clc
 1033  51A8     A5 28       			lda	__stack_ptr
 1034  51AA     69 06       			adc	#.low.6
 1035  51AC     85 28       			sta	__stack_ptr
 1036  51AE     A5 29       			lda	__stack_ptr+1
 1037  51B0     69 00       			adc	#.high.6
 1038  51B2     85 29       			sta	__stack_ptr+1
 1039  51B4     28          			plp
 1040                     			.c_end	01ee4h,146
 1041                     	;break;
 1042                     	;		
 1043                     			.sw_break
 1044  51B5     4C CC 72    			jmp	?BOL0
 1045                     	;case 350:		
 1046         3624 51B8   	?SWL7:		.equal	$
 1047                     	;SysMemcpy(chars,"还有90秒就倒了，  ",20)
 1048                     			.c_start  01efah,147
 1049                     			.const_data_psfar2
 1050  76CB     BB B9 D3 D0 39 	?PLC8:		.byte	"还有90秒就倒了，  ",0
              30 C3 EB BE CD 
  Tue Jan 13 23:03:19 2026                                                                                               Page   20




              B5 B9 C1 CB A3 
              AC 20 20 00 
 1051                     			.program_psfar2
 1052  51B8     A9 14       			lda	#.low.20
 1053  51BA     85 20       			sta	__oper1
 1054  51BC     A9 00       			lda	#.high.20
 1055  51BE     85 21       			sta	__oper1+1
 1056  51C0     20 CA DA    			jsr	__store_int_funct_arg
 1057  51C3     A9 CB       			lda	#.low.?PLC8
 1058  51C5     85 20       			sta	__oper1
 1059  51C7     A9 76       			lda	#.high.?PLC8
 1060  51C9     85 21       			sta	__oper1+1
 1061  51CB     20 CA DA    			jsr	__store_int_funct_arg
 1062  51CE     A0 06       			ldy	#+2+?LSC0+?TSC0+4
 1063  51D0     B1 28       			lda	(__stack_ptr),y
 1064  51D2     85 20       			sta	__oper1
 1065  51D4     C8          			iny
 1066  51D5     B1 28       			lda	(__stack_ptr),y
 1067  51D7     85 21       			sta	__oper1+1
 1068  51D9     20 CA DA    			jsr	__store_int_funct_arg
 1069                     			.f_call	_SysMemcpy
 1070  51DC     20 01 E9    			jsr	_SysMemcpy
 1071  51DF     08          			php
 1072  51E0     78          			sei
 1073  51E1     18          			clc
 1074  51E2     A5 28       			lda	__stack_ptr
 1075  51E4     69 06       			adc	#.low.6
 1076  51E6     85 28       			sta	__stack_ptr
 1077  51E8     A5 29       			lda	__stack_ptr+1
 1078  51EA     69 00       			adc	#.high.6
 1079  51EC     85 29       			sta	__stack_ptr+1
 1080  51EE     28          			plp
 1081                     			.c_end	01f22h,147
 1082                     	;break;
 1083                     	;		
 1084                     			.sw_break
 1085  51EF     4C CC 72    			jmp	?BOL0
 1086                     	;case 351:		
 1087         4727 51F2   	?SWL8:		.equal	$
 1088                     	;SysMemcpy(chars,"我先走了。        ",20)
 1089                     			.c_start  01f38h,148
 1090                     			.const_data_psfar2
 1091  76DE     CE D2 CF C8 D7 	?PLC9:		.byte	"我先走了。        ",0
              DF C1 CB A1 A3 
              20 20 20 20 20 
              20 20 20 00 
 1092                     			.program_psfar2
 1093  51F2     A9 14       			lda	#.low.20
 1094  51F4     85 20       			sta	__oper1
 1095  51F6     A9 00       			lda	#.high.20
 1096  51F8     85 21       			sta	__oper1+1
 1097  51FA     20 CA DA    			jsr	__store_int_funct_arg
 1098  51FD     A9 DE       			lda	#.low.?PLC9
 1099  51FF     85 20       			sta	__oper1
 1100  5201     A9 76       			lda	#.high.?PLC9
 1101  5203     85 21       			sta	__oper1+1
 1102  5205     20 CA DA    			jsr	__store_int_funct_arg
  Tue Jan 13 23:03:19 2026                                                                                               Page   21




 1103  5208     A0 06       			ldy	#+2+?LSC0+?TSC0+4
 1104  520A     B1 28       			lda	(__stack_ptr),y
 1105  520C     85 20       			sta	__oper1
 1106  520E     C8          			iny
 1107  520F     B1 28       			lda	(__stack_ptr),y
 1108  5211     85 21       			sta	__oper1+1
 1109  5213     20 CA DA    			jsr	__store_int_funct_arg
 1110                     			.f_call	_SysMemcpy
 1111  5216     20 01 E9    			jsr	_SysMemcpy
 1112  5219     08          			php
 1113  521A     78          			sei
 1114  521B     18          			clc
 1115  521C     A5 28       			lda	__stack_ptr
 1116  521E     69 06       			adc	#.low.6
 1117  5220     85 28       			sta	__stack_ptr
 1118  5222     A5 29       			lda	__stack_ptr+1
 1119  5224     69 00       			adc	#.high.6
 1120  5226     85 29       			sta	__stack_ptr+1
 1121  5228     28          			plp
 1122                     			.c_end	01f60h,148
 1123                     	;break;
 1124                     	;		
 1125                     			.sw_break
 1126  5229     4C CC 72    			jmp	?BOL0
 1127                     	;case 352:		
 1128         3A14 522C   	?SWL9:		.equal	$
 1129                     	;SysMemcpy(chars,"勇士：公主，我们走",20)
 1130                     			.c_start  01f76h,149
 1131                     			.const_data_psfar2
 1132  76F1     D3 C2 CA BF A3 	?PLC10:		.byte	"勇士：公主，我们走",0
              BA B9 AB D6 F7 
              A3 AC CE D2 C3 
              C7 D7 DF 00 
 1133                     			.program_psfar2
 1134  522C     A9 14       			lda	#.low.20
 1135  522E     85 20       			sta	__oper1
 1136  5230     A9 00       			lda	#.high.20
 1137  5232     85 21       			sta	__oper1+1
 1138  5234     20 CA DA    			jsr	__store_int_funct_arg
 1139  5237     A9 F1       			lda	#.low.?PLC10
 1140  5239     85 20       			sta	__oper1
 1141  523B     A9 76       			lda	#.high.?PLC10
 1142  523D     85 21       			sta	__oper1+1
 1143  523F     20 CA DA    			jsr	__store_int_funct_arg
 1144  5242     A0 06       			ldy	#+2+?LSC0+?TSC0+4
 1145  5244     B1 28       			lda	(__stack_ptr),y
 1146  5246     85 20       			sta	__oper1
 1147  5248     C8          			iny
 1148  5249     B1 28       			lda	(__stack_ptr),y
 1149  524B     85 21       			sta	__oper1+1
 1150  524D     20 CA DA    			jsr	__store_int_funct_arg
 1151                     			.f_call	_SysMemcpy
 1152  5250     20 01 E9    			jsr	_SysMemcpy
 1153  5253     08          			php
 1154  5254     78          			sei
 1155  5255     18          			clc
 1156  5256     A5 28       			lda	__stack_ptr
  Tue Jan 13 23:03:19 2026                                                                                               Page   22




 1157  5258     69 06       			adc	#.low.6
 1158  525A     85 28       			sta	__stack_ptr
 1159  525C     A5 29       			lda	__stack_ptr+1
 1160  525E     69 00       			adc	#.high.6
 1161  5260     85 29       			sta	__stack_ptr+1
 1162  5262     28          			plp
 1163                     			.c_end	01f9eh,149
 1164                     	;break;
 1165                     	;		
 1166                     			.sw_break
 1167  5263     4C CC 72    			jmp	?BOL0
 1168                     	;case 353:		
 1169         3418 5266   	?SWL10:		.equal	$
 1170                     	;SysMemcpy(chars,"吧。              ",20)
 1171                     			.c_start  01fb4h,150
 1172                     			.const_data_psfar2
 1173  7704     B0 C9 A1 A3 20 	?PLC11:		.byte	"吧。              ",0
              20 20 20 20 20 
              20 20 20 20 20 
              20 20 20 00 
 1174                     			.program_psfar2
 1175  5266     A9 14       			lda	#.low.20
 1176  5268     85 20       			sta	__oper1
 1177  526A     A9 00       			lda	#.high.20
 1178  526C     85 21       			sta	__oper1+1
 1179  526E     20 CA DA    			jsr	__store_int_funct_arg
 1180  5271     A9 04       			lda	#.low.?PLC11
 1181  5273     85 20       			sta	__oper1
 1182  5275     A9 77       			lda	#.high.?PLC11
 1183  5277     85 21       			sta	__oper1+1
 1184  5279     20 CA DA    			jsr	__store_int_funct_arg
 1185  527C     A0 06       			ldy	#+2+?LSC0+?TSC0+4
 1186  527E     B1 28       			lda	(__stack_ptr),y
 1187  5280     85 20       			sta	__oper1
 1188  5282     C8          			iny
 1189  5283     B1 28       			lda	(__stack_ptr),y
 1190  5285     85 21       			sta	__oper1+1
 1191  5287     20 CA DA    			jsr	__store_int_funct_arg
 1192                     			.f_call	_SysMemcpy
 1193  528A     20 01 E9    			jsr	_SysMemcpy
 1194  528D     08          			php
 1195  528E     78          			sei
 1196  528F     18          			clc
 1197  5290     A5 28       			lda	__stack_ptr
 1198  5292     69 06       			adc	#.low.6
 1199  5294     85 28       			sta	__stack_ptr
 1200  5296     A5 29       			lda	__stack_ptr+1
 1201  5298     69 00       			adc	#.high.6
 1202  529A     85 29       			sta	__stack_ptr+1
 1203  529C     28          			plp
 1204                     			.c_end	01fdch,150
 1205                     	;break;
 1206                     	;		
 1207                     			.sw_break
 1208  529D     4C CC 72    			jmp	?BOL0
 1209                     	;case 354:		
 1210         451B 52A0   	?SWL11:		.equal	$
  Tue Jan 13 23:03:19 2026                                                                                               Page   23




 1211                     	;SysMemcpy(chars,"公主：好，快走吧。",20)
 1212                     			.c_start  01ff2h,151
 1213                     			.const_data_psfar2
 1214  7717     B9 AB D6 F7 A3 	?PLC12:		.byte	"公主：好，快走吧。",0
              BA BA C3 A3 AC 
              BF EC D7 DF B0 
              C9 A1 A3 00 
 1215                     			.program_psfar2
 1216  52A0     A9 14       			lda	#.low.20
 1217  52A2     85 20       			sta	__oper1
 1218  52A4     A9 00       			lda	#.high.20
 1219  52A6     85 21       			sta	__oper1+1
 1220  52A8     20 CA DA    			jsr	__store_int_funct_arg
 1221  52AB     A9 17       			lda	#.low.?PLC12
 1222  52AD     85 20       			sta	__oper1
 1223  52AF     A9 77       			lda	#.high.?PLC12
 1224  52B1     85 21       			sta	__oper1+1
 1225  52B3     20 CA DA    			jsr	__store_int_funct_arg
 1226  52B6     A0 06       			ldy	#+2+?LSC0+?TSC0+4
 1227  52B8     B1 28       			lda	(__stack_ptr),y
 1228  52BA     85 20       			sta	__oper1
 1229  52BC     C8          			iny
 1230  52BD     B1 28       			lda	(__stack_ptr),y
 1231  52BF     85 21       			sta	__oper1+1
 1232  52C1     20 CA DA    			jsr	__store_int_funct_arg
 1233                     			.f_call	_SysMemcpy
 1234  52C4     20 01 E9    			jsr	_SysMemcpy
 1235  52C7     08          			php
 1236  52C8     78          			sei
 1237  52C9     18          			clc
 1238  52CA     A5 28       			lda	__stack_ptr
 1239  52CC     69 06       			adc	#.low.6
 1240  52CE     85 28       			sta	__stack_ptr
 1241  52D0     A5 29       			lda	__stack_ptr+1
 1242  52D2     69 00       			adc	#.high.6
 1243  52D4     85 29       			sta	__stack_ptr+1
 1244  52D6     28          			plp
 1245                     			.c_end	0201ah,151
 1246                     	;break;
 1247                     	;		
 1248                     			.sw_break
 1249  52D7     4C CC 72    			jmp	?BOL0
 1250                     	;case 355:		
 1251         3826 52DA   	?SWL12:		.equal	$
 1252                     	;SysMemcpy(chars,"                  ",20)
 1253                     			.c_start  02030h,152
 1254                     			.const_data_psfar2
 1255  772A     20 20 20 20 20 	?PLC13:		.byte	"                  ",0
              20 20 20 20 20 
              20 20 20 20 20 
              20 20 20 00 
 1256                     			.program_psfar2
 1257  52DA     A9 14       			lda	#.low.20
 1258  52DC     85 20       			sta	__oper1
 1259  52DE     A9 00       			lda	#.high.20
 1260  52E0     85 21       			sta	__oper1+1
 1261  52E2     20 CA DA    			jsr	__store_int_funct_arg
  Tue Jan 13 23:03:19 2026                                                                                               Page   24




 1262  52E5     A9 2A       			lda	#.low.?PLC13
 1263  52E7     85 20       			sta	__oper1
 1264  52E9     A9 77       			lda	#.high.?PLC13
 1265  52EB     85 21       			sta	__oper1+1
 1266  52ED     20 CA DA    			jsr	__store_int_funct_arg
 1267  52F0     A0 06       			ldy	#+2+?LSC0+?TSC0+4
 1268  52F2     B1 28       			lda	(__stack_ptr),y
 1269  52F4     85 20       			sta	__oper1
 1270  52F6     C8          			iny
 1271  52F7     B1 28       			lda	(__stack_ptr),y
 1272  52F9     85 21       			sta	__oper1+1
 1273  52FB     20 CA DA    			jsr	__store_int_funct_arg
 1274                     			.f_call	_SysMemcpy
 1275  52FE     20 01 E9    			jsr	_SysMemcpy
 1276  5301     08          			php
 1277  5302     78          			sei
 1278  5303     18          			clc
 1279  5304     A5 28       			lda	__stack_ptr
 1280  5306     69 06       			adc	#.low.6
 1281  5308     85 28       			sta	__stack_ptr
 1282  530A     A5 29       			lda	__stack_ptr+1
 1283  530C     69 00       			adc	#.high.6
 1284  530E     85 29       			sta	__stack_ptr+1
 1285  5310     28          			plp
 1286                     			.c_end	02058h,152
 1287                     	;break;
 1288                     	;		
 1289                     			.sw_break
 1290  5311     4C CC 72    			jmp	?BOL0
 1291                     	;case 356:		
 1292         3213 5314   	?SWL13:		.equal	$
 1293                     	;SysMemcpy(chars,"勇士：杰克，快走吧",20)
 1294                     			.c_start  0206eh,153
 1295                     			.const_data_psfar2
 1296  773D     D3 C2 CA BF A3 	?PLC14:		.byte	"勇士：杰克，快走吧",0
              BA BD DC BF CB 
              A3 AC BF EC D7 
              DF B0 C9 00 
 1297                     			.program_psfar2
 1298  5314     A9 14       			lda	#.low.20
 1299  5316     85 20       			sta	__oper1
 1300  5318     A9 00       			lda	#.high.20
 1301  531A     85 21       			sta	__oper1+1
 1302  531C     20 CA DA    			jsr	__store_int_funct_arg
 1303  531F     A9 3D       			lda	#.low.?PLC14
 1304  5321     85 20       			sta	__oper1
 1305  5323     A9 77       			lda	#.high.?PLC14
 1306  5325     85 21       			sta	__oper1+1
 1307  5327     20 CA DA    			jsr	__store_int_funct_arg
 1308  532A     A0 06       			ldy	#+2+?LSC0+?TSC0+4
 1309  532C     B1 28       			lda	(__stack_ptr),y
 1310  532E     85 20       			sta	__oper1
 1311  5330     C8          			iny
 1312  5331     B1 28       			lda	(__stack_ptr),y
 1313  5333     85 21       			sta	__oper1+1
 1314  5335     20 CA DA    			jsr	__store_int_funct_arg
 1315                     			.f_call	_SysMemcpy
  Tue Jan 13 23:03:19 2026                                                                                               Page   25




 1316  5338     20 01 E9    			jsr	_SysMemcpy
 1317  533B     08          			php
 1318  533C     78          			sei
 1319  533D     18          			clc
 1320  533E     A5 28       			lda	__stack_ptr
 1321  5340     69 06       			adc	#.low.6
 1322  5342     85 28       			sta	__stack_ptr
 1323  5344     A5 29       			lda	__stack_ptr+1
 1324  5346     69 00       			adc	#.high.6
 1325  5348     85 29       			sta	__stack_ptr+1
 1326  534A     28          			plp
 1327                     			.c_end	02096h,153
 1328                     	;break;
 1329                     	;		
 1330                     			.sw_break
 1331  534B     4C CC 72    			jmp	?BOL0
 1332                     	;case 357:		
 1333         4316 534E   	?SWL14:		.equal	$
 1334                     	;SysMemcpy(chars,"。                ",20)
 1335                     			.c_start  020ach,154
 1336                     			.const_data_psfar2
 1337  7750     A1 A3 20 20 20 	?PLC15:		.byte	"。                ",0
              20 20 20 20 20 
              20 20 20 20 20 
              20 20 20 00 
 1338                     			.program_psfar2
 1339  534E     A9 14       			lda	#.low.20
 1340  5350     85 20       			sta	__oper1
 1341  5352     A9 00       			lda	#.high.20
 1342  5354     85 21       			sta	__oper1+1
 1343  5356     20 CA DA    			jsr	__store_int_funct_arg
 1344  5359     A9 50       			lda	#.low.?PLC15
 1345  535B     85 20       			sta	__oper1
 1346  535D     A9 77       			lda	#.high.?PLC15
 1347  535F     85 21       			sta	__oper1+1
 1348  5361     20 CA DA    			jsr	__store_int_funct_arg
 1349  5364     A0 06       			ldy	#+2+?LSC0+?TSC0+4
 1350  5366     B1 28       			lda	(__stack_ptr),y
 1351  5368     85 20       			sta	__oper1
 1352  536A     C8          			iny
 1353  536B     B1 28       			lda	(__stack_ptr),y
 1354  536D     85 21       			sta	__oper1+1
 1355  536F     20 CA DA    			jsr	__store_int_funct_arg
 1356                     			.f_call	_SysMemcpy
 1357  5372     20 01 E9    			jsr	_SysMemcpy
 1358  5375     08          			php
 1359  5376     78          			sei
 1360  5377     18          			clc
 1361  5378     A5 28       			lda	__stack_ptr
 1362  537A     69 06       			adc	#.low.6
 1363  537C     85 28       			sta	__stack_ptr
 1364  537E     A5 29       			lda	__stack_ptr+1
 1365  5380     69 00       			adc	#.high.6
 1366  5382     85 29       			sta	__stack_ptr+1
 1367  5384     28          			plp
 1368                     			.c_end	020d4h,154
 1369                     	;break;
  Tue Jan 13 23:03:19 2026                                                                                               Page   26




 1370                     	;		
 1371                     			.sw_break
 1372  5385     4C CC 72    			jmp	?BOL0
 1373                     	;case 358:		
 1374         361A 5388   	?SWL15:		.equal	$
 1375                     	;SysMemcpy(chars,"杰克：好，我去开门",20)
 1376                     			.c_start  020eah,155
 1377                     			.const_data_psfar2
 1378  7763     BD DC BF CB A3 	?PLC16:		.byte	"杰克：好，我去开门",0
              BA BA C3 A3 AC 
              CE D2 C8 A5 BF 
              AA C3 C5 00 
 1379                     			.program_psfar2
 1380  5388     A9 14       			lda	#.low.20
 1381  538A     85 20       			sta	__oper1
 1382  538C     A9 00       			lda	#.high.20
 1383  538E     85 21       			sta	__oper1+1
 1384  5390     20 CA DA    			jsr	__store_int_funct_arg
 1385  5393     A9 63       			lda	#.low.?PLC16
 1386  5395     85 20       			sta	__oper1
 1387  5397     A9 77       			lda	#.high.?PLC16
 1388  5399     85 21       			sta	__oper1+1
 1389  539B     20 CA DA    			jsr	__store_int_funct_arg
 1390  539E     A0 06       			ldy	#+2+?LSC0+?TSC0+4
 1391  53A0     B1 28       			lda	(__stack_ptr),y
 1392  53A2     85 20       			sta	__oper1
 1393  53A4     C8          			iny
 1394  53A5     B1 28       			lda	(__stack_ptr),y
 1395  53A7     85 21       			sta	__oper1+1
 1396  53A9     20 CA DA    			jsr	__store_int_funct_arg
 1397                     			.f_call	_SysMemcpy
 1398  53AC     20 01 E9    			jsr	_SysMemcpy
 1399  53AF     08          			php
 1400  53B0     78          			sei
 1401  53B1     18          			clc
 1402  53B2     A5 28       			lda	__stack_ptr
 1403  53B4     69 06       			adc	#.low.6
 1404  53B6     85 28       			sta	__stack_ptr
 1405  53B8     A5 29       			lda	__stack_ptr+1
 1406  53BA     69 00       			adc	#.high.6
 1407  53BC     85 29       			sta	__stack_ptr+1
 1408  53BE     28          			plp
 1409                     			.c_end	02112h,155
 1410                     	;break;
 1411                     	;		
 1412                     			.sw_break
 1413  53BF     4C CC 72    			jmp	?BOL0
 1414                     	;case 359:		
 1415         4724 53C2   	?SWL16:		.equal	$
 1416                     	;SysMemcpy(chars,"。                ",20)
 1417                     			.c_start  02128h,156
 1418                     			.const_data_psfar2
 1419  7776     A1 A3 20 20 20 	?PLC17:		.byte	"。                ",0
              20 20 20 20 20 
              20 20 20 20 20 
              20 20 20 00 
 1420                     			.program_psfar2
  Tue Jan 13 23:03:19 2026                                                                                               Page   27




 1421  53C2     A9 14       			lda	#.low.20
 1422  53C4     85 20       			sta	__oper1
 1423  53C6     A9 00       			lda	#.high.20
 1424  53C8     85 21       			sta	__oper1+1
 1425  53CA     20 CA DA    			jsr	__store_int_funct_arg
 1426  53CD     A9 76       			lda	#.low.?PLC17
 1427  53CF     85 20       			sta	__oper1
 1428  53D1     A9 77       			lda	#.high.?PLC17
 1429  53D3     85 21       			sta	__oper1+1
 1430  53D5     20 CA DA    			jsr	__store_int_funct_arg
 1431  53D8     A0 06       			ldy	#+2+?LSC0+?TSC0+4
 1432  53DA     B1 28       			lda	(__stack_ptr),y
 1433  53DC     85 20       			sta	__oper1
 1434  53DE     C8          			iny
 1435  53DF     B1 28       			lda	(__stack_ptr),y
 1436  53E1     85 21       			sta	__oper1+1
 1437  53E3     20 CA DA    			jsr	__store_int_funct_arg
 1438                     			.f_call	_SysMemcpy
 1439  53E6     20 01 E9    			jsr	_SysMemcpy
 1440  53E9     08          			php
 1441  53EA     78          			sei
 1442  53EB     18          			clc
 1443  53EC     A5 28       			lda	__stack_ptr
 1444  53EE     69 06       			adc	#.low.6
 1445  53F0     85 28       			sta	__stack_ptr
 1446  53F2     A5 29       			lda	__stack_ptr+1
 1447  53F4     69 00       			adc	#.high.6
 1448  53F6     85 29       			sta	__stack_ptr+1
 1449  53F8     28          			plp
 1450                     			.c_end	02150h,156
 1451                     	;break;
 1452                     	;		
 1453                     			.sw_break
 1454  53F9     4C CC 72    			jmp	?BOL0
 1455                     	;case 360:		
 1456         3A28 53FC   	?SWL17:		.equal	$
 1457                     	;SysMemcpy(chars,"杰克：别管我，先去",20)
 1458                     			.c_start  02166h,157
 1459                     			.const_data_psfar2
 1460  7789     BD DC BF CB A3 	?PLC18:		.byte	"杰克：别管我，先去",0
              BA B1 F0 B9 DC 
              CE D2 A3 AC CF 
              C8 C8 A5 00 
 1461                     			.program_psfar2
 1462  53FC     A9 14       			lda	#.low.20
 1463  53FE     85 20       			sta	__oper1
 1464  5400     A9 00       			lda	#.high.20
 1465  5402     85 21       			sta	__oper1+1
 1466  5404     20 CA DA    			jsr	__store_int_funct_arg
 1467  5407     A9 89       			lda	#.low.?PLC18
 1468  5409     85 20       			sta	__oper1
 1469  540B     A9 77       			lda	#.high.?PLC18
 1470  540D     85 21       			sta	__oper1+1
 1471  540F     20 CA DA    			jsr	__store_int_funct_arg
 1472  5412     A0 06       			ldy	#+2+?LSC0+?TSC0+4
 1473  5414     B1 28       			lda	(__stack_ptr),y
 1474  5416     85 20       			sta	__oper1
  Tue Jan 13 23:03:19 2026                                                                                               Page   28




 1475  5418     C8          			iny
 1476  5419     B1 28       			lda	(__stack_ptr),y
 1477  541B     85 21       			sta	__oper1+1
 1478  541D     20 CA DA    			jsr	__store_int_funct_arg
 1479                     			.f_call	_SysMemcpy
 1480  5420     20 01 E9    			jsr	_SysMemcpy
 1481  5423     08          			php
 1482  5424     78          			sei
 1483  5425     18          			clc
 1484  5426     A5 28       			lda	__stack_ptr
 1485  5428     69 06       			adc	#.low.6
 1486  542A     85 28       			sta	__stack_ptr
 1487  542C     A5 29       			lda	__stack_ptr+1
 1488  542E     69 00       			adc	#.high.6
 1489  5430     85 29       			sta	__stack_ptr+1
 1490  5432     28          			plp
 1491                     			.c_end	0218eh,157
 1492                     	;break;
 1493                     	;		
 1494                     			.sw_break
 1495  5433     4C CC 72    			jmp	?BOL0
 1496                     	;case 361:		
 1497         3415 5436   	?SWL18:		.equal	$
 1498                     	;SysMemcpy(chars,"救公主。          ",20)
 1499                     			.c_start  021a4h,158
 1500                     			.const_data_psfar2
 1501  779C     BE C8 B9 AB D6 	?PLC19:		.byte	"救公主。          ",0
              F7 A1 A3 20 20 
              20 20 20 20 20 
              20 20 20 00 
 1502                     			.program_psfar2
 1503  5436     A9 14       			lda	#.low.20
 1504  5438     85 20       			sta	__oper1
 1505  543A     A9 00       			lda	#.high.20
 1506  543C     85 21       			sta	__oper1+1
 1507  543E     20 CA DA    			jsr	__store_int_funct_arg
 1508  5441     A9 9C       			lda	#.low.?PLC19
 1509  5443     85 20       			sta	__oper1
 1510  5445     A9 77       			lda	#.high.?PLC19
 1511  5447     85 21       			sta	__oper1+1
 1512  5449     20 CA DA    			jsr	__store_int_funct_arg
 1513  544C     A0 06       			ldy	#+2+?LSC0+?TSC0+4
 1514  544E     B1 28       			lda	(__stack_ptr),y
 1515  5450     85 20       			sta	__oper1
 1516  5452     C8          			iny
 1517  5453     B1 28       			lda	(__stack_ptr),y
 1518  5455     85 21       			sta	__oper1+1
 1519  5457     20 CA DA    			jsr	__store_int_funct_arg
 1520                     			.f_call	_SysMemcpy
 1521  545A     20 01 E9    			jsr	_SysMemcpy
 1522  545D     08          			php
 1523  545E     78          			sei
 1524  545F     18          			clc
 1525  5460     A5 28       			lda	__stack_ptr
 1526  5462     69 06       			adc	#.low.6
 1527  5464     85 28       			sta	__stack_ptr
 1528  5466     A5 29       			lda	__stack_ptr+1
  Tue Jan 13 23:03:19 2026                                                                                               Page   29




 1529  5468     69 00       			adc	#.high.6
 1530  546A     85 29       			sta	__stack_ptr+1
 1531  546C     28          			plp
 1532                     			.c_end	021cch,158
 1533                     	;break;
 1534                     	;		
 1535                     			.sw_break
 1536  546D     4C CC 72    			jmp	?BOL0
 1537                     	;case 362:		
 1538         4518 5470   	?SWL19:		.equal	$
 1539                     	;SysMemcpy(chars,"啊，<风之罗盘>不见",20)
 1540                     			.c_start  021e2h,159
 1541                     			.const_data_psfar2
 1542  77AF     B0 A1 A3 AC 3C 	?PLC20:		.byte	"啊，<风之罗盘>不见",0
              B7 E7 D6 AE C2 
              DE C5 CC 3E B2 
              BB BC FB 00 
 1543                     			.program_psfar2
 1544  5470     A9 14       			lda	#.low.20
 1545  5472     85 20       			sta	__oper1
 1546  5474     A9 00       			lda	#.high.20
 1547  5476     85 21       			sta	__oper1+1
 1548  5478     20 CA DA    			jsr	__store_int_funct_arg
 1549  547B     A9 AF       			lda	#.low.?PLC20
 1550  547D     85 20       			sta	__oper1
 1551  547F     A9 77       			lda	#.high.?PLC20
 1552  5481     85 21       			sta	__oper1+1
 1553  5483     20 CA DA    			jsr	__store_int_funct_arg
 1554  5486     A0 06       			ldy	#+2+?LSC0+?TSC0+4
 1555  5488     B1 28       			lda	(__stack_ptr),y
 1556  548A     85 20       			sta	__oper1
 1557  548C     C8          			iny
 1558  548D     B1 28       			lda	(__stack_ptr),y
 1559  548F     85 21       			sta	__oper1+1
 1560  5491     20 CA DA    			jsr	__store_int_funct_arg
 1561                     			.f_call	_SysMemcpy
 1562  5494     20 01 E9    			jsr	_SysMemcpy
 1563  5497     08          			php
 1564  5498     78          			sei
 1565  5499     18          			clc
 1566  549A     A5 28       			lda	__stack_ptr
 1567  549C     69 06       			adc	#.low.6
 1568  549E     85 28       			sta	__stack_ptr
 1569  54A0     A5 29       			lda	__stack_ptr+1
 1570  54A2     69 00       			adc	#.high.6
 1571  54A4     85 29       			sta	__stack_ptr+1
 1572  54A6     28          			plp
 1573                     			.c_end	0220ah,159
 1574                     	;break;
 1575                     	;		
 1576                     			.sw_break
 1577  54A7     4C CC 72    			jmp	?BOL0
 1578                     	;case 363:		
 1579         3823 54AA   	?SWL20:		.equal	$
 1580                     	;SysMemcpy(chars,"了，怎么办？      ",20)
 1581                     			.c_start  02220h,160
 1582                     			.const_data_psfar2
  Tue Jan 13 23:03:19 2026                                                                                               Page   30




 1583  77C2     C1 CB A3 AC D4 	?PLC21:		.byte	"了，怎么办？      ",0
              F5 C3 B4 B0 EC 
              A3 BF 20 20 20 
              20 20 20 00 
 1584                     			.program_psfar2
 1585  54AA     A9 14       			lda	#.low.20
 1586  54AC     85 20       			sta	__oper1
 1587  54AE     A9 00       			lda	#.high.20
 1588  54B0     85 21       			sta	__oper1+1
 1589  54B2     20 CA DA    			jsr	__store_int_funct_arg
 1590  54B5     A9 C2       			lda	#.low.?PLC21
 1591  54B7     85 20       			sta	__oper1
 1592  54B9     A9 77       			lda	#.high.?PLC21
 1593  54BB     85 21       			sta	__oper1+1
 1594  54BD     20 CA DA    			jsr	__store_int_funct_arg
 1595  54C0     A0 06       			ldy	#+2+?LSC0+?TSC0+4
 1596  54C2     B1 28       			lda	(__stack_ptr),y
 1597  54C4     85 20       			sta	__oper1
 1598  54C6     C8          			iny
 1599  54C7     B1 28       			lda	(__stack_ptr),y
 1600  54C9     85 21       			sta	__oper1+1
 1601  54CB     20 CA DA    			jsr	__store_int_funct_arg
 1602                     			.f_call	_SysMemcpy
 1603  54CE     20 01 E9    			jsr	_SysMemcpy
 1604  54D1     08          			php
 1605  54D2     78          			sei
 1606  54D3     18          			clc
 1607  54D4     A5 28       			lda	__stack_ptr
 1608  54D6     69 06       			adc	#.low.6
 1609  54D8     85 28       			sta	__stack_ptr
 1610  54DA     A5 29       			lda	__stack_ptr+1
 1611  54DC     69 00       			adc	#.high.6
 1612  54DE     85 29       			sta	__stack_ptr+1
 1613  54E0     28          			plp
 1614                     			.c_end	02248h,160
 1615                     	;break;
 1616                     	;		
 1617                     			.sw_break
 1618  54E1     4C CC 72    			jmp	?BOL0
 1619                     	;case 364:		
 1620         3227 54E4   	?SWL21:		.equal	$
 1621                     	;SysMemcpy(chars,"没有时间了，快走吧",20)
 1622                     			.c_start  0225eh,161
 1623                     			.const_data_psfar2
 1624  77D5     C3 BB D3 D0 CA 	?PLC22:		.byte	"没有时间了，快走吧",0
              B1 BC E4 C1 CB 
              A3 AC BF EC D7 
              DF B0 C9 00 
 1625                     			.program_psfar2
 1626  54E4     A9 14       			lda	#.low.20
 1627  54E6     85 20       			sta	__oper1
 1628  54E8     A9 00       			lda	#.high.20
 1629  54EA     85 21       			sta	__oper1+1
 1630  54EC     20 CA DA    			jsr	__store_int_funct_arg
 1631  54EF     A9 D5       			lda	#.low.?PLC22
 1632  54F1     85 20       			sta	__oper1
 1633  54F3     A9 77       			lda	#.high.?PLC22
  Tue Jan 13 23:03:19 2026                                                                                               Page   31




 1634  54F5     85 21       			sta	__oper1+1
 1635  54F7     20 CA DA    			jsr	__store_int_funct_arg
 1636  54FA     A0 06       			ldy	#+2+?LSC0+?TSC0+4
 1637  54FC     B1 28       			lda	(__stack_ptr),y
 1638  54FE     85 20       			sta	__oper1
 1639  5500     C8          			iny
 1640  5501     B1 28       			lda	(__stack_ptr),y
 1641  5503     85 21       			sta	__oper1+1
 1642  5505     20 CA DA    			jsr	__store_int_funct_arg
 1643                     			.f_call	_SysMemcpy
 1644  5508     20 01 E9    			jsr	_SysMemcpy
 1645  550B     08          			php
 1646  550C     78          			sei
 1647  550D     18          			clc
 1648  550E     A5 28       			lda	__stack_ptr
 1649  5510     69 06       			adc	#.low.6
 1650  5512     85 28       			sta	__stack_ptr
 1651  5514     A5 29       			lda	__stack_ptr+1
 1652  5516     69 00       			adc	#.high.6
 1653  5518     85 29       			sta	__stack_ptr+1
 1654  551A     28          			plp
 1655                     			.c_end	02286h,161
 1656                     	;break;
 1657                     	;		
 1658                     			.sw_break
 1659  551B     4C CC 72    			jmp	?BOL0
 1660                     	;case 365:		
 1661         4313 551E   	?SWL22:		.equal	$
 1662                     	;SysMemcpy(chars,"。                ",20)
 1663                     			.c_start  0229ch,162
 1664                     			.const_data_psfar2
 1665  77E8     A1 A3 20 20 20 	?PLC23:		.byte	"。                ",0
              20 20 20 20 20 
              20 20 20 20 20 
              20 20 20 00 
 1666                     			.program_psfar2
 1667  551E     A9 14       			lda	#.low.20
 1668  5520     85 20       			sta	__oper1
 1669  5522     A9 00       			lda	#.high.20
 1670  5524     85 21       			sta	__oper1+1
 1671  5526     20 CA DA    			jsr	__store_int_funct_arg
 1672  5529     A9 E8       			lda	#.low.?PLC23
 1673  552B     85 20       			sta	__oper1
 1674  552D     A9 77       			lda	#.high.?PLC23
 1675  552F     85 21       			sta	__oper1+1
 1676  5531     20 CA DA    			jsr	__store_int_funct_arg
 1677  5534     A0 06       			ldy	#+2+?LSC0+?TSC0+4
 1678  5536     B1 28       			lda	(__stack_ptr),y
 1679  5538     85 20       			sta	__oper1
 1680  553A     C8          			iny
 1681  553B     B1 28       			lda	(__stack_ptr),y
 1682  553D     85 21       			sta	__oper1+1
 1683  553F     20 CA DA    			jsr	__store_int_funct_arg
 1684                     			.f_call	_SysMemcpy
 1685  5542     20 01 E9    			jsr	_SysMemcpy
 1686  5545     08          			php
 1687  5546     78          			sei
  Tue Jan 13 23:03:19 2026                                                                                               Page   32




 1688  5547     18          			clc
 1689  5548     A5 28       			lda	__stack_ptr
 1690  554A     69 06       			adc	#.low.6
 1691  554C     85 28       			sta	__stack_ptr
 1692  554E     A5 29       			lda	__stack_ptr+1
 1693  5550     69 00       			adc	#.high.6
 1694  5552     85 29       			sta	__stack_ptr+1
 1695  5554     28          			plp
 1696                     			.c_end	022c4h,162
 1697                     	;break;
 1698                     	;		
 1699                     			.sw_break
 1700  5555     4C CC 72    			jmp	?BOL0
 1701                     	;case 366:		
 1702         3617 5558   	?SWL23:		.equal	$
 1703                     	;SysMemcpy(chars,"大魔头被打败了，公",20)
 1704                     			.c_start  022dah,163
 1705                     			.const_data_psfar2
 1706  77FB     B4 F3 C4 A7 CD 	?PLC24:		.byte	"大魔头被打败了，公",0
              B7 B1 BB B4 F2 
              B0 DC C1 CB A3 
              AC B9 AB 00 
 1707                     			.program_psfar2
 1708  5558     A9 14       			lda	#.low.20
 1709  555A     85 20       			sta	__oper1
 1710  555C     A9 00       			lda	#.high.20
 1711  555E     85 21       			sta	__oper1+1
 1712  5560     20 CA DA    			jsr	__store_int_funct_arg
 1713  5563     A9 FB       			lda	#.low.?PLC24
 1714  5565     85 20       			sta	__oper1
 1715  5567     A9 77       			lda	#.high.?PLC24
 1716  5569     85 21       			sta	__oper1+1
 1717  556B     20 CA DA    			jsr	__store_int_funct_arg
 1718  556E     A0 06       			ldy	#+2+?LSC0+?TSC0+4
 1719  5570     B1 28       			lda	(__stack_ptr),y
 1720  5572     85 20       			sta	__oper1
 1721  5574     C8          			iny
 1722  5575     B1 28       			lda	(__stack_ptr),y
 1723  5577     85 21       			sta	__oper1+1
 1724  5579     20 CA DA    			jsr	__store_int_funct_arg
 1725                     			.f_call	_SysMemcpy
 1726  557C     20 01 E9    			jsr	_SysMemcpy
 1727  557F     08          			php
 1728  5580     78          			sei
 1729  5581     18          			clc
 1730  5582     A5 28       			lda	__stack_ptr
 1731  5584     69 06       			adc	#.low.6
 1732  5586     85 28       			sta	__stack_ptr
 1733  5588     A5 29       			lda	__stack_ptr+1
 1734  558A     69 00       			adc	#.high.6
 1735  558C     85 29       			sta	__stack_ptr+1
 1736  558E     28          			plp
 1737                     			.c_end	02302h,163
 1738                     	;break;
 1739                     	;		
 1740                     			.sw_break
 1741  558F     4C CC 72    			jmp	?BOL0
  Tue Jan 13 23:03:19 2026                                                                                               Page   33




 1742                     	;case 367:		
 1743         471A 5592   	?SWL24:		.equal	$
 1744                     	;SysMemcpy(chars,"主也被救出了塔，由",20)
 1745                     			.c_start  02318h,164
 1746                     			.const_data_psfar2
 1747  780E     D6 F7 D2 B2 B1 	?PLC25:		.byte	"主也被救出了塔，由",0
              BB BE C8 B3 F6 
              C1 CB CB FE A3 
              AC D3 C9 00 
 1748                     			.program_psfar2
 1749  5592     A9 14       			lda	#.low.20
 1750  5594     85 20       			sta	__oper1
 1751  5596     A9 00       			lda	#.high.20
 1752  5598     85 21       			sta	__oper1+1
 1753  559A     20 CA DA    			jsr	__store_int_funct_arg
 1754  559D     A9 0E       			lda	#.low.?PLC25
 1755  559F     85 20       			sta	__oper1
 1756  55A1     A9 78       			lda	#.high.?PLC25
 1757  55A3     85 21       			sta	__oper1+1
 1758  55A5     20 CA DA    			jsr	__store_int_funct_arg
 1759  55A8     A0 06       			ldy	#+2+?LSC0+?TSC0+4
 1760  55AA     B1 28       			lda	(__stack_ptr),y
 1761  55AC     85 20       			sta	__oper1
 1762  55AE     C8          			iny
 1763  55AF     B1 28       			lda	(__stack_ptr),y
 1764  55B1     85 21       			sta	__oper1+1
 1765  55B3     20 CA DA    			jsr	__store_int_funct_arg
 1766                     			.f_call	_SysMemcpy
 1767  55B6     20 01 E9    			jsr	_SysMemcpy
 1768  55B9     08          			php
 1769  55BA     78          			sei
 1770  55BB     18          			clc
 1771  55BC     A5 28       			lda	__stack_ptr
 1772  55BE     69 06       			adc	#.low.6
 1773  55C0     85 28       			sta	__stack_ptr
 1774  55C2     A5 29       			lda	__stack_ptr+1
 1775  55C4     69 00       			adc	#.high.6
 1776  55C6     85 29       			sta	__stack_ptr+1
 1777  55C8     28          			plp
 1778                     			.c_end	02340h,164
 1779                     	;break;
 1780                     	;		
 1781                     			.sw_break
 1782  55C9     4C CC 72    			jmp	?BOL0
 1783                     	;case 368:		
 1784         3A25 55CC   	?SWL25:		.equal	$
 1785                     	;SysMemcpy(chars,"于仙女能力的恢复，",20)
 1786                     			.c_start  02356h,165
 1787                     			.const_data_psfar2
 1788  7821     D3 DA CF C9 C5 	?PLC26:		.byte	"于仙女能力的恢复，",0
              AE C4 DC C1 A6 
              B5 C4 BB D6 B8 
              B4 A3 AC 00 
 1789                     			.program_psfar2
 1790  55CC     A9 14       			lda	#.low.20
 1791  55CE     85 20       			sta	__oper1
 1792  55D0     A9 00       			lda	#.high.20
  Tue Jan 13 23:03:19 2026                                                                                               Page   34




 1793  55D2     85 21       			sta	__oper1+1
 1794  55D4     20 CA DA    			jsr	__store_int_funct_arg
 1795  55D7     A9 21       			lda	#.low.?PLC26
 1796  55D9     85 20       			sta	__oper1
 1797  55DB     A9 78       			lda	#.high.?PLC26
 1798  55DD     85 21       			sta	__oper1+1
 1799  55DF     20 CA DA    			jsr	__store_int_funct_arg
 1800  55E2     A0 06       			ldy	#+2+?LSC0+?TSC0+4
 1801  55E4     B1 28       			lda	(__stack_ptr),y
 1802  55E6     85 20       			sta	__oper1
 1803  55E8     C8          			iny
 1804  55E9     B1 28       			lda	(__stack_ptr),y
 1805  55EB     85 21       			sta	__oper1+1
 1806  55ED     20 CA DA    			jsr	__store_int_funct_arg
 1807                     			.f_call	_SysMemcpy
 1808  55F0     20 01 E9    			jsr	_SysMemcpy
 1809  55F3     08          			php
 1810  55F4     78          			sei
 1811  55F5     18          			clc
 1812  55F6     A5 28       			lda	__stack_ptr
 1813  55F8     69 06       			adc	#.low.6
 1814  55FA     85 28       			sta	__stack_ptr
 1815  55FC     A5 29       			lda	__stack_ptr+1
 1816  55FE     69 00       			adc	#.high.6
 1817  5600     85 29       			sta	__stack_ptr+1
 1818  5602     28          			plp
 1819                     			.c_end	0237eh,165
 1820                     	;break;
 1821                     	;		
 1822                     			.sw_break
 1823  5603     4C CC 72    			jmp	?BOL0
 1824                     	;case 369:		
 1825         3412 5606   	?SWL26:		.equal	$
 1826                     	;SysMemcpy(chars,"魔法消除了，魔塔也",20)
 1827                     			.c_start  02394h,166
 1828                     			.const_data_psfar2
 1829  7834     C4 A7 B7 A8 CF 	?PLC27:		.byte	"魔法消除了，魔塔也",0
              FB B3 FD C1 CB 
              A3 AC C4 A7 CB 
              FE D2 B2 00 
 1830                     			.program_psfar2
 1831  5606     A9 14       			lda	#.low.20
 1832  5608     85 20       			sta	__oper1
 1833  560A     A9 00       			lda	#.high.20
 1834  560C     85 21       			sta	__oper1+1
 1835  560E     20 CA DA    			jsr	__store_int_funct_arg
 1836  5611     A9 34       			lda	#.low.?PLC27
 1837  5613     85 20       			sta	__oper1
 1838  5615     A9 78       			lda	#.high.?PLC27
 1839  5617     85 21       			sta	__oper1+1
 1840  5619     20 CA DA    			jsr	__store_int_funct_arg
 1841  561C     A0 06       			ldy	#+2+?LSC0+?TSC0+4
 1842  561E     B1 28       			lda	(__stack_ptr),y
 1843  5620     85 20       			sta	__oper1
 1844  5622     C8          			iny
 1845  5623     B1 28       			lda	(__stack_ptr),y
 1846  5625     85 21       			sta	__oper1+1
  Tue Jan 13 23:03:19 2026                                                                                               Page   35




 1847  5627     20 CA DA    			jsr	__store_int_funct_arg
 1848                     			.f_call	_SysMemcpy
 1849  562A     20 01 E9    			jsr	_SysMemcpy
 1850  562D     08          			php
 1851  562E     78          			sei
 1852  562F     18          			clc
 1853  5630     A5 28       			lda	__stack_ptr
 1854  5632     69 06       			adc	#.low.6
 1855  5634     85 28       			sta	__stack_ptr
 1856  5636     A5 29       			lda	__stack_ptr+1
 1857  5638     69 00       			adc	#.high.6
 1858  563A     85 29       			sta	__stack_ptr+1
 1859  563C     28          			plp
 1860                     			.c_end	023bch,166
 1861                     	;break;
 1862                     	;		
 1863                     			.sw_break
 1864  563D     4C CC 72    			jmp	?BOL0
 1865                     	;case 370:		
 1866         4515 5640   	?SWL27:		.equal	$
 1867                     	;SysMemcpy(chars,"没有倒。当勇士和  ",20)
 1868                     			.c_start  023d2h,167
 1869                     			.const_data_psfar2
 1870  7847     C3 BB D3 D0 B5 	?PLC28:		.byte	"没有倒。当勇士和  ",0
              B9 A1 A3 B5 B1 
              D3 C2 CA BF BA 
              CD 20 20 00 
 1871                     			.program_psfar2
 1872  5640     A9 14       			lda	#.low.20
 1873  5642     85 20       			sta	__oper1
 1874  5644     A9 00       			lda	#.high.20
 1875  5646     85 21       			sta	__oper1+1
 1876  5648     20 CA DA    			jsr	__store_int_funct_arg
 1877  564B     A9 47       			lda	#.low.?PLC28
 1878  564D     85 20       			sta	__oper1
 1879  564F     A9 78       			lda	#.high.?PLC28
 1880  5651     85 21       			sta	__oper1+1
 1881  5653     20 CA DA    			jsr	__store_int_funct_arg
 1882  5656     A0 06       			ldy	#+2+?LSC0+?TSC0+4
 1883  5658     B1 28       			lda	(__stack_ptr),y
 1884  565A     85 20       			sta	__oper1
 1885  565C     C8          			iny
 1886  565D     B1 28       			lda	(__stack_ptr),y
 1887  565F     85 21       			sta	__oper1+1
 1888  5661     20 CA DA    			jsr	__store_int_funct_arg
 1889                     			.f_call	_SysMemcpy
 1890  5664     20 01 E9    			jsr	_SysMemcpy
 1891  5667     08          			php
 1892  5668     78          			sei
 1893  5669     18          			clc
 1894  566A     A5 28       			lda	__stack_ptr
 1895  566C     69 06       			adc	#.low.6
 1896  566E     85 28       			sta	__stack_ptr
 1897  5670     A5 29       			lda	__stack_ptr+1
 1898  5672     69 00       			adc	#.high.6
 1899  5674     85 29       			sta	__stack_ptr+1
 1900  5676     28          			plp
  Tue Jan 13 23:03:19 2026                                                                                               Page   36




 1901                     			.c_end	023fah,167
 1902                     	;break;
 1903                     	;		
 1904                     			.sw_break
 1905  5677     4C CC 72    			jmp	?BOL0
 1906                     	;case 371:		
 1907         3819 567A   	?SWL28:		.equal	$
 1908                     	;SysMemcpy(chars,"公主一起走出塔来的",20)
 1909                     			.c_start  02410h,168
 1910                     			.const_data_psfar2
 1911  785A     B9 AB D6 F7 D2 	?PLC29:		.byte	"公主一起走出塔来的",0
              BB C6 F0 D7 DF 
              B3 F6 CB FE C0 
              B4 B5 C4 00 
 1912                     			.program_psfar2
 1913  567A     A9 14       			lda	#.low.20
 1914  567C     85 20       			sta	__oper1
 1915  567E     A9 00       			lda	#.high.20
 1916  5680     85 21       			sta	__oper1+1
 1917  5682     20 CA DA    			jsr	__store_int_funct_arg
 1918  5685     A9 5A       			lda	#.low.?PLC29
 1919  5687     85 20       			sta	__oper1
 1920  5689     A9 78       			lda	#.high.?PLC29
 1921  568B     85 21       			sta	__oper1+1
 1922  568D     20 CA DA    			jsr	__store_int_funct_arg
 1923  5690     A0 06       			ldy	#+2+?LSC0+?TSC0+4
 1924  5692     B1 28       			lda	(__stack_ptr),y
 1925  5694     85 20       			sta	__oper1
 1926  5696     C8          			iny
 1927  5697     B1 28       			lda	(__stack_ptr),y
 1928  5699     85 21       			sta	__oper1+1
 1929  569B     20 CA DA    			jsr	__store_int_funct_arg
 1930                     			.f_call	_SysMemcpy
 1931  569E     20 01 E9    			jsr	_SysMemcpy
 1932  56A1     08          			php
 1933  56A2     78          			sei
 1934  56A3     18          			clc
 1935  56A4     A5 28       			lda	__stack_ptr
 1936  56A6     69 06       			adc	#.low.6
 1937  56A8     85 28       			sta	__stack_ptr
 1938  56AA     A5 29       			lda	__stack_ptr+1
 1939  56AC     69 00       			adc	#.high.6
 1940  56AE     85 29       			sta	__stack_ptr+1
 1941  56B0     28          			plp
 1942                     			.c_end	02438h,168
 1943                     	;break;
 1944                     	;		
 1945                     			.sw_break
 1946  56B1     4C CC 72    			jmp	?BOL0
 1947                     	;case 372:		
 1948         3224 56B4   	?SWL29:		.equal	$
 1949                     	;SysMemcpy(chars,"时候，国王也带着军",20)
 1950                     			.c_start  0244eh,169
 1951                     			.const_data_psfar2
 1952  786D     CA B1 BA F2 A3 	?PLC30:		.byte	"时候，国王也带着军",0
              AC B9 FA CD F5 
              D2 B2 B4 F8 D7 
  Tue Jan 13 23:03:19 2026                                                                                               Page   37




              C5 BE FC 00 
 1953                     			.program_psfar2
 1954  56B4     A9 14       			lda	#.low.20
 1955  56B6     85 20       			sta	__oper1
 1956  56B8     A9 00       			lda	#.high.20
 1957  56BA     85 21       			sta	__oper1+1
 1958  56BC     20 CA DA    			jsr	__store_int_funct_arg
 1959  56BF     A9 6D       			lda	#.low.?PLC30
 1960  56C1     85 20       			sta	__oper1
 1961  56C3     A9 78       			lda	#.high.?PLC30
 1962  56C5     85 21       			sta	__oper1+1
 1963  56C7     20 CA DA    			jsr	__store_int_funct_arg
 1964  56CA     A0 06       			ldy	#+2+?LSC0+?TSC0+4
 1965  56CC     B1 28       			lda	(__stack_ptr),y
 1966  56CE     85 20       			sta	__oper1
 1967  56D0     C8          			iny
 1968  56D1     B1 28       			lda	(__stack_ptr),y
 1969  56D3     85 21       			sta	__oper1+1
 1970  56D5     20 CA DA    			jsr	__store_int_funct_arg
 1971                     			.f_call	_SysMemcpy
 1972  56D8     20 01 E9    			jsr	_SysMemcpy
 1973  56DB     08          			php
 1974  56DC     78          			sei
 1975  56DD     18          			clc
 1976  56DE     A5 28       			lda	__stack_ptr
 1977  56E0     69 06       			adc	#.low.6
 1978  56E2     85 28       			sta	__stack_ptr
 1979  56E4     A5 29       			lda	__stack_ptr+1
 1980  56E6     69 00       			adc	#.high.6
 1981  56E8     85 29       			sta	__stack_ptr+1
 1982  56EA     28          			plp
 1983                     			.c_end	02476h,169
 1984                     	;break;
 1985                     	;		
 1986                     			.sw_break
 1987  56EB     4C CC 72    			jmp	?BOL0
 1988                     	;case 373:		
 1989         4327 56EE   	?SWL30:		.equal	$
 1990                     	;SysMemcpy(chars,"队来到了岛外。一切",20)
 1991                     			.c_start  0248ch,170
 1992                     			.const_data_psfar2
 1993  7880     B6 D3 C0 B4 B5 	?PLC31:		.byte	"队来到了岛外。一切",0
              BD C1 CB B5 BA 
              CD E2 A1 A3 D2 
              BB C7 D0 00 
 1994                     			.program_psfar2
 1995  56EE     A9 14       			lda	#.low.20
 1996  56F0     85 20       			sta	__oper1
 1997  56F2     A9 00       			lda	#.high.20
 1998  56F4     85 21       			sta	__oper1+1
 1999  56F6     20 CA DA    			jsr	__store_int_funct_arg
 2000  56F9     A9 80       			lda	#.low.?PLC31
 2001  56FB     85 20       			sta	__oper1
 2002  56FD     A9 78       			lda	#.high.?PLC31
 2003  56FF     85 21       			sta	__oper1+1
 2004  5701     20 CA DA    			jsr	__store_int_funct_arg
 2005  5704     A0 06       			ldy	#+2+?LSC0+?TSC0+4
  Tue Jan 13 23:03:19 2026                                                                                               Page   38




 2006  5706     B1 28       			lda	(__stack_ptr),y
 2007  5708     85 20       			sta	__oper1
 2008  570A     C8          			iny
 2009  570B     B1 28       			lda	(__stack_ptr),y
 2010  570D     85 21       			sta	__oper1+1
 2011  570F     20 CA DA    			jsr	__store_int_funct_arg
 2012                     			.f_call	_SysMemcpy
 2013  5712     20 01 E9    			jsr	_SysMemcpy
 2014  5715     08          			php
 2015  5716     78          			sei
 2016  5717     18          			clc
 2017  5718     A5 28       			lda	__stack_ptr
 2018  571A     69 06       			adc	#.low.6
 2019  571C     85 28       			sta	__stack_ptr
 2020  571E     A5 29       			lda	__stack_ptr+1
 2021  5720     69 00       			adc	#.high.6
 2022  5722     85 29       			sta	__stack_ptr+1
 2023  5724     28          			plp
 2024                     			.c_end	024b4h,170
 2025                     	;break;
 2026                     	;		
 2027                     			.sw_break
 2028  5725     4C CC 72    			jmp	?BOL0
 2029                     	;case 374:		
 2030         3614 5728   	?SWL31:		.equal	$
 2031                     	;SysMemcpy(chars,"都是那么的平常。  ",20)
 2032                     			.c_start  024cah,171
 2033                     			.const_data_psfar2
 2034  7893     B6 BC CA C7 C4 	?PLC32:		.byte	"都是那么的平常。  ",0
              C7 C3 B4 B5 C4 
              C6 BD B3 A3 A1 
              A3 20 20 00 
 2035                     			.program_psfar2
 2036  5728     A9 14       			lda	#.low.20
 2037  572A     85 20       			sta	__oper1
 2038  572C     A9 00       			lda	#.high.20
 2039  572E     85 21       			sta	__oper1+1
 2040  5730     20 CA DA    			jsr	__store_int_funct_arg
 2041  5733     A9 93       			lda	#.low.?PLC32
 2042  5735     85 20       			sta	__oper1
 2043  5737     A9 78       			lda	#.high.?PLC32
 2044  5739     85 21       			sta	__oper1+1
 2045  573B     20 CA DA    			jsr	__store_int_funct_arg
 2046  573E     A0 06       			ldy	#+2+?LSC0+?TSC0+4
 2047  5740     B1 28       			lda	(__stack_ptr),y
 2048  5742     85 20       			sta	__oper1
 2049  5744     C8          			iny
 2050  5745     B1 28       			lda	(__stack_ptr),y
 2051  5747     85 21       			sta	__oper1+1
 2052  5749     20 CA DA    			jsr	__store_int_funct_arg
 2053                     			.f_call	_SysMemcpy
 2054  574C     20 01 E9    			jsr	_SysMemcpy
 2055  574F     08          			php
 2056  5750     78          			sei
 2057  5751     18          			clc
 2058  5752     A5 28       			lda	__stack_ptr
 2059  5754     69 06       			adc	#.low.6
  Tue Jan 13 23:03:19 2026                                                                                               Page   39




 2060  5756     85 28       			sta	__stack_ptr
 2061  5758     A5 29       			lda	__stack_ptr+1
 2062  575A     69 00       			adc	#.high.6
 2063  575C     85 29       			sta	__stack_ptr+1
 2064  575E     28          			plp
 2065                     			.c_end	024f2h,171
 2066                     	;break;
 2067                     	;		
 2068                     			.sw_break
 2069  575F     4C CC 72    			jmp	?BOL0
 2070                     	;case 375:		
 2071         4717 5762   	?SWL32:		.equal	$
 2072                     	;SysMemcpy(chars,"回国后，国王为勇士",20)
 2073                     			.c_start  02508h,172
 2074                     			.const_data_psfar2
 2075  78A6     BB D8 B9 FA BA 	?PLC33:		.byte	"回国后，国王为勇士",0
              F3 A3 AC B9 FA 
              CD F5 CE AA D3 
              C2 CA BF 00 
 2076                     			.program_psfar2
 2077  5762     A9 14       			lda	#.low.20
 2078  5764     85 20       			sta	__oper1
 2079  5766     A9 00       			lda	#.high.20
 2080  5768     85 21       			sta	__oper1+1
 2081  576A     20 CA DA    			jsr	__store_int_funct_arg
 2082  576D     A9 A6       			lda	#.low.?PLC33
 2083  576F     85 20       			sta	__oper1
 2084  5771     A9 78       			lda	#.high.?PLC33
 2085  5773     85 21       			sta	__oper1+1
 2086  5775     20 CA DA    			jsr	__store_int_funct_arg
 2087  5778     A0 06       			ldy	#+2+?LSC0+?TSC0+4
 2088  577A     B1 28       			lda	(__stack_ptr),y
 2089  577C     85 20       			sta	__oper1
 2090  577E     C8          			iny
 2091  577F     B1 28       			lda	(__stack_ptr),y
 2092  5781     85 21       			sta	__oper1+1
 2093  5783     20 CA DA    			jsr	__store_int_funct_arg
 2094                     			.f_call	_SysMemcpy
 2095  5786     20 01 E9    			jsr	_SysMemcpy
 2096  5789     08          			php
 2097  578A     78          			sei
 2098  578B     18          			clc
 2099  578C     A5 28       			lda	__stack_ptr
 2100  578E     69 06       			adc	#.low.6
 2101  5790     85 28       			sta	__stack_ptr
 2102  5792     A5 29       			lda	__stack_ptr+1
 2103  5794     69 00       			adc	#.high.6
 2104  5796     85 29       			sta	__stack_ptr+1
 2105  5798     28          			plp
 2106                     			.c_end	02530h,172
 2107                     	;break;
 2108                     	;		
 2109                     			.sw_break
 2110  5799     4C CC 72    			jmp	?BOL0
 2111                     	;case 376:		
 2112         3A1B 579C   	?SWL33:		.equal	$
 2113                     	;SysMemcpy(chars,"和公主举行了隆重而",20)
  Tue Jan 13 23:03:19 2026                                                                                               Page   40




 2114                     			.c_start  02546h,173
 2115                     			.const_data_psfar2
 2116  78B9     BA CD B9 AB D6 	?PLC34:		.byte	"和公主举行了隆重而",0
              F7 BE D9 D0 D0 
              C1 CB C2 A1 D6 
              D8 B6 F8 00 
 2117                     			.program_psfar2
 2118  579C     A9 14       			lda	#.low.20
 2119  579E     85 20       			sta	__oper1
 2120  57A0     A9 00       			lda	#.high.20
 2121  57A2     85 21       			sta	__oper1+1
 2122  57A4     20 CA DA    			jsr	__store_int_funct_arg
 2123  57A7     A9 B9       			lda	#.low.?PLC34
 2124  57A9     85 20       			sta	__oper1
 2125  57AB     A9 78       			lda	#.high.?PLC34
 2126  57AD     85 21       			sta	__oper1+1
 2127  57AF     20 CA DA    			jsr	__store_int_funct_arg
 2128  57B2     A0 06       			ldy	#+2+?LSC0+?TSC0+4
 2129  57B4     B1 28       			lda	(__stack_ptr),y
 2130  57B6     85 20       			sta	__oper1
 2131  57B8     C8          			iny
 2132  57B9     B1 28       			lda	(__stack_ptr),y
 2133  57BB     85 21       			sta	__oper1+1
 2134  57BD     20 CA DA    			jsr	__store_int_funct_arg
 2135                     			.f_call	_SysMemcpy
 2136  57C0     20 01 E9    			jsr	_SysMemcpy
 2137  57C3     08          			php
 2138  57C4     78          			sei
 2139  57C5     18          			clc
 2140  57C6     A5 28       			lda	__stack_ptr
 2141  57C8     69 06       			adc	#.low.6
 2142  57CA     85 28       			sta	__stack_ptr
 2143  57CC     A5 29       			lda	__stack_ptr+1
 2144  57CE     69 00       			adc	#.high.6
 2145  57D0     85 29       			sta	__stack_ptr+1
 2146  57D2     28          			plp
 2147                     			.c_end	0256eh,173
 2148                     	;break;
 2149                     	;		
 2150                     			.sw_break
 2151  57D3     4C CC 72    			jmp	?BOL0
 2152                     	;case 377:		
 2153         3426 57D6   	?SWL34:		.equal	$
 2154                     	;SysMemcpy(chars,"盛大的婚礼，并且宣",20)
 2155                     			.c_start  02584h,174
 2156                     			.const_data_psfar2
 2157  78CC     CA A2 B4 F3 B5 	?PLC35:		.byte	"盛大的婚礼，并且宣",0
              C4 BB E9 C0 F1 
              A3 AC B2 A2 C7 
              D2 D0 FB 00 
 2158                     			.program_psfar2
 2159  57D6     A9 14       			lda	#.low.20
 2160  57D8     85 20       			sta	__oper1
 2161  57DA     A9 00       			lda	#.high.20
 2162  57DC     85 21       			sta	__oper1+1
 2163  57DE     20 CA DA    			jsr	__store_int_funct_arg
 2164  57E1     A9 CC       			lda	#.low.?PLC35
  Tue Jan 13 23:03:19 2026                                                                                               Page   41




 2165  57E3     85 20       			sta	__oper1
 2166  57E5     A9 78       			lda	#.high.?PLC35
 2167  57E7     85 21       			sta	__oper1+1
 2168  57E9     20 CA DA    			jsr	__store_int_funct_arg
 2169  57EC     A0 06       			ldy	#+2+?LSC0+?TSC0+4
 2170  57EE     B1 28       			lda	(__stack_ptr),y
 2171  57F0     85 20       			sta	__oper1
 2172  57F2     C8          			iny
 2173  57F3     B1 28       			lda	(__stack_ptr),y
 2174  57F5     85 21       			sta	__oper1+1
 2175  57F7     20 CA DA    			jsr	__store_int_funct_arg
 2176                     			.f_call	_SysMemcpy
 2177  57FA     20 01 E9    			jsr	_SysMemcpy
 2178  57FD     08          			php
 2179  57FE     78          			sei
 2180  57FF     18          			clc
 2181  5800     A5 28       			lda	__stack_ptr
 2182  5802     69 06       			adc	#.low.6
 2183  5804     85 28       			sta	__stack_ptr
 2184  5806     A5 29       			lda	__stack_ptr+1
 2185  5808     69 00       			adc	#.high.6
 2186  580A     85 29       			sta	__stack_ptr+1
 2187  580C     28          			plp
 2188                     			.c_end	025ach,174
 2189                     	;break;
 2190                     	;		
 2191                     			.sw_break
 2192  580D     4C CC 72    			jmp	?BOL0
 2193                     	;case 378:		
 2194         4512 5810   	?SWL35:		.equal	$
 2195                     	;SysMemcpy(chars,"布由勇士继承国王的",20)
 2196                     			.c_start  025c2h,175
 2197                     			.const_data_psfar2
 2198  78DF     B2 BC D3 C9 D3 	?PLC36:		.byte	"布由勇士继承国王的",0
              C2 CA BF BC CC 
              B3 D0 B9 FA CD 
              F5 B5 C4 00 
 2199                     			.program_psfar2
 2200  5810     A9 14       			lda	#.low.20
 2201  5812     85 20       			sta	__oper1
 2202  5814     A9 00       			lda	#.high.20
 2203  5816     85 21       			sta	__oper1+1
 2204  5818     20 CA DA    			jsr	__store_int_funct_arg
 2205  581B     A9 DF       			lda	#.low.?PLC36
 2206  581D     85 20       			sta	__oper1
 2207  581F     A9 78       			lda	#.high.?PLC36
 2208  5821     85 21       			sta	__oper1+1
 2209  5823     20 CA DA    			jsr	__store_int_funct_arg
 2210  5826     A0 06       			ldy	#+2+?LSC0+?TSC0+4
 2211  5828     B1 28       			lda	(__stack_ptr),y
 2212  582A     85 20       			sta	__oper1
 2213  582C     C8          			iny
 2214  582D     B1 28       			lda	(__stack_ptr),y
 2215  582F     85 21       			sta	__oper1+1
 2216  5831     20 CA DA    			jsr	__store_int_funct_arg
 2217                     			.f_call	_SysMemcpy
 2218  5834     20 01 E9    			jsr	_SysMemcpy
  Tue Jan 13 23:03:19 2026                                                                                               Page   42




 2219  5837     08          			php
 2220  5838     78          			sei
 2221  5839     18          			clc
 2222  583A     A5 28       			lda	__stack_ptr
 2223  583C     69 06       			adc	#.low.6
 2224  583E     85 28       			sta	__stack_ptr
 2225  5840     A5 29       			lda	__stack_ptr+1
 2226  5842     69 00       			adc	#.high.6
 2227  5844     85 29       			sta	__stack_ptr+1
 2228  5846     28          			plp
 2229                     			.c_end	025eah,175
 2230                     	;break;
 2231                     	;		
 2232                     			.sw_break
 2233  5847     4C CC 72    			jmp	?BOL0
 2234                     	;case 379:		
 2235         3816 584A   	?SWL36:		.equal	$
 2236                     	;SysMemcpy(chars,"位置。            ",20)
 2237                     			.c_start  02600h,176
 2238                     			.const_data_psfar2
 2239  78F2     CE BB D6 C3 A1 	?PLC37:		.byte	"位置。            ",0
              A3 20 20 20 20 
              20 20 20 20 20 
              20 20 20 00 
 2240                     			.program_psfar2
 2241  584A     A9 14       			lda	#.low.20
 2242  584C     85 20       			sta	__oper1
 2243  584E     A9 00       			lda	#.high.20
 2244  5850     85 21       			sta	__oper1+1
 2245  5852     20 CA DA    			jsr	__store_int_funct_arg
 2246  5855     A9 F2       			lda	#.low.?PLC37
 2247  5857     85 20       			sta	__oper1
 2248  5859     A9 78       			lda	#.high.?PLC37
 2249  585B     85 21       			sta	__oper1+1
 2250  585D     20 CA DA    			jsr	__store_int_funct_arg
 2251  5860     A0 06       			ldy	#+2+?LSC0+?TSC0+4
 2252  5862     B1 28       			lda	(__stack_ptr),y
 2253  5864     85 20       			sta	__oper1
 2254  5866     C8          			iny
 2255  5867     B1 28       			lda	(__stack_ptr),y
 2256  5869     85 21       			sta	__oper1+1
 2257  586B     20 CA DA    			jsr	__store_int_funct_arg
 2258                     			.f_call	_SysMemcpy
 2259  586E     20 01 E9    			jsr	_SysMemcpy
 2260  5871     08          			php
 2261  5872     78          			sei
 2262  5873     18          			clc
 2263  5874     A5 28       			lda	__stack_ptr
 2264  5876     69 06       			adc	#.low.6
 2265  5878     85 28       			sta	__stack_ptr
 2266  587A     A5 29       			lda	__stack_ptr+1
 2267  587C     69 00       			adc	#.high.6
 2268  587E     85 29       			sta	__stack_ptr+1
 2269  5880     28          			plp
 2270                     			.c_end	02628h,176
 2271                     	;break;
 2272                     	;		
  Tue Jan 13 23:03:19 2026                                                                                               Page   43




 2273                     			.sw_break
 2274  5881     4C CC 72    			jmp	?BOL0
 2275                     	;case 380:		
 2276         321A 5884   	?SWL37:		.equal	$
 2277                     	;SysMemcpy(chars,"从此以后，勇士和公",20)
 2278                     			.c_start  0263eh,177
 2279                     			.const_data_psfar2
 2280  7905     B4 D3 B4 CB D2 	?PLC38:		.byte	"从此以后，勇士和公",0
              D4 BA F3 A3 AC 
              D3 C2 CA BF BA 
              CD B9 AB 00 
 2281                     			.program_psfar2
 2282  5884     A9 14       			lda	#.low.20
 2283  5886     85 20       			sta	__oper1
 2284  5888     A9 00       			lda	#.high.20
 2285  588A     85 21       			sta	__oper1+1
 2286  588C     20 CA DA    			jsr	__store_int_funct_arg
 2287  588F     A9 05       			lda	#.low.?PLC38
 2288  5891     85 20       			sta	__oper1
 2289  5893     A9 79       			lda	#.high.?PLC38
 2290  5895     85 21       			sta	__oper1+1
 2291  5897     20 CA DA    			jsr	__store_int_funct_arg
 2292  589A     A0 06       			ldy	#+2+?LSC0+?TSC0+4
 2293  589C     B1 28       			lda	(__stack_ptr),y
 2294  589E     85 20       			sta	__oper1
 2295  58A0     C8          			iny
 2296  58A1     B1 28       			lda	(__stack_ptr),y
 2297  58A3     85 21       			sta	__oper1+1
 2298  58A5     20 CA DA    			jsr	__store_int_funct_arg
 2299                     			.f_call	_SysMemcpy
 2300  58A8     20 01 E9    			jsr	_SysMemcpy
 2301  58AB     08          			php
 2302  58AC     78          			sei
 2303  58AD     18          			clc
 2304  58AE     A5 28       			lda	__stack_ptr
 2305  58B0     69 06       			adc	#.low.6
 2306  58B2     85 28       			sta	__stack_ptr
 2307  58B4     A5 29       			lda	__stack_ptr+1
 2308  58B6     69 00       			adc	#.high.6
 2309  58B8     85 29       			sta	__stack_ptr+1
 2310  58BA     28          			plp
 2311                     			.c_end	02666h,177
 2312                     	;break;
 2313                     	;		
 2314                     			.sw_break
 2315  58BB     4C CC 72    			jmp	?BOL0
 2316                     	;case 381:		
 2317         4324 58BE   	?SWL38:		.equal	$
 2318                     	;SysMemcpy(chars,"主就幸福地生活在一",20)
 2319                     			.c_start  0267ch,178
 2320                     			.const_data_psfar2
 2321  7918     D6 F7 BE CD D0 	?PLC39:		.byte	"主就幸福地生活在一",0
              D2 B8 A3 B5 D8 
              C9 FA BB EE D4 
              DA D2 BB 00 
 2322                     			.program_psfar2
 2323  58BE     A9 14       			lda	#.low.20
  Tue Jan 13 23:03:19 2026                                                                                               Page   44




 2324  58C0     85 20       			sta	__oper1
 2325  58C2     A9 00       			lda	#.high.20
 2326  58C4     85 21       			sta	__oper1+1
 2327  58C6     20 CA DA    			jsr	__store_int_funct_arg
 2328  58C9     A9 18       			lda	#.low.?PLC39
 2329  58CB     85 20       			sta	__oper1
 2330  58CD     A9 79       			lda	#.high.?PLC39
 2331  58CF     85 21       			sta	__oper1+1
 2332  58D1     20 CA DA    			jsr	__store_int_funct_arg
 2333  58D4     A0 06       			ldy	#+2+?LSC0+?TSC0+4
 2334  58D6     B1 28       			lda	(__stack_ptr),y
 2335  58D8     85 20       			sta	__oper1
 2336  58DA     C8          			iny
 2337  58DB     B1 28       			lda	(__stack_ptr),y
 2338  58DD     85 21       			sta	__oper1+1
 2339  58DF     20 CA DA    			jsr	__store_int_funct_arg
 2340                     			.f_call	_SysMemcpy
 2341  58E2     20 01 E9    			jsr	_SysMemcpy
 2342  58E5     08          			php
 2343  58E6     78          			sei
 2344  58E7     18          			clc
 2345  58E8     A5 28       			lda	__stack_ptr
 2346  58EA     69 06       			adc	#.low.6
 2347  58EC     85 28       			sta	__stack_ptr
 2348  58EE     A5 29       			lda	__stack_ptr+1
 2349  58F0     69 00       			adc	#.high.6
 2350  58F2     85 29       			sta	__stack_ptr+1
 2351  58F4     28          			plp
 2352                     			.c_end	026a4h,178
 2353                     	;break;
 2354                     	;		
 2355                     			.sw_break
 2356  58F5     4C CC 72    			jmp	?BOL0
 2357                     	;case 382:		
 2358         3628 58F8   	?SWL39:		.equal	$
 2359                     	;SysMemcpy(chars,"起了。            ",20)
 2360                     			.c_start  026bah,179
 2361                     			.const_data_psfar2
 2362  792B     C6 F0 C1 CB A1 	?PLC40:		.byte	"起了。            ",0
              A3 20 20 20 20 
              20 20 20 20 20 
              20 20 20 00 
 2363                     			.program_psfar2
 2364  58F8     A9 14       			lda	#.low.20
 2365  58FA     85 20       			sta	__oper1
 2366  58FC     A9 00       			lda	#.high.20
 2367  58FE     85 21       			sta	__oper1+1
 2368  5900     20 CA DA    			jsr	__store_int_funct_arg
 2369  5903     A9 2B       			lda	#.low.?PLC40
 2370  5905     85 20       			sta	__oper1
 2371  5907     A9 79       			lda	#.high.?PLC40
 2372  5909     85 21       			sta	__oper1+1
 2373  590B     20 CA DA    			jsr	__store_int_funct_arg
 2374  590E     A0 06       			ldy	#+2+?LSC0+?TSC0+4
 2375  5910     B1 28       			lda	(__stack_ptr),y
 2376  5912     85 20       			sta	__oper1
 2377  5914     C8          			iny
  Tue Jan 13 23:03:19 2026                                                                                               Page   45




 2378  5915     B1 28       			lda	(__stack_ptr),y
 2379  5917     85 21       			sta	__oper1+1
 2380  5919     20 CA DA    			jsr	__store_int_funct_arg
 2381                     			.f_call	_SysMemcpy
 2382  591C     20 01 E9    			jsr	_SysMemcpy
 2383  591F     08          			php
 2384  5920     78          			sei
 2385  5921     18          			clc
 2386  5922     A5 28       			lda	__stack_ptr
 2387  5924     69 06       			adc	#.low.6
 2388  5926     85 28       			sta	__stack_ptr
 2389  5928     A5 29       			lda	__stack_ptr+1
 2390  592A     69 00       			adc	#.high.6
 2391  592C     85 29       			sta	__stack_ptr+1
 2392  592E     28          			plp
 2393                     			.c_end	026e2h,179
 2394                     	;break;
 2395                     	;		
 2396                     			.sw_break
 2397  592F     4C CC 72    			jmp	?BOL0
 2398                     	;case 383:		
 2399         4714 5932   	?SWL40:		.equal	$
 2400                     	;SysMemcpy(chars,"突然传来了一阵巨响",20)
 2401                     			.c_start  026f8h,180
 2402                     			.const_data_psfar2
 2403  793E     CD BB C8 BB B4 	?PLC41:		.byte	"突然传来了一阵巨响",0
              AB C0 B4 C1 CB 
              D2 BB D5 F3 BE 
              DE CF EC 00 
 2404                     			.program_psfar2
 2405  5932     A9 14       			lda	#.low.20
 2406  5934     85 20       			sta	__oper1
 2407  5936     A9 00       			lda	#.high.20
 2408  5938     85 21       			sta	__oper1+1
 2409  593A     20 CA DA    			jsr	__store_int_funct_arg
 2410  593D     A9 3E       			lda	#.low.?PLC41
 2411  593F     85 20       			sta	__oper1
 2412  5941     A9 79       			lda	#.high.?PLC41
 2413  5943     85 21       			sta	__oper1+1
 2414  5945     20 CA DA    			jsr	__store_int_funct_arg
 2415  5948     A0 06       			ldy	#+2+?LSC0+?TSC0+4
 2416  594A     B1 28       			lda	(__stack_ptr),y
 2417  594C     85 20       			sta	__oper1
 2418  594E     C8          			iny
 2419  594F     B1 28       			lda	(__stack_ptr),y
 2420  5951     85 21       			sta	__oper1+1
 2421  5953     20 CA DA    			jsr	__store_int_funct_arg
 2422                     			.f_call	_SysMemcpy
 2423  5956     20 01 E9    			jsr	_SysMemcpy
 2424  5959     08          			php
 2425  595A     78          			sei
 2426  595B     18          			clc
 2427  595C     A5 28       			lda	__stack_ptr
 2428  595E     69 06       			adc	#.low.6
 2429  5960     85 28       			sta	__stack_ptr
 2430  5962     A5 29       			lda	__stack_ptr+1
 2431  5964     69 00       			adc	#.high.6
  Tue Jan 13 23:03:19 2026                                                                                               Page   46




 2432  5966     85 29       			sta	__stack_ptr+1
 2433  5968     28          			plp
 2434                     			.c_end	02720h,180
 2435                     	;break;
 2436                     	;		
 2437                     			.sw_break
 2438  5969     4C CC 72    			jmp	?BOL0
 2439                     	;case 384:		
 2440         3A18 596C   	?SWL41:		.equal	$
 2441                     	;SysMemcpy(chars,"，魔塔倒了，勇士和",20)
 2442                     			.c_start  02736h,181
 2443                     			.const_data_psfar2
 2444  7951     A3 AC C4 A7 CB 	?PLC42:		.byte	"，魔塔倒了，勇士和",0
              FE B5 B9 C1 CB 
              A3 AC D3 C2 CA 
              BF BA CD 00 
 2445                     			.program_psfar2
 2446  596C     A9 14       			lda	#.low.20
 2447  596E     85 20       			sta	__oper1
 2448  5970     A9 00       			lda	#.high.20
 2449  5972     85 21       			sta	__oper1+1
 2450  5974     20 CA DA    			jsr	__store_int_funct_arg
 2451  5977     A9 51       			lda	#.low.?PLC42
 2452  5979     85 20       			sta	__oper1
 2453  597B     A9 79       			lda	#.high.?PLC42
 2454  597D     85 21       			sta	__oper1+1
 2455  597F     20 CA DA    			jsr	__store_int_funct_arg
 2456  5982     A0 06       			ldy	#+2+?LSC0+?TSC0+4
 2457  5984     B1 28       			lda	(__stack_ptr),y
 2458  5986     85 20       			sta	__oper1
 2459  5988     C8          			iny
 2460  5989     B1 28       			lda	(__stack_ptr),y
 2461  598B     85 21       			sta	__oper1+1
 2462  598D     20 CA DA    			jsr	__store_int_funct_arg
 2463                     			.f_call	_SysMemcpy
 2464  5990     20 01 E9    			jsr	_SysMemcpy
 2465  5993     08          			php
 2466  5994     78          			sei
 2467  5995     18          			clc
 2468  5996     A5 28       			lda	__stack_ptr
 2469  5998     69 06       			adc	#.low.6
 2470  599A     85 28       			sta	__stack_ptr
 2471  599C     A5 29       			lda	__stack_ptr+1
 2472  599E     69 00       			adc	#.high.6
 2473  59A0     85 29       			sta	__stack_ptr+1
 2474  59A2     28          			plp
 2475                     			.c_end	0275eh,181
 2476                     	;break;
 2477                     	;		
 2478                     			.sw_break
 2479  59A3     4C CC 72    			jmp	?BOL0
 2480                     	;case 385:		
 2481         3423 59A6   	?SWL42:		.equal	$
 2482                     	;SysMemcpy(chars,"公主却没有逃出塔外",20)
 2483                     			.c_start  02774h,182
 2484                     			.const_data_psfar2
 2485  7964     B9 AB D6 F7 C8 	?PLC43:		.byte	"公主却没有逃出塔外",0
  Tue Jan 13 23:03:19 2026                                                                                               Page   47




              B4 C3 BB D3 D0 
              CC D3 B3 F6 CB 
              FE CD E2 00 
 2486                     			.program_psfar2
 2487  59A6     A9 14       			lda	#.low.20
 2488  59A8     85 20       			sta	__oper1
 2489  59AA     A9 00       			lda	#.high.20
 2490  59AC     85 21       			sta	__oper1+1
 2491  59AE     20 CA DA    			jsr	__store_int_funct_arg
 2492  59B1     A9 64       			lda	#.low.?PLC43
 2493  59B3     85 20       			sta	__oper1
 2494  59B5     A9 79       			lda	#.high.?PLC43
 2495  59B7     85 21       			sta	__oper1+1
 2496  59B9     20 CA DA    			jsr	__store_int_funct_arg
 2497  59BC     A0 06       			ldy	#+2+?LSC0+?TSC0+4
 2498  59BE     B1 28       			lda	(__stack_ptr),y
 2499  59C0     85 20       			sta	__oper1
 2500  59C2     C8          			iny
 2501  59C3     B1 28       			lda	(__stack_ptr),y
 2502  59C5     85 21       			sta	__oper1+1
 2503  59C7     20 CA DA    			jsr	__store_int_funct_arg
 2504                     			.f_call	_SysMemcpy
 2505  59CA     20 01 E9    			jsr	_SysMemcpy
 2506  59CD     08          			php
 2507  59CE     78          			sei
 2508  59CF     18          			clc
 2509  59D0     A5 28       			lda	__stack_ptr
 2510  59D2     69 06       			adc	#.low.6
 2511  59D4     85 28       			sta	__stack_ptr
 2512  59D6     A5 29       			lda	__stack_ptr+1
 2513  59D8     69 00       			adc	#.high.6
 2514  59DA     85 29       			sta	__stack_ptr+1
 2515  59DC     28          			plp
 2516                     			.c_end	0279ch,182
 2517                     	;break;
 2518                     	;		
 2519                     			.sw_break
 2520  59DD     4C CC 72    			jmp	?BOL0
 2521                     	;case 386:		
 2522         4526 59E0   	?SWL43:		.equal	$
 2523                     	;SysMemcpy(chars,"。                ",20)
 2524                     			.c_start  027b2h,183
 2525                     			.const_data_psfar2
 2526  7977     A1 A3 20 20 20 	?PLC44:		.byte	"。                ",0
              20 20 20 20 20 
              20 20 20 20 20 
              20 20 20 00 
 2527                     			.program_psfar2
 2528  59E0     A9 14       			lda	#.low.20
 2529  59E2     85 20       			sta	__oper1
 2530  59E4     A9 00       			lda	#.high.20
 2531  59E6     85 21       			sta	__oper1+1
 2532  59E8     20 CA DA    			jsr	__store_int_funct_arg
 2533  59EB     A9 77       			lda	#.low.?PLC44
 2534  59ED     85 20       			sta	__oper1
 2535  59EF     A9 79       			lda	#.high.?PLC44
 2536  59F1     85 21       			sta	__oper1+1
  Tue Jan 13 23:03:19 2026                                                                                               Page   48




 2537  59F3     20 CA DA    			jsr	__store_int_funct_arg
 2538  59F6     A0 06       			ldy	#+2+?LSC0+?TSC0+4
 2539  59F8     B1 28       			lda	(__stack_ptr),y
 2540  59FA     85 20       			sta	__oper1
 2541  59FC     C8          			iny
 2542  59FD     B1 28       			lda	(__stack_ptr),y
 2543  59FF     85 21       			sta	__oper1+1
 2544  5A01     20 CA DA    			jsr	__store_int_funct_arg
 2545                     			.f_call	_SysMemcpy
 2546  5A04     20 01 E9    			jsr	_SysMemcpy
 2547  5A07     08          			php
 2548  5A08     78          			sei
 2549  5A09     18          			clc
 2550  5A0A     A5 28       			lda	__stack_ptr
 2551  5A0C     69 06       			adc	#.low.6
 2552  5A0E     85 28       			sta	__stack_ptr
 2553  5A10     A5 29       			lda	__stack_ptr+1
 2554  5A12     69 00       			adc	#.high.6
 2555  5A14     85 29       			sta	__stack_ptr+1
 2556  5A16     28          			plp
 2557                     			.c_end	027dah,183
 2558                     	;break;
 2559                     	;		
 2560                     			.sw_break
 2561  5A17     4C CC 72    			jmp	?BOL0
 2562                     	;case 387:		
 2563         3813 5A1A   	?SWL44:		.equal	$
 2564                     	;SysMemcpy(chars,"勇士请重新再来过吧",20)
 2565                     			.c_start  027f0h,184
 2566                     			.const_data_psfar2
 2567  798A     D3 C2 CA BF C7 	?PLC45:		.byte	"勇士请重新再来过吧",0
              EB D6 D8 D0 C2 
              D4 D9 C0 B4 B9 
              FD B0 C9 00 
 2568                     			.program_psfar2
 2569  5A1A     A9 14       			lda	#.low.20
 2570  5A1C     85 20       			sta	__oper1
 2571  5A1E     A9 00       			lda	#.high.20
 2572  5A20     85 21       			sta	__oper1+1
 2573  5A22     20 CA DA    			jsr	__store_int_funct_arg
 2574  5A25     A9 8A       			lda	#.low.?PLC45
 2575  5A27     85 20       			sta	__oper1
 2576  5A29     A9 79       			lda	#.high.?PLC45
 2577  5A2B     85 21       			sta	__oper1+1
 2578  5A2D     20 CA DA    			jsr	__store_int_funct_arg
 2579  5A30     A0 06       			ldy	#+2+?LSC0+?TSC0+4
 2580  5A32     B1 28       			lda	(__stack_ptr),y
 2581  5A34     85 20       			sta	__oper1
 2582  5A36     C8          			iny
 2583  5A37     B1 28       			lda	(__stack_ptr),y
 2584  5A39     85 21       			sta	__oper1+1
 2585  5A3B     20 CA DA    			jsr	__store_int_funct_arg
 2586                     			.f_call	_SysMemcpy
 2587  5A3E     20 01 E9    			jsr	_SysMemcpy
 2588  5A41     08          			php
 2589  5A42     78          			sei
 2590  5A43     18          			clc
  Tue Jan 13 23:03:19 2026                                                                                               Page   49




 2591  5A44     A5 28       			lda	__stack_ptr
 2592  5A46     69 06       			adc	#.low.6
 2593  5A48     85 28       			sta	__stack_ptr
 2594  5A4A     A5 29       			lda	__stack_ptr+1
 2595  5A4C     69 00       			adc	#.high.6
 2596  5A4E     85 29       			sta	__stack_ptr+1
 2597  5A50     28          			plp
 2598                     			.c_end	02818h,184
 2599                     	;break;
 2600                     	;		
 2601                     			.sw_break
 2602  5A51     4C CC 72    			jmp	?BOL0
 2603                     	;case 388:		
 2604         3217 5A54   	?SWL45:		.equal	$
 2605                     	;SysMemcpy(chars,"。                ",20)
 2606                     			.c_start  0282eh,185
 2607                     			.const_data_psfar2
 2608  799D     A1 A3 20 20 20 	?PLC46:		.byte	"。                ",0
              20 20 20 20 20 
              20 20 20 20 20 
              20 20 20 00 
 2609                     			.program_psfar2
 2610  5A54     A9 14       			lda	#.low.20
 2611  5A56     85 20       			sta	__oper1
 2612  5A58     A9 00       			lda	#.high.20
 2613  5A5A     85 21       			sta	__oper1+1
 2614  5A5C     20 CA DA    			jsr	__store_int_funct_arg
 2615  5A5F     A9 9D       			lda	#.low.?PLC46
 2616  5A61     85 20       			sta	__oper1
 2617  5A63     A9 79       			lda	#.high.?PLC46
 2618  5A65     85 21       			sta	__oper1+1
 2619  5A67     20 CA DA    			jsr	__store_int_funct_arg
 2620  5A6A     A0 06       			ldy	#+2+?LSC0+?TSC0+4
 2621  5A6C     B1 28       			lda	(__stack_ptr),y
 2622  5A6E     85 20       			sta	__oper1
 2623  5A70     C8          			iny
 2624  5A71     B1 28       			lda	(__stack_ptr),y
 2625  5A73     85 21       			sta	__oper1+1
 2626  5A75     20 CA DA    			jsr	__store_int_funct_arg
 2627                     			.f_call	_SysMemcpy
 2628  5A78     20 01 E9    			jsr	_SysMemcpy
 2629  5A7B     08          			php
 2630  5A7C     78          			sei
 2631  5A7D     18          			clc
 2632  5A7E     A5 28       			lda	__stack_ptr
 2633  5A80     69 06       			adc	#.low.6
 2634  5A82     85 28       			sta	__stack_ptr
 2635  5A84     A5 29       			lda	__stack_ptr+1
 2636  5A86     69 00       			adc	#.high.6
 2637  5A88     85 29       			sta	__stack_ptr+1
 2638  5A8A     28          			plp
 2639                     			.c_end	02856h,185
 2640                     	;break;
 2641                     	;		
 2642                     			.sw_break
 2643  5A8B     4C CC 72    			jmp	?BOL0
 2644                     	;case 389:		
  Tue Jan 13 23:03:19 2026                                                                                               Page   50




 2645         431A 5A8E   	?SWL46:		.equal	$
 2646                     	;SysMemcpy(chars,"{得到三种钥匙各一 ",20)
 2647                     			.c_start  0286ch,186
 2648                     			.const_data_psfar2
 2649  79B0     7B B5 C3 B5 BD 	?PLC47:		.byte	"{得到三种钥匙各一 ",0
              C8 FD D6 D6 D4 
              BF B3 D7 B8 F7 
              D2 BB 20 00 
 2650                     			.program_psfar2
 2651  5A8E     A9 14       			lda	#.low.20
 2652  5A90     85 20       			sta	__oper1
 2653  5A92     A9 00       			lda	#.high.20
 2654  5A94     85 21       			sta	__oper1+1
 2655  5A96     20 CA DA    			jsr	__store_int_funct_arg
 2656  5A99     A9 B0       			lda	#.low.?PLC47
 2657  5A9B     85 20       			sta	__oper1
 2658  5A9D     A9 79       			lda	#.high.?PLC47
 2659  5A9F     85 21       			sta	__oper1+1
 2660  5AA1     20 CA DA    			jsr	__store_int_funct_arg
 2661  5AA4     A0 06       			ldy	#+2+?LSC0+?TSC0+4
 2662  5AA6     B1 28       			lda	(__stack_ptr),y
 2663  5AA8     85 20       			sta	__oper1
 2664  5AAA     C8          			iny
 2665  5AAB     B1 28       			lda	(__stack_ptr),y
 2666  5AAD     85 21       			sta	__oper1+1
 2667  5AAF     20 CA DA    			jsr	__store_int_funct_arg
 2668                     			.f_call	_SysMemcpy
 2669  5AB2     20 01 E9    			jsr	_SysMemcpy
 2670  5AB5     08          			php
 2671  5AB6     78          			sei
 2672  5AB7     18          			clc
 2673  5AB8     A5 28       			lda	__stack_ptr
 2674  5ABA     69 06       			adc	#.low.6
 2675  5ABC     85 28       			sta	__stack_ptr
 2676  5ABE     A5 29       			lda	__stack_ptr+1
 2677  5AC0     69 00       			adc	#.high.6
 2678  5AC2     85 29       			sta	__stack_ptr+1
 2679  5AC4     28          			plp
 2680                     			.c_end	02894h,186
 2681                     	;break;
 2682                     	;		
 2683                     			.sw_break
 2684  5AC5     4C CC 72    			jmp	?BOL0
 2685                     	;case 390:		
 2686         3625 5AC8   	?SWL47:		.equal	$
 2687                     	;SysMemcpy(chars,"把}               ",20)
 2688                     			.c_start  028aah,187
 2689                     			.const_data_psfar2
 2690  79C3     B0 D1 7D 20 20 	?PLC48:		.byte	"把}               ",0
              20 20 20 20 20 
              20 20 20 20 20 
              20 20 20 00 
 2691                     			.program_psfar2
 2692  5AC8     A9 14       			lda	#.low.20
 2693  5ACA     85 20       			sta	__oper1
 2694  5ACC     A9 00       			lda	#.high.20
 2695  5ACE     85 21       			sta	__oper1+1
  Tue Jan 13 23:03:19 2026                                                                                               Page   51




 2696  5AD0     20 CA DA    			jsr	__store_int_funct_arg
 2697  5AD3     A9 C3       			lda	#.low.?PLC48
 2698  5AD5     85 20       			sta	__oper1
 2699  5AD7     A9 79       			lda	#.high.?PLC48
 2700  5AD9     85 21       			sta	__oper1+1
 2701  5ADB     20 CA DA    			jsr	__store_int_funct_arg
 2702  5ADE     A0 06       			ldy	#+2+?LSC0+?TSC0+4
 2703  5AE0     B1 28       			lda	(__stack_ptr),y
 2704  5AE2     85 20       			sta	__oper1
 2705  5AE4     C8          			iny
 2706  5AE5     B1 28       			lda	(__stack_ptr),y
 2707  5AE7     85 21       			sta	__oper1+1
 2708  5AE9     20 CA DA    			jsr	__store_int_funct_arg
 2709                     			.f_call	_SysMemcpy
 2710  5AEC     20 01 E9    			jsr	_SysMemcpy
 2711  5AEF     08          			php
 2712  5AF0     78          			sei
 2713  5AF1     18          			clc
 2714  5AF2     A5 28       			lda	__stack_ptr
 2715  5AF4     69 06       			adc	#.low.6
 2716  5AF6     85 28       			sta	__stack_ptr
 2717  5AF8     A5 29       			lda	__stack_ptr+1
 2718  5AFA     69 00       			adc	#.high.6
 2719  5AFC     85 29       			sta	__stack_ptr+1
 2720  5AFE     28          			plp
 2721                     			.c_end	028d2h,187
 2722                     	;break;
 2723                     	;		
 2724                     			.sw_break
 2725  5AFF     4C CC 72    			jmp	?BOL0
 2726                     	;case 391:		
 2727         4728 5B02   	?SWL48:		.equal	$
 2728                     	;SysMemcpy(chars,"{得到<三号钥匙>： ",20)
 2729                     			.c_start  028e8h,188
 2730                     			.const_data_psfar2
 2731  79D6     7B B5 C3 B5 BD 	?PLC49:		.byte	"{得到<三号钥匙>： ",0
              3C C8 FD BA C5 
              D4 BF B3 D7 3E 
              A3 BA 20 00 
 2732                     			.program_psfar2
 2733  5B02     A9 14       			lda	#.low.20
 2734  5B04     85 20       			sta	__oper1
 2735  5B06     A9 00       			lda	#.high.20
 2736  5B08     85 21       			sta	__oper1+1
 2737  5B0A     20 CA DA    			jsr	__store_int_funct_arg
 2738  5B0D     A9 D6       			lda	#.low.?PLC49
 2739  5B0F     85 20       			sta	__oper1
 2740  5B11     A9 79       			lda	#.high.?PLC49
 2741  5B13     85 21       			sta	__oper1+1
 2742  5B15     20 CA DA    			jsr	__store_int_funct_arg
 2743  5B18     A0 06       			ldy	#+2+?LSC0+?TSC0+4
 2744  5B1A     B1 28       			lda	(__stack_ptr),y
 2745  5B1C     85 20       			sta	__oper1
 2746  5B1E     C8          			iny
 2747  5B1F     B1 28       			lda	(__stack_ptr),y
 2748  5B21     85 21       			sta	__oper1+1
 2749  5B23     20 CA DA    			jsr	__store_int_funct_arg
  Tue Jan 13 23:03:19 2026                                                                                               Page   52




 2750                     			.f_call	_SysMemcpy
 2751  5B26     20 01 E9    			jsr	_SysMemcpy
 2752  5B29     08          			php
 2753  5B2A     78          			sei
 2754  5B2B     18          			clc
 2755  5B2C     A5 28       			lda	__stack_ptr
 2756  5B2E     69 06       			adc	#.low.6
 2757  5B30     85 28       			sta	__stack_ptr
 2758  5B32     A5 29       			lda	__stack_ptr+1
 2759  5B34     69 00       			adc	#.high.6
 2760  5B36     85 29       			sta	__stack_ptr+1
 2761  5B38     28          			plp
 2762                     			.c_end	02910h,188
 2763                     	;break;
 2764                     	;		
 2765                     			.sw_break
 2766  5B39     4C CC 72    			jmp	?BOL0
 2767                     	;case 392:		
 2768         3A15 5B3C   	?SWL49:		.equal	$
 2769                     	;SysMemcpy(chars,"可以打开三号门}   ",20)
 2770                     			.c_start  02926h,189
 2771                     			.const_data_psfar2
 2772  79E9     BF C9 D2 D4 B4 	?PLC50:		.byte	"可以打开三号门}   ",0
              F2 BF AA C8 FD 
              BA C5 C3 C5 7D 
              20 20 20 00 
 2773                     			.program_psfar2
 2774  5B3C     A9 14       			lda	#.low.20
 2775  5B3E     85 20       			sta	__oper1
 2776  5B40     A9 00       			lda	#.high.20
 2777  5B42     85 21       			sta	__oper1+1
 2778  5B44     20 CA DA    			jsr	__store_int_funct_arg
 2779  5B47     A9 E9       			lda	#.low.?PLC50
 2780  5B49     85 20       			sta	__oper1
 2781  5B4B     A9 79       			lda	#.high.?PLC50
 2782  5B4D     85 21       			sta	__oper1+1
 2783  5B4F     20 CA DA    			jsr	__store_int_funct_arg
 2784  5B52     A0 06       			ldy	#+2+?LSC0+?TSC0+4
 2785  5B54     B1 28       			lda	(__stack_ptr),y
 2786  5B56     85 20       			sta	__oper1
 2787  5B58     C8          			iny
 2788  5B59     B1 28       			lda	(__stack_ptr),y
 2789  5B5B     85 21       			sta	__oper1+1
 2790  5B5D     20 CA DA    			jsr	__store_int_funct_arg
 2791                     			.f_call	_SysMemcpy
 2792  5B60     20 01 E9    			jsr	_SysMemcpy
 2793  5B63     08          			php
 2794  5B64     78          			sei
 2795  5B65     18          			clc
 2796  5B66     A5 28       			lda	__stack_ptr
 2797  5B68     69 06       			adc	#.low.6
 2798  5B6A     85 28       			sta	__stack_ptr
 2799  5B6C     A5 29       			lda	__stack_ptr+1
 2800  5B6E     69 00       			adc	#.high.6
 2801  5B70     85 29       			sta	__stack_ptr+1
 2802  5B72     28          			plp
 2803                     			.c_end	0294eh,189
  Tue Jan 13 23:03:19 2026                                                                                               Page   53




 2804                     	;break;
 2805                     	;		
 2806                     			.sw_break
 2807  5B73     4C CC 72    			jmp	?BOL0
 2808                     	;case 393:		
 2809         3419 5B76   	?SWL50:		.equal	$
 2810                     	;SysMemcpy(chars,"{得到<一号钥匙>： ",20)
 2811                     			.c_start  02964h,190
 2812                     			.const_data_psfar2
 2813  79FC     7B B5 C3 B5 BD 	?PLC51:		.byte	"{得到<一号钥匙>： ",0
              3C D2 BB BA C5 
              D4 BF B3 D7 3E 
              A3 BA 20 00 
 2814                     			.program_psfar2
 2815  5B76     A9 14       			lda	#.low.20
 2816  5B78     85 20       			sta	__oper1
 2817  5B7A     A9 00       			lda	#.high.20
 2818  5B7C     85 21       			sta	__oper1+1
 2819  5B7E     20 CA DA    			jsr	__store_int_funct_arg
 2820  5B81     A9 FC       			lda	#.low.?PLC51
 2821  5B83     85 20       			sta	__oper1
 2822  5B85     A9 79       			lda	#.high.?PLC51
 2823  5B87     85 21       			sta	__oper1+1
 2824  5B89     20 CA DA    			jsr	__store_int_funct_arg
 2825  5B8C     A0 06       			ldy	#+2+?LSC0+?TSC0+4
 2826  5B8E     B1 28       			lda	(__stack_ptr),y
 2827  5B90     85 20       			sta	__oper1
 2828  5B92     C8          			iny
 2829  5B93     B1 28       			lda	(__stack_ptr),y
 2830  5B95     85 21       			sta	__oper1+1
 2831  5B97     20 CA DA    			jsr	__store_int_funct_arg
 2832                     			.f_call	_SysMemcpy
 2833  5B9A     20 01 E9    			jsr	_SysMemcpy
 2834  5B9D     08          			php
 2835  5B9E     78          			sei
 2836  5B9F     18          			clc
 2837  5BA0     A5 28       			lda	__stack_ptr
 2838  5BA2     69 06       			adc	#.low.6
 2839  5BA4     85 28       			sta	__stack_ptr
 2840  5BA6     A5 29       			lda	__stack_ptr+1
 2841  5BA8     69 00       			adc	#.high.6
 2842  5BAA     85 29       			sta	__stack_ptr+1
 2843  5BAC     28          			plp
 2844                     			.c_end	0298ch,190
 2845                     	;break;
 2846                     	;		
 2847                     			.sw_break
 2848  5BAD     4C CC 72    			jmp	?BOL0
 2849                     	;case 394:		
 2850         4523 5BB0   	?SWL51:		.equal	$
 2851                     	;SysMemcpy(chars,"可以打开一号门}   ",20)
 2852                     			.c_start  029a2h,191
 2853                     			.const_data_psfar2
 2854  7A0F     BF C9 D2 D4 B4 	?PLC52:		.byte	"可以打开一号门}   ",0
              F2 BF AA D2 BB 
              BA C5 C3 C5 7D 
              20 20 20 00 
  Tue Jan 13 23:03:19 2026                                                                                               Page   54




 2855                     			.program_psfar2
 2856  5BB0     A9 14       			lda	#.low.20
 2857  5BB2     85 20       			sta	__oper1
 2858  5BB4     A9 00       			lda	#.high.20
 2859  5BB6     85 21       			sta	__oper1+1
 2860  5BB8     20 CA DA    			jsr	__store_int_funct_arg
 2861  5BBB     A9 0F       			lda	#.low.?PLC52
 2862  5BBD     85 20       			sta	__oper1
 2863  5BBF     A9 7A       			lda	#.high.?PLC52
 2864  5BC1     85 21       			sta	__oper1+1
 2865  5BC3     20 CA DA    			jsr	__store_int_funct_arg
 2866  5BC6     A0 06       			ldy	#+2+?LSC0+?TSC0+4
 2867  5BC8     B1 28       			lda	(__stack_ptr),y
 2868  5BCA     85 20       			sta	__oper1
 2869  5BCC     C8          			iny
 2870  5BCD     B1 28       			lda	(__stack_ptr),y
 2871  5BCF     85 21       			sta	__oper1+1
 2872  5BD1     20 CA DA    			jsr	__store_int_funct_arg
 2873                     			.f_call	_SysMemcpy
 2874  5BD4     20 01 E9    			jsr	_SysMemcpy
 2875  5BD7     08          			php
 2876  5BD8     78          			sei
 2877  5BD9     18          			clc
 2878  5BDA     A5 28       			lda	__stack_ptr
 2879  5BDC     69 06       			adc	#.low.6
 2880  5BDE     85 28       			sta	__stack_ptr
 2881  5BE0     A5 29       			lda	__stack_ptr+1
 2882  5BE2     69 00       			adc	#.high.6
 2883  5BE4     85 29       			sta	__stack_ptr+1
 2884  5BE6     28          			plp
 2885                     			.c_end	029cah,191
 2886                     	;break;
 2887                     	;		
 2888                     			.sw_break
 2889  5BE7     4C CC 72    			jmp	?BOL0
 2890                     	;case 395:		
 2891         3827 5BEA   	?SWL52:		.equal	$
 2892                     	;SysMemcpy(chars,"{得到<青锋剑>：   ",20)
 2893                     			.c_start  029e0h,192
 2894                     			.const_data_psfar2
 2895  7A22     7B B5 C3 B5 BD 	?PLC53:		.byte	"{得到<青锋剑>：   ",0
              3C C7 E0 B7 E6 
              BD A3 3E A3 BA 
              20 20 20 00 
 2896                     			.program_psfar2
 2897  5BEA     A9 14       			lda	#.low.20
 2898  5BEC     85 20       			sta	__oper1
 2899  5BEE     A9 00       			lda	#.high.20
 2900  5BF0     85 21       			sta	__oper1+1
 2901  5BF2     20 CA DA    			jsr	__store_int_funct_arg
 2902  5BF5     A9 22       			lda	#.low.?PLC53
 2903  5BF7     85 20       			sta	__oper1
 2904  5BF9     A9 7A       			lda	#.high.?PLC53
 2905  5BFB     85 21       			sta	__oper1+1
 2906  5BFD     20 CA DA    			jsr	__store_int_funct_arg
 2907  5C00     A0 06       			ldy	#+2+?LSC0+?TSC0+4
 2908  5C02     B1 28       			lda	(__stack_ptr),y
  Tue Jan 13 23:03:19 2026                                                                                               Page   55




 2909  5C04     85 20       			sta	__oper1
 2910  5C06     C8          			iny
 2911  5C07     B1 28       			lda	(__stack_ptr),y
 2912  5C09     85 21       			sta	__oper1+1
 2913  5C0B     20 CA DA    			jsr	__store_int_funct_arg
 2914                     			.f_call	_SysMemcpy
 2915  5C0E     20 01 E9    			jsr	_SysMemcpy
 2916  5C11     08          			php
 2917  5C12     78          			sei
 2918  5C13     18          			clc
 2919  5C14     A5 28       			lda	__stack_ptr
 2920  5C16     69 06       			adc	#.low.6
 2921  5C18     85 28       			sta	__stack_ptr
 2922  5C1A     A5 29       			lda	__stack_ptr+1
 2923  5C1C     69 00       			adc	#.high.6
 2924  5C1E     85 29       			sta	__stack_ptr+1
 2925  5C20     28          			plp
 2926                     			.c_end	02a08h,192
 2927                     	;break;
 2928                     	;		
 2929                     			.sw_break
 2930  5C21     4C CC 72    			jmp	?BOL0
 2931                     	;case 396:		
 2932         3214 5C24   	?SWL53:		.equal	$
 2933                     	;SysMemcpy(chars,"攻击 + 70}        ",20)
 2934                     			.c_start  02a1eh,193
 2935                     			.const_data_psfar2
 2936  7A35     B9 A5 BB F7 20 	?PLC54:		.byte	"攻击 + 70}        ",0
              2B 20 37 30 7D 
              20 20 20 20 20 
              20 20 20 00 
 2937                     			.program_psfar2
 2938  5C24     A9 14       			lda	#.low.20
 2939  5C26     85 20       			sta	__oper1
 2940  5C28     A9 00       			lda	#.high.20
 2941  5C2A     85 21       			sta	__oper1+1
 2942  5C2C     20 CA DA    			jsr	__store_int_funct_arg
 2943  5C2F     A9 35       			lda	#.low.?PLC54
 2944  5C31     85 20       			sta	__oper1
 2945  5C33     A9 7A       			lda	#.high.?PLC54
 2946  5C35     85 21       			sta	__oper1+1
 2947  5C37     20 CA DA    			jsr	__store_int_funct_arg
 2948  5C3A     A0 06       			ldy	#+2+?LSC0+?TSC0+4
 2949  5C3C     B1 28       			lda	(__stack_ptr),y
 2950  5C3E     85 20       			sta	__oper1
 2951  5C40     C8          			iny
 2952  5C41     B1 28       			lda	(__stack_ptr),y
 2953  5C43     85 21       			sta	__oper1+1
 2954  5C45     20 CA DA    			jsr	__store_int_funct_arg
 2955                     			.f_call	_SysMemcpy
 2956  5C48     20 01 E9    			jsr	_SysMemcpy
 2957  5C4B     08          			php
 2958  5C4C     78          			sei
 2959  5C4D     18          			clc
 2960  5C4E     A5 28       			lda	__stack_ptr
 2961  5C50     69 06       			adc	#.low.6
 2962  5C52     85 28       			sta	__stack_ptr
  Tue Jan 13 23:03:19 2026                                                                                               Page   56




 2963  5C54     A5 29       			lda	__stack_ptr+1
 2964  5C56     69 00       			adc	#.high.6
 2965  5C58     85 29       			sta	__stack_ptr+1
 2966  5C5A     28          			plp
 2967                     			.c_end	02a46h,193
 2968                     	;break;
 2969                     	;		
 2970                     			.sw_break
 2971  5C5B     4C CC 72    			jmp	?BOL0
 2972                     	;case 397:		
 2973         4317 5C5E   	?SWL54:		.equal	$
 2974                     	;SysMemcpy(chars,"{得到<黄金盾>：   ",20)
 2975                     			.c_start  02a5ch,194
 2976                     			.const_data_psfar2
 2977  7A48     7B B5 C3 B5 BD 	?PLC55:		.byte	"{得到<黄金盾>：   ",0
              3C BB C6 BD F0 
              B6 DC 3E A3 BA 
              20 20 20 00 
 2978                     			.program_psfar2
 2979  5C5E     A9 14       			lda	#.low.20
 2980  5C60     85 20       			sta	__oper1
 2981  5C62     A9 00       			lda	#.high.20
 2982  5C64     85 21       			sta	__oper1+1
 2983  5C66     20 CA DA    			jsr	__store_int_funct_arg
 2984  5C69     A9 48       			lda	#.low.?PLC55
 2985  5C6B     85 20       			sta	__oper1
 2986  5C6D     A9 7A       			lda	#.high.?PLC55
 2987  5C6F     85 21       			sta	__oper1+1
 2988  5C71     20 CA DA    			jsr	__store_int_funct_arg
 2989  5C74     A0 06       			ldy	#+2+?LSC0+?TSC0+4
 2990  5C76     B1 28       			lda	(__stack_ptr),y
 2991  5C78     85 20       			sta	__oper1
 2992  5C7A     C8          			iny
 2993  5C7B     B1 28       			lda	(__stack_ptr),y
 2994  5C7D     85 21       			sta	__oper1+1
 2995  5C7F     20 CA DA    			jsr	__store_int_funct_arg
 2996                     			.f_call	_SysMemcpy
 2997  5C82     20 01 E9    			jsr	_SysMemcpy
 2998  5C85     08          			php
 2999  5C86     78          			sei
 3000  5C87     18          			clc
 3001  5C88     A5 28       			lda	__stack_ptr
 3002  5C8A     69 06       			adc	#.low.6
 3003  5C8C     85 28       			sta	__stack_ptr
 3004  5C8E     A5 29       			lda	__stack_ptr+1
 3005  5C90     69 00       			adc	#.high.6
 3006  5C92     85 29       			sta	__stack_ptr+1
 3007  5C94     28          			plp
 3008                     			.c_end	02a84h,194
 3009                     	;break;
 3010                     	;		
 3011                     			.sw_break
 3012  5C95     4C CC 72    			jmp	?BOL0
 3013                     	;case 398:		
 3014         361B 5C98   	?SWL55:		.equal	$
 3015                     	;SysMemcpy(chars,"防御 + 85}        ",20)
 3016                     			.c_start  02a9ah,195
  Tue Jan 13 23:03:19 2026                                                                                               Page   57




 3017                     			.const_data_psfar2
 3018  7A5B     B7 C0 D3 F9 20 	?PLC56:		.byte	"防御 + 85}        ",0
              2B 20 38 35 7D 
              20 20 20 20 20 
              20 20 20 00 
 3019                     			.program_psfar2
 3020  5C98     A9 14       			lda	#.low.20
 3021  5C9A     85 20       			sta	__oper1
 3022  5C9C     A9 00       			lda	#.high.20
 3023  5C9E     85 21       			sta	__oper1+1
 3024  5CA0     20 CA DA    			jsr	__store_int_funct_arg
 3025  5CA3     A9 5B       			lda	#.low.?PLC56
 3026  5CA5     85 20       			sta	__oper1
 3027  5CA7     A9 7A       			lda	#.high.?PLC56
 3028  5CA9     85 21       			sta	__oper1+1
 3029  5CAB     20 CA DA    			jsr	__store_int_funct_arg
 3030  5CAE     A0 06       			ldy	#+2+?LSC0+?TSC0+4
 3031  5CB0     B1 28       			lda	(__stack_ptr),y
 3032  5CB2     85 20       			sta	__oper1
 3033  5CB4     C8          			iny
 3034  5CB5     B1 28       			lda	(__stack_ptr),y
 3035  5CB7     85 21       			sta	__oper1+1
 3036  5CB9     20 CA DA    			jsr	__store_int_funct_arg
 3037                     			.f_call	_SysMemcpy
 3038  5CBC     20 01 E9    			jsr	_SysMemcpy
 3039  5CBF     08          			php
 3040  5CC0     78          			sei
 3041  5CC1     18          			clc
 3042  5CC2     A5 28       			lda	__stack_ptr
 3043  5CC4     69 06       			adc	#.low.6
 3044  5CC6     85 28       			sta	__stack_ptr
 3045  5CC8     A5 29       			lda	__stack_ptr+1
 3046  5CCA     69 00       			adc	#.high.6
 3047  5CCC     85 29       			sta	__stack_ptr+1
 3048  5CCE     28          			plp
 3049                     			.c_end	02ac2h,195
 3050                     	;break;
 3051                     	;		
 3052                     			.sw_break
 3053  5CCF     4C CC 72    			jmp	?BOL0
 3054                     	;case 399:		
 3055         4725 5CD2   	?SWL56:		.equal	$
 3056                     	;SysMemcpy(chars,"{得到<小飞羽>：   ",20)
 3057                     			.c_start  02ad8h,196
 3058                     			.const_data_psfar2
 3059  7A6E     7B B5 C3 B5 BD 	?PLC57:		.byte	"{得到<小飞羽>：   ",0
              3C D0 A1 B7 C9 
              D3 F0 3E A3 BA 
              20 20 20 00 
 3060                     			.program_psfar2
 3061  5CD2     A9 14       			lda	#.low.20
 3062  5CD4     85 20       			sta	__oper1
 3063  5CD6     A9 00       			lda	#.high.20
 3064  5CD8     85 21       			sta	__oper1+1
 3065  5CDA     20 CA DA    			jsr	__store_int_funct_arg
 3066  5CDD     A9 6E       			lda	#.low.?PLC57
 3067  5CDF     85 20       			sta	__oper1
  Tue Jan 13 23:03:19 2026                                                                                               Page   58




 3068  5CE1     A9 7A       			lda	#.high.?PLC57
 3069  5CE3     85 21       			sta	__oper1+1
 3070  5CE5     20 CA DA    			jsr	__store_int_funct_arg
 3071  5CE8     A0 06       			ldy	#+2+?LSC0+?TSC0+4
 3072  5CEA     B1 28       			lda	(__stack_ptr),y
 3073  5CEC     85 20       			sta	__oper1
 3074  5CEE     C8          			iny
 3075  5CEF     B1 28       			lda	(__stack_ptr),y
 3076  5CF1     85 21       			sta	__oper1+1
 3077  5CF3     20 CA DA    			jsr	__store_int_funct_arg
 3078                     			.f_call	_SysMemcpy
 3079  5CF6     20 01 E9    			jsr	_SysMemcpy
 3080  5CF9     08          			php
 3081  5CFA     78          			sei
 3082  5CFB     18          			clc
 3083  5CFC     A5 28       			lda	__stack_ptr
 3084  5CFE     69 06       			adc	#.low.6
 3085  5D00     85 28       			sta	__stack_ptr
 3086  5D02     A5 29       			lda	__stack_ptr+1
 3087  5D04     69 00       			adc	#.high.6
 3088  5D06     85 29       			sta	__stack_ptr+1
 3089  5D08     28          			plp
 3090                     			.c_end	02b00h,196
 3091                     	;break;
 3092                     	;		
 3093                     			.sw_break
 3094  5D09     4C CC 72    			jmp	?BOL0
 3095                     	;case 400:		
 3096         3A12 5D0C   	?SWL57:		.equal	$
 3097                     	;SysMemcpy(chars,"等级提升一级。}   ",20)
 3098                     			.c_start  02b16h,197
 3099                     			.const_data_psfar2
 3100  7A81     B5 C8 BC B6 CC 	?PLC58:		.byte	"等级提升一级。}   ",0
              E1 C9 FD D2 BB 
              BC B6 A1 A3 7D 
              20 20 20 00 
 3101                     			.program_psfar2
 3102  5D0C     A9 14       			lda	#.low.20
 3103  5D0E     85 20       			sta	__oper1
 3104  5D10     A9 00       			lda	#.high.20
 3105  5D12     85 21       			sta	__oper1+1
 3106  5D14     20 CA DA    			jsr	__store_int_funct_arg
 3107  5D17     A9 81       			lda	#.low.?PLC58
 3108  5D19     85 20       			sta	__oper1
 3109  5D1B     A9 7A       			lda	#.high.?PLC58
 3110  5D1D     85 21       			sta	__oper1+1
 3111  5D1F     20 CA DA    			jsr	__store_int_funct_arg
 3112  5D22     A0 06       			ldy	#+2+?LSC0+?TSC0+4
 3113  5D24     B1 28       			lda	(__stack_ptr),y
 3114  5D26     85 20       			sta	__oper1
 3115  5D28     C8          			iny
 3116  5D29     B1 28       			lda	(__stack_ptr),y
 3117  5D2B     85 21       			sta	__oper1+1
 3118  5D2D     20 CA DA    			jsr	__store_int_funct_arg
 3119                     			.f_call	_SysMemcpy
 3120  5D30     20 01 E9    			jsr	_SysMemcpy
 3121  5D33     08          			php
  Tue Jan 13 23:03:19 2026                                                                                               Page   59




 3122  5D34     78          			sei
 3123  5D35     18          			clc
 3124  5D36     A5 28       			lda	__stack_ptr
 3125  5D38     69 06       			adc	#.low.6
 3126  5D3A     85 28       			sta	__stack_ptr
 3127  5D3C     A5 29       			lda	__stack_ptr+1
 3128  5D3E     69 00       			adc	#.high.6
 3129  5D40     85 29       			sta	__stack_ptr+1
 3130  5D42     28          			plp
 3131                     			.c_end	02b3eh,197
 3132                     	;break;
 3133                     	;		
 3134                     			.sw_break
 3135  5D43     4C CC 72    			jmp	?BOL0
 3136                     	;case 401:		
 3137         3416 5D46   	?SWL58:		.equal	$
 3138                     	;SysMemcpy(chars,"{得到<大金币>：   ",20)
 3139                     			.c_start  02b54h,198
 3140                     			.const_data_psfar2
 3141  7A94     7B B5 C3 B5 BD 	?PLC59:		.byte	"{得到<大金币>：   ",0
              3C B4 F3 BD F0 
              B1 D2 3E A3 BA 
              20 20 20 00 
 3142                     			.program_psfar2
 3143  5D46     A9 14       			lda	#.low.20
 3144  5D48     85 20       			sta	__oper1
 3145  5D4A     A9 00       			lda	#.high.20
 3146  5D4C     85 21       			sta	__oper1+1
 3147  5D4E     20 CA DA    			jsr	__store_int_funct_arg
 3148  5D51     A9 94       			lda	#.low.?PLC59
 3149  5D53     85 20       			sta	__oper1
 3150  5D55     A9 7A       			lda	#.high.?PLC59
 3151  5D57     85 21       			sta	__oper1+1
 3152  5D59     20 CA DA    			jsr	__store_int_funct_arg
 3153  5D5C     A0 06       			ldy	#+2+?LSC0+?TSC0+4
 3154  5D5E     B1 28       			lda	(__stack_ptr),y
 3155  5D60     85 20       			sta	__oper1
 3156  5D62     C8          			iny
 3157  5D63     B1 28       			lda	(__stack_ptr),y
 3158  5D65     85 21       			sta	__oper1+1
 3159  5D67     20 CA DA    			jsr	__store_int_funct_arg
 3160                     			.f_call	_SysMemcpy
 3161  5D6A     20 01 E9    			jsr	_SysMemcpy
 3162  5D6D     08          			php
 3163  5D6E     78          			sei
 3164  5D6F     18          			clc
 3165  5D70     A5 28       			lda	__stack_ptr
 3166  5D72     69 06       			adc	#.low.6
 3167  5D74     85 28       			sta	__stack_ptr
 3168  5D76     A5 29       			lda	__stack_ptr+1
 3169  5D78     69 00       			adc	#.high.6
 3170  5D7A     85 29       			sta	__stack_ptr+1
 3171  5D7C     28          			plp
 3172                     			.c_end	02b7ch,198
 3173                     	;break;
 3174                     	;		
 3175                     			.sw_break
  Tue Jan 13 23:03:19 2026                                                                                               Page   60




 3176  5D7D     4C CC 72    			jmp	?BOL0
 3177                     	;case 402:		
 3178         4519 5D80   	?SWL59:		.equal	$
 3179                     	;SysMemcpy(chars,"金币 + 300}       ",20)
 3180                     			.c_start  02b92h,199
 3181                     			.const_data_psfar2
 3182  7AA7     BD F0 B1 D2 20 	?PLC60:		.byte	"金币 + 300}       ",0
              2B 20 33 30 30 
              7D 20 20 20 20 
              20 20 20 00 
 3183                     			.program_psfar2
 3184  5D80     A9 14       			lda	#.low.20
 3185  5D82     85 20       			sta	__oper1
 3186  5D84     A9 00       			lda	#.high.20
 3187  5D86     85 21       			sta	__oper1+1
 3188  5D88     20 CA DA    			jsr	__store_int_funct_arg
 3189  5D8B     A9 A7       			lda	#.low.?PLC60
 3190  5D8D     85 20       			sta	__oper1
 3191  5D8F     A9 7A       			lda	#.high.?PLC60
 3192  5D91     85 21       			sta	__oper1+1
 3193  5D93     20 CA DA    			jsr	__store_int_funct_arg
 3194  5D96     A0 06       			ldy	#+2+?LSC0+?TSC0+4
 3195  5D98     B1 28       			lda	(__stack_ptr),y
 3196  5D9A     85 20       			sta	__oper1
 3197  5D9C     C8          			iny
 3198  5D9D     B1 28       			lda	(__stack_ptr),y
 3199  5D9F     85 21       			sta	__oper1+1
 3200  5DA1     20 CA DA    			jsr	__store_int_funct_arg
 3201                     			.f_call	_SysMemcpy
 3202  5DA4     20 01 E9    			jsr	_SysMemcpy
 3203  5DA7     08          			php
 3204  5DA8     78          			sei
 3205  5DA9     18          			clc
 3206  5DAA     A5 28       			lda	__stack_ptr
 3207  5DAC     69 06       			adc	#.low.6
 3208  5DAE     85 28       			sta	__stack_ptr
 3209  5DB0     A5 29       			lda	__stack_ptr+1
 3210  5DB2     69 00       			adc	#.high.6
 3211  5DB4     85 29       			sta	__stack_ptr+1
 3212  5DB6     28          			plp
 3213                     			.c_end	02bbah,199
 3214                     	;break;
 3215                     	;		
 3216                     			.sw_break
 3217  5DB7     4C CC 72    			jmp	?BOL0
 3218                     	;case 403:		
 3219         3824 5DBA   	?SWL60:		.equal	$
 3220                     	;SysMemcpy(chars,"{得到<幸运十字架> ",20)
 3221                     			.c_start  02bd0h,200
 3222                     			.const_data_psfar2
 3223  7ABA     7B B5 C3 B5 BD 	?PLC61:		.byte	"{得到<幸运十字架> ",0
              3C D0 D2 D4 CB 
              CA AE D7 D6 BC 
              DC 3E 20 00 
 3224                     			.program_psfar2
 3225  5DBA     A9 14       			lda	#.low.20
 3226  5DBC     85 20       			sta	__oper1
  Tue Jan 13 23:03:19 2026                                                                                               Page   61




 3227  5DBE     A9 00       			lda	#.high.20
 3228  5DC0     85 21       			sta	__oper1+1
 3229  5DC2     20 CA DA    			jsr	__store_int_funct_arg
 3230  5DC5     A9 BA       			lda	#.low.?PLC61
 3231  5DC7     85 20       			sta	__oper1
 3232  5DC9     A9 7A       			lda	#.high.?PLC61
 3233  5DCB     85 21       			sta	__oper1+1
 3234  5DCD     20 CA DA    			jsr	__store_int_funct_arg
 3235  5DD0     A0 06       			ldy	#+2+?LSC0+?TSC0+4
 3236  5DD2     B1 28       			lda	(__stack_ptr),y
 3237  5DD4     85 20       			sta	__oper1
 3238  5DD6     C8          			iny
 3239  5DD7     B1 28       			lda	(__stack_ptr),y
 3240  5DD9     85 21       			sta	__oper1+1
 3241  5DDB     20 CA DA    			jsr	__store_int_funct_arg
 3242                     			.f_call	_SysMemcpy
 3243  5DDE     20 01 E9    			jsr	_SysMemcpy
 3244  5DE1     08          			php
 3245  5DE2     78          			sei
 3246  5DE3     18          			clc
 3247  5DE4     A5 28       			lda	__stack_ptr
 3248  5DE6     69 06       			adc	#.low.6
 3249  5DE8     85 28       			sta	__stack_ptr
 3250  5DEA     A5 29       			lda	__stack_ptr+1
 3251  5DEC     69 00       			adc	#.high.6
 3252  5DEE     85 29       			sta	__stack_ptr+1
 3253  5DF0     28          			plp
 3254                     			.c_end	02bf8h,200
 3255                     	;break;
 3256                     	;		
 3257                     			.sw_break
 3258  5DF1     4C CC 72    			jmp	?BOL0
 3259                     	;case 404:		
 3260         3228 5DF4   	?SWL61:		.equal	$
 3261                     	;SysMemcpy(chars,"把它交给仙女，可以",20)
 3262                     			.c_start  02c0eh,201
 3263                     			.const_data_psfar2
 3264  7ACD     B0 D1 CB FC BD 	?PLC62:		.byte	"把它交给仙女，可以",0
              BB B8 F8 CF C9 
              C5 AE A3 AC BF 
              C9 D2 D4 00 
 3265                     			.program_psfar2
 3266  5DF4     A9 14       			lda	#.low.20
 3267  5DF6     85 20       			sta	__oper1
 3268  5DF8     A9 00       			lda	#.high.20
 3269  5DFA     85 21       			sta	__oper1+1
 3270  5DFC     20 CA DA    			jsr	__store_int_funct_arg
 3271  5DFF     A9 CD       			lda	#.low.?PLC62
 3272  5E01     85 20       			sta	__oper1
 3273  5E03     A9 7A       			lda	#.high.?PLC62
 3274  5E05     85 21       			sta	__oper1+1
 3275  5E07     20 CA DA    			jsr	__store_int_funct_arg
 3276  5E0A     A0 06       			ldy	#+2+?LSC0+?TSC0+4
 3277  5E0C     B1 28       			lda	(__stack_ptr),y
 3278  5E0E     85 20       			sta	__oper1
 3279  5E10     C8          			iny
 3280  5E11     B1 28       			lda	(__stack_ptr),y
  Tue Jan 13 23:03:19 2026                                                                                               Page   62




 3281  5E13     85 21       			sta	__oper1+1
 3282  5E15     20 CA DA    			jsr	__store_int_funct_arg
 3283                     			.f_call	_SysMemcpy
 3284  5E18     20 01 E9    			jsr	_SysMemcpy
 3285  5E1B     08          			php
 3286  5E1C     78          			sei
 3287  5E1D     18          			clc
 3288  5E1E     A5 28       			lda	__stack_ptr
 3289  5E20     69 06       			adc	#.low.6
 3290  5E22     85 28       			sta	__stack_ptr
 3291  5E24     A5 29       			lda	__stack_ptr+1
 3292  5E26     69 00       			adc	#.high.6
 3293  5E28     85 29       			sta	__stack_ptr+1
 3294  5E2A     28          			plp
 3295                     			.c_end	02c36h,201
 3296                     	;break;
 3297                     	;		
 3298                     			.sw_break
 3299  5E2B     4C CC 72    			jmp	?BOL0
 3300                     	;case 405:		
 3301         4314 5E2E   	?SWL62:		.equal	$
 3302                     	;SysMemcpy(chars,"将自身的所有能力提",20)
 3303                     			.c_start  02c4ch,202
 3304                     			.const_data_psfar2
 3305  7AE0     BD AB D7 D4 C9 	?PLC63:		.byte	"将自身的所有能力提",0
              ED B5 C4 CB F9 
              D3 D0 C4 DC C1 
              A6 CC E1 00 
 3306                     			.program_psfar2
 3307  5E2E     A9 14       			lda	#.low.20
 3308  5E30     85 20       			sta	__oper1
 3309  5E32     A9 00       			lda	#.high.20
 3310  5E34     85 21       			sta	__oper1+1
 3311  5E36     20 CA DA    			jsr	__store_int_funct_arg
 3312  5E39     A9 E0       			lda	#.low.?PLC63
 3313  5E3B     85 20       			sta	__oper1
 3314  5E3D     A9 7A       			lda	#.high.?PLC63
 3315  5E3F     85 21       			sta	__oper1+1
 3316  5E41     20 CA DA    			jsr	__store_int_funct_arg
 3317  5E44     A0 06       			ldy	#+2+?LSC0+?TSC0+4
 3318  5E46     B1 28       			lda	(__stack_ptr),y
 3319  5E48     85 20       			sta	__oper1
 3320  5E4A     C8          			iny
 3321  5E4B     B1 28       			lda	(__stack_ptr),y
 3322  5E4D     85 21       			sta	__oper1+1
 3323  5E4F     20 CA DA    			jsr	__store_int_funct_arg
 3324                     			.f_call	_SysMemcpy
 3325  5E52     20 01 E9    			jsr	_SysMemcpy
 3326  5E55     08          			php
 3327  5E56     78          			sei
 3328  5E57     18          			clc
 3329  5E58     A5 28       			lda	__stack_ptr
 3330  5E5A     69 06       			adc	#.low.6
 3331  5E5C     85 28       			sta	__stack_ptr
 3332  5E5E     A5 29       			lda	__stack_ptr+1
 3333  5E60     69 00       			adc	#.high.6
 3334  5E62     85 29       			sta	__stack_ptr+1
  Tue Jan 13 23:03:19 2026                                                                                               Page   63




 3335  5E64     28          			plp
 3336                     			.c_end	02c74h,202
 3337                     	;break;
 3338                     	;		
 3339                     			.sw_break
 3340  5E65     4C CC 72    			jmp	?BOL0
 3341                     	;case 406:		
 3342         3618 5E68   	?SWL63:		.equal	$
 3343                     	;SysMemcpy(chars,"升一些，包括攻击、",20)
 3344                     			.c_start  02c8ah,203
 3345                     			.const_data_psfar2
 3346  7AF3     C9 FD D2 BB D0 	?PLC64:		.byte	"升一些，包括攻击、",0
              A9 A3 AC B0 FC 
              C0 A8 B9 A5 BB 
              F7 A1 A2 00 
 3347                     			.program_psfar2
 3348  5E68     A9 14       			lda	#.low.20
 3349  5E6A     85 20       			sta	__oper1
 3350  5E6C     A9 00       			lda	#.high.20
 3351  5E6E     85 21       			sta	__oper1+1
 3352  5E70     20 CA DA    			jsr	__store_int_funct_arg
 3353  5E73     A9 F3       			lda	#.low.?PLC64
 3354  5E75     85 20       			sta	__oper1
 3355  5E77     A9 7A       			lda	#.high.?PLC64
 3356  5E79     85 21       			sta	__oper1+1
 3357  5E7B     20 CA DA    			jsr	__store_int_funct_arg
 3358  5E7E     A0 06       			ldy	#+2+?LSC0+?TSC0+4
 3359  5E80     B1 28       			lda	(__stack_ptr),y
 3360  5E82     85 20       			sta	__oper1
 3361  5E84     C8          			iny
 3362  5E85     B1 28       			lda	(__stack_ptr),y
 3363  5E87     85 21       			sta	__oper1+1
 3364  5E89     20 CA DA    			jsr	__store_int_funct_arg
 3365                     			.f_call	_SysMemcpy
 3366  5E8C     20 01 E9    			jsr	_SysMemcpy
 3367  5E8F     08          			php
 3368  5E90     78          			sei
 3369  5E91     18          			clc
 3370  5E92     A5 28       			lda	__stack_ptr
 3371  5E94     69 06       			adc	#.low.6
 3372  5E96     85 28       			sta	__stack_ptr
 3373  5E98     A5 29       			lda	__stack_ptr+1
 3374  5E9A     69 00       			adc	#.high.6
 3375  5E9C     85 29       			sta	__stack_ptr+1
 3376  5E9E     28          			plp
 3377                     			.c_end	02cb2h,203
 3378                     	;break;
 3379                     	;		
 3380                     			.sw_break
 3381  5E9F     4C CC 72    			jmp	?BOL0
 3382                     	;case 407:		
 3383         471B 5EA2   	?SWL64:		.equal	$
 3384                     	;SysMemcpy(chars,"防御和生命。}     ",20)
 3385                     			.c_start  02cc8h,204
 3386                     			.const_data_psfar2
 3387  7B06     B7 C0 D3 F9 BA 	?PLC65:		.byte	"防御和生命。}     ",0
              CD C9 FA C3 FC 
  Tue Jan 13 23:03:19 2026                                                                                               Page   64




              A1 A3 7D 20 20 
              20 20 20 00 
 3388                     			.program_psfar2
 3389  5EA2     A9 14       			lda	#.low.20
 3390  5EA4     85 20       			sta	__oper1
 3391  5EA6     A9 00       			lda	#.high.20
 3392  5EA8     85 21       			sta	__oper1+1
 3393  5EAA     20 CA DA    			jsr	__store_int_funct_arg
 3394  5EAD     A9 06       			lda	#.low.?PLC65
 3395  5EAF     85 20       			sta	__oper1
 3396  5EB1     A9 7B       			lda	#.high.?PLC65
 3397  5EB3     85 21       			sta	__oper1+1
 3398  5EB5     20 CA DA    			jsr	__store_int_funct_arg
 3399  5EB8     A0 06       			ldy	#+2+?LSC0+?TSC0+4
 3400  5EBA     B1 28       			lda	(__stack_ptr),y
 3401  5EBC     85 20       			sta	__oper1
 3402  5EBE     C8          			iny
 3403  5EBF     B1 28       			lda	(__stack_ptr),y
 3404  5EC1     85 21       			sta	__oper1+1
 3405  5EC3     20 CA DA    			jsr	__store_int_funct_arg
 3406                     			.f_call	_SysMemcpy
 3407  5EC6     20 01 E9    			jsr	_SysMemcpy
 3408  5EC9     08          			php
 3409  5ECA     78          			sei
 3410  5ECB     18          			clc
 3411  5ECC     A5 28       			lda	__stack_ptr
 3412  5ECE     69 06       			adc	#.low.6
 3413  5ED0     85 28       			sta	__stack_ptr
 3414  5ED2     A5 29       			lda	__stack_ptr+1
 3415  5ED4     69 00       			adc	#.high.6
 3416  5ED6     85 29       			sta	__stack_ptr+1
 3417  5ED8     28          			plp
 3418                     			.c_end	02cf0h,204
 3419                     	;break;
 3420                     	;		
 3421                     			.sw_break
 3422  5ED9     4C CC 72    			jmp	?BOL0
 3423                     	;case 408:		
 3424         3A26 5EDC   	?SWL65:		.equal	$
 3425                     	;SysMemcpy(chars,"{得到<钢剑>： 攻击",20)
 3426                     			.c_start  02d06h,205
 3427                     			.const_data_psfar2
 3428  7B19     7B B5 C3 B5 BD 	?PLC66:		.byte	"{得到<钢剑>： 攻击",0
              3C B8 D6 BD A3 
              3E A3 BA 20 B9 
              A5 BB F7 00 
 3429                     			.program_psfar2
 3430  5EDC     A9 14       			lda	#.low.20
 3431  5EDE     85 20       			sta	__oper1
 3432  5EE0     A9 00       			lda	#.high.20
 3433  5EE2     85 21       			sta	__oper1+1
 3434  5EE4     20 CA DA    			jsr	__store_int_funct_arg
 3435  5EE7     A9 19       			lda	#.low.?PLC66
 3436  5EE9     85 20       			sta	__oper1
 3437  5EEB     A9 7B       			lda	#.high.?PLC66
 3438  5EED     85 21       			sta	__oper1+1
 3439  5EEF     20 CA DA    			jsr	__store_int_funct_arg
  Tue Jan 13 23:03:19 2026                                                                                               Page   65




 3440  5EF2     A0 06       			ldy	#+2+?LSC0+?TSC0+4
 3441  5EF4     B1 28       			lda	(__stack_ptr),y
 3442  5EF6     85 20       			sta	__oper1
 3443  5EF8     C8          			iny
 3444  5EF9     B1 28       			lda	(__stack_ptr),y
 3445  5EFB     85 21       			sta	__oper1+1
 3446  5EFD     20 CA DA    			jsr	__store_int_funct_arg
 3447                     			.f_call	_SysMemcpy
 3448  5F00     20 01 E9    			jsr	_SysMemcpy
 3449  5F03     08          			php
 3450  5F04     78          			sei
 3451  5F05     18          			clc
 3452  5F06     A5 28       			lda	__stack_ptr
 3453  5F08     69 06       			adc	#.low.6
 3454  5F0A     85 28       			sta	__stack_ptr
 3455  5F0C     A5 29       			lda	__stack_ptr+1
 3456  5F0E     69 00       			adc	#.high.6
 3457  5F10     85 29       			sta	__stack_ptr+1
 3458  5F12     28          			plp
 3459                     			.c_end	02d2eh,205
 3460                     	;break;
 3461                     	;		
 3462                     			.sw_break
 3463  5F13     4C CC 72    			jmp	?BOL0
 3464                     	;case 409:		
 3465         3413 5F16   	?SWL66:		.equal	$
 3466                     	;SysMemcpy(chars,"+ 50}             ",20)
 3467                     			.c_start  02d44h,206
 3468                     			.const_data_psfar2
 3469  7B2C     2B 20 35 30 7D 	?PLC67:		.byte	"+ 50}             ",0
              20 20 20 20 20 
              20 20 20 20 20 
              20 20 20 00 
 3470                     			.program_psfar2
 3471  5F16     A9 14       			lda	#.low.20
 3472  5F18     85 20       			sta	__oper1
 3473  5F1A     A9 00       			lda	#.high.20
 3474  5F1C     85 21       			sta	__oper1+1
 3475  5F1E     20 CA DA    			jsr	__store_int_funct_arg
 3476  5F21     A9 2C       			lda	#.low.?PLC67
 3477  5F23     85 20       			sta	__oper1
 3478  5F25     A9 7B       			lda	#.high.?PLC67
 3479  5F27     85 21       			sta	__oper1+1
 3480  5F29     20 CA DA    			jsr	__store_int_funct_arg
 3481  5F2C     A0 06       			ldy	#+2+?LSC0+?TSC0+4
 3482  5F2E     B1 28       			lda	(__stack_ptr),y
 3483  5F30     85 20       			sta	__oper1
 3484  5F32     C8          			iny
 3485  5F33     B1 28       			lda	(__stack_ptr),y
 3486  5F35     85 21       			sta	__oper1+1
 3487  5F37     20 CA DA    			jsr	__store_int_funct_arg
 3488                     			.f_call	_SysMemcpy
 3489  5F3A     20 01 E9    			jsr	_SysMemcpy
 3490  5F3D     08          			php
 3491  5F3E     78          			sei
 3492  5F3F     18          			clc
 3493  5F40     A5 28       			lda	__stack_ptr
  Tue Jan 13 23:03:19 2026                                                                                               Page   66




 3494  5F42     69 06       			adc	#.low.6
 3495  5F44     85 28       			sta	__stack_ptr
 3496  5F46     A5 29       			lda	__stack_ptr+1
 3497  5F48     69 00       			adc	#.high.6
 3498  5F4A     85 29       			sta	__stack_ptr+1
 3499  5F4C     28          			plp
 3500                     			.c_end	02d6ch,206
 3501                     	;break;
 3502                     	;		
 3503                     			.sw_break
 3504  5F4D     4C CC 72    			jmp	?BOL0
 3505                     	;case 410:		
 3506         4516 5F50   	?SWL67:		.equal	$
 3507                     	;SysMemcpy(chars,"{得到<钢盾>： 防御",20)
 3508                     			.c_start  02d82h,207
 3509                     			.const_data_psfar2
 3510  7B3F     7B B5 C3 B5 BD 	?PLC68:		.byte	"{得到<钢盾>： 防御",0
              3C B8 D6 B6 DC 
              3E A3 BA 20 B7 
              C0 D3 F9 00 
 3511                     			.program_psfar2
 3512  5F50     A9 14       			lda	#.low.20
 3513  5F52     85 20       			sta	__oper1
 3514  5F54     A9 00       			lda	#.high.20
 3515  5F56     85 21       			sta	__oper1+1
 3516  5F58     20 CA DA    			jsr	__store_int_funct_arg
 3517  5F5B     A9 3F       			lda	#.low.?PLC68
 3518  5F5D     85 20       			sta	__oper1
 3519  5F5F     A9 7B       			lda	#.high.?PLC68
 3520  5F61     85 21       			sta	__oper1+1
 3521  5F63     20 CA DA    			jsr	__store_int_funct_arg
 3522  5F66     A0 06       			ldy	#+2+?LSC0+?TSC0+4
 3523  5F68     B1 28       			lda	(__stack_ptr),y
 3524  5F6A     85 20       			sta	__oper1
 3525  5F6C     C8          			iny
 3526  5F6D     B1 28       			lda	(__stack_ptr),y
 3527  5F6F     85 21       			sta	__oper1+1
 3528  5F71     20 CA DA    			jsr	__store_int_funct_arg
 3529                     			.f_call	_SysMemcpy
 3530  5F74     20 01 E9    			jsr	_SysMemcpy
 3531  5F77     08          			php
 3532  5F78     78          			sei
 3533  5F79     18          			clc
 3534  5F7A     A5 28       			lda	__stack_ptr
 3535  5F7C     69 06       			adc	#.low.6
 3536  5F7E     85 28       			sta	__stack_ptr
 3537  5F80     A5 29       			lda	__stack_ptr+1
 3538  5F82     69 00       			adc	#.high.6
 3539  5F84     85 29       			sta	__stack_ptr+1
 3540  5F86     28          			plp
 3541                     			.c_end	02daah,207
 3542                     	;break;
 3543                     	;		
 3544                     			.sw_break
 3545  5F87     4C CC 72    			jmp	?BOL0
 3546                     	;case 411:		
 3547         381A 5F8A   	?SWL68:		.equal	$
  Tue Jan 13 23:03:19 2026                                                                                               Page   67




 3548                     	;SysMemcpy(chars,"+ 30}             ",20)
 3549                     			.c_start  02dc0h,208
 3550                     			.const_data_psfar2
 3551  7B52     2B 20 33 30 7D 	?PLC69:		.byte	"+ 30}             ",0
              20 20 20 20 20 
              20 20 20 20 20 
              20 20 20 00 
 3552                     			.program_psfar2
 3553  5F8A     A9 14       			lda	#.low.20
 3554  5F8C     85 20       			sta	__oper1
 3555  5F8E     A9 00       			lda	#.high.20
 3556  5F90     85 21       			sta	__oper1+1
 3557  5F92     20 CA DA    			jsr	__store_int_funct_arg
 3558  5F95     A9 52       			lda	#.low.?PLC69
 3559  5F97     85 20       			sta	__oper1
 3560  5F99     A9 7B       			lda	#.high.?PLC69
 3561  5F9B     85 21       			sta	__oper1+1
 3562  5F9D     20 CA DA    			jsr	__store_int_funct_arg
 3563  5FA0     A0 06       			ldy	#+2+?LSC0+?TSC0+4
 3564  5FA2     B1 28       			lda	(__stack_ptr),y
 3565  5FA4     85 20       			sta	__oper1
 3566  5FA6     C8          			iny
 3567  5FA7     B1 28       			lda	(__stack_ptr),y
 3568  5FA9     85 21       			sta	__oper1+1
 3569  5FAB     20 CA DA    			jsr	__store_int_funct_arg
 3570                     			.f_call	_SysMemcpy
 3571  5FAE     20 01 E9    			jsr	_SysMemcpy
 3572  5FB1     08          			php
 3573  5FB2     78          			sei
 3574  5FB3     18          			clc
 3575  5FB4     A5 28       			lda	__stack_ptr
 3576  5FB6     69 06       			adc	#.low.6
 3577  5FB8     85 28       			sta	__stack_ptr
 3578  5FBA     A5 29       			lda	__stack_ptr+1
 3579  5FBC     69 00       			adc	#.high.6
 3580  5FBE     85 29       			sta	__stack_ptr+1
 3581  5FC0     28          			plp
 3582                     			.c_end	02de8h,208
 3583                     	;break;
 3584                     	;		
 3585                     			.sw_break
 3586  5FC1     4C CC 72    			jmp	?BOL0
 3587                     	;case 412:		
 3588         3225 5FC4   	?SWL69:		.equal	$
 3589                     	;SysMemcpy(chars,"{得到<星光神榔>： ",20)
 3590                     			.c_start  02dfeh,209
 3591                     			.const_data_psfar2
 3592  7B65     7B B5 C3 B5 BD 	?PLC70:		.byte	"{得到<星光神榔>： ",0
              3C D0 C7 B9 E2 
              C9 F1 C0 C6 3E 
              A3 BA 20 00 
 3593                     			.program_psfar2
 3594  5FC4     A9 14       			lda	#.low.20
 3595  5FC6     85 20       			sta	__oper1
 3596  5FC8     A9 00       			lda	#.high.20
 3597  5FCA     85 21       			sta	__oper1+1
 3598  5FCC     20 CA DA    			jsr	__store_int_funct_arg
  Tue Jan 13 23:03:19 2026                                                                                               Page   68




 3599  5FCF     A9 65       			lda	#.low.?PLC70
 3600  5FD1     85 20       			sta	__oper1
 3601  5FD3     A9 7B       			lda	#.high.?PLC70
 3602  5FD5     85 21       			sta	__oper1+1
 3603  5FD7     20 CA DA    			jsr	__store_int_funct_arg
 3604  5FDA     A0 06       			ldy	#+2+?LSC0+?TSC0+4
 3605  5FDC     B1 28       			lda	(__stack_ptr),y
 3606  5FDE     85 20       			sta	__oper1
 3607  5FE0     C8          			iny
 3608  5FE1     B1 28       			lda	(__stack_ptr),y
 3609  5FE3     85 21       			sta	__oper1+1
 3610  5FE5     20 CA DA    			jsr	__store_int_funct_arg
 3611                     			.f_call	_SysMemcpy
 3612  5FE8     20 01 E9    			jsr	_SysMemcpy
 3613  5FEB     08          			php
 3614  5FEC     78          			sei
 3615  5FED     18          			clc
 3616  5FEE     A5 28       			lda	__stack_ptr
 3617  5FF0     69 06       			adc	#.low.6
 3618  5FF2     85 28       			sta	__stack_ptr
 3619  5FF4     A5 29       			lda	__stack_ptr+1
 3620  5FF6     69 00       			adc	#.high.6
 3621  5FF8     85 29       			sta	__stack_ptr+1
 3622  5FFA     28          			plp
 3623                     			.c_end	02e26h,209
 3624                     	;break;
 3625                     	;		
 3626                     			.sw_break
 3627  5FFB     4C CC 72    			jmp	?BOL0
 3628                     	;case 413:		
 3629         4328 5FFE   	?SWL70:		.equal	$
 3630                     	;SysMemcpy(chars,"把它交给第四层的杰",20)
 3631                     			.c_start  02e3ch,210
 3632                     			.const_data_psfar2
 3633  7B78     B0 D1 CB FC BD 	?PLC71:		.byte	"把它交给第四层的杰",0
              BB B8 F8 B5 DA 
              CB C4 B2 E3 B5 
              C4 BD DC 00 
 3634                     			.program_psfar2
 3635  5FFE     A9 14       			lda	#.low.20
 3636  6000     85 20       			sta	__oper1
 3637  6002     A9 00       			lda	#.high.20
 3638  6004     85 21       			sta	__oper1+1
 3639  6006     20 CA DA    			jsr	__store_int_funct_arg
 3640  6009     A9 78       			lda	#.low.?PLC71
 3641  600B     85 20       			sta	__oper1
 3642  600D     A9 7B       			lda	#.high.?PLC71
 3643  600F     85 21       			sta	__oper1+1
 3644  6011     20 CA DA    			jsr	__store_int_funct_arg
 3645  6014     A0 06       			ldy	#+2+?LSC0+?TSC0+4
 3646  6016     B1 28       			lda	(__stack_ptr),y
 3647  6018     85 20       			sta	__oper1
 3648  601A     C8          			iny
 3649  601B     B1 28       			lda	(__stack_ptr),y
 3650  601D     85 21       			sta	__oper1+1
 3651  601F     20 CA DA    			jsr	__store_int_funct_arg
 3652                     			.f_call	_SysMemcpy
  Tue Jan 13 23:03:19 2026                                                                                               Page   69




 3653  6022     20 01 E9    			jsr	_SysMemcpy
 3654  6025     08          			php
 3655  6026     78          			sei
 3656  6027     18          			clc
 3657  6028     A5 28       			lda	__stack_ptr
 3658  602A     69 06       			adc	#.low.6
 3659  602C     85 28       			sta	__stack_ptr
 3660  602E     A5 29       			lda	__stack_ptr+1
 3661  6030     69 00       			adc	#.high.6
 3662  6032     85 29       			sta	__stack_ptr+1
 3663  6034     28          			plp
 3664                     			.c_end	02e64h,210
 3665                     	;break;
 3666                     	;		
 3667                     			.sw_break
 3668  6035     4C CC 72    			jmp	?BOL0
 3669                     	;case 414:		
 3670         3615 6038   	?SWL71:		.equal	$
 3671                     	;SysMemcpy(chars,"克，杰克会用它打开",20)
 3672                     			.c_start  02e7ah,211
 3673                     			.const_data_psfar2
 3674  7B8B     BF CB A3 AC BD 	?PLC72:		.byte	"克，杰克会用它打开",0
              DC BF CB BB E1 
              D3 C3 CB FC B4 
              F2 BF AA 00 
 3675                     			.program_psfar2
 3676  6038     A9 14       			lda	#.low.20
 3677  603A     85 20       			sta	__oper1
 3678  603C     A9 00       			lda	#.high.20
 3679  603E     85 21       			sta	__oper1+1
 3680  6040     20 CA DA    			jsr	__store_int_funct_arg
 3681  6043     A9 8B       			lda	#.low.?PLC72
 3682  6045     85 20       			sta	__oper1
 3683  6047     A9 7B       			lda	#.high.?PLC72
 3684  6049     85 21       			sta	__oper1+1
 3685  604B     20 CA DA    			jsr	__store_int_funct_arg
 3686  604E     A0 06       			ldy	#+2+?LSC0+?TSC0+4
 3687  6050     B1 28       			lda	(__stack_ptr),y
 3688  6052     85 20       			sta	__oper1
 3689  6054     C8          			iny
 3690  6055     B1 28       			lda	(__stack_ptr),y
 3691  6057     85 21       			sta	__oper1+1
 3692  6059     20 CA DA    			jsr	__store_int_funct_arg
 3693                     			.f_call	_SysMemcpy
 3694  605C     20 01 E9    			jsr	_SysMemcpy
 3695  605F     08          			php
 3696  6060     78          			sei
 3697  6061     18          			clc
 3698  6062     A5 28       			lda	__stack_ptr
 3699  6064     69 06       			adc	#.low.6
 3700  6066     85 28       			sta	__stack_ptr
 3701  6068     A5 29       			lda	__stack_ptr+1
 3702  606A     69 00       			adc	#.high.6
 3703  606C     85 29       			sta	__stack_ptr+1
 3704  606E     28          			plp
 3705                     			.c_end	02ea2h,211
 3706                     	;break;
  Tue Jan 13 23:03:19 2026                                                                                               Page   70




 3707                     	;		
 3708                     			.sw_break
 3709  606F     4C CC 72    			jmp	?BOL0
 3710                     	;case 415:		
 3711         4718 6072   	?SWL72:		.equal	$
 3712                     	;SysMemcpy(chars,"第十八层的隐藏地面",20)
 3713                     			.c_start  02eb8h,212
 3714                     			.const_data_psfar2
 3715  7B9E     B5 DA CA AE B0 	?PLC73:		.byte	"第十八层的隐藏地面",0
              CB B2 E3 B5 C4 
              D2 FE B2 D8 B5 
              D8 C3 E6 00 
 3716                     			.program_psfar2
 3717  6072     A9 14       			lda	#.low.20
 3718  6074     85 20       			sta	__oper1
 3719  6076     A9 00       			lda	#.high.20
 3720  6078     85 21       			sta	__oper1+1
 3721  607A     20 CA DA    			jsr	__store_int_funct_arg
 3722  607D     A9 9E       			lda	#.low.?PLC73
 3723  607F     85 20       			sta	__oper1
 3724  6081     A9 7B       			lda	#.high.?PLC73
 3725  6083     85 21       			sta	__oper1+1
 3726  6085     20 CA DA    			jsr	__store_int_funct_arg
 3727  6088     A0 06       			ldy	#+2+?LSC0+?TSC0+4
 3728  608A     B1 28       			lda	(__stack_ptr),y
 3729  608C     85 20       			sta	__oper1
 3730  608E     C8          			iny
 3731  608F     B1 28       			lda	(__stack_ptr),y
 3732  6091     85 21       			sta	__oper1+1
 3733  6093     20 CA DA    			jsr	__store_int_funct_arg
 3734                     			.f_call	_SysMemcpy
 3735  6096     20 01 E9    			jsr	_SysMemcpy
 3736  6099     08          			php
 3737  609A     78          			sei
 3738  609B     18          			clc
 3739  609C     A5 28       			lda	__stack_ptr
 3740  609E     69 06       			adc	#.low.6
 3741  60A0     85 28       			sta	__stack_ptr
 3742  60A2     A5 29       			lda	__stack_ptr+1
 3743  60A4     69 00       			adc	#.high.6
 3744  60A6     85 29       			sta	__stack_ptr+1
 3745  60A8     28          			plp
 3746                     			.c_end	02ee0h,212
 3747                     	;break;
 3748                     	;		
 3749                     			.sw_break
 3750  60A9     4C CC 72    			jmp	?BOL0
 3751                     	;case 416:		
 3752         3A23 60AC   	?SWL73:		.equal	$
 3753                     	;SysMemcpy(chars,"。}               ",20)
 3754                     			.c_start  02ef6h,213
 3755                     			.const_data_psfar2
 3756  7BB1     A1 A3 7D 20 20 	?PLC74:		.byte	"。}               ",0
              20 20 20 20 20 
              20 20 20 20 20 
              20 20 20 00 
 3757                     			.program_psfar2
  Tue Jan 13 23:03:19 2026                                                                                               Page   71




 3758  60AC     A9 14       			lda	#.low.20
 3759  60AE     85 20       			sta	__oper1
 3760  60B0     A9 00       			lda	#.high.20
 3761  60B2     85 21       			sta	__oper1+1
 3762  60B4     20 CA DA    			jsr	__store_int_funct_arg
 3763  60B7     A9 B1       			lda	#.low.?PLC74
 3764  60B9     85 20       			sta	__oper1
 3765  60BB     A9 7B       			lda	#.high.?PLC74
 3766  60BD     85 21       			sta	__oper1+1
 3767  60BF     20 CA DA    			jsr	__store_int_funct_arg
 3768  60C2     A0 06       			ldy	#+2+?LSC0+?TSC0+4
 3769  60C4     B1 28       			lda	(__stack_ptr),y
 3770  60C6     85 20       			sta	__oper1
 3771  60C8     C8          			iny
 3772  60C9     B1 28       			lda	(__stack_ptr),y
 3773  60CB     85 21       			sta	__oper1+1
 3774  60CD     20 CA DA    			jsr	__store_int_funct_arg
 3775                     			.f_call	_SysMemcpy
 3776  60D0     20 01 E9    			jsr	_SysMemcpy
 3777  60D3     08          			php
 3778  60D4     78          			sei
 3779  60D5     18          			clc
 3780  60D6     A5 28       			lda	__stack_ptr
 3781  60D8     69 06       			adc	#.low.6
 3782  60DA     85 28       			sta	__stack_ptr
 3783  60DC     A5 29       			lda	__stack_ptr+1
 3784  60DE     69 00       			adc	#.high.6
 3785  60E0     85 29       			sta	__stack_ptr+1
 3786  60E2     28          			plp
 3787                     			.c_end	02f1eh,213
 3788                     	;break;
 3789                     	;		
 3790                     			.sw_break
 3791  60E3     4C CC 72    			jmp	?BOL0
 3792                     	;case 417:		
 3793         3427 60E6   	?SWL74:		.equal	$
 3794                     	;SysMemcpy(chars,"{得到<大飞羽>：   ",20)
 3795                     			.c_start  02f34h,214
 3796                     			.const_data_psfar2
 3797  7BC4     7B B5 C3 B5 BD 	?PLC75:		.byte	"{得到<大飞羽>：   ",0
              3C B4 F3 B7 C9 
              D3 F0 3E A3 BA 
              20 20 20 00 
 3798                     			.program_psfar2
 3799  60E6     A9 14       			lda	#.low.20
 3800  60E8     85 20       			sta	__oper1
 3801  60EA     A9 00       			lda	#.high.20
 3802  60EC     85 21       			sta	__oper1+1
 3803  60EE     20 CA DA    			jsr	__store_int_funct_arg
 3804  60F1     A9 C4       			lda	#.low.?PLC75
 3805  60F3     85 20       			sta	__oper1
 3806  60F5     A9 7B       			lda	#.high.?PLC75
 3807  60F7     85 21       			sta	__oper1+1
 3808  60F9     20 CA DA    			jsr	__store_int_funct_arg
 3809  60FC     A0 06       			ldy	#+2+?LSC0+?TSC0+4
 3810  60FE     B1 28       			lda	(__stack_ptr),y
 3811  6100     85 20       			sta	__oper1
  Tue Jan 13 23:03:19 2026                                                                                               Page   72




 3812  6102     C8          			iny
 3813  6103     B1 28       			lda	(__stack_ptr),y
 3814  6105     85 21       			sta	__oper1+1
 3815  6107     20 CA DA    			jsr	__store_int_funct_arg
 3816                     			.f_call	_SysMemcpy
 3817  610A     20 01 E9    			jsr	_SysMemcpy
 3818  610D     08          			php
 3819  610E     78          			sei
 3820  610F     18          			clc
 3821  6110     A5 28       			lda	__stack_ptr
 3822  6112     69 06       			adc	#.low.6
 3823  6114     85 28       			sta	__stack_ptr
 3824  6116     A5 29       			lda	__stack_ptr+1
 3825  6118     69 00       			adc	#.high.6
 3826  611A     85 29       			sta	__stack_ptr+1
 3827  611C     28          			plp
 3828                     			.c_end	02f5ch,214
 3829                     	;break;
 3830                     	;		
 3831                     			.sw_break
 3832  611D     4C CC 72    			jmp	?BOL0
 3833                     	;case 418:		
 3834         4513 6120   	?SWL75:		.equal	$
 3835                     	;SysMemcpy(chars,"等级提升三级。}   ",20)
 3836                     			.c_start  02f72h,215
 3837                     			.const_data_psfar2
 3838  7BD7     B5 C8 BC B6 CC 	?PLC76:		.byte	"等级提升三级。}   ",0
              E1 C9 FD C8 FD 
              BC B6 A1 A3 7D 
              20 20 20 00 
 3839                     			.program_psfar2
 3840  6120     A9 14       			lda	#.low.20
 3841  6122     85 20       			sta	__oper1
 3842  6124     A9 00       			lda	#.high.20
 3843  6126     85 21       			sta	__oper1+1
 3844  6128     20 CA DA    			jsr	__store_int_funct_arg
 3845  612B     A9 D7       			lda	#.low.?PLC76
 3846  612D     85 20       			sta	__oper1
 3847  612F     A9 7B       			lda	#.high.?PLC76
 3848  6131     85 21       			sta	__oper1+1
 3849  6133     20 CA DA    			jsr	__store_int_funct_arg
 3850  6136     A0 06       			ldy	#+2+?LSC0+?TSC0+4
 3851  6138     B1 28       			lda	(__stack_ptr),y
 3852  613A     85 20       			sta	__oper1
 3853  613C     C8          			iny
 3854  613D     B1 28       			lda	(__stack_ptr),y
 3855  613F     85 21       			sta	__oper1+1
 3856  6141     20 CA DA    			jsr	__store_int_funct_arg
 3857                     			.f_call	_SysMemcpy
 3858  6144     20 01 E9    			jsr	_SysMemcpy
 3859  6147     08          			php
 3860  6148     78          			sei
 3861  6149     18          			clc
 3862  614A     A5 28       			lda	__stack_ptr
 3863  614C     69 06       			adc	#.low.6
 3864  614E     85 28       			sta	__stack_ptr
 3865  6150     A5 29       			lda	__stack_ptr+1
  Tue Jan 13 23:03:19 2026                                                                                               Page   73




 3866  6152     69 00       			adc	#.high.6
 3867  6154     85 29       			sta	__stack_ptr+1
 3868  6156     28          			plp
 3869                     			.c_end	02f9ah,215
 3870                     	;break;
 3871                     	;		
 3872                     			.sw_break
 3873  6157     4C CC 72    			jmp	?BOL0
 3874                     	;case 419:		
 3875         3817 615A   	?SWL76:		.equal	$
 3876                     	;SysMemcpy(chars,"{得到<圣水瓶>：   ",20)
 3877                     			.c_start  02fb0h,216
 3878                     			.const_data_psfar2
 3879  7BEA     7B B5 C3 B5 BD 	?PLC77:		.byte	"{得到<圣水瓶>：   ",0
              3C CA A5 CB AE 
              C6 BF 3E A3 BA 
              20 20 20 00 
 3880                     			.program_psfar2
 3881  615A     A9 14       			lda	#.low.20
 3882  615C     85 20       			sta	__oper1
 3883  615E     A9 00       			lda	#.high.20
 3884  6160     85 21       			sta	__oper1+1
 3885  6162     20 CA DA    			jsr	__store_int_funct_arg
 3886  6165     A9 EA       			lda	#.low.?PLC77
 3887  6167     85 20       			sta	__oper1
 3888  6169     A9 7B       			lda	#.high.?PLC77
 3889  616B     85 21       			sta	__oper1+1
 3890  616D     20 CA DA    			jsr	__store_int_funct_arg
 3891  6170     A0 06       			ldy	#+2+?LSC0+?TSC0+4
 3892  6172     B1 28       			lda	(__stack_ptr),y
 3893  6174     85 20       			sta	__oper1
 3894  6176     C8          			iny
 3895  6177     B1 28       			lda	(__stack_ptr),y
 3896  6179     85 21       			sta	__oper1+1
 3897  617B     20 CA DA    			jsr	__store_int_funct_arg
 3898                     			.f_call	_SysMemcpy
 3899  617E     20 01 E9    			jsr	_SysMemcpy
 3900  6181     08          			php
 3901  6182     78          			sei
 3902  6183     18          			clc
 3903  6184     A5 28       			lda	__stack_ptr
 3904  6186     69 06       			adc	#.low.6
 3905  6188     85 28       			sta	__stack_ptr
 3906  618A     A5 29       			lda	__stack_ptr+1
 3907  618C     69 00       			adc	#.high.6
 3908  618E     85 29       			sta	__stack_ptr+1
 3909  6190     28          			plp
 3910                     			.c_end	02fd8h,216
 3911                     	;break;
 3912                     	;		
 3913                     			.sw_break
 3914  6191     4C CC 72    			jmp	?BOL0
 3915                     	;case 420:		
 3916         321B 6194   	?SWL77:		.equal	$
 3917                     	;SysMemcpy(chars,"可以将你的体质增加",20)
 3918                     			.c_start  02feeh,217
 3919                     			.const_data_psfar2
  Tue Jan 13 23:03:19 2026                                                                                               Page   74




 3920  7BFD     BF C9 D2 D4 BD 	?PLC78:		.byte	"可以将你的体质增加",0
              AB C4 E3 B5 C4 
              CC E5 D6 CA D4 
              F6 BC D3 00 
 3921                     			.program_psfar2
 3922  6194     A9 14       			lda	#.low.20
 3923  6196     85 20       			sta	__oper1
 3924  6198     A9 00       			lda	#.high.20
 3925  619A     85 21       			sta	__oper1+1
 3926  619C     20 CA DA    			jsr	__store_int_funct_arg
 3927  619F     A9 FD       			lda	#.low.?PLC78
 3928  61A1     85 20       			sta	__oper1
 3929  61A3     A9 7B       			lda	#.high.?PLC78
 3930  61A5     85 21       			sta	__oper1+1
 3931  61A7     20 CA DA    			jsr	__store_int_funct_arg
 3932  61AA     A0 06       			ldy	#+2+?LSC0+?TSC0+4
 3933  61AC     B1 28       			lda	(__stack_ptr),y
 3934  61AE     85 20       			sta	__oper1
 3935  61B0     C8          			iny
 3936  61B1     B1 28       			lda	(__stack_ptr),y
 3937  61B3     85 21       			sta	__oper1+1
 3938  61B5     20 CA DA    			jsr	__store_int_funct_arg
 3939                     			.f_call	_SysMemcpy
 3940  61B8     20 01 E9    			jsr	_SysMemcpy
 3941  61BB     08          			php
 3942  61BC     78          			sei
 3943  61BD     18          			clc
 3944  61BE     A5 28       			lda	__stack_ptr
 3945  61C0     69 06       			adc	#.low.6
 3946  61C2     85 28       			sta	__stack_ptr
 3947  61C4     A5 29       			lda	__stack_ptr+1
 3948  61C6     69 00       			adc	#.high.6
 3949  61C8     85 29       			sta	__stack_ptr+1
 3950  61CA     28          			plp
 3951                     			.c_end	03016h,217
 3952                     	;break;
 3953                     	;		
 3954                     			.sw_break
 3955  61CB     4C CC 72    			jmp	?BOL0
 3956                     	;case 421:		
 3957         4325 61CE   	?SWL78:		.equal	$
 3958                     	;SysMemcpy(chars,"一倍(生命加倍)。} ",20)
 3959                     			.c_start  0302ch,218
 3960                     			.const_data_psfar2
 3961  7C10     D2 BB B1 B6 28 	?PLC79:		.byte	"一倍(生命加倍)。} ",0
              C9 FA C3 FC BC 
              D3 B1 B6 29 A1 
              A3 7D 20 00 
 3962                     			.program_psfar2
 3963  61CE     A9 14       			lda	#.low.20
 3964  61D0     85 20       			sta	__oper1
 3965  61D2     A9 00       			lda	#.high.20
 3966  61D4     85 21       			sta	__oper1+1
 3967  61D6     20 CA DA    			jsr	__store_int_funct_arg
 3968  61D9     A9 10       			lda	#.low.?PLC79
 3969  61DB     85 20       			sta	__oper1
 3970  61DD     A9 7C       			lda	#.high.?PLC79
  Tue Jan 13 23:03:19 2026                                                                                               Page   75




 3971  61DF     85 21       			sta	__oper1+1
 3972  61E1     20 CA DA    			jsr	__store_int_funct_arg
 3973  61E4     A0 06       			ldy	#+2+?LSC0+?TSC0+4
 3974  61E6     B1 28       			lda	(__stack_ptr),y
 3975  61E8     85 20       			sta	__oper1
 3976  61EA     C8          			iny
 3977  61EB     B1 28       			lda	(__stack_ptr),y
 3978  61ED     85 21       			sta	__oper1+1
 3979  61EF     20 CA DA    			jsr	__store_int_funct_arg
 3980                     			.f_call	_SysMemcpy
 3981  61F2     20 01 E9    			jsr	_SysMemcpy
 3982  61F5     08          			php
 3983  61F6     78          			sei
 3984  61F7     18          			clc
 3985  61F8     A5 28       			lda	__stack_ptr
 3986  61FA     69 06       			adc	#.low.6
 3987  61FC     85 28       			sta	__stack_ptr
 3988  61FE     A5 29       			lda	__stack_ptr+1
 3989  6200     69 00       			adc	#.high.6
 3990  6202     85 29       			sta	__stack_ptr+1
 3991  6204     28          			plp
 3992                     			.c_end	03054h,218
 3993                     	;break;
 3994                     	;		
 3995                     			.sw_break
 3996  6205     4C CC 72    			jmp	?BOL0
 3997                     	;case 422:		
 3998         3612 6208   	?SWL79:		.equal	$
 3999                     	;SysMemcpy(chars,"                  ",20)
 4000                     			.c_start  0306ah,219
 4001                     			.const_data_psfar2
 4002  7C23     20 20 20 20 20 	?PLC80:		.byte	"                  ",0
              20 20 20 20 20 
              20 20 20 20 20 
              20 20 20 00 
 4003                     			.program_psfar2
 4004  6208     A9 14       			lda	#.low.20
 4005  620A     85 20       			sta	__oper1
 4006  620C     A9 00       			lda	#.high.20
 4007  620E     85 21       			sta	__oper1+1
 4008  6210     20 CA DA    			jsr	__store_int_funct_arg
 4009  6213     A9 23       			lda	#.low.?PLC80
 4010  6215     85 20       			sta	__oper1
 4011  6217     A9 7C       			lda	#.high.?PLC80
 4012  6219     85 21       			sta	__oper1+1
 4013  621B     20 CA DA    			jsr	__store_int_funct_arg
 4014  621E     A0 06       			ldy	#+2+?LSC0+?TSC0+4
 4015  6220     B1 28       			lda	(__stack_ptr),y
 4016  6222     85 20       			sta	__oper1
 4017  6224     C8          			iny
 4018  6225     B1 28       			lda	(__stack_ptr),y
 4019  6227     85 21       			sta	__oper1+1
 4020  6229     20 CA DA    			jsr	__store_int_funct_arg
 4021                     			.f_call	_SysMemcpy
 4022  622C     20 01 E9    			jsr	_SysMemcpy
 4023  622F     08          			php
 4024  6230     78          			sei
  Tue Jan 13 23:03:19 2026                                                                                               Page   76




 4025  6231     18          			clc
 4026  6232     A5 28       			lda	__stack_ptr
 4027  6234     69 06       			adc	#.low.6
 4028  6236     85 28       			sta	__stack_ptr
 4029  6238     A5 29       			lda	__stack_ptr+1
 4030  623A     69 00       			adc	#.high.6
 4031  623C     85 29       			sta	__stack_ptr+1
 4032  623E     28          			plp
 4033                     			.c_end	03092h,219
 4034                     	;break;
 4035                     	;		
 4036                     			.sw_break
 4037  623F     4C CC 72    			jmp	?BOL0
 4038                     	;case 423:		
 4039         4715 6242   	?SWL80:		.equal	$
 4040                     	;SysMemcpy(chars,"{得到<圣光剑>：   ",20)
 4041                     			.c_start  030a8h,220
 4042                     			.const_data_psfar2
 4043  7C36     7B B5 C3 B5 BD 	?PLC81:		.byte	"{得到<圣光剑>：   ",0
              3C CA A5 B9 E2 
              BD A3 3E A3 BA 
              20 20 20 00 
 4044                     			.program_psfar2
 4045  6242     A9 14       			lda	#.low.20
 4046  6244     85 20       			sta	__oper1
 4047  6246     A9 00       			lda	#.high.20
 4048  6248     85 21       			sta	__oper1+1
 4049  624A     20 CA DA    			jsr	__store_int_funct_arg
 4050  624D     A9 36       			lda	#.low.?PLC81
 4051  624F     85 20       			sta	__oper1
 4052  6251     A9 7C       			lda	#.high.?PLC81
 4053  6253     85 21       			sta	__oper1+1
 4054  6255     20 CA DA    			jsr	__store_int_funct_arg
 4055  6258     A0 06       			ldy	#+2+?LSC0+?TSC0+4
 4056  625A     B1 28       			lda	(__stack_ptr),y
 4057  625C     85 20       			sta	__oper1
 4058  625E     C8          			iny
 4059  625F     B1 28       			lda	(__stack_ptr),y
 4060  6261     85 21       			sta	__oper1+1
 4061  6263     20 CA DA    			jsr	__store_int_funct_arg
 4062                     			.f_call	_SysMemcpy
 4063  6266     20 01 E9    			jsr	_SysMemcpy
 4064  6269     08          			php
 4065  626A     78          			sei
 4066  626B     18          			clc
 4067  626C     A5 28       			lda	__stack_ptr
 4068  626E     69 06       			adc	#.low.6
 4069  6270     85 28       			sta	__stack_ptr
 4070  6272     A5 29       			lda	__stack_ptr+1
 4071  6274     69 00       			adc	#.high.6
 4072  6276     85 29       			sta	__stack_ptr+1
 4073  6278     28          			plp
 4074                     			.c_end	030d0h,220
 4075                     	;break;
 4076                     	;		
 4077                     			.sw_break
 4078  6279     4C CC 72    			jmp	?BOL0
  Tue Jan 13 23:03:19 2026                                                                                               Page   77




 4079                     	;case 424:		
 4080         3A19 627C   	?SWL81:		.equal	$
 4081                     	;SysMemcpy(chars,"攻击 + 120}       ",20)
 4082                     			.c_start  030e6h,221
 4083                     			.const_data_psfar2
 4084  7C49     B9 A5 BB F7 20 	?PLC82:		.byte	"攻击 + 120}       ",0
              2B 20 31 32 30 
              7D 20 20 20 20 
              20 20 20 00 
 4085                     			.program_psfar2
 4086  627C     A9 14       			lda	#.low.20
 4087  627E     85 20       			sta	__oper1
 4088  6280     A9 00       			lda	#.high.20
 4089  6282     85 21       			sta	__oper1+1
 4090  6284     20 CA DA    			jsr	__store_int_funct_arg
 4091  6287     A9 49       			lda	#.low.?PLC82
 4092  6289     85 20       			sta	__oper1
 4093  628B     A9 7C       			lda	#.high.?PLC82
 4094  628D     85 21       			sta	__oper1+1
 4095  628F     20 CA DA    			jsr	__store_int_funct_arg
 4096  6292     A0 06       			ldy	#+2+?LSC0+?TSC0+4
 4097  6294     B1 28       			lda	(__stack_ptr),y
 4098  6296     85 20       			sta	__oper1
 4099  6298     C8          			iny
 4100  6299     B1 28       			lda	(__stack_ptr),y
 4101  629B     85 21       			sta	__oper1+1
 4102  629D     20 CA DA    			jsr	__store_int_funct_arg
 4103                     			.f_call	_SysMemcpy
 4104  62A0     20 01 E9    			jsr	_SysMemcpy
 4105  62A3     08          			php
 4106  62A4     78          			sei
 4107  62A5     18          			clc
 4108  62A6     A5 28       			lda	__stack_ptr
 4109  62A8     69 06       			adc	#.low.6
 4110  62AA     85 28       			sta	__stack_ptr
 4111  62AC     A5 29       			lda	__stack_ptr+1
 4112  62AE     69 00       			adc	#.high.6
 4113  62B0     85 29       			sta	__stack_ptr+1
 4114  62B2     28          			plp
 4115                     			.c_end	0310eh,221
 4116                     	;break;
 4117                     	;		
 4118                     			.sw_break
 4119  62B3     4C CC 72    			jmp	?BOL0
 4120                     	;case 425:		
 4121         3424 62B6   	?SWL82:		.equal	$
 4122                     	;SysMemcpy(chars,"{得到<圣光盾>：   ",20)
 4123                     			.c_start  03124h,222
 4124                     			.const_data_psfar2
 4125  7C5C     7B B5 C3 B5 BD 	?PLC83:		.byte	"{得到<圣光盾>：   ",0
              3C CA A5 B9 E2 
              B6 DC 3E A3 BA 
              20 20 20 00 
 4126                     			.program_psfar2
 4127  62B6     A9 14       			lda	#.low.20
 4128  62B8     85 20       			sta	__oper1
 4129  62BA     A9 00       			lda	#.high.20
  Tue Jan 13 23:03:19 2026                                                                                               Page   78




 4130  62BC     85 21       			sta	__oper1+1
 4131  62BE     20 CA DA    			jsr	__store_int_funct_arg
 4132  62C1     A9 5C       			lda	#.low.?PLC83
 4133  62C3     85 20       			sta	__oper1
 4134  62C5     A9 7C       			lda	#.high.?PLC83
 4135  62C7     85 21       			sta	__oper1+1
 4136  62C9     20 CA DA    			jsr	__store_int_funct_arg
 4137  62CC     A0 06       			ldy	#+2+?LSC0+?TSC0+4
 4138  62CE     B1 28       			lda	(__stack_ptr),y
 4139  62D0     85 20       			sta	__oper1
 4140  62D2     C8          			iny
 4141  62D3     B1 28       			lda	(__stack_ptr),y
 4142  62D5     85 21       			sta	__oper1+1
 4143  62D7     20 CA DA    			jsr	__store_int_funct_arg
 4144                     			.f_call	_SysMemcpy
 4145  62DA     20 01 E9    			jsr	_SysMemcpy
 4146  62DD     08          			php
 4147  62DE     78          			sei
 4148  62DF     18          			clc
 4149  62E0     A5 28       			lda	__stack_ptr
 4150  62E2     69 06       			adc	#.low.6
 4151  62E4     85 28       			sta	__stack_ptr
 4152  62E6     A5 29       			lda	__stack_ptr+1
 4153  62E8     69 00       			adc	#.high.6
 4154  62EA     85 29       			sta	__stack_ptr+1
 4155  62EC     28          			plp
 4156                     			.c_end	0314ch,222
 4157                     	;break;
 4158                     	;		
 4159                     			.sw_break
 4160  62ED     4C CC 72    			jmp	?BOL0
 4161                     	;case 426:		
 4162         4527 62F0   	?SWL83:		.equal	$
 4163                     	;SysMemcpy(chars,"防御 + 120}       ",20)
 4164                     			.c_start  03162h,223
 4165                     			.const_data_psfar2
 4166  7C6F     B7 C0 D3 F9 20 	?PLC84:		.byte	"防御 + 120}       ",0
              2B 20 31 32 30 
              7D 20 20 20 20 
              20 20 20 00 
 4167                     			.program_psfar2
 4168  62F0     A9 14       			lda	#.low.20
 4169  62F2     85 20       			sta	__oper1
 4170  62F4     A9 00       			lda	#.high.20
 4171  62F6     85 21       			sta	__oper1+1
 4172  62F8     20 CA DA    			jsr	__store_int_funct_arg
 4173  62FB     A9 6F       			lda	#.low.?PLC84
 4174  62FD     85 20       			sta	__oper1
 4175  62FF     A9 7C       			lda	#.high.?PLC84
 4176  6301     85 21       			sta	__oper1+1
 4177  6303     20 CA DA    			jsr	__store_int_funct_arg
 4178  6306     A0 06       			ldy	#+2+?LSC0+?TSC0+4
 4179  6308     B1 28       			lda	(__stack_ptr),y
 4180  630A     85 20       			sta	__oper1
 4181  630C     C8          			iny
 4182  630D     B1 28       			lda	(__stack_ptr),y
 4183  630F     85 21       			sta	__oper1+1
  Tue Jan 13 23:03:19 2026                                                                                               Page   79




 4184  6311     20 CA DA    			jsr	__store_int_funct_arg
 4185                     			.f_call	_SysMemcpy
 4186  6314     20 01 E9    			jsr	_SysMemcpy
 4187  6317     08          			php
 4188  6318     78          			sei
 4189  6319     18          			clc
 4190  631A     A5 28       			lda	__stack_ptr
 4191  631C     69 06       			adc	#.low.6
 4192  631E     85 28       			sta	__stack_ptr
 4193  6320     A5 29       			lda	__stack_ptr+1
 4194  6322     69 00       			adc	#.high.6
 4195  6324     85 29       			sta	__stack_ptr+1
 4196  6326     28          			plp
 4197                     			.c_end	0318ah,223
 4198                     	;break;
 4199                     	;		
 4200                     			.sw_break
 4201  6327     4C CC 72    			jmp	?BOL0
 4202                     	;case 427:		
 4203         3814 632A   	?SWL84:		.equal	$
 4204                     	;SysMemcpy(chars,"{得到<星光神剑>： ",20)
 4205                     			.c_start  031a0h,224
 4206                     			.const_data_psfar2
 4207  7C82     7B B5 C3 B5 BD 	?PLC85:		.byte	"{得到<星光神剑>： ",0
              3C D0 C7 B9 E2 
              C9 F1 BD A3 3E 
              A3 BA 20 00 
 4208                     			.program_psfar2
 4209  632A     A9 14       			lda	#.low.20
 4210  632C     85 20       			sta	__oper1
 4211  632E     A9 00       			lda	#.high.20
 4212  6330     85 21       			sta	__oper1+1
 4213  6332     20 CA DA    			jsr	__store_int_funct_arg
 4214  6335     A9 82       			lda	#.low.?PLC85
 4215  6337     85 20       			sta	__oper1
 4216  6339     A9 7C       			lda	#.high.?PLC85
 4217  633B     85 21       			sta	__oper1+1
 4218  633D     20 CA DA    			jsr	__store_int_funct_arg
 4219  6340     A0 06       			ldy	#+2+?LSC0+?TSC0+4
 4220  6342     B1 28       			lda	(__stack_ptr),y
 4221  6344     85 20       			sta	__oper1
 4222  6346     C8          			iny
 4223  6347     B1 28       			lda	(__stack_ptr),y
 4224  6349     85 21       			sta	__oper1+1
 4225  634B     20 CA DA    			jsr	__store_int_funct_arg
 4226                     			.f_call	_SysMemcpy
 4227  634E     20 01 E9    			jsr	_SysMemcpy
 4228  6351     08          			php
 4229  6352     78          			sei
 4230  6353     18          			clc
 4231  6354     A5 28       			lda	__stack_ptr
 4232  6356     69 06       			adc	#.low.6
 4233  6358     85 28       			sta	__stack_ptr
 4234  635A     A5 29       			lda	__stack_ptr+1
 4235  635C     69 00       			adc	#.high.6
 4236  635E     85 29       			sta	__stack_ptr+1
 4237  6360     28          			plp
  Tue Jan 13 23:03:19 2026                                                                                               Page   80




 4238                     			.c_end	031c8h,224
 4239                     	;break;
 4240                     	;		
 4241                     			.sw_break
 4242  6361     4C CC 72    			jmp	?BOL0
 4243                     	;case 428:		
 4244         3218 6364   	?SWL85:		.equal	$
 4245                     	;SysMemcpy(chars,"攻击 + 150}       ",20)
 4246                     			.c_start  031deh,225
 4247                     			.const_data_psfar2
 4248  7C95     B9 A5 BB F7 20 	?PLC86:		.byte	"攻击 + 150}       ",0
              2B 20 31 35 30 
              7D 20 20 20 20 
              20 20 20 00 
 4249                     			.program_psfar2
 4250  6364     A9 14       			lda	#.low.20
 4251  6366     85 20       			sta	__oper1
 4252  6368     A9 00       			lda	#.high.20
 4253  636A     85 21       			sta	__oper1+1
 4254  636C     20 CA DA    			jsr	__store_int_funct_arg
 4255  636F     A9 95       			lda	#.low.?PLC86
 4256  6371     85 20       			sta	__oper1
 4257  6373     A9 7C       			lda	#.high.?PLC86
 4258  6375     85 21       			sta	__oper1+1
 4259  6377     20 CA DA    			jsr	__store_int_funct_arg
 4260  637A     A0 06       			ldy	#+2+?LSC0+?TSC0+4
 4261  637C     B1 28       			lda	(__stack_ptr),y
 4262  637E     85 20       			sta	__oper1
 4263  6380     C8          			iny
 4264  6381     B1 28       			lda	(__stack_ptr),y
 4265  6383     85 21       			sta	__oper1+1
 4266  6385     20 CA DA    			jsr	__store_int_funct_arg
 4267                     			.f_call	_SysMemcpy
 4268  6388     20 01 E9    			jsr	_SysMemcpy
 4269  638B     08          			php
 4270  638C     78          			sei
 4271  638D     18          			clc
 4272  638E     A5 28       			lda	__stack_ptr
 4273  6390     69 06       			adc	#.low.6
 4274  6392     85 28       			sta	__stack_ptr
 4275  6394     A5 29       			lda	__stack_ptr+1
 4276  6396     69 00       			adc	#.high.6
 4277  6398     85 29       			sta	__stack_ptr+1
 4278  639A     28          			plp
 4279                     			.c_end	03206h,225
 4280                     	;break;
 4281                     	;		
 4282                     			.sw_break
 4283  639B     4C CC 72    			jmp	?BOL0
 4284                     	;case 429:		
 4285         431B 639E   	?SWL86:		.equal	$
 4286                     	;SysMemcpy(chars,"{得到<光芒神盾>： ",20)
 4287                     			.c_start  0321ch,226
 4288                     			.const_data_psfar2
 4289  7CA8     7B B5 C3 B5 BD 	?PLC87:		.byte	"{得到<光芒神盾>： ",0
              3C B9 E2 C3 A2 
              C9 F1 B6 DC 3E 
  Tue Jan 13 23:03:19 2026                                                                                               Page   81




              A3 BA 20 00 
 4290                     			.program_psfar2
 4291  639E     A9 14       			lda	#.low.20
 4292  63A0     85 20       			sta	__oper1
 4293  63A2     A9 00       			lda	#.high.20
 4294  63A4     85 21       			sta	__oper1+1
 4295  63A6     20 CA DA    			jsr	__store_int_funct_arg
 4296  63A9     A9 A8       			lda	#.low.?PLC87
 4297  63AB     85 20       			sta	__oper1
 4298  63AD     A9 7C       			lda	#.high.?PLC87
 4299  63AF     85 21       			sta	__oper1+1
 4300  63B1     20 CA DA    			jsr	__store_int_funct_arg
 4301  63B4     A0 06       			ldy	#+2+?LSC0+?TSC0+4
 4302  63B6     B1 28       			lda	(__stack_ptr),y
 4303  63B8     85 20       			sta	__oper1
 4304  63BA     C8          			iny
 4305  63BB     B1 28       			lda	(__stack_ptr),y
 4306  63BD     85 21       			sta	__oper1+1
 4307  63BF     20 CA DA    			jsr	__store_int_funct_arg
 4308                     			.f_call	_SysMemcpy
 4309  63C2     20 01 E9    			jsr	_SysMemcpy
 4310  63C5     08          			php
 4311  63C6     78          			sei
 4312  63C7     18          			clc
 4313  63C8     A5 28       			lda	__stack_ptr
 4314  63CA     69 06       			adc	#.low.6
 4315  63CC     85 28       			sta	__stack_ptr
 4316  63CE     A5 29       			lda	__stack_ptr+1
 4317  63D0     69 00       			adc	#.high.6
 4318  63D2     85 29       			sta	__stack_ptr+1
 4319  63D4     28          			plp
 4320                     			.c_end	03244h,226
 4321                     	;break;
 4322                     	;		
 4323                     			.sw_break
 4324  63D5     4C CC 72    			jmp	?BOL0
 4325                     	;case 430:		
 4326         3626 63D8   	?SWL87:		.equal	$
 4327                     	;SysMemcpy(chars,"防御 + 190    }   ",20)
 4328                     			.c_start  0325ah,227
 4329                     			.const_data_psfar2
 4330  7CBB     B7 C0 D3 F9 20 	?PLC88:		.byte	"防御 + 190    }   ",0
              2B 20 31 39 30 
              20 20 20 20 7D 
              20 20 20 00 
 4331                     			.program_psfar2
 4332  63D8     A9 14       			lda	#.low.20
 4333  63DA     85 20       			sta	__oper1
 4334  63DC     A9 00       			lda	#.high.20
 4335  63DE     85 21       			sta	__oper1+1
 4336  63E0     20 CA DA    			jsr	__store_int_funct_arg
 4337  63E3     A9 BB       			lda	#.low.?PLC88
 4338  63E5     85 20       			sta	__oper1
 4339  63E7     A9 7C       			lda	#.high.?PLC88
 4340  63E9     85 21       			sta	__oper1+1
 4341  63EB     20 CA DA    			jsr	__store_int_funct_arg
 4342  63EE     A0 06       			ldy	#+2+?LSC0+?TSC0+4
  Tue Jan 13 23:03:19 2026                                                                                               Page   82




 4343  63F0     B1 28       			lda	(__stack_ptr),y
 4344  63F2     85 20       			sta	__oper1
 4345  63F4     C8          			iny
 4346  63F5     B1 28       			lda	(__stack_ptr),y
 4347  63F7     85 21       			sta	__oper1+1
 4348  63F9     20 CA DA    			jsr	__store_int_funct_arg
 4349                     			.f_call	_SysMemcpy
 4350  63FC     20 01 E9    			jsr	_SysMemcpy
 4351  63FF     08          			php
 4352  6400     78          			sei
 4353  6401     18          			clc
 4354  6402     A5 28       			lda	__stack_ptr
 4355  6404     69 06       			adc	#.low.6
 4356  6406     85 28       			sta	__stack_ptr
 4357  6408     A5 29       			lda	__stack_ptr+1
 4358  640A     69 00       			adc	#.high.6
 4359  640C     85 29       			sta	__stack_ptr+1
 4360  640E     28          			plp
 4361                     			.c_end	03282h,227
 4362                     	;break;
 4363                     	;		
 4364                     			.sw_break
 4365  640F     4C CC 72    			jmp	?BOL0
 4366                     	;case 431:		
 4367         4712 6412   	?SWL88:		.equal	$
 4368                     	;SysMemcpy(chars,"{得到<风之罗盘>： ",20)
 4369                     			.c_start  03298h,228
 4370                     			.const_data_psfar2
 4371  7CCE     7B B5 C3 B5 BD 	?PLC89:		.byte	"{得到<风之罗盘>： ",0
              3C B7 E7 D6 AE 
              C2 DE C5 CC 3E 
              A3 BA 20 00 
 4372                     			.program_psfar2
 4373  6412     A9 14       			lda	#.low.20
 4374  6414     85 20       			sta	__oper1
 4375  6416     A9 00       			lda	#.high.20
 4376  6418     85 21       			sta	__oper1+1
 4377  641A     20 CA DA    			jsr	__store_int_funct_arg
 4378  641D     A9 CE       			lda	#.low.?PLC89
 4379  641F     85 20       			sta	__oper1
 4380  6421     A9 7C       			lda	#.high.?PLC89
 4381  6423     85 21       			sta	__oper1+1
 4382  6425     20 CA DA    			jsr	__store_int_funct_arg
 4383  6428     A0 06       			ldy	#+2+?LSC0+?TSC0+4
 4384  642A     B1 28       			lda	(__stack_ptr),y
 4385  642C     85 20       			sta	__oper1
 4386  642E     C8          			iny
 4387  642F     B1 28       			lda	(__stack_ptr),y
 4388  6431     85 21       			sta	__oper1+1
 4389  6433     20 CA DA    			jsr	__store_int_funct_arg
 4390                     			.f_call	_SysMemcpy
 4391  6436     20 01 E9    			jsr	_SysMemcpy
 4392  6439     08          			php
 4393  643A     78          			sei
 4394  643B     18          			clc
 4395  643C     A5 28       			lda	__stack_ptr
 4396  643E     69 06       			adc	#.low.6
  Tue Jan 13 23:03:19 2026                                                                                               Page   83




 4397  6440     85 28       			sta	__stack_ptr
 4398  6442     A5 29       			lda	__stack_ptr+1
 4399  6444     69 00       			adc	#.high.6
 4400  6446     85 29       			sta	__stack_ptr+1
 4401  6448     28          			plp
 4402                     			.c_end	032c0h,228
 4403                     	;break;
 4404                     	;		
 4405                     			.sw_break
 4406  6449     4C CC 72    			jmp	?BOL0
 4407                     	;case 432:		
 4408         3A16 644C   	?SWL89:		.equal	$
 4409                     	;SysMemcpy(chars,"该宝物可以随意在已",20)
 4410                     			.c_start  032d6h,229
 4411                     			.const_data_psfar2
 4412  7CE1     B8 C3 B1 A6 CE 	?PLC90:		.byte	"该宝物可以随意在已",0
              EF BF C9 D2 D4 
              CB E6 D2 E2 D4 
              DA D2 D1 00 
 4413                     			.program_psfar2
 4414  644C     A9 14       			lda	#.low.20
 4415  644E     85 20       			sta	__oper1
 4416  6450     A9 00       			lda	#.high.20
 4417  6452     85 21       			sta	__oper1+1
 4418  6454     20 CA DA    			jsr	__store_int_funct_arg
 4419  6457     A9 E1       			lda	#.low.?PLC90
 4420  6459     85 20       			sta	__oper1
 4421  645B     A9 7C       			lda	#.high.?PLC90
 4422  645D     85 21       			sta	__oper1+1
 4423  645F     20 CA DA    			jsr	__store_int_funct_arg
 4424  6462     A0 06       			ldy	#+2+?LSC0+?TSC0+4
 4425  6464     B1 28       			lda	(__stack_ptr),y
 4426  6466     85 20       			sta	__oper1
 4427  6468     C8          			iny
 4428  6469     B1 28       			lda	(__stack_ptr),y
 4429  646B     85 21       			sta	__oper1+1
 4430  646D     20 CA DA    			jsr	__store_int_funct_arg
 4431                     			.f_call	_SysMemcpy
 4432  6470     20 01 E9    			jsr	_SysMemcpy
 4433  6473     08          			php
 4434  6474     78          			sei
 4435  6475     18          			clc
 4436  6476     A5 28       			lda	__stack_ptr
 4437  6478     69 06       			adc	#.low.6
 4438  647A     85 28       			sta	__stack_ptr
 4439  647C     A5 29       			lda	__stack_ptr+1
 4440  647E     69 00       			adc	#.high.6
 4441  6480     85 29       			sta	__stack_ptr+1
 4442  6482     28          			plp
 4443                     			.c_end	032feh,229
 4444                     	;break;
 4445                     	;		
 4446                     			.sw_break
 4447  6483     4C CC 72    			jmp	?BOL0
 4448                     	;case 433:		
 4449         341A 6486   	?SWL90:		.equal	$
 4450                     	;SysMemcpy(chars,"经走过的楼层间自由",20)
  Tue Jan 13 23:03:19 2026                                                                                               Page   84




 4451                     			.c_start  03314h,230
 4452                     			.const_data_psfar2
 4453  7CF4     BE AD D7 DF B9 	?PLC91:		.byte	"经走过的楼层间自由",0
              FD B5 C4 C2 A5 
              B2 E3 BC E4 D7 
              D4 D3 C9 00 
 4454                     			.program_psfar2
 4455  6486     A9 14       			lda	#.low.20
 4456  6488     85 20       			sta	__oper1
 4457  648A     A9 00       			lda	#.high.20
 4458  648C     85 21       			sta	__oper1+1
 4459  648E     20 CA DA    			jsr	__store_int_funct_arg
 4460  6491     A9 F4       			lda	#.low.?PLC91
 4461  6493     85 20       			sta	__oper1
 4462  6495     A9 7C       			lda	#.high.?PLC91
 4463  6497     85 21       			sta	__oper1+1
 4464  6499     20 CA DA    			jsr	__store_int_funct_arg
 4465  649C     A0 06       			ldy	#+2+?LSC0+?TSC0+4
 4466  649E     B1 28       			lda	(__stack_ptr),y
 4467  64A0     85 20       			sta	__oper1
 4468  64A2     C8          			iny
 4469  64A3     B1 28       			lda	(__stack_ptr),y
 4470  64A5     85 21       			sta	__oper1+1
 4471  64A7     20 CA DA    			jsr	__store_int_funct_arg
 4472                     			.f_call	_SysMemcpy
 4473  64AA     20 01 E9    			jsr	_SysMemcpy
 4474  64AD     08          			php
 4475  64AE     78          			sei
 4476  64AF     18          			clc
 4477  64B0     A5 28       			lda	__stack_ptr
 4478  64B2     69 06       			adc	#.low.6
 4479  64B4     85 28       			sta	__stack_ptr
 4480  64B6     A5 29       			lda	__stack_ptr+1
 4481  64B8     69 00       			adc	#.high.6
 4482  64BA     85 29       			sta	__stack_ptr+1
 4483  64BC     28          			plp
 4484                     			.c_end	0333ch,230
 4485                     	;break;
 4486                     	;		
 4487                     			.sw_break
 4488  64BD     4C CC 72    			jmp	?BOL0
 4489                     	;case 434:		
 4490         4524 64C0   	?SWL91:		.equal	$
 4491                     	;SysMemcpy(chars,"上下，按下键盘上的",20)
 4492                     			.c_start  03352h,231
 4493                     			.const_data_psfar2
 4494  7D07     C9 CF CF C2 A3 	?PLC92:		.byte	"上下，按下键盘上的",0
              AC B0 B4 CF C2 
              BC FC C5 CC C9 
              CF B5 C4 00 
 4495                     			.program_psfar2
 4496  64C0     A9 14       			lda	#.low.20
 4497  64C2     85 20       			sta	__oper1
 4498  64C4     A9 00       			lda	#.high.20
 4499  64C6     85 21       			sta	__oper1+1
 4500  64C8     20 CA DA    			jsr	__store_int_funct_arg
 4501  64CB     A9 07       			lda	#.low.?PLC92
  Tue Jan 13 23:03:19 2026                                                                                               Page   85




 4502  64CD     85 20       			sta	__oper1
 4503  64CF     A9 7D       			lda	#.high.?PLC92
 4504  64D1     85 21       			sta	__oper1+1
 4505  64D3     20 CA DA    			jsr	__store_int_funct_arg
 4506  64D6     A0 06       			ldy	#+2+?LSC0+?TSC0+4
 4507  64D8     B1 28       			lda	(__stack_ptr),y
 4508  64DA     85 20       			sta	__oper1
 4509  64DC     C8          			iny
 4510  64DD     B1 28       			lda	(__stack_ptr),y
 4511  64DF     85 21       			sta	__oper1+1
 4512  64E1     20 CA DA    			jsr	__store_int_funct_arg
 4513                     			.f_call	_SysMemcpy
 4514  64E4     20 01 E9    			jsr	_SysMemcpy
 4515  64E7     08          			php
 4516  64E8     78          			sei
 4517  64E9     18          			clc
 4518  64EA     A5 28       			lda	__stack_ptr
 4519  64EC     69 06       			adc	#.low.6
 4520  64EE     85 28       			sta	__stack_ptr
 4521  64F0     A5 29       			lda	__stack_ptr+1
 4522  64F2     69 00       			adc	#.high.6
 4523  64F4     85 29       			sta	__stack_ptr+1
 4524  64F6     28          			plp
 4525                     			.c_end	0337ah,231
 4526                     	;break;
 4527                     	;		
 4528                     			.sw_break
 4529  64F7     4C CC 72    			jmp	?BOL0
 4530                     	;case 435:		
 4531         3828 64FA   	?SWL92:		.equal	$
 4532                     	;SysMemcpy(chars,"[输入]就可以使用  ",20)
 4533                     			.c_start  03390h,232
 4534                     			.const_data_psfar2
 4535  7D1A     5B CA E4 C8 EB 	?PLC93:		.byte	"[输入]就可以使用  ",0
              5D BE CD BF C9 
              D2 D4 CA B9 D3 
              C3 20 20 00 
 4536                     			.program_psfar2
 4537  64FA     A9 14       			lda	#.low.20
 4538  64FC     85 20       			sta	__oper1
 4539  64FE     A9 00       			lda	#.high.20
 4540  6500     85 21       			sta	__oper1+1
 4541  6502     20 CA DA    			jsr	__store_int_funct_arg
 4542  6505     A9 1A       			lda	#.low.?PLC93
 4543  6507     85 20       			sta	__oper1
 4544  6509     A9 7D       			lda	#.high.?PLC93
 4545  650B     85 21       			sta	__oper1+1
 4546  650D     20 CA DA    			jsr	__store_int_funct_arg
 4547  6510     A0 06       			ldy	#+2+?LSC0+?TSC0+4
 4548  6512     B1 28       			lda	(__stack_ptr),y
 4549  6514     85 20       			sta	__oper1
 4550  6516     C8          			iny
 4551  6517     B1 28       			lda	(__stack_ptr),y
 4552  6519     85 21       			sta	__oper1+1
 4553  651B     20 CA DA    			jsr	__store_int_funct_arg
 4554                     			.f_call	_SysMemcpy
 4555  651E     20 01 E9    			jsr	_SysMemcpy
  Tue Jan 13 23:03:19 2026                                                                                               Page   86




 4556  6521     08          			php
 4557  6522     78          			sei
 4558  6523     18          			clc
 4559  6524     A5 28       			lda	__stack_ptr
 4560  6526     69 06       			adc	#.low.6
 4561  6528     85 28       			sta	__stack_ptr
 4562  652A     A5 29       			lda	__stack_ptr+1
 4563  652C     69 00       			adc	#.high.6
 4564  652E     85 29       			sta	__stack_ptr+1
 4565  6530     28          			plp
 4566                     			.c_end	033b8h,232
 4567                     	;break;
 4568                     	;		
 4569                     			.sw_break
 4570  6531     4C CC 72    			jmp	?BOL0
 4571                     	;case 436:		
 4572         3215 6534   	?SWL93:		.equal	$
 4573                     	;SysMemcpy(chars,"{得到<圣光徽>}：  ",20)
 4574                     			.c_start  033ceh,233
 4575                     			.const_data_psfar2
 4576  7D2D     7B B5 C3 B5 BD 	?PLC94:		.byte	"{得到<圣光徽>}：  ",0
              3C CA A5 B9 E2 
              BB D5 3E 7D A3 
              BA 20 20 00 
 4577                     			.program_psfar2
 4578  6534     A9 14       			lda	#.low.20
 4579  6536     85 20       			sta	__oper1
 4580  6538     A9 00       			lda	#.high.20
 4581  653A     85 21       			sta	__oper1+1
 4582  653C     20 CA DA    			jsr	__store_int_funct_arg
 4583  653F     A9 2D       			lda	#.low.?PLC94
 4584  6541     85 20       			sta	__oper1
 4585  6543     A9 7D       			lda	#.high.?PLC94
 4586  6545     85 21       			sta	__oper1+1
 4587  6547     20 CA DA    			jsr	__store_int_funct_arg
 4588  654A     A0 06       			ldy	#+2+?LSC0+?TSC0+4
 4589  654C     B1 28       			lda	(__stack_ptr),y
 4590  654E     85 20       			sta	__oper1
 4591  6550     C8          			iny
 4592  6551     B1 28       			lda	(__stack_ptr),y
 4593  6553     85 21       			sta	__oper1+1
 4594  6555     20 CA DA    			jsr	__store_int_funct_arg
 4595                     			.f_call	_SysMemcpy
 4596  6558     20 01 E9    			jsr	_SysMemcpy
 4597  655B     08          			php
 4598  655C     78          			sei
 4599  655D     18          			clc
 4600  655E     A5 28       			lda	__stack_ptr
 4601  6560     69 06       			adc	#.low.6
 4602  6562     85 28       			sta	__stack_ptr
 4603  6564     A5 29       			lda	__stack_ptr+1
 4604  6566     69 00       			adc	#.high.6
 4605  6568     85 29       			sta	__stack_ptr+1
 4606  656A     28          			plp
 4607                     			.c_end	033f6h,233
 4608                     	;break;
 4609                     	;		
  Tue Jan 13 23:03:19 2026                                                                                               Page   87




 4610                     			.sw_break
 4611  656B     4C CC 72    			jmp	?BOL0
 4612                     	;case 437:		
 4613         4318 656E   	?SWL94:		.equal	$
 4614                     	;SysMemcpy(chars,"该宝物可以查看当前",20)
 4615                     			.c_start  0340ch,234
 4616                     			.const_data_psfar2
 4617  7D40     B8 C3 B1 A6 CE 	?PLC95:		.byte	"该宝物可以查看当前",0
              EF BF C9 D2 D4 
              B2 E9 BF B4 B5 
              B1 C7 B0 00 
 4618                     			.program_psfar2
 4619  656E     A9 14       			lda	#.low.20
 4620  6570     85 20       			sta	__oper1
 4621  6572     A9 00       			lda	#.high.20
 4622  6574     85 21       			sta	__oper1+1
 4623  6576     20 CA DA    			jsr	__store_int_funct_arg
 4624  6579     A9 40       			lda	#.low.?PLC95
 4625  657B     85 20       			sta	__oper1
 4626  657D     A9 7D       			lda	#.high.?PLC95
 4627  657F     85 21       			sta	__oper1+1
 4628  6581     20 CA DA    			jsr	__store_int_funct_arg
 4629  6584     A0 06       			ldy	#+2+?LSC0+?TSC0+4
 4630  6586     B1 28       			lda	(__stack_ptr),y
 4631  6588     85 20       			sta	__oper1
 4632  658A     C8          			iny
 4633  658B     B1 28       			lda	(__stack_ptr),y
 4634  658D     85 21       			sta	__oper1+1
 4635  658F     20 CA DA    			jsr	__store_int_funct_arg
 4636                     			.f_call	_SysMemcpy
 4637  6592     20 01 E9    			jsr	_SysMemcpy
 4638  6595     08          			php
 4639  6596     78          			sei
 4640  6597     18          			clc
 4641  6598     A5 28       			lda	__stack_ptr
 4642  659A     69 06       			adc	#.low.6
 4643  659C     85 28       			sta	__stack_ptr
 4644  659E     A5 29       			lda	__stack_ptr+1
 4645  65A0     69 00       			adc	#.high.6
 4646  65A2     85 29       			sta	__stack_ptr+1
 4647  65A4     28          			plp
 4648                     			.c_end	03434h,234
 4649                     	;break;
 4650                     	;		
 4651                     			.sw_break
 4652  65A5     4C CC 72    			jmp	?BOL0
 4653                     	;case 438:		
 4654         3623 65A8   	?SWL95:		.equal	$
 4655                     	;SysMemcpy(chars,"怪物的基本情况。按",20)
 4656                     			.c_start  0344ah,235
 4657                     			.const_data_psfar2
 4658  7D53     B9 D6 CE EF B5 	?PLC96:		.byte	"怪物的基本情况。按",0
              C4 BB F9 B1 BE 
              C7 E9 BF F6 A1 
              A3 B0 B4 00 
 4659                     			.program_psfar2
 4660  65A8     A9 14       			lda	#.low.20
  Tue Jan 13 23:03:19 2026                                                                                               Page   88




 4661  65AA     85 20       			sta	__oper1
 4662  65AC     A9 00       			lda	#.high.20
 4663  65AE     85 21       			sta	__oper1+1
 4664  65B0     20 CA DA    			jsr	__store_int_funct_arg
 4665  65B3     A9 53       			lda	#.low.?PLC96
 4666  65B5     85 20       			sta	__oper1
 4667  65B7     A9 7D       			lda	#.high.?PLC96
 4668  65B9     85 21       			sta	__oper1+1
 4669  65BB     20 CA DA    			jsr	__store_int_funct_arg
 4670  65BE     A0 06       			ldy	#+2+?LSC0+?TSC0+4
 4671  65C0     B1 28       			lda	(__stack_ptr),y
 4672  65C2     85 20       			sta	__oper1
 4673  65C4     C8          			iny
 4674  65C5     B1 28       			lda	(__stack_ptr),y
 4675  65C7     85 21       			sta	__oper1+1
 4676  65C9     20 CA DA    			jsr	__store_int_funct_arg
 4677                     			.f_call	_SysMemcpy
 4678  65CC     20 01 E9    			jsr	_SysMemcpy
 4679  65CF     08          			php
 4680  65D0     78          			sei
 4681  65D1     18          			clc
 4682  65D2     A5 28       			lda	__stack_ptr
 4683  65D4     69 06       			adc	#.low.6
 4684  65D6     85 28       			sta	__stack_ptr
 4685  65D8     A5 29       			lda	__stack_ptr+1
 4686  65DA     69 00       			adc	#.high.6
 4687  65DC     85 29       			sta	__stack_ptr+1
 4688  65DE     28          			plp
 4689                     			.c_end	03472h,235
 4690                     	;break;
 4691                     	;		
 4692                     			.sw_break
 4693  65DF     4C CC 72    			jmp	?BOL0
 4694                     	;case 439:		
 4695         4726 65E2   	?SWL96:		.equal	$
 4696                     	;SysMemcpy(chars,"下键盘上的[查找]就",20)
 4697                     			.c_start  03488h,236
 4698                     			.const_data_psfar2
 4699  7D66     CF C2 BC FC C5 	?PLC97:		.byte	"下键盘上的[查找]就",0
              CC C9 CF B5 C4 
              5B B2 E9 D5 D2 
              5D BE CD 00 
 4700                     			.program_psfar2
 4701  65E2     A9 14       			lda	#.low.20
 4702  65E4     85 20       			sta	__oper1
 4703  65E6     A9 00       			lda	#.high.20
 4704  65E8     85 21       			sta	__oper1+1
 4705  65EA     20 CA DA    			jsr	__store_int_funct_arg
 4706  65ED     A9 66       			lda	#.low.?PLC97
 4707  65EF     85 20       			sta	__oper1
 4708  65F1     A9 7D       			lda	#.high.?PLC97
 4709  65F3     85 21       			sta	__oper1+1
 4710  65F5     20 CA DA    			jsr	__store_int_funct_arg
 4711  65F8     A0 06       			ldy	#+2+?LSC0+?TSC0+4
 4712  65FA     B1 28       			lda	(__stack_ptr),y
 4713  65FC     85 20       			sta	__oper1
 4714  65FE     C8          			iny
  Tue Jan 13 23:03:19 2026                                                                                               Page   89




 4715  65FF     B1 28       			lda	(__stack_ptr),y
 4716  6601     85 21       			sta	__oper1+1
 4717  6603     20 CA DA    			jsr	__store_int_funct_arg
 4718                     			.f_call	_SysMemcpy
 4719  6606     20 01 E9    			jsr	_SysMemcpy
 4720  6609     08          			php
 4721  660A     78          			sei
 4722  660B     18          			clc
 4723  660C     A5 28       			lda	__stack_ptr
 4724  660E     69 06       			adc	#.low.6
 4725  6610     85 28       			sta	__stack_ptr
 4726  6612     A5 29       			lda	__stack_ptr+1
 4727  6614     69 00       			adc	#.high.6
 4728  6616     85 29       			sta	__stack_ptr+1
 4729  6618     28          			plp
 4730                     			.c_end	034b0h,236
 4731                     	;break;
 4732                     	;		
 4733                     			.sw_break
 4734  6619     4C CC 72    			jmp	?BOL0
 4735                     	;case 440:		
 4736         3A13 661C   	?SWL97:		.equal	$
 4737                     	;SysMemcpy(chars,"可以进行查看。    ",20)
 4738                     			.c_start  034c6h,237
 4739                     			.const_data_psfar2
 4740  7D79     BF C9 D2 D4 BD 	?PLC98:		.byte	"可以进行查看。    ",0
              F8 D0 D0 B2 E9 
              BF B4 A1 A3 20 
              20 20 20 00 
 4741                     			.program_psfar2
 4742  661C     A9 14       			lda	#.low.20
 4743  661E     85 20       			sta	__oper1
 4744  6620     A9 00       			lda	#.high.20
 4745  6622     85 21       			sta	__oper1+1
 4746  6624     20 CA DA    			jsr	__store_int_funct_arg
 4747  6627     A9 79       			lda	#.low.?PLC98
 4748  6629     85 20       			sta	__oper1
 4749  662B     A9 7D       			lda	#.high.?PLC98
 4750  662D     85 21       			sta	__oper1+1
 4751  662F     20 CA DA    			jsr	__store_int_funct_arg
 4752  6632     A0 06       			ldy	#+2+?LSC0+?TSC0+4
 4753  6634     B1 28       			lda	(__stack_ptr),y
 4754  6636     85 20       			sta	__oper1
 4755  6638     C8          			iny
 4756  6639     B1 28       			lda	(__stack_ptr),y
 4757  663B     85 21       			sta	__oper1+1
 4758  663D     20 CA DA    			jsr	__store_int_funct_arg
 4759                     			.f_call	_SysMemcpy
 4760  6640     20 01 E9    			jsr	_SysMemcpy
 4761  6643     08          			php
 4762  6644     78          			sei
 4763  6645     18          			clc
 4764  6646     A5 28       			lda	__stack_ptr
 4765  6648     69 06       			adc	#.low.6
 4766  664A     85 28       			sta	__stack_ptr
 4767  664C     A5 29       			lda	__stack_ptr+1
 4768  664E     69 00       			adc	#.high.6
  Tue Jan 13 23:03:19 2026                                                                                               Page   90




 4769  6650     85 29       			sta	__stack_ptr+1
 4770  6652     28          			plp
 4771                     			.c_end	034eeh,237
 4772                     	;break;
 4773                     	;		
 4774                     			.sw_break
 4775  6653     4C CC 72    			jmp	?BOL0
 4776                     	;case 441:		
 4777         3417 6656   	?SWL98:		.equal	$
 4778                     	;SysMemcpy(chars,"怪物认为你能力太低",20)
 4779                     			.c_start  03504h,238
 4780                     			.const_data_psfar2
 4781  7D8C     B9 D6 CE EF C8 	?PLC99:		.byte	"怪物认为你能力太低",0
              CF CE AA C4 E3 
              C4 DC C1 A6 CC 
              AB B5 CD 00 
 4782                     			.program_psfar2
 4783  6656     A9 14       			lda	#.low.20
 4784  6658     85 20       			sta	__oper1
 4785  665A     A9 00       			lda	#.high.20
 4786  665C     85 21       			sta	__oper1+1
 4787  665E     20 CA DA    			jsr	__store_int_funct_arg
 4788  6661     A9 8C       			lda	#.low.?PLC99
 4789  6663     85 20       			sta	__oper1
 4790  6665     A9 7D       			lda	#.high.?PLC99
 4791  6667     85 21       			sta	__oper1+1
 4792  6669     20 CA DA    			jsr	__store_int_funct_arg
 4793  666C     A0 06       			ldy	#+2+?LSC0+?TSC0+4
 4794  666E     B1 28       			lda	(__stack_ptr),y
 4795  6670     85 20       			sta	__oper1
 4796  6672     C8          			iny
 4797  6673     B1 28       			lda	(__stack_ptr),y
 4798  6675     85 21       			sta	__oper1+1
 4799  6677     20 CA DA    			jsr	__store_int_funct_arg
 4800                     			.f_call	_SysMemcpy
 4801  667A     20 01 E9    			jsr	_SysMemcpy
 4802  667D     08          			php
 4803  667E     78          			sei
 4804  667F     18          			clc
 4805  6680     A5 28       			lda	__stack_ptr
 4806  6682     69 06       			adc	#.low.6
 4807  6684     85 28       			sta	__stack_ptr
 4808  6686     A5 29       			lda	__stack_ptr+1
 4809  6688     69 00       			adc	#.high.6
 4810  668A     85 29       			sta	__stack_ptr+1
 4811  668C     28          			plp
 4812                     			.c_end	0352ch,238
 4813                     	;break;
 4814                     	;		
 4815                     			.sw_break
 4816  668D     4C CC 72    			jmp	?BOL0
 4817                     	;case 442:		
 4818         451A 6690   	?SWL99:		.equal	$
 4819                     	;SysMemcpy(chars,"，拒绝战斗。      ",20)
 4820                     			.c_start  03542h,239
 4821                     			.const_data_psfar2
 4822  7D9F     A3 AC BE DC BE 	?PLC100:	.byte	"，拒绝战斗。      ",0
  Tue Jan 13 23:03:19 2026                                                                                               Page   91




              F8 D5 BD B6 B7 
              A1 A3 20 20 20 
              20 20 20 00 
 4823                     			.program_psfar2
 4824  6690     A9 14       			lda	#.low.20
 4825  6692     85 20       			sta	__oper1
 4826  6694     A9 00       			lda	#.high.20
 4827  6696     85 21       			sta	__oper1+1
 4828  6698     20 CA DA    			jsr	__store_int_funct_arg
 4829  669B     A9 9F       			lda	#.low.?PLC100
 4830  669D     85 20       			sta	__oper1
 4831  669F     A9 7D       			lda	#.high.?PLC100
 4832  66A1     85 21       			sta	__oper1+1
 4833  66A3     20 CA DA    			jsr	__store_int_funct_arg
 4834  66A6     A0 06       			ldy	#+2+?LSC0+?TSC0+4
 4835  66A8     B1 28       			lda	(__stack_ptr),y
 4836  66AA     85 20       			sta	__oper1
 4837  66AC     C8          			iny
 4838  66AD     B1 28       			lda	(__stack_ptr),y
 4839  66AF     85 21       			sta	__oper1+1
 4840  66B1     20 CA DA    			jsr	__store_int_funct_arg
 4841                     			.f_call	_SysMemcpy
 4842  66B4     20 01 E9    			jsr	_SysMemcpy
 4843  66B7     08          			php
 4844  66B8     78          			sei
 4845  66B9     18          			clc
 4846  66BA     A5 28       			lda	__stack_ptr
 4847  66BC     69 06       			adc	#.low.6
 4848  66BE     85 28       			sta	__stack_ptr
 4849  66C0     A5 29       			lda	__stack_ptr+1
 4850  66C2     69 00       			adc	#.high.6
 4851  66C4     85 29       			sta	__stack_ptr+1
 4852  66C6     28          			plp
 4853                     			.c_end	0356ah,239
 4854                     	;break;
 4855                     	;		
 4856                     			.sw_break
 4857  66C7     4C CC 72    			jmp	?BOL0
 4858                     	;case 443:		
 4859         3825 66CA   	?SWL100:	.equal	$
 4860                     	;SysMemcpy(chars,"怪物认为你生命太低",20)
 4861                     			.c_start  03580h,240
 4862                     			.const_data_psfar2
 4863  7DB2     B9 D6 CE EF C8 	?PLC101:	.byte	"怪物认为你生命太低",0
              CF CE AA C4 E3 
              C9 FA C3 FC CC 
              AB B5 CD 00 
 4864                     			.program_psfar2
 4865  66CA     A9 14       			lda	#.low.20
 4866  66CC     85 20       			sta	__oper1
 4867  66CE     A9 00       			lda	#.high.20
 4868  66D0     85 21       			sta	__oper1+1
 4869  66D2     20 CA DA    			jsr	__store_int_funct_arg
 4870  66D5     A9 B2       			lda	#.low.?PLC101
 4871  66D7     85 20       			sta	__oper1
 4872  66D9     A9 7D       			lda	#.high.?PLC101
 4873  66DB     85 21       			sta	__oper1+1
  Tue Jan 13 23:03:19 2026                                                                                               Page   92




 4874  66DD     20 CA DA    			jsr	__store_int_funct_arg
 4875  66E0     A0 06       			ldy	#+2+?LSC0+?TSC0+4
 4876  66E2     B1 28       			lda	(__stack_ptr),y
 4877  66E4     85 20       			sta	__oper1
 4878  66E6     C8          			iny
 4879  66E7     B1 28       			lda	(__stack_ptr),y
 4880  66E9     85 21       			sta	__oper1+1
 4881  66EB     20 CA DA    			jsr	__store_int_funct_arg
 4882                     			.f_call	_SysMemcpy
 4883  66EE     20 01 E9    			jsr	_SysMemcpy
 4884  66F1     08          			php
 4885  66F2     78          			sei
 4886  66F3     18          			clc
 4887  66F4     A5 28       			lda	__stack_ptr
 4888  66F6     69 06       			adc	#.low.6
 4889  66F8     85 28       			sta	__stack_ptr
 4890  66FA     A5 29       			lda	__stack_ptr+1
 4891  66FC     69 00       			adc	#.high.6
 4892  66FE     85 29       			sta	__stack_ptr+1
 4893  6700     28          			plp
 4894                     			.c_end	035a8h,240
 4895                     	;break;
 4896                     	;		
 4897                     			.sw_break
 4898  6701     4C CC 72    			jmp	?BOL0
 4899                     	;case 444:		
 4900         3212 6704   	?SWL101:	.equal	$
 4901                     	;SysMemcpy(chars,"，拒绝战斗。      ",20)
 4902                     			.c_start  035beh,241
 4903                     			.const_data_psfar2
 4904  7DC5     A3 AC BE DC BE 	?PLC102:	.byte	"，拒绝战斗。      ",0
              F8 D5 BD B6 B7 
              A1 A3 20 20 20 
              20 20 20 00 
 4905                     			.program_psfar2
 4906  6704     A9 14       			lda	#.low.20
 4907  6706     85 20       			sta	__oper1
 4908  6708     A9 00       			lda	#.high.20
 4909  670A     85 21       			sta	__oper1+1
 4910  670C     20 CA DA    			jsr	__store_int_funct_arg
 4911  670F     A9 C5       			lda	#.low.?PLC102
 4912  6711     85 20       			sta	__oper1
 4913  6713     A9 7D       			lda	#.high.?PLC102
 4914  6715     85 21       			sta	__oper1+1
 4915  6717     20 CA DA    			jsr	__store_int_funct_arg
 4916  671A     A0 06       			ldy	#+2+?LSC0+?TSC0+4
 4917  671C     B1 28       			lda	(__stack_ptr),y
 4918  671E     85 20       			sta	__oper1
 4919  6720     C8          			iny
 4920  6721     B1 28       			lda	(__stack_ptr),y
 4921  6723     85 21       			sta	__oper1+1
 4922  6725     20 CA DA    			jsr	__store_int_funct_arg
 4923                     			.f_call	_SysMemcpy
 4924  6728     20 01 E9    			jsr	_SysMemcpy
 4925  672B     08          			php
 4926  672C     78          			sei
 4927  672D     18          			clc
  Tue Jan 13 23:03:19 2026                                                                                               Page   93




 4928  672E     A5 28       			lda	__stack_ptr
 4929  6730     69 06       			adc	#.low.6
 4930  6732     85 28       			sta	__stack_ptr
 4931  6734     A5 29       			lda	__stack_ptr+1
 4932  6736     69 00       			adc	#.high.6
 4933  6738     85 29       			sta	__stack_ptr+1
 4934  673A     28          			plp
 4935                     			.c_end	035e6h,241
 4936                     	;break;
 4937                     	;		
 4938                     			.sw_break
 4939  673B     4C CC 72    			jmp	?BOL0
 4940                     	;case 445:		
 4941         4315 673E   	?SWL102:	.equal	$
 4942                     	;SysMemcpy(chars,"{得到<二号钥匙>： ",20)
 4943                     			.c_start  035fch,242
 4944                     			.const_data_psfar2
 4945  7DD8     7B B5 C3 B5 BD 	?PLC103:	.byte	"{得到<二号钥匙>： ",0
              3C B6 FE BA C5 
              D4 BF B3 D7 3E 
              A3 BA 20 00 
 4946                     			.program_psfar2
 4947  673E     A9 14       			lda	#.low.20
 4948  6740     85 20       			sta	__oper1
 4949  6742     A9 00       			lda	#.high.20
 4950  6744     85 21       			sta	__oper1+1
 4951  6746     20 CA DA    			jsr	__store_int_funct_arg
 4952  6749     A9 D8       			lda	#.low.?PLC103
 4953  674B     85 20       			sta	__oper1
 4954  674D     A9 7D       			lda	#.high.?PLC103
 4955  674F     85 21       			sta	__oper1+1
 4956  6751     20 CA DA    			jsr	__store_int_funct_arg
 4957  6754     A0 06       			ldy	#+2+?LSC0+?TSC0+4
 4958  6756     B1 28       			lda	(__stack_ptr),y
 4959  6758     85 20       			sta	__oper1
 4960  675A     C8          			iny
 4961  675B     B1 28       			lda	(__stack_ptr),y
 4962  675D     85 21       			sta	__oper1+1
 4963  675F     20 CA DA    			jsr	__store_int_funct_arg
 4964                     			.f_call	_SysMemcpy
 4965  6762     20 01 E9    			jsr	_SysMemcpy
 4966  6765     08          			php
 4967  6766     78          			sei
 4968  6767     18          			clc
 4969  6768     A5 28       			lda	__stack_ptr
 4970  676A     69 06       			adc	#.low.6
 4971  676C     85 28       			sta	__stack_ptr
 4972  676E     A5 29       			lda	__stack_ptr+1
 4973  6770     69 00       			adc	#.high.6
 4974  6772     85 29       			sta	__stack_ptr+1
 4975  6774     28          			plp
 4976                     			.c_end	03624h,242
 4977                     	;break;
 4978                     	;		
 4979                     			.sw_break
 4980  6775     4C CC 72    			jmp	?BOL0
 4981                     	;case 446:		
  Tue Jan 13 23:03:19 2026                                                                                               Page   94




 4982         3619 6778   	?SWL103:	.equal	$
 4983                     	;SysMemcpy(chars,"可以打开二号门}   ",20)
 4984                     			.c_start  0363ah,243
 4985                     			.const_data_psfar2
 4986  7DEB     BF C9 D2 D4 B4 	?PLC104:	.byte	"可以打开二号门}   ",0
              F2 BF AA B6 FE 
              BA C5 C3 C5 7D 
              20 20 20 00 
 4987                     			.program_psfar2
 4988  6778     A9 14       			lda	#.low.20
 4989  677A     85 20       			sta	__oper1
 4990  677C     A9 00       			lda	#.high.20
 4991  677E     85 21       			sta	__oper1+1
 4992  6780     20 CA DA    			jsr	__store_int_funct_arg
 4993  6783     A9 EB       			lda	#.low.?PLC104
 4994  6785     85 20       			sta	__oper1
 4995  6787     A9 7D       			lda	#.high.?PLC104
 4996  6789     85 21       			sta	__oper1+1
 4997  678B     20 CA DA    			jsr	__store_int_funct_arg
 4998  678E     A0 06       			ldy	#+2+?LSC0+?TSC0+4
 4999  6790     B1 28       			lda	(__stack_ptr),y
 5000  6792     85 20       			sta	__oper1
 5001  6794     C8          			iny
 5002  6795     B1 28       			lda	(__stack_ptr),y
 5003  6797     85 21       			sta	__oper1+1
 5004  6799     20 CA DA    			jsr	__store_int_funct_arg
 5005                     			.f_call	_SysMemcpy
 5006  679C     20 01 E9    			jsr	_SysMemcpy
 5007  679F     08          			php
 5008  67A0     78          			sei
 5009  67A1     18          			clc
 5010  67A2     A5 28       			lda	__stack_ptr
 5011  67A4     69 06       			adc	#.low.6
 5012  67A6     85 28       			sta	__stack_ptr
 5013  67A8     A5 29       			lda	__stack_ptr+1
 5014  67AA     69 00       			adc	#.high.6
 5015  67AC     85 29       			sta	__stack_ptr+1
 5016  67AE     28          			plp
 5017                     			.c_end	03662h,243
 5018                     	;break;
 5019                     	;		
 5020                     			.sw_break
 5021  67AF     4C CC 72    			jmp	?BOL0
 5022                     	;case 447:		
 5023         4723 67B2   	?SWL104:	.equal	$
 5024                     	;SysMemcpy(chars,"你好，英雄的人类，",20)
 5025                     			.c_start  03678h,244
 5026                     			.const_data_psfar2
 5027  7DFE     C4 E3 BA C3 A3 	?PLC105:	.byte	"你好，英雄的人类，",0
              AC D3 A2 D0 DB 
              B5 C4 C8 CB C0 
              E0 A3 AC 00 
 5028                     			.program_psfar2
 5029  67B2     A9 14       			lda	#.low.20
 5030  67B4     85 20       			sta	__oper1
 5031  67B6     A9 00       			lda	#.high.20
 5032  67B8     85 21       			sta	__oper1+1
  Tue Jan 13 23:03:19 2026                                                                                               Page   95




 5033  67BA     20 CA DA    			jsr	__store_int_funct_arg
 5034  67BD     A9 FE       			lda	#.low.?PLC105
 5035  67BF     85 20       			sta	__oper1
 5036  67C1     A9 7D       			lda	#.high.?PLC105
 5037  67C3     85 21       			sta	__oper1+1
 5038  67C5     20 CA DA    			jsr	__store_int_funct_arg
 5039  67C8     A0 06       			ldy	#+2+?LSC0+?TSC0+4
 5040  67CA     B1 28       			lda	(__stack_ptr),y
 5041  67CC     85 20       			sta	__oper1
 5042  67CE     C8          			iny
 5043  67CF     B1 28       			lda	(__stack_ptr),y
 5044  67D1     85 21       			sta	__oper1+1
 5045  67D3     20 CA DA    			jsr	__store_int_funct_arg
 5046                     			.f_call	_SysMemcpy
 5047  67D6     20 01 E9    			jsr	_SysMemcpy
 5048  67D9     08          			php
 5049  67DA     78          			sei
 5050  67DB     18          			clc
 5051  67DC     A5 28       			lda	__stack_ptr
 5052  67DE     69 06       			adc	#.low.6
 5053  67E0     85 28       			sta	__stack_ptr
 5054  67E2     A5 29       			lda	__stack_ptr+1
 5055  67E4     69 00       			adc	#.high.6
 5056  67E6     85 29       			sta	__stack_ptr+1
 5057  67E8     28          			plp
 5058                     			.c_end	036a0h,244
 5059                     	;break;
 5060                     	;		
 5061                     			.sw_break
 5062  67E9     4C CC 72    			jmp	?BOL0
 5063                     	;case 448:		
 5064         3A27 67EC   	?SWL105:	.equal	$
 5065                     	;SysMemcpy(chars,"只要你有足够的经验",20)
 5066                     			.c_start  036b6h,245
 5067                     			.const_data_psfar2
 5068  7E11     D6 BB D2 AA C4 	?PLC106:	.byte	"只要你有足够的经验",0
              E3 D3 D0 D7 E3 
              B9 BB B5 C4 BE 
              AD D1 E9 00 
 5069                     			.program_psfar2
 5070  67EC     A9 14       			lda	#.low.20
 5071  67EE     85 20       			sta	__oper1
 5072  67F0     A9 00       			lda	#.high.20
 5073  67F2     85 21       			sta	__oper1+1
 5074  67F4     20 CA DA    			jsr	__store_int_funct_arg
 5075  67F7     A9 11       			lda	#.low.?PLC106
 5076  67F9     85 20       			sta	__oper1
 5077  67FB     A9 7E       			lda	#.high.?PLC106
 5078  67FD     85 21       			sta	__oper1+1
 5079  67FF     20 CA DA    			jsr	__store_int_funct_arg
 5080  6802     A0 06       			ldy	#+2+?LSC0+?TSC0+4
 5081  6804     B1 28       			lda	(__stack_ptr),y
 5082  6806     85 20       			sta	__oper1
 5083  6808     C8          			iny
 5084  6809     B1 28       			lda	(__stack_ptr),y
 5085  680B     85 21       			sta	__oper1+1
 5086  680D     20 CA DA    			jsr	__store_int_funct_arg
  Tue Jan 13 23:03:19 2026                                                                                               Page   96




 5087                     			.f_call	_SysMemcpy
 5088  6810     20 01 E9    			jsr	_SysMemcpy
 5089  6813     08          			php
 5090  6814     78          			sei
 5091  6815     18          			clc
 5092  6816     A5 28       			lda	__stack_ptr
 5093  6818     69 06       			adc	#.low.6
 5094  681A     85 28       			sta	__stack_ptr
 5095  681C     A5 29       			lda	__stack_ptr+1
 5096  681E     69 00       			adc	#.high.6
 5097  6820     85 29       			sta	__stack_ptr+1
 5098  6822     28          			plp
 5099                     			.c_end	036deh,245
 5100                     	;break;
 5101                     	;		
 5102                     			.sw_break
 5103  6823     4C CC 72    			jmp	?BOL0
 5104                     	;case 449:		
 5105         3414 6826   	?SWL106:	.equal	$
 5106                     	;SysMemcpy(chars,"，我就可以让你变得",20)
 5107                     			.c_start  036f4h,246
 5108                     			.const_data_psfar2
 5109  7E24     A3 AC CE D2 BE 	?PLC107:	.byte	"，我就可以让你变得",0
              CD BF C9 D2 D4 
              C8 C3 C4 E3 B1 
              E4 B5 C3 00 
 5110                     			.program_psfar2
 5111  6826     A9 14       			lda	#.low.20
 5112  6828     85 20       			sta	__oper1
 5113  682A     A9 00       			lda	#.high.20
 5114  682C     85 21       			sta	__oper1+1
 5115  682E     20 CA DA    			jsr	__store_int_funct_arg
 5116  6831     A9 24       			lda	#.low.?PLC107
 5117  6833     85 20       			sta	__oper1
 5118  6835     A9 7E       			lda	#.high.?PLC107
 5119  6837     85 21       			sta	__oper1+1
 5120  6839     20 CA DA    			jsr	__store_int_funct_arg
 5121  683C     A0 06       			ldy	#+2+?LSC0+?TSC0+4
 5122  683E     B1 28       			lda	(__stack_ptr),y
 5123  6840     85 20       			sta	__oper1
 5124  6842     C8          			iny
 5125  6843     B1 28       			lda	(__stack_ptr),y
 5126  6845     85 21       			sta	__oper1+1
 5127  6847     20 CA DA    			jsr	__store_int_funct_arg
 5128                     			.f_call	_SysMemcpy
 5129  684A     20 01 E9    			jsr	_SysMemcpy
 5130  684D     08          			php
 5131  684E     78          			sei
 5132  684F     18          			clc
 5133  6850     A5 28       			lda	__stack_ptr
 5134  6852     69 06       			adc	#.low.6
 5135  6854     85 28       			sta	__stack_ptr
 5136  6856     A5 29       			lda	__stack_ptr+1
 5137  6858     69 00       			adc	#.high.6
 5138  685A     85 29       			sta	__stack_ptr+1
 5139  685C     28          			plp
 5140                     			.c_end	0371ch,246
  Tue Jan 13 23:03:19 2026                                                                                               Page   97




 5141                     	;break;
 5142                     	;		
 5143                     			.sw_break
 5144  685D     4C CC 72    			jmp	?BOL0
 5145                     	;case 450:		
 5146         4517 6860   	?SWL107:	.equal	$
 5147                     	;SysMemcpy(chars,"更强大：          ",20)
 5148                     			.c_start  03732h,247
 5149                     			.const_data_psfar2
 5150  7E37     B8 FC C7 BF B4 	?PLC108:	.byte	"更强大：          ",0
              F3 A3 BA 20 20 
              20 20 20 20 20 
              20 20 20 00 
 5151                     			.program_psfar2
 5152  6860     A9 14       			lda	#.low.20
 5153  6862     85 20       			sta	__oper1
 5154  6864     A9 00       			lda	#.high.20
 5155  6866     85 21       			sta	__oper1+1
 5156  6868     20 CA DA    			jsr	__store_int_funct_arg
 5157  686B     A9 37       			lda	#.low.?PLC108
 5158  686D     85 20       			sta	__oper1
 5159  686F     A9 7E       			lda	#.high.?PLC108
 5160  6871     85 21       			sta	__oper1+1
 5161  6873     20 CA DA    			jsr	__store_int_funct_arg
 5162  6876     A0 06       			ldy	#+2+?LSC0+?TSC0+4
 5163  6878     B1 28       			lda	(__stack_ptr),y
 5164  687A     85 20       			sta	__oper1
 5165  687C     C8          			iny
 5166  687D     B1 28       			lda	(__stack_ptr),y
 5167  687F     85 21       			sta	__oper1+1
 5168  6881     20 CA DA    			jsr	__store_int_funct_arg
 5169                     			.f_call	_SysMemcpy
 5170  6884     20 01 E9    			jsr	_SysMemcpy
 5171  6887     08          			php
 5172  6888     78          			sei
 5173  6889     18          			clc
 5174  688A     A5 28       			lda	__stack_ptr
 5175  688C     69 06       			adc	#.low.6
 5176  688E     85 28       			sta	__stack_ptr
 5177  6890     A5 29       			lda	__stack_ptr+1
 5178  6892     69 00       			adc	#.high.6
 5179  6894     85 29       			sta	__stack_ptr+1
 5180  6896     28          			plp
 5181                     			.c_end	0375ah,247
 5182                     	;break;
 5183                     	;		
 5184                     			.sw_break
 5185  6897     4C CC 72    			jmp	?BOL0
 5186                     	;case 451:		
 5187         381B 689A   	?SWL108:	.equal	$
 5188                     	;SysMemcpy(chars,"提升一级(需100点) ",20)
 5189                     			.c_start  03770h,248
 5190                     			.const_data_psfar2
 5191  7E4A     CC E1 C9 FD D2 	?PLC109:	.byte	"提升一级(需100点) ",0
              BB BC B6 28 D0 
              E8 31 30 30 B5 
              E3 29 20 00 
  Tue Jan 13 23:03:19 2026                                                                                               Page   98




 5192                     			.program_psfar2
 5193  689A     A9 14       			lda	#.low.20
 5194  689C     85 20       			sta	__oper1
 5195  689E     A9 00       			lda	#.high.20
 5196  68A0     85 21       			sta	__oper1+1
 5197  68A2     20 CA DA    			jsr	__store_int_funct_arg
 5198  68A5     A9 4A       			lda	#.low.?PLC109
 5199  68A7     85 20       			sta	__oper1
 5200  68A9     A9 7E       			lda	#.high.?PLC109
 5201  68AB     85 21       			sta	__oper1+1
 5202  68AD     20 CA DA    			jsr	__store_int_funct_arg
 5203  68B0     A0 06       			ldy	#+2+?LSC0+?TSC0+4
 5204  68B2     B1 28       			lda	(__stack_ptr),y
 5205  68B4     85 20       			sta	__oper1
 5206  68B6     C8          			iny
 5207  68B7     B1 28       			lda	(__stack_ptr),y
 5208  68B9     85 21       			sta	__oper1+1
 5209  68BB     20 CA DA    			jsr	__store_int_funct_arg
 5210                     			.f_call	_SysMemcpy
 5211  68BE     20 01 E9    			jsr	_SysMemcpy
 5212  68C1     08          			php
 5213  68C2     78          			sei
 5214  68C3     18          			clc
 5215  68C4     A5 28       			lda	__stack_ptr
 5216  68C6     69 06       			adc	#.low.6
 5217  68C8     85 28       			sta	__stack_ptr
 5218  68CA     A5 29       			lda	__stack_ptr+1
 5219  68CC     69 00       			adc	#.high.6
 5220  68CE     85 29       			sta	__stack_ptr+1
 5221  68D0     28          			plp
 5222                     			.c_end	03798h,248
 5223                     	;break;
 5224                     	;		
 5225                     			.sw_break
 5226  68D1     4C CC 72    			jmp	?BOL0
 5227                     	;case 452:		
 5228         3226 68D4   	?SWL109:	.equal	$
 5229                     	;SysMemcpy(chars,"增加攻击5(需30点) ",20)
 5230                     			.c_start  037aeh,249
 5231                     			.const_data_psfar2
 5232  7E5D     D4 F6 BC D3 B9 	?PLC110:	.byte	"增加攻击5(需30点) ",0
              A5 BB F7 35 28 
              D0 E8 33 30 B5 
              E3 29 20 00 
 5233                     			.program_psfar2
 5234  68D4     A9 14       			lda	#.low.20
 5235  68D6     85 20       			sta	__oper1
 5236  68D8     A9 00       			lda	#.high.20
 5237  68DA     85 21       			sta	__oper1+1
 5238  68DC     20 CA DA    			jsr	__store_int_funct_arg
 5239  68DF     A9 5D       			lda	#.low.?PLC110
 5240  68E1     85 20       			sta	__oper1
 5241  68E3     A9 7E       			lda	#.high.?PLC110
 5242  68E5     85 21       			sta	__oper1+1
 5243  68E7     20 CA DA    			jsr	__store_int_funct_arg
 5244  68EA     A0 06       			ldy	#+2+?LSC0+?TSC0+4
 5245  68EC     B1 28       			lda	(__stack_ptr),y
  Tue Jan 13 23:03:19 2026                                                                                               Page   99




 5246  68EE     85 20       			sta	__oper1
 5247  68F0     C8          			iny
 5248  68F1     B1 28       			lda	(__stack_ptr),y
 5249  68F3     85 21       			sta	__oper1+1
 5250  68F5     20 CA DA    			jsr	__store_int_funct_arg
 5251                     			.f_call	_SysMemcpy
 5252  68F8     20 01 E9    			jsr	_SysMemcpy
 5253  68FB     08          			php
 5254  68FC     78          			sei
 5255  68FD     18          			clc
 5256  68FE     A5 28       			lda	__stack_ptr
 5257  6900     69 06       			adc	#.low.6
 5258  6902     85 28       			sta	__stack_ptr
 5259  6904     A5 29       			lda	__stack_ptr+1
 5260  6906     69 00       			adc	#.high.6
 5261  6908     85 29       			sta	__stack_ptr+1
 5262  690A     28          			plp
 5263                     			.c_end	037d6h,249
 5264                     	;break;
 5265                     	;		
 5266                     			.sw_break
 5267  690B     4C CC 72    			jmp	?BOL0
 5268                     	;case 453:		
 5269         4312 690E   	?SWL110:	.equal	$
 5270                     	;SysMemcpy(chars,"增加防御5(需30点) ",20)
 5271                     			.c_start  037ech,250
 5272                     			.const_data_psfar2
 5273  7E70     D4 F6 BC D3 B7 	?PLC111:	.byte	"增加防御5(需30点) ",0
              C0 D3 F9 35 28 
              D0 E8 33 30 B5 
              E3 29 20 00 
 5274                     			.program_psfar2
 5275  690E     A9 14       			lda	#.low.20
 5276  6910     85 20       			sta	__oper1
 5277  6912     A9 00       			lda	#.high.20
 5278  6914     85 21       			sta	__oper1+1
 5279  6916     20 CA DA    			jsr	__store_int_funct_arg
 5280  6919     A9 70       			lda	#.low.?PLC111
 5281  691B     85 20       			sta	__oper1
 5282  691D     A9 7E       			lda	#.high.?PLC111
 5283  691F     85 21       			sta	__oper1+1
 5284  6921     20 CA DA    			jsr	__store_int_funct_arg
 5285  6924     A0 06       			ldy	#+2+?LSC0+?TSC0+4
 5286  6926     B1 28       			lda	(__stack_ptr),y
 5287  6928     85 20       			sta	__oper1
 5288  692A     C8          			iny
 5289  692B     B1 28       			lda	(__stack_ptr),y
 5290  692D     85 21       			sta	__oper1+1
 5291  692F     20 CA DA    			jsr	__store_int_funct_arg
 5292                     			.f_call	_SysMemcpy
 5293  6932     20 01 E9    			jsr	_SysMemcpy
 5294  6935     08          			php
 5295  6936     78          			sei
 5296  6937     18          			clc
 5297  6938     A5 28       			lda	__stack_ptr
 5298  693A     69 06       			adc	#.low.6
 5299  693C     85 28       			sta	__stack_ptr
  Tue Jan 13 23:03:19 2026                                                                                               Page  100




 5300  693E     A5 29       			lda	__stack_ptr+1
 5301  6940     69 00       			adc	#.high.6
 5302  6942     85 29       			sta	__stack_ptr+1
 5303  6944     28          			plp
 5304                     			.c_end	03814h,250
 5305                     	;break;
 5306                     	;		
 5307                     			.sw_break
 5308  6945     4C CC 72    			jmp	?BOL0
 5309                     	;case 454:		
 5310         3616 6948   	?SWL111:	.equal	$
 5311                     	;SysMemcpy(chars,"     离  开       ",20)
 5312                     			.c_start  0382ah,251
 5313                     			.const_data_psfar2
 5314  7E83     20 20 20 20 20 	?PLC112:	.byte	"     离  开       ",0
              C0 EB 20 20 BF 
              AA 20 20 20 20 
              20 20 20 00 
 5315                     			.program_psfar2
 5316  6948     A9 14       			lda	#.low.20
 5317  694A     85 20       			sta	__oper1
 5318  694C     A9 00       			lda	#.high.20
 5319  694E     85 21       			sta	__oper1+1
 5320  6950     20 CA DA    			jsr	__store_int_funct_arg
 5321  6953     A9 83       			lda	#.low.?PLC112
 5322  6955     85 20       			sta	__oper1
 5323  6957     A9 7E       			lda	#.high.?PLC112
 5324  6959     85 21       			sta	__oper1+1
 5325  695B     20 CA DA    			jsr	__store_int_funct_arg
 5326  695E     A0 06       			ldy	#+2+?LSC0+?TSC0+4
 5327  6960     B1 28       			lda	(__stack_ptr),y
 5328  6962     85 20       			sta	__oper1
 5329  6964     C8          			iny
 5330  6965     B1 28       			lda	(__stack_ptr),y
 5331  6967     85 21       			sta	__oper1+1
 5332  6969     20 CA DA    			jsr	__store_int_funct_arg
 5333                     			.f_call	_SysMemcpy
 5334  696C     20 01 E9    			jsr	_SysMemcpy
 5335  696F     08          			php
 5336  6970     78          			sei
 5337  6971     18          			clc
 5338  6972     A5 28       			lda	__stack_ptr
 5339  6974     69 06       			adc	#.low.6
 5340  6976     85 28       			sta	__stack_ptr
 5341  6978     A5 29       			lda	__stack_ptr+1
 5342  697A     69 00       			adc	#.high.6
 5343  697C     85 29       			sta	__stack_ptr+1
 5344  697E     28          			plp
 5345                     			.c_end	03852h,251
 5346                     	;break;
 5347                     	;		
 5348                     			.sw_break
 5349  697F     4C CC 72    			jmp	?BOL0
 5350                     	;case 455:		
 5351         4719 6982   	?SWL112:	.equal	$
 5352                     	;SysMemcpy(chars,"提升三级(需270点) ",20)
 5353                     			.c_start  03868h,252
  Tue Jan 13 23:03:19 2026                                                                                               Page  101




 5354                     			.const_data_psfar2
 5355  7E96     CC E1 C9 FD C8 	?PLC113:	.byte	"提升三级(需270点) ",0
              FD BC B6 28 D0 
              E8 32 37 30 B5 
              E3 29 20 00 
 5356                     			.program_psfar2
 5357  6982     A9 14       			lda	#.low.20
 5358  6984     85 20       			sta	__oper1
 5359  6986     A9 00       			lda	#.high.20
 5360  6988     85 21       			sta	__oper1+1
 5361  698A     20 CA DA    			jsr	__store_int_funct_arg
 5362  698D     A9 96       			lda	#.low.?PLC113
 5363  698F     85 20       			sta	__oper1
 5364  6991     A9 7E       			lda	#.high.?PLC113
 5365  6993     85 21       			sta	__oper1+1
 5366  6995     20 CA DA    			jsr	__store_int_funct_arg
 5367  6998     A0 06       			ldy	#+2+?LSC0+?TSC0+4
 5368  699A     B1 28       			lda	(__stack_ptr),y
 5369  699C     85 20       			sta	__oper1
 5370  699E     C8          			iny
 5371  699F     B1 28       			lda	(__stack_ptr),y
 5372  69A1     85 21       			sta	__oper1+1
 5373  69A3     20 CA DA    			jsr	__store_int_funct_arg
 5374                     			.f_call	_SysMemcpy
 5375  69A6     20 01 E9    			jsr	_SysMemcpy
 5376  69A9     08          			php
 5377  69AA     78          			sei
 5378  69AB     18          			clc
 5379  69AC     A5 28       			lda	__stack_ptr
 5380  69AE     69 06       			adc	#.low.6
 5381  69B0     85 28       			sta	__stack_ptr
 5382  69B2     A5 29       			lda	__stack_ptr+1
 5383  69B4     69 00       			adc	#.high.6
 5384  69B6     85 29       			sta	__stack_ptr+1
 5385  69B8     28          			plp
 5386                     			.c_end	03890h,252
 5387                     	;break;
 5388                     	;		
 5389                     			.sw_break
 5390  69B9     4C CC 72    			jmp	?BOL0
 5391                     	;case 456:		
 5392         3A24 69BC   	?SWL113:	.equal	$
 5393                     	;SysMemcpy(chars,"增加攻击17(需95点)",20)
 5394                     			.c_start  038a6h,253
 5395                     			.const_data_psfar2
 5396  7EA9     D4 F6 BC D3 B9 	?PLC114:	.byte	"增加攻击17(需95点)",0
              A5 BB F7 31 37 
              28 D0 E8 39 35 
              B5 E3 29 00 
 5397                     			.program_psfar2
 5398  69BC     A9 14       			lda	#.low.20
 5399  69BE     85 20       			sta	__oper1
 5400  69C0     A9 00       			lda	#.high.20
 5401  69C2     85 21       			sta	__oper1+1
 5402  69C4     20 CA DA    			jsr	__store_int_funct_arg
 5403  69C7     A9 A9       			lda	#.low.?PLC114
 5404  69C9     85 20       			sta	__oper1
  Tue Jan 13 23:03:19 2026                                                                                               Page  102




 5405  69CB     A9 7E       			lda	#.high.?PLC114
 5406  69CD     85 21       			sta	__oper1+1
 5407  69CF     20 CA DA    			jsr	__store_int_funct_arg
 5408  69D2     A0 06       			ldy	#+2+?LSC0+?TSC0+4
 5409  69D4     B1 28       			lda	(__stack_ptr),y
 5410  69D6     85 20       			sta	__oper1
 5411  69D8     C8          			iny
 5412  69D9     B1 28       			lda	(__stack_ptr),y
 5413  69DB     85 21       			sta	__oper1+1
 5414  69DD     20 CA DA    			jsr	__store_int_funct_arg
 5415                     			.f_call	_SysMemcpy
 5416  69E0     20 01 E9    			jsr	_SysMemcpy
 5417  69E3     08          			php
 5418  69E4     78          			sei
 5419  69E5     18          			clc
 5420  69E6     A5 28       			lda	__stack_ptr
 5421  69E8     69 06       			adc	#.low.6
 5422  69EA     85 28       			sta	__stack_ptr
 5423  69EC     A5 29       			lda	__stack_ptr+1
 5424  69EE     69 00       			adc	#.high.6
 5425  69F0     85 29       			sta	__stack_ptr+1
 5426  69F2     28          			plp
 5427                     			.c_end	038ceh,253
 5428                     	;break;
 5429                     	;		
 5430                     			.sw_break
 5431  69F3     4C CC 72    			jmp	?BOL0
 5432                     	;case 457:		
 5433         3428 69F6   	?SWL114:	.equal	$
 5434                     	;SysMemcpy(chars,"增加防御17(需95点)",20)
 5435                     			.c_start  038e4h,254
 5436                     			.const_data_psfar2
 5437  7EBC     D4 F6 BC D3 B7 	?PLC115:	.byte	"增加防御17(需95点)",0
              C0 D3 F9 31 37 
              28 D0 E8 39 35 
              B5 E3 29 00 
 5438                     			.program_psfar2
 5439  69F6     A9 14       			lda	#.low.20
 5440  69F8     85 20       			sta	__oper1
 5441  69FA     A9 00       			lda	#.high.20
 5442  69FC     85 21       			sta	__oper1+1
 5443  69FE     20 CA DA    			jsr	__store_int_funct_arg
 5444  6A01     A9 BC       			lda	#.low.?PLC115
 5445  6A03     85 20       			sta	__oper1
 5446  6A05     A9 7E       			lda	#.high.?PLC115
 5447  6A07     85 21       			sta	__oper1+1
 5448  6A09     20 CA DA    			jsr	__store_int_funct_arg
 5449  6A0C     A0 06       			ldy	#+2+?LSC0+?TSC0+4
 5450  6A0E     B1 28       			lda	(__stack_ptr),y
 5451  6A10     85 20       			sta	__oper1
 5452  6A12     C8          			iny
 5453  6A13     B1 28       			lda	(__stack_ptr),y
 5454  6A15     85 21       			sta	__oper1+1
 5455  6A17     20 CA DA    			jsr	__store_int_funct_arg
 5456                     			.f_call	_SysMemcpy
 5457  6A1A     20 01 E9    			jsr	_SysMemcpy
 5458  6A1D     08          			php
  Tue Jan 13 23:03:19 2026                                                                                               Page  103




 5459  6A1E     78          			sei
 5460  6A1F     18          			clc
 5461  6A20     A5 28       			lda	__stack_ptr
 5462  6A22     69 06       			adc	#.low.6
 5463  6A24     85 28       			sta	__stack_ptr
 5464  6A26     A5 29       			lda	__stack_ptr+1
 5465  6A28     69 00       			adc	#.high.6
 5466  6A2A     85 29       			sta	__stack_ptr+1
 5467  6A2C     28          			plp
 5468                     			.c_end	0390ch,254
 5469                     	;break;
 5470                     	;		
 5471                     			.sw_break
 5472  6A2D     4C CC 72    			jmp	?BOL0
 5473                     	;case 458:		
 5474         4514 6A30   	?SWL115:	.equal	$
 5475                     	;SysMemcpy(chars,"相信你一定有特殊的",20)
 5476                     			.c_start  03922h,255
 5477                     			.const_data_psfar2
 5478  7ECF     CF E0 D0 C5 C4 	?PLC116:	.byte	"相信你一定有特殊的",0
              E3 D2 BB B6 A8 
              D3 D0 CC D8 CA 
              E2 B5 C4 00 
 5479                     			.program_psfar2
 5480  6A30     A9 14       			lda	#.low.20
 5481  6A32     85 20       			sta	__oper1
 5482  6A34     A9 00       			lda	#.high.20
 5483  6A36     85 21       			sta	__oper1+1
 5484  6A38     20 CA DA    			jsr	__store_int_funct_arg
 5485  6A3B     A9 CF       			lda	#.low.?PLC116
 5486  6A3D     85 20       			sta	__oper1
 5487  6A3F     A9 7E       			lda	#.high.?PLC116
 5488  6A41     85 21       			sta	__oper1+1
 5489  6A43     20 CA DA    			jsr	__store_int_funct_arg
 5490  6A46     A0 06       			ldy	#+2+?LSC0+?TSC0+4
 5491  6A48     B1 28       			lda	(__stack_ptr),y
 5492  6A4A     85 20       			sta	__oper1
 5493  6A4C     C8          			iny
 5494  6A4D     B1 28       			lda	(__stack_ptr),y
 5495  6A4F     85 21       			sta	__oper1+1
 5496  6A51     20 CA DA    			jsr	__store_int_funct_arg
 5497                     			.f_call	_SysMemcpy
 5498  6A54     20 01 E9    			jsr	_SysMemcpy
 5499  6A57     08          			php
 5500  6A58     78          			sei
 5501  6A59     18          			clc
 5502  6A5A     A5 28       			lda	__stack_ptr
 5503  6A5C     69 06       			adc	#.low.6
 5504  6A5E     85 28       			sta	__stack_ptr
 5505  6A60     A5 29       			lda	__stack_ptr+1
 5506  6A62     69 00       			adc	#.high.6
 5507  6A64     85 29       			sta	__stack_ptr+1
 5508  6A66     28          			plp
 5509                     			.c_end	0394ah,255
 5510                     	;break;
 5511                     	;		
 5512                     			.sw_break
  Tue Jan 13 23:03:19 2026                                                                                               Page  104




 5513  6A67     4C CC 72    			jmp	?BOL0
 5514                     	;case 459:		
 5515         3818 6A6A   	?SWL116:	.equal	$
 5516                     	;SysMemcpy(chars,"需要，只要你有金币",20)
 5517                     			.c_start  03960h,256
 5518                     			.const_data_psfar2
 5519  7EE2     D0 E8 D2 AA A3 	?PLC117:	.byte	"需要，只要你有金币",0
              AC D6 BB D2 AA 
              C4 E3 D3 D0 BD 
              F0 B1 D2 00 
 5520                     			.program_psfar2
 5521  6A6A     A9 14       			lda	#.low.20
 5522  6A6C     85 20       			sta	__oper1
 5523  6A6E     A9 00       			lda	#.high.20
 5524  6A70     85 21       			sta	__oper1+1
 5525  6A72     20 CA DA    			jsr	__store_int_funct_arg
 5526  6A75     A9 E2       			lda	#.low.?PLC117
 5527  6A77     85 20       			sta	__oper1
 5528  6A79     A9 7E       			lda	#.high.?PLC117
 5529  6A7B     85 21       			sta	__oper1+1
 5530  6A7D     20 CA DA    			jsr	__store_int_funct_arg
 5531  6A80     A0 06       			ldy	#+2+?LSC0+?TSC0+4
 5532  6A82     B1 28       			lda	(__stack_ptr),y
 5533  6A84     85 20       			sta	__oper1
 5534  6A86     C8          			iny
 5535  6A87     B1 28       			lda	(__stack_ptr),y
 5536  6A89     85 21       			sta	__oper1+1
 5537  6A8B     20 CA DA    			jsr	__store_int_funct_arg
 5538                     			.f_call	_SysMemcpy
 5539  6A8E     20 01 E9    			jsr	_SysMemcpy
 5540  6A91     08          			php
 5541  6A92     78          			sei
 5542  6A93     18          			clc
 5543  6A94     A5 28       			lda	__stack_ptr
 5544  6A96     69 06       			adc	#.low.6
 5545  6A98     85 28       			sta	__stack_ptr
 5546  6A9A     A5 29       			lda	__stack_ptr+1
 5547  6A9C     69 00       			adc	#.high.6
 5548  6A9E     85 29       			sta	__stack_ptr+1
 5549  6AA0     28          			plp
 5550                     			.c_end	03988h,256
 5551                     	;break;
 5552                     	;		
 5553                     			.sw_break
 5554  6AA1     4C CC 72    			jmp	?BOL0
 5555                     	;case 460:		
 5556         3223 6AA4   	?SWL117:	.equal	$
 5557                     	;SysMemcpy(chars,"，我就可以帮你：  ",20)
 5558                     			.c_start  0399eh,257
 5559                     			.const_data_psfar2
 5560  7EF5     A3 AC CE D2 BE 	?PLC118:	.byte	"，我就可以帮你：  ",0
              CD BF C9 D2 D4 
              B0 EF C4 E3 A3 
              BA 20 20 00 
 5561                     			.program_psfar2
 5562  6AA4     A9 14       			lda	#.low.20
 5563  6AA6     85 20       			sta	__oper1
  Tue Jan 13 23:03:19 2026                                                                                               Page  105




 5564  6AA8     A9 00       			lda	#.high.20
 5565  6AAA     85 21       			sta	__oper1+1
 5566  6AAC     20 CA DA    			jsr	__store_int_funct_arg
 5567  6AAF     A9 F5       			lda	#.low.?PLC118
 5568  6AB1     85 20       			sta	__oper1
 5569  6AB3     A9 7E       			lda	#.high.?PLC118
 5570  6AB5     85 21       			sta	__oper1+1
 5571  6AB7     20 CA DA    			jsr	__store_int_funct_arg
 5572  6ABA     A0 06       			ldy	#+2+?LSC0+?TSC0+4
 5573  6ABC     B1 28       			lda	(__stack_ptr),y
 5574  6ABE     85 20       			sta	__oper1
 5575  6AC0     C8          			iny
 5576  6AC1     B1 28       			lda	(__stack_ptr),y
 5577  6AC3     85 21       			sta	__oper1+1
 5578  6AC5     20 CA DA    			jsr	__store_int_funct_arg
 5579                     			.f_call	_SysMemcpy
 5580  6AC8     20 01 E9    			jsr	_SysMemcpy
 5581  6ACB     08          			php
 5582  6ACC     78          			sei
 5583  6ACD     18          			clc
 5584  6ACE     A5 28       			lda	__stack_ptr
 5585  6AD0     69 06       			adc	#.low.6
 5586  6AD2     85 28       			sta	__stack_ptr
 5587  6AD4     A5 29       			lda	__stack_ptr+1
 5588  6AD6     69 00       			adc	#.high.6
 5589  6AD8     85 29       			sta	__stack_ptr+1
 5590  6ADA     28          			plp
 5591                     			.c_end	039c6h,257
 5592                     	;break;
 5593                     	;		
 5594                     			.sw_break
 5595  6ADB     4C CC 72    			jmp	?BOL0
 5596                     	;case 461:		
 5597         4326 6ADE   	?SWL118:	.equal	$
 5598                     	;SysMemcpy(chars,"购买1号钥匙($10)  ",20)
 5599                     			.c_start  039dch,258
 5600                     			.const_data_psfar2
 5601  7F08     B9 BA C2 F2 31 	?PLC119:	.byte	"购买1号钥匙($10)  ",0
              BA C5 D4 BF B3 
              D7 28 24 31 30 
              29 20 20 00 
 5602                     			.program_psfar2
 5603  6ADE     A9 14       			lda	#.low.20
 5604  6AE0     85 20       			sta	__oper1
 5605  6AE2     A9 00       			lda	#.high.20
 5606  6AE4     85 21       			sta	__oper1+1
 5607  6AE6     20 CA DA    			jsr	__store_int_funct_arg
 5608  6AE9     A9 08       			lda	#.low.?PLC119
 5609  6AEB     85 20       			sta	__oper1
 5610  6AED     A9 7F       			lda	#.high.?PLC119
 5611  6AEF     85 21       			sta	__oper1+1
 5612  6AF1     20 CA DA    			jsr	__store_int_funct_arg
 5613  6AF4     A0 06       			ldy	#+2+?LSC0+?TSC0+4
 5614  6AF6     B1 28       			lda	(__stack_ptr),y
 5615  6AF8     85 20       			sta	__oper1
 5616  6AFA     C8          			iny
 5617  6AFB     B1 28       			lda	(__stack_ptr),y
  Tue Jan 13 23:03:19 2026                                                                                               Page  106




 5618  6AFD     85 21       			sta	__oper1+1
 5619  6AFF     20 CA DA    			jsr	__store_int_funct_arg
 5620                     			.f_call	_SysMemcpy
 5621  6B02     20 01 E9    			jsr	_SysMemcpy
 5622  6B05     08          			php
 5623  6B06     78          			sei
 5624  6B07     18          			clc
 5625  6B08     A5 28       			lda	__stack_ptr
 5626  6B0A     69 06       			adc	#.low.6
 5627  6B0C     85 28       			sta	__stack_ptr
 5628  6B0E     A5 29       			lda	__stack_ptr+1
 5629  6B10     69 00       			adc	#.high.6
 5630  6B12     85 29       			sta	__stack_ptr+1
 5631  6B14     28          			plp
 5632                     			.c_end	03a04h,258
 5633                     	;break;
 5634                     	;		
 5635                     			.sw_break
 5636  6B15     4C CC 72    			jmp	?BOL0
 5637                     	;case 462:		
 5638         3613 6B18   	?SWL119:	.equal	$
 5639                     	;SysMemcpy(chars,"购买2号钥匙($50)  ",20)
 5640                     			.c_start  03a1ah,259
 5641                     			.const_data_psfar2
 5642  7F1B     B9 BA C2 F2 32 	?PLC120:	.byte	"购买2号钥匙($50)  ",0
              BA C5 D4 BF B3 
              D7 28 24 35 30 
              29 20 20 00 
 5643                     			.program_psfar2
 5644  6B18     A9 14       			lda	#.low.20
 5645  6B1A     85 20       			sta	__oper1
 5646  6B1C     A9 00       			lda	#.high.20
 5647  6B1E     85 21       			sta	__oper1+1
 5648  6B20     20 CA DA    			jsr	__store_int_funct_arg
 5649  6B23     A9 1B       			lda	#.low.?PLC120
 5650  6B25     85 20       			sta	__oper1
 5651  6B27     A9 7F       			lda	#.high.?PLC120
 5652  6B29     85 21       			sta	__oper1+1
 5653  6B2B     20 CA DA    			jsr	__store_int_funct_arg
 5654  6B2E     A0 06       			ldy	#+2+?LSC0+?TSC0+4
 5655  6B30     B1 28       			lda	(__stack_ptr),y
 5656  6B32     85 20       			sta	__oper1
 5657  6B34     C8          			iny
 5658  6B35     B1 28       			lda	(__stack_ptr),y
 5659  6B37     85 21       			sta	__oper1+1
 5660  6B39     20 CA DA    			jsr	__store_int_funct_arg
 5661                     			.f_call	_SysMemcpy
 5662  6B3C     20 01 E9    			jsr	_SysMemcpy
 5663  6B3F     08          			php
 5664  6B40     78          			sei
 5665  6B41     18          			clc
 5666  6B42     A5 28       			lda	__stack_ptr
 5667  6B44     69 06       			adc	#.low.6
 5668  6B46     85 28       			sta	__stack_ptr
 5669  6B48     A5 29       			lda	__stack_ptr+1
 5670  6B4A     69 00       			adc	#.high.6
 5671  6B4C     85 29       			sta	__stack_ptr+1
  Tue Jan 13 23:03:19 2026                                                                                               Page  107




 5672  6B4E     28          			plp
 5673                     			.c_end	03a42h,259
 5674                     	;break;
 5675                     	;		
 5676                     			.sw_break
 5677  6B4F     4C CC 72    			jmp	?BOL0
 5678                     	;case 463:		
 5679         4716 6B52   	?SWL120:	.equal	$
 5680                     	;SysMemcpy(chars,"购买3号钥匙($100) ",20)
 5681                     			.c_start  03a58h,260
 5682                     			.const_data_psfar2
 5683  7F2E     B9 BA C2 F2 33 	?PLC121:	.byte	"购买3号钥匙($100) ",0
              BA C5 D4 BF B3 
              D7 28 24 31 30 
              30 29 20 00 
 5684                     			.program_psfar2
 5685  6B52     A9 14       			lda	#.low.20
 5686  6B54     85 20       			sta	__oper1
 5687  6B56     A9 00       			lda	#.high.20
 5688  6B58     85 21       			sta	__oper1+1
 5689  6B5A     20 CA DA    			jsr	__store_int_funct_arg
 5690  6B5D     A9 2E       			lda	#.low.?PLC121
 5691  6B5F     85 20       			sta	__oper1
 5692  6B61     A9 7F       			lda	#.high.?PLC121
 5693  6B63     85 21       			sta	__oper1+1
 5694  6B65     20 CA DA    			jsr	__store_int_funct_arg
 5695  6B68     A0 06       			ldy	#+2+?LSC0+?TSC0+4
 5696  6B6A     B1 28       			lda	(__stack_ptr),y
 5697  6B6C     85 20       			sta	__oper1
 5698  6B6E     C8          			iny
 5699  6B6F     B1 28       			lda	(__stack_ptr),y
 5700  6B71     85 21       			sta	__oper1+1
 5701  6B73     20 CA DA    			jsr	__store_int_funct_arg
 5702                     			.f_call	_SysMemcpy
 5703  6B76     20 01 E9    			jsr	_SysMemcpy
 5704  6B79     08          			php
 5705  6B7A     78          			sei
 5706  6B7B     18          			clc
 5707  6B7C     A5 28       			lda	__stack_ptr
 5708  6B7E     69 06       			adc	#.low.6
 5709  6B80     85 28       			sta	__stack_ptr
 5710  6B82     A5 29       			lda	__stack_ptr+1
 5711  6B84     69 00       			adc	#.high.6
 5712  6B86     85 29       			sta	__stack_ptr+1
 5713  6B88     28          			plp
 5714                     			.c_end	03a80h,260
 5715                     	;break;
 5716                     	;		
 5717                     			.sw_break
 5718  6B89     4C CC 72    			jmp	?BOL0
 5719                     	;case 464:		
 5720         3A1A 6B8C   	?SWL121:	.equal	$
 5721                     	;SysMemcpy(chars,"相信你一定有特殊的",20)
 5722                     			.c_start  03a96h,261
 5723                     			.const_data_psfar2
 5724  7F41     CF E0 D0 C5 C4 	?PLC122:	.byte	"相信你一定有特殊的",0
              E3 D2 BB B6 A8 
  Tue Jan 13 23:03:19 2026                                                                                               Page  108




              D3 D0 CC D8 CA 
              E2 B5 C4 00 
 5725                     			.program_psfar2
 5726  6B8C     A9 14       			lda	#.low.20
 5727  6B8E     85 20       			sta	__oper1
 5728  6B90     A9 00       			lda	#.high.20
 5729  6B92     85 21       			sta	__oper1+1
 5730  6B94     20 CA DA    			jsr	__store_int_funct_arg
 5731  6B97     A9 41       			lda	#.low.?PLC122
 5732  6B99     85 20       			sta	__oper1
 5733  6B9B     A9 7F       			lda	#.high.?PLC122
 5734  6B9D     85 21       			sta	__oper1+1
 5735  6B9F     20 CA DA    			jsr	__store_int_funct_arg
 5736  6BA2     A0 06       			ldy	#+2+?LSC0+?TSC0+4
 5737  6BA4     B1 28       			lda	(__stack_ptr),y
 5738  6BA6     85 20       			sta	__oper1
 5739  6BA8     C8          			iny
 5740  6BA9     B1 28       			lda	(__stack_ptr),y
 5741  6BAB     85 21       			sta	__oper1+1
 5742  6BAD     20 CA DA    			jsr	__store_int_funct_arg
 5743                     			.f_call	_SysMemcpy
 5744  6BB0     20 01 E9    			jsr	_SysMemcpy
 5745  6BB3     08          			php
 5746  6BB4     78          			sei
 5747  6BB5     18          			clc
 5748  6BB6     A5 28       			lda	__stack_ptr
 5749  6BB8     69 06       			adc	#.low.6
 5750  6BBA     85 28       			sta	__stack_ptr
 5751  6BBC     A5 29       			lda	__stack_ptr+1
 5752  6BBE     69 00       			adc	#.high.6
 5753  6BC0     85 29       			sta	__stack_ptr+1
 5754  6BC2     28          			plp
 5755                     			.c_end	03abeh,261
 5756                     	;break;
 5757                     	;		
 5758                     			.sw_break
 5759  6BC3     4C CC 72    			jmp	?BOL0
 5760                     	;case 465:		
 5761         3425 6BC6   	?SWL122:	.equal	$
 5762                     	;SysMemcpy(chars,"需要，只要你有钥匙",20)
 5763                     			.c_start  03ad4h,262
 5764                     			.const_data_psfar2
 5765  7F54     D0 E8 D2 AA A3 	?PLC123:	.byte	"需要，只要你有钥匙",0
              AC D6 BB D2 AA 
              C4 E3 D3 D0 D4 
              BF B3 D7 00 
 5766                     			.program_psfar2
 5767  6BC6     A9 14       			lda	#.low.20
 5768  6BC8     85 20       			sta	__oper1
 5769  6BCA     A9 00       			lda	#.high.20
 5770  6BCC     85 21       			sta	__oper1+1
 5771  6BCE     20 CA DA    			jsr	__store_int_funct_arg
 5772  6BD1     A9 54       			lda	#.low.?PLC123
 5773  6BD3     85 20       			sta	__oper1
 5774  6BD5     A9 7F       			lda	#.high.?PLC123
 5775  6BD7     85 21       			sta	__oper1+1
 5776  6BD9     20 CA DA    			jsr	__store_int_funct_arg
  Tue Jan 13 23:03:19 2026                                                                                               Page  109




 5777  6BDC     A0 06       			ldy	#+2+?LSC0+?TSC0+4
 5778  6BDE     B1 28       			lda	(__stack_ptr),y
 5779  6BE0     85 20       			sta	__oper1
 5780  6BE2     C8          			iny
 5781  6BE3     B1 28       			lda	(__stack_ptr),y
 5782  6BE5     85 21       			sta	__oper1+1
 5783  6BE7     20 CA DA    			jsr	__store_int_funct_arg
 5784                     			.f_call	_SysMemcpy
 5785  6BEA     20 01 E9    			jsr	_SysMemcpy
 5786  6BED     08          			php
 5787  6BEE     78          			sei
 5788  6BEF     18          			clc
 5789  6BF0     A5 28       			lda	__stack_ptr
 5790  6BF2     69 06       			adc	#.low.6
 5791  6BF4     85 28       			sta	__stack_ptr
 5792  6BF6     A5 29       			lda	__stack_ptr+1
 5793  6BF8     69 00       			adc	#.high.6
 5794  6BFA     85 29       			sta	__stack_ptr+1
 5795  6BFC     28          			plp
 5796                     			.c_end	03afch,262
 5797                     	;break;
 5798                     	;		
 5799                     			.sw_break
 5800  6BFD     4C CC 72    			jmp	?BOL0
 5801                     	;case 466:		
 5802         4528 6C00   	?SWL123:	.equal	$
 5803                     	;SysMemcpy(chars,"，我就可以帮你：  ",20)
 5804                     			.c_start  03b12h,263
 5805                     			.const_data_psfar2
 5806  7F67     A3 AC CE D2 BE 	?PLC124:	.byte	"，我就可以帮你：  ",0
              CD BF C9 D2 D4 
              B0 EF C4 E3 A3 
              BA 20 20 00 
 5807                     			.program_psfar2
 5808  6C00     A9 14       			lda	#.low.20
 5809  6C02     85 20       			sta	__oper1
 5810  6C04     A9 00       			lda	#.high.20
 5811  6C06     85 21       			sta	__oper1+1
 5812  6C08     20 CA DA    			jsr	__store_int_funct_arg
 5813  6C0B     A9 67       			lda	#.low.?PLC124
 5814  6C0D     85 20       			sta	__oper1
 5815  6C0F     A9 7F       			lda	#.high.?PLC124
 5816  6C11     85 21       			sta	__oper1+1
 5817  6C13     20 CA DA    			jsr	__store_int_funct_arg
 5818  6C16     A0 06       			ldy	#+2+?LSC0+?TSC0+4
 5819  6C18     B1 28       			lda	(__stack_ptr),y
 5820  6C1A     85 20       			sta	__oper1
 5821  6C1C     C8          			iny
 5822  6C1D     B1 28       			lda	(__stack_ptr),y
 5823  6C1F     85 21       			sta	__oper1+1
 5824  6C21     20 CA DA    			jsr	__store_int_funct_arg
 5825                     			.f_call	_SysMemcpy
 5826  6C24     20 01 E9    			jsr	_SysMemcpy
 5827  6C27     08          			php
 5828  6C28     78          			sei
 5829  6C29     18          			clc
 5830  6C2A     A5 28       			lda	__stack_ptr
  Tue Jan 13 23:03:19 2026                                                                                               Page  110




 5831  6C2C     69 06       			adc	#.low.6
 5832  6C2E     85 28       			sta	__stack_ptr
 5833  6C30     A5 29       			lda	__stack_ptr+1
 5834  6C32     69 00       			adc	#.high.6
 5835  6C34     85 29       			sta	__stack_ptr+1
 5836  6C36     28          			plp
 5837                     			.c_end	03b3ah,263
 5838                     	;break;
 5839                     	;		
 5840                     			.sw_break
 5841  6C37     4C CC 72    			jmp	?BOL0
 5842                     	;case 467:		
 5843         3815 6C3A   	?SWL124:	.equal	$
 5844                     	;SysMemcpy(chars,"卖出1号钥匙($7)   ",20)
 5845                     			.c_start  03b50h,264
 5846                     			.const_data_psfar2
 5847  7F7A     C2 F4 B3 F6 31 	?PLC125:	.byte	"卖出1号钥匙($7)   ",0
              BA C5 D4 BF B3 
              D7 28 24 37 29 
              20 20 20 00 
 5848                     			.program_psfar2
 5849  6C3A     A9 14       			lda	#.low.20
 5850  6C3C     85 20       			sta	__oper1
 5851  6C3E     A9 00       			lda	#.high.20
 5852  6C40     85 21       			sta	__oper1+1
 5853  6C42     20 CA DA    			jsr	__store_int_funct_arg
 5854  6C45     A9 7A       			lda	#.low.?PLC125
 5855  6C47     85 20       			sta	__oper1
 5856  6C49     A9 7F       			lda	#.high.?PLC125
 5857  6C4B     85 21       			sta	__oper1+1
 5858  6C4D     20 CA DA    			jsr	__store_int_funct_arg
 5859  6C50     A0 06       			ldy	#+2+?LSC0+?TSC0+4
 5860  6C52     B1 28       			lda	(__stack_ptr),y
 5861  6C54     85 20       			sta	__oper1
 5862  6C56     C8          			iny
 5863  6C57     B1 28       			lda	(__stack_ptr),y
 5864  6C59     85 21       			sta	__oper1+1
 5865  6C5B     20 CA DA    			jsr	__store_int_funct_arg
 5866                     			.f_call	_SysMemcpy
 5867  6C5E     20 01 E9    			jsr	_SysMemcpy
 5868  6C61     08          			php
 5869  6C62     78          			sei
 5870  6C63     18          			clc
 5871  6C64     A5 28       			lda	__stack_ptr
 5872  6C66     69 06       			adc	#.low.6
 5873  6C68     85 28       			sta	__stack_ptr
 5874  6C6A     A5 29       			lda	__stack_ptr+1
 5875  6C6C     69 00       			adc	#.high.6
 5876  6C6E     85 29       			sta	__stack_ptr+1
 5877  6C70     28          			plp
 5878                     			.c_end	03b78h,264
 5879                     	;break;
 5880                     	;		
 5881                     			.sw_break
 5882  6C71     4C CC 72    			jmp	?BOL0
 5883                     	;case 468:		
 5884         3219 6C74   	?SWL125:	.equal	$
  Tue Jan 13 23:03:19 2026                                                                                               Page  111




 5885                     	;SysMemcpy(chars,"卖出2号钥匙($35)  ",20)
 5886                     			.c_start  03b8eh,265
 5887                     			.const_data_psfar2
 5888  7F8D     C2 F4 B3 F6 32 	?PLC126:	.byte	"卖出2号钥匙($35)  ",0
              BA C5 D4 BF B3 
              D7 28 24 33 35 
              29 20 20 00 
 5889                     			.program_psfar2
 5890  6C74     A9 14       			lda	#.low.20
 5891  6C76     85 20       			sta	__oper1
 5892  6C78     A9 00       			lda	#.high.20
 5893  6C7A     85 21       			sta	__oper1+1
 5894  6C7C     20 CA DA    			jsr	__store_int_funct_arg
 5895  6C7F     A9 8D       			lda	#.low.?PLC126
 5896  6C81     85 20       			sta	__oper1
 5897  6C83     A9 7F       			lda	#.high.?PLC126
 5898  6C85     85 21       			sta	__oper1+1
 5899  6C87     20 CA DA    			jsr	__store_int_funct_arg
 5900  6C8A     A0 06       			ldy	#+2+?LSC0+?TSC0+4
 5901  6C8C     B1 28       			lda	(__stack_ptr),y
 5902  6C8E     85 20       			sta	__oper1
 5903  6C90     C8          			iny
 5904  6C91     B1 28       			lda	(__stack_ptr),y
 5905  6C93     85 21       			sta	__oper1+1
 5906  6C95     20 CA DA    			jsr	__store_int_funct_arg
 5907                     			.f_call	_SysMemcpy
 5908  6C98     20 01 E9    			jsr	_SysMemcpy
 5909  6C9B     08          			php
 5910  6C9C     78          			sei
 5911  6C9D     18          			clc
 5912  6C9E     A5 28       			lda	__stack_ptr
 5913  6CA0     69 06       			adc	#.low.6
 5914  6CA2     85 28       			sta	__stack_ptr
 5915  6CA4     A5 29       			lda	__stack_ptr+1
 5916  6CA6     69 00       			adc	#.high.6
 5917  6CA8     85 29       			sta	__stack_ptr+1
 5918  6CAA     28          			plp
 5919                     			.c_end	03bb6h,265
 5920                     	;break;
 5921                     	;		
 5922                     			.sw_break
 5923  6CAB     4C CC 72    			jmp	?BOL0
 5924                     	;case 469:		
 5925         4323 6CAE   	?SWL126:	.equal	$
 5926                     	;SysMemcpy(chars,"卖出3号钥匙($70)  ",20)
 5927                     			.c_start  03bcch,266
 5928                     			.const_data_psfar2
 5929  7FA0     C2 F4 B3 F6 33 	?PLC127:	.byte	"卖出3号钥匙($70)  ",0
              BA C5 D4 BF B3 
              D7 28 24 37 30 
              29 20 20 00 
 5930                     			.program_psfar2
 5931  6CAE     A9 14       			lda	#.low.20
 5932  6CB0     85 20       			sta	__oper1
 5933  6CB2     A9 00       			lda	#.high.20
 5934  6CB4     85 21       			sta	__oper1+1
 5935  6CB6     20 CA DA    			jsr	__store_int_funct_arg
  Tue Jan 13 23:03:19 2026                                                                                               Page  112




 5936  6CB9     A9 A0       			lda	#.low.?PLC127
 5937  6CBB     85 20       			sta	__oper1
 5938  6CBD     A9 7F       			lda	#.high.?PLC127
 5939  6CBF     85 21       			sta	__oper1+1
 5940  6CC1     20 CA DA    			jsr	__store_int_funct_arg
 5941  6CC4     A0 06       			ldy	#+2+?LSC0+?TSC0+4
 5942  6CC6     B1 28       			lda	(__stack_ptr),y
 5943  6CC8     85 20       			sta	__oper1
 5944  6CCA     C8          			iny
 5945  6CCB     B1 28       			lda	(__stack_ptr),y
 5946  6CCD     85 21       			sta	__oper1+1
 5947  6CCF     20 CA DA    			jsr	__store_int_funct_arg
 5948                     			.f_call	_SysMemcpy
 5949  6CD2     20 01 E9    			jsr	_SysMemcpy
 5950  6CD5     08          			php
 5951  6CD6     78          			sei
 5952  6CD7     18          			clc
 5953  6CD8     A5 28       			lda	__stack_ptr
 5954  6CDA     69 06       			adc	#.low.6
 5955  6CDC     85 28       			sta	__stack_ptr
 5956  6CDE     A5 29       			lda	__stack_ptr+1
 5957  6CE0     69 00       			adc	#.high.6
 5958  6CE2     85 29       			sta	__stack_ptr+1
 5959  6CE4     28          			plp
 5960                     			.c_end	03bf4h,266
 5961                     	;break;
 5962                     	;		
 5963                     			.sw_break
 5964  6CE5     4C CC 72    			jmp	?BOL0
 5965                     	;case 470:		
 5966         3627 6CE8   	?SWL127:	.equal	$
 5967                     	;SysMemcpy(chars,"想增加你的能力吗？",20)
 5968                     			.c_start  03c0ah,267
 5969                     			.const_data_psfar2
 5970  7FB3     CF EB D4 F6 BC 	?PLC128:	.byte	"想增加你的能力吗？",0
              D3 C4 E3 B5 C4 
              C4 DC C1 A6 C2 
              F0 A3 BF 00 
 5971                     			.program_psfar2
 5972  6CE8     A9 14       			lda	#.low.20
 5973  6CEA     85 20       			sta	__oper1
 5974  6CEC     A9 00       			lda	#.high.20
 5975  6CEE     85 21       			sta	__oper1+1
 5976  6CF0     20 CA DA    			jsr	__store_int_funct_arg
 5977  6CF3     A9 B3       			lda	#.low.?PLC128
 5978  6CF5     85 20       			sta	__oper1
 5979  6CF7     A9 7F       			lda	#.high.?PLC128
 5980  6CF9     85 21       			sta	__oper1+1
 5981  6CFB     20 CA DA    			jsr	__store_int_funct_arg
 5982  6CFE     A0 06       			ldy	#+2+?LSC0+?TSC0+4
 5983  6D00     B1 28       			lda	(__stack_ptr),y
 5984  6D02     85 20       			sta	__oper1
 5985  6D04     C8          			iny
 5986  6D05     B1 28       			lda	(__stack_ptr),y
 5987  6D07     85 21       			sta	__oper1+1
 5988  6D09     20 CA DA    			jsr	__store_int_funct_arg
 5989                     			.f_call	_SysMemcpy
  Tue Jan 13 23:03:19 2026                                                                                               Page  113




 5990  6D0C     20 01 E9    			jsr	_SysMemcpy
 5991  6D0F     08          			php
 5992  6D10     78          			sei
 5993  6D11     18          			clc
 5994  6D12     A5 28       			lda	__stack_ptr
 5995  6D14     69 06       			adc	#.low.6
 5996  6D16     85 28       			sta	__stack_ptr
 5997  6D18     A5 29       			lda	__stack_ptr+1
 5998  6D1A     69 00       			adc	#.high.6
 5999  6D1C     85 29       			sta	__stack_ptr+1
 6000  6D1E     28          			plp
 6001                     			.c_end	03c32h,267
 6002                     	;break;
 6003                     	;		
 6004                     			.sw_break
 6005  6D1F     4C CC 72    			jmp	?BOL0
 6006                     	;case 471:		
 6007         4713 6D22   	?SWL128:	.equal	$
 6008                     	;SysMemcpy(chars,"如果你有25个金币，",20)
 6009                     			.c_start  03c48h,268
 6010                     			.const_data_psfar2
 6011  7FC6     C8 E7 B9 FB C4 	?PLC129:	.byte	"如果你有25个金币，",0
              E3 D3 D0 32 35 
              B8 F6 BD F0 B1 
              D2 A3 AC 00 
 6012                     			.program_psfar2
 6013  6D22     A9 14       			lda	#.low.20
 6014  6D24     85 20       			sta	__oper1
 6015  6D26     A9 00       			lda	#.high.20
 6016  6D28     85 21       			sta	__oper1+1
 6017  6D2A     20 CA DA    			jsr	__store_int_funct_arg
 6018  6D2D     A9 C6       			lda	#.low.?PLC129
 6019  6D2F     85 20       			sta	__oper1
 6020  6D31     A9 7F       			lda	#.high.?PLC129
 6021  6D33     85 21       			sta	__oper1+1
 6022  6D35     20 CA DA    			jsr	__store_int_funct_arg
 6023  6D38     A0 06       			ldy	#+2+?LSC0+?TSC0+4
 6024  6D3A     B1 28       			lda	(__stack_ptr),y
 6025  6D3C     85 20       			sta	__oper1
 6026  6D3E     C8          			iny
 6027  6D3F     B1 28       			lda	(__stack_ptr),y
 6028  6D41     85 21       			sta	__oper1+1
 6029  6D43     20 CA DA    			jsr	__store_int_funct_arg
 6030                     			.f_call	_SysMemcpy
 6031  6D46     20 01 E9    			jsr	_SysMemcpy
 6032  6D49     08          			php
 6033  6D4A     78          			sei
 6034  6D4B     18          			clc
 6035  6D4C     A5 28       			lda	__stack_ptr
 6036  6D4E     69 06       			adc	#.low.6
 6037  6D50     85 28       			sta	__stack_ptr
 6038  6D52     A5 29       			lda	__stack_ptr+1
 6039  6D54     69 00       			adc	#.high.6
 6040  6D56     85 29       			sta	__stack_ptr+1
 6041  6D58     28          			plp
 6042                     			.c_end	03c70h,268
 6043                     	;break;
  Tue Jan 13 23:03:19 2026                                                                                               Page  114




 6044                     	;		
 6045                     			.sw_break
 6046  6D59     4C CC 72    			jmp	?BOL0
 6047                     	;case 472:		
 6048         3A17 6D5C   	?SWL129:	.equal	$
 6049                     	;SysMemcpy(chars,"你可以任意选一项：",20)
 6050                     			.c_start  03c86h,269
 6051                     			.const_data_psfar2
 6052  7FD9     C4 E3 BF C9 D2 	?PLC130:	.byte	"你可以任意选一项：",0
              D4 C8 CE D2 E2 
              D1 A1 D2 BB CF 
              EE A3 BA 00 
 6053                     			.program_psfar2
 6054  6D5C     A9 14       			lda	#.low.20
 6055  6D5E     85 20       			sta	__oper1
 6056  6D60     A9 00       			lda	#.high.20
 6057  6D62     85 21       			sta	__oper1+1
 6058  6D64     20 CA DA    			jsr	__store_int_funct_arg
 6059  6D67     A9 D9       			lda	#.low.?PLC130
 6060  6D69     85 20       			sta	__oper1
 6061  6D6B     A9 7F       			lda	#.high.?PLC130
 6062  6D6D     85 21       			sta	__oper1+1
 6063  6D6F     20 CA DA    			jsr	__store_int_funct_arg
 6064  6D72     A0 06       			ldy	#+2+?LSC0+?TSC0+4
 6065  6D74     B1 28       			lda	(__stack_ptr),y
 6066  6D76     85 20       			sta	__oper1
 6067  6D78     C8          			iny
 6068  6D79     B1 28       			lda	(__stack_ptr),y
 6069  6D7B     85 21       			sta	__oper1+1
 6070  6D7D     20 CA DA    			jsr	__store_int_funct_arg
 6071                     			.f_call	_SysMemcpy
 6072  6D80     20 01 E9    			jsr	_SysMemcpy
 6073  6D83     08          			php
 6074  6D84     78          			sei
 6075  6D85     18          			clc
 6076  6D86     A5 28       			lda	__stack_ptr
 6077  6D88     69 06       			adc	#.low.6
 6078  6D8A     85 28       			sta	__stack_ptr
 6079  6D8C     A5 29       			lda	__stack_ptr+1
 6080  6D8E     69 00       			adc	#.high.6
 6081  6D90     85 29       			sta	__stack_ptr+1
 6082  6D92     28          			plp
 6083                     			.c_end	03caeh,269
 6084                     	;break;
 6085                     	;		
 6086                     			.sw_break
 6087  6D93     4C CC 72    			jmp	?BOL0
 6088                     	;case 473:		
 6089         341B 6D96   	?SWL130:	.equal	$
 6090                     	;SysMemcpy(chars,"   增加800点生命  ",20)
 6091                     			.c_start  03cc4h,270
 6092                     			.const_data_psfar2
 6093  7FEC     20 20 20 D4 F6 	?PLC131:	.byte	"   增加800点生命  ",0
              BC D3 38 30 30 
              B5 E3 C9 FA C3 
              FC 20 20 00 
 6094                     			.program_psfar2
  Tue Jan 13 23:03:19 2026                                                                                               Page  115




 6095  6D96     A9 14       			lda	#.low.20
 6096  6D98     85 20       			sta	__oper1
 6097  6D9A     A9 00       			lda	#.high.20
 6098  6D9C     85 21       			sta	__oper1+1
 6099  6D9E     20 CA DA    			jsr	__store_int_funct_arg
 6100  6DA1     A9 EC       			lda	#.low.?PLC131
 6101  6DA3     85 20       			sta	__oper1
 6102  6DA5     A9 7F       			lda	#.high.?PLC131
 6103  6DA7     85 21       			sta	__oper1+1
 6104  6DA9     20 CA DA    			jsr	__store_int_funct_arg
 6105  6DAC     A0 06       			ldy	#+2+?LSC0+?TSC0+4
 6106  6DAE     B1 28       			lda	(__stack_ptr),y
 6107  6DB0     85 20       			sta	__oper1
 6108  6DB2     C8          			iny
 6109  6DB3     B1 28       			lda	(__stack_ptr),y
 6110  6DB5     85 21       			sta	__oper1+1
 6111  6DB7     20 CA DA    			jsr	__store_int_funct_arg
 6112                     			.f_call	_SysMemcpy
 6113  6DBA     20 01 E9    			jsr	_SysMemcpy
 6114  6DBD     08          			php
 6115  6DBE     78          			sei
 6116  6DBF     18          			clc
 6117  6DC0     A5 28       			lda	__stack_ptr
 6118  6DC2     69 06       			adc	#.low.6
 6119  6DC4     85 28       			sta	__stack_ptr
 6120  6DC6     A5 29       			lda	__stack_ptr+1
 6121  6DC8     69 00       			adc	#.high.6
 6122  6DCA     85 29       			sta	__stack_ptr+1
 6123  6DCC     28          			plp
 6124                     			.c_end	03cech,270
 6125                     	;break;
 6126                     	;		
 6127                     			.sw_break
 6128  6DCD     4C CC 72    			jmp	?BOL0
 6129                     	;case 474:		
 6130         4525 6DD0   	?SWL131:	.equal	$
 6131                     	;SysMemcpy(chars,"   增加4点攻击    ",20)
 6132                     			.c_start  03d02h,271
 6133                     			.const_data_psfar2
 6134  7FFF     20 20 20 D4 F6 	?PLC132:	.byte	"   增加4点攻击    ",0
              BC D3 34 B5 E3 
              B9 A5 BB F7 20 
              20 20 20 00 
 6135                     			.program_psfar2
 6136  6DD0     A9 14       			lda	#.low.20
 6137  6DD2     85 20       			sta	__oper1
 6138  6DD4     A9 00       			lda	#.high.20
 6139  6DD6     85 21       			sta	__oper1+1
 6140  6DD8     20 CA DA    			jsr	__store_int_funct_arg
 6141  6DDB     A9 FF       			lda	#.low.?PLC132
 6142  6DDD     85 20       			sta	__oper1
 6143  6DDF     A9 7F       			lda	#.high.?PLC132
 6144  6DE1     85 21       			sta	__oper1+1
 6145  6DE3     20 CA DA    			jsr	__store_int_funct_arg
 6146  6DE6     A0 06       			ldy	#+2+?LSC0+?TSC0+4
 6147  6DE8     B1 28       			lda	(__stack_ptr),y
 6148  6DEA     85 20       			sta	__oper1
  Tue Jan 13 23:03:19 2026                                                                                               Page  116




 6149  6DEC     C8          			iny
 6150  6DED     B1 28       			lda	(__stack_ptr),y
 6151  6DEF     85 21       			sta	__oper1+1
 6152  6DF1     20 CA DA    			jsr	__store_int_funct_arg
 6153                     			.f_call	_SysMemcpy
 6154  6DF4     20 01 E9    			jsr	_SysMemcpy
 6155  6DF7     08          			php
 6156  6DF8     78          			sei
 6157  6DF9     18          			clc
 6158  6DFA     A5 28       			lda	__stack_ptr
 6159  6DFC     69 06       			adc	#.low.6
 6160  6DFE     85 28       			sta	__stack_ptr
 6161  6E00     A5 29       			lda	__stack_ptr+1
 6162  6E02     69 00       			adc	#.high.6
 6163  6E04     85 29       			sta	__stack_ptr+1
 6164  6E06     28          			plp
 6165                     			.c_end	03d2ah,271
 6166                     	;break;
 6167                     	;		
 6168                     			.sw_break
 6169  6E07     4C CC 72    			jmp	?BOL0
 6170                     	;case 475:		
 6171         3812 6E0A   	?SWL132:	.equal	$
 6172                     	;SysMemcpy(chars,"   增加4点防御    ",20)
 6173                     			.c_start  03d40h,272
 6174                     			.const_data_psfar2
 6175  8012     20 20 20 D4 F6 	?PLC133:	.byte	"   增加4点防御    ",0
              BC D3 34 B5 E3 
              B7 C0 D3 F9 20 
              20 20 20 00 
 6176                     			.program_psfar2
 6177  6E0A     A9 14       			lda	#.low.20
 6178  6E0C     85 20       			sta	__oper1
 6179  6E0E     A9 00       			lda	#.high.20
 6180  6E10     85 21       			sta	__oper1+1
 6181  6E12     20 CA DA    			jsr	__store_int_funct_arg
 6182  6E15     A9 12       			lda	#.low.?PLC133
 6183  6E17     85 20       			sta	__oper1
 6184  6E19     A9 80       			lda	#.high.?PLC133
 6185  6E1B     85 21       			sta	__oper1+1
 6186  6E1D     20 CA DA    			jsr	__store_int_funct_arg
 6187  6E20     A0 06       			ldy	#+2+?LSC0+?TSC0+4
 6188  6E22     B1 28       			lda	(__stack_ptr),y
 6189  6E24     85 20       			sta	__oper1
 6190  6E26     C8          			iny
 6191  6E27     B1 28       			lda	(__stack_ptr),y
 6192  6E29     85 21       			sta	__oper1+1
 6193  6E2B     20 CA DA    			jsr	__store_int_funct_arg
 6194                     			.f_call	_SysMemcpy
 6195  6E2E     20 01 E9    			jsr	_SysMemcpy
 6196  6E31     08          			php
 6197  6E32     78          			sei
 6198  6E33     18          			clc
 6199  6E34     A5 28       			lda	__stack_ptr
 6200  6E36     69 06       			adc	#.low.6
 6201  6E38     85 28       			sta	__stack_ptr
 6202  6E3A     A5 29       			lda	__stack_ptr+1
  Tue Jan 13 23:03:19 2026                                                                                               Page  117




 6203  6E3C     69 00       			adc	#.high.6
 6204  6E3E     85 29       			sta	__stack_ptr+1
 6205  6E40     28          			plp
 6206                     			.c_end	03d68h,272
 6207                     	;break;
 6208                     	;		
 6209                     			.sw_break
 6210  6E41     4C CC 72    			jmp	?BOL0
 6211                     	;case 476:		
 6212         3216 6E44   	?SWL133:	.equal	$
 6213                     	;SysMemcpy(chars,"想要增加你的能力吗",20)
 6214                     			.c_start  03d7eh,273
 6215                     			.const_data_psfar2
 6216  8025     CF EB D2 AA D4 	?PLC134:	.byte	"想要增加你的能力吗",0
              F6 BC D3 C4 E3 
              B5 C4 C4 DC C1 
              A6 C2 F0 00 
 6217                     			.program_psfar2
 6218  6E44     A9 14       			lda	#.low.20
 6219  6E46     85 20       			sta	__oper1
 6220  6E48     A9 00       			lda	#.high.20
 6221  6E4A     85 21       			sta	__oper1+1
 6222  6E4C     20 CA DA    			jsr	__store_int_funct_arg
 6223  6E4F     A9 25       			lda	#.low.?PLC134
 6224  6E51     85 20       			sta	__oper1
 6225  6E53     A9 80       			lda	#.high.?PLC134
 6226  6E55     85 21       			sta	__oper1+1
 6227  6E57     20 CA DA    			jsr	__store_int_funct_arg
 6228  6E5A     A0 06       			ldy	#+2+?LSC0+?TSC0+4
 6229  6E5C     B1 28       			lda	(__stack_ptr),y
 6230  6E5E     85 20       			sta	__oper1
 6231  6E60     C8          			iny
 6232  6E61     B1 28       			lda	(__stack_ptr),y
 6233  6E63     85 21       			sta	__oper1+1
 6234  6E65     20 CA DA    			jsr	__store_int_funct_arg
 6235                     			.f_call	_SysMemcpy
 6236  6E68     20 01 E9    			jsr	_SysMemcpy
 6237  6E6B     08          			php
 6238  6E6C     78          			sei
 6239  6E6D     18          			clc
 6240  6E6E     A5 28       			lda	__stack_ptr
 6241  6E70     69 06       			adc	#.low.6
 6242  6E72     85 28       			sta	__stack_ptr
 6243  6E74     A5 29       			lda	__stack_ptr+1
 6244  6E76     69 00       			adc	#.high.6
 6245  6E78     85 29       			sta	__stack_ptr+1
 6246  6E7A     28          			plp
 6247                     			.c_end	03da6h,273
 6248                     	;break;
 6249                     	;		
 6250                     			.sw_break
 6251  6E7B     4C CC 72    			jmp	?BOL0
 6252                     	;case 477:		
 6253         4319 6E7E   	?SWL134:	.equal	$
 6254                     	;SysMemcpy(chars,"？如果你有 100个金",20)
 6255                     			.c_start  03dbch,274
 6256                     			.const_data_psfar2
  Tue Jan 13 23:03:19 2026                                                                                               Page  118




 6257  8038     A3 BF C8 E7 B9 	?PLC135:	.byte	"？如果你有 100个金",0
              FB C4 E3 D3 D0 
              20 31 30 30 B8 
              F6 BD F0 00 
 6258                     			.program_psfar2
 6259  6E7E     A9 14       			lda	#.low.20
 6260  6E80     85 20       			sta	__oper1
 6261  6E82     A9 00       			lda	#.high.20
 6262  6E84     85 21       			sta	__oper1+1
 6263  6E86     20 CA DA    			jsr	__store_int_funct_arg
 6264  6E89     A9 38       			lda	#.low.?PLC135
 6265  6E8B     85 20       			sta	__oper1
 6266  6E8D     A9 80       			lda	#.high.?PLC135
 6267  6E8F     85 21       			sta	__oper1+1
 6268  6E91     20 CA DA    			jsr	__store_int_funct_arg
 6269  6E94     A0 06       			ldy	#+2+?LSC0+?TSC0+4
 6270  6E96     B1 28       			lda	(__stack_ptr),y
 6271  6E98     85 20       			sta	__oper1
 6272  6E9A     C8          			iny
 6273  6E9B     B1 28       			lda	(__stack_ptr),y
 6274  6E9D     85 21       			sta	__oper1+1
 6275  6E9F     20 CA DA    			jsr	__store_int_funct_arg
 6276                     			.f_call	_SysMemcpy
 6277  6EA2     20 01 E9    			jsr	_SysMemcpy
 6278  6EA5     08          			php
 6279  6EA6     78          			sei
 6280  6EA7     18          			clc
 6281  6EA8     A5 28       			lda	__stack_ptr
 6282  6EAA     69 06       			adc	#.low.6
 6283  6EAC     85 28       			sta	__stack_ptr
 6284  6EAE     A5 29       			lda	__stack_ptr+1
 6285  6EB0     69 00       			adc	#.high.6
 6286  6EB2     85 29       			sta	__stack_ptr+1
 6287  6EB4     28          			plp
 6288                     			.c_end	03de4h,274
 6289                     	;break;
 6290                     	;		
 6291                     			.sw_break
 6292  6EB5     4C CC 72    			jmp	?BOL0
 6293                     	;case 478:		
 6294         3624 6EB8   	?SWL135:	.equal	$
 6295                     	;SysMemcpy(chars,"币，你可以任意选一",20)
 6296                     			.c_start  03dfah,275
 6297                     			.const_data_psfar2
 6298  804B     B1 D2 A3 AC C4 	?PLC136:	.byte	"币，你可以任意选一",0
              E3 BF C9 D2 D4 
              C8 CE D2 E2 D1 
              A1 D2 BB 00 
 6299                     			.program_psfar2
 6300  6EB8     A9 14       			lda	#.low.20
 6301  6EBA     85 20       			sta	__oper1
 6302  6EBC     A9 00       			lda	#.high.20
 6303  6EBE     85 21       			sta	__oper1+1
 6304  6EC0     20 CA DA    			jsr	__store_int_funct_arg
 6305  6EC3     A9 4B       			lda	#.low.?PLC136
 6306  6EC5     85 20       			sta	__oper1
 6307  6EC7     A9 80       			lda	#.high.?PLC136
  Tue Jan 13 23:03:19 2026                                                                                               Page  119




 6308  6EC9     85 21       			sta	__oper1+1
 6309  6ECB     20 CA DA    			jsr	__store_int_funct_arg
 6310  6ECE     A0 06       			ldy	#+2+?LSC0+?TSC0+4
 6311  6ED0     B1 28       			lda	(__stack_ptr),y
 6312  6ED2     85 20       			sta	__oper1
 6313  6ED4     C8          			iny
 6314  6ED5     B1 28       			lda	(__stack_ptr),y
 6315  6ED7     85 21       			sta	__oper1+1
 6316  6ED9     20 CA DA    			jsr	__store_int_funct_arg
 6317                     			.f_call	_SysMemcpy
 6318  6EDC     20 01 E9    			jsr	_SysMemcpy
 6319  6EDF     08          			php
 6320  6EE0     78          			sei
 6321  6EE1     18          			clc
 6322  6EE2     A5 28       			lda	__stack_ptr
 6323  6EE4     69 06       			adc	#.low.6
 6324  6EE6     85 28       			sta	__stack_ptr
 6325  6EE8     A5 29       			lda	__stack_ptr+1
 6326  6EEA     69 00       			adc	#.high.6
 6327  6EEC     85 29       			sta	__stack_ptr+1
 6328  6EEE     28          			plp
 6329                     			.c_end	03e22h,275
 6330                     	;break;
 6331                     	;		
 6332                     			.sw_break
 6333  6EEF     4C CC 72    			jmp	?BOL0
 6334                     	;case 479:		
 6335         4727 6EF2   	?SWL136:	.equal	$
 6336                     	;SysMemcpy(chars,"项：              ",20)
 6337                     			.c_start  03e38h,276
 6338                     			.const_data_psfar2
 6339  805E     CF EE A3 BA 20 	?PLC137:	.byte	"项：              ",0
              20 20 20 20 20 
              20 20 20 20 20 
              20 20 20 00 
 6340                     			.program_psfar2
 6341  6EF2     A9 14       			lda	#.low.20
 6342  6EF4     85 20       			sta	__oper1
 6343  6EF6     A9 00       			lda	#.high.20
 6344  6EF8     85 21       			sta	__oper1+1
 6345  6EFA     20 CA DA    			jsr	__store_int_funct_arg
 6346  6EFD     A9 5E       			lda	#.low.?PLC137
 6347  6EFF     85 20       			sta	__oper1
 6348  6F01     A9 80       			lda	#.high.?PLC137
 6349  6F03     85 21       			sta	__oper1+1
 6350  6F05     20 CA DA    			jsr	__store_int_funct_arg
 6351  6F08     A0 06       			ldy	#+2+?LSC0+?TSC0+4
 6352  6F0A     B1 28       			lda	(__stack_ptr),y
 6353  6F0C     85 20       			sta	__oper1
 6354  6F0E     C8          			iny
 6355  6F0F     B1 28       			lda	(__stack_ptr),y
 6356  6F11     85 21       			sta	__oper1+1
 6357  6F13     20 CA DA    			jsr	__store_int_funct_arg
 6358                     			.f_call	_SysMemcpy
 6359  6F16     20 01 E9    			jsr	_SysMemcpy
 6360  6F19     08          			php
 6361  6F1A     78          			sei
  Tue Jan 13 23:03:19 2026                                                                                               Page  120




 6362  6F1B     18          			clc
 6363  6F1C     A5 28       			lda	__stack_ptr
 6364  6F1E     69 06       			adc	#.low.6
 6365  6F20     85 28       			sta	__stack_ptr
 6366  6F22     A5 29       			lda	__stack_ptr+1
 6367  6F24     69 00       			adc	#.high.6
 6368  6F26     85 29       			sta	__stack_ptr+1
 6369  6F28     28          			plp
 6370                     			.c_end	03e60h,276
 6371                     	;break;
 6372                     	;		
 6373                     			.sw_break
 6374  6F29     4C CC 72    			jmp	?BOL0
 6375                     	;case 480:		
 6376         3A14 6F2C   	?SWL137:	.equal	$
 6377                     	;SysMemcpy(chars,"  增加4000点生命  ",20)
 6378                     			.c_start  03e76h,277
 6379                     			.const_data_psfar2
 6380  8071     20 20 D4 F6 BC 	?PLC138:	.byte	"  增加4000点生命  ",0
              D3 34 30 30 30 
              B5 E3 C9 FA C3 
              FC 20 20 00 
 6381                     			.program_psfar2
 6382  6F2C     A9 14       			lda	#.low.20
 6383  6F2E     85 20       			sta	__oper1
 6384  6F30     A9 00       			lda	#.high.20
 6385  6F32     85 21       			sta	__oper1+1
 6386  6F34     20 CA DA    			jsr	__store_int_funct_arg
 6387  6F37     A9 71       			lda	#.low.?PLC138
 6388  6F39     85 20       			sta	__oper1
 6389  6F3B     A9 80       			lda	#.high.?PLC138
 6390  6F3D     85 21       			sta	__oper1+1
 6391  6F3F     20 CA DA    			jsr	__store_int_funct_arg
 6392  6F42     A0 06       			ldy	#+2+?LSC0+?TSC0+4
 6393  6F44     B1 28       			lda	(__stack_ptr),y
 6394  6F46     85 20       			sta	__oper1
 6395  6F48     C8          			iny
 6396  6F49     B1 28       			lda	(__stack_ptr),y
 6397  6F4B     85 21       			sta	__oper1+1
 6398  6F4D     20 CA DA    			jsr	__store_int_funct_arg
 6399                     			.f_call	_SysMemcpy
 6400  6F50     20 01 E9    			jsr	_SysMemcpy
 6401  6F53     08          			php
 6402  6F54     78          			sei
 6403  6F55     18          			clc
 6404  6F56     A5 28       			lda	__stack_ptr
 6405  6F58     69 06       			adc	#.low.6
 6406  6F5A     85 28       			sta	__stack_ptr
 6407  6F5C     A5 29       			lda	__stack_ptr+1
 6408  6F5E     69 00       			adc	#.high.6
 6409  6F60     85 29       			sta	__stack_ptr+1
 6410  6F62     28          			plp
 6411                     			.c_end	03e9eh,277
 6412                     	;break;
 6413                     	;		
 6414                     			.sw_break
 6415  6F63     4C CC 72    			jmp	?BOL0
  Tue Jan 13 23:03:19 2026                                                                                               Page  121




 6416                     	;case 481:		
 6417         3418 6F66   	?SWL138:	.equal	$
 6418                     	;SysMemcpy(chars,"  增加20点攻击    ",20)
 6419                     			.c_start  03eb4h,278
 6420                     			.const_data_psfar2
 6421  8084     20 20 D4 F6 BC 	?PLC139:	.byte	"  增加20点攻击    ",0
              D3 32 30 B5 E3 
              B9 A5 BB F7 20 
              20 20 20 00 
 6422                     			.program_psfar2
 6423  6F66     A9 14       			lda	#.low.20
 6424  6F68     85 20       			sta	__oper1
 6425  6F6A     A9 00       			lda	#.high.20
 6426  6F6C     85 21       			sta	__oper1+1
 6427  6F6E     20 CA DA    			jsr	__store_int_funct_arg
 6428  6F71     A9 84       			lda	#.low.?PLC139
 6429  6F73     85 20       			sta	__oper1
 6430  6F75     A9 80       			lda	#.high.?PLC139
 6431  6F77     85 21       			sta	__oper1+1
 6432  6F79     20 CA DA    			jsr	__store_int_funct_arg
 6433  6F7C     A0 06       			ldy	#+2+?LSC0+?TSC0+4
 6434  6F7E     B1 28       			lda	(__stack_ptr),y
 6435  6F80     85 20       			sta	__oper1
 6436  6F82     C8          			iny
 6437  6F83     B1 28       			lda	(__stack_ptr),y
 6438  6F85     85 21       			sta	__oper1+1
 6439  6F87     20 CA DA    			jsr	__store_int_funct_arg
 6440                     			.f_call	_SysMemcpy
 6441  6F8A     20 01 E9    			jsr	_SysMemcpy
 6442  6F8D     08          			php
 6443  6F8E     78          			sei
 6444  6F8F     18          			clc
 6445  6F90     A5 28       			lda	__stack_ptr
 6446  6F92     69 06       			adc	#.low.6
 6447  6F94     85 28       			sta	__stack_ptr
 6448  6F96     A5 29       			lda	__stack_ptr+1
 6449  6F98     69 00       			adc	#.high.6
 6450  6F9A     85 29       			sta	__stack_ptr+1
 6451  6F9C     28          			plp
 6452                     			.c_end	03edch,278
 6453                     	;break;
 6454                     	;		
 6455                     			.sw_break
 6456  6F9D     4C CC 72    			jmp	?BOL0
 6457                     	;case 482:		
 6458         451B 6FA0   	?SWL139:	.equal	$
 6459                     	;SysMemcpy(chars,"  增加20点防御    ",20)
 6460                     			.c_start  03ef2h,279
 6461                     			.const_data_psfar2
 6462  8097     20 20 D4 F6 BC 	?PLC140:	.byte	"  增加20点防御    ",0
              D3 32 30 B5 E3 
              B7 C0 D3 F9 20 
              20 20 20 00 
 6463                     			.program_psfar2
 6464  6FA0     A9 14       			lda	#.low.20
 6465  6FA2     85 20       			sta	__oper1
 6466  6FA4     A9 00       			lda	#.high.20
  Tue Jan 13 23:03:19 2026                                                                                               Page  122




 6467  6FA6     85 21       			sta	__oper1+1
 6468  6FA8     20 CA DA    			jsr	__store_int_funct_arg
 6469  6FAB     A9 97       			lda	#.low.?PLC140
 6470  6FAD     85 20       			sta	__oper1
 6471  6FAF     A9 80       			lda	#.high.?PLC140
 6472  6FB1     85 21       			sta	__oper1+1
 6473  6FB3     20 CA DA    			jsr	__store_int_funct_arg
 6474  6FB6     A0 06       			ldy	#+2+?LSC0+?TSC0+4
 6475  6FB8     B1 28       			lda	(__stack_ptr),y
 6476  6FBA     85 20       			sta	__oper1
 6477  6FBC     C8          			iny
 6478  6FBD     B1 28       			lda	(__stack_ptr),y
 6479  6FBF     85 21       			sta	__oper1+1
 6480  6FC1     20 CA DA    			jsr	__store_int_funct_arg
 6481                     			.f_call	_SysMemcpy
 6482  6FC4     20 01 E9    			jsr	_SysMemcpy
 6483  6FC7     08          			php
 6484  6FC8     78          			sei
 6485  6FC9     18          			clc
 6486  6FCA     A5 28       			lda	__stack_ptr
 6487  6FCC     69 06       			adc	#.low.6
 6488  6FCE     85 28       			sta	__stack_ptr
 6489  6FD0     A5 29       			lda	__stack_ptr+1
 6490  6FD2     69 00       			adc	#.high.6
 6491  6FD4     85 29       			sta	__stack_ptr+1
 6492  6FD6     28          			plp
 6493                     			.c_end	03f1ah,279
 6494                     	;break;
 6495                     	;		
 6496                     			.sw_break
 6497  6FD7     4C CC 72    			jmp	?BOL0
 6498                     	;case 483:		
 6499         3826 6FDA   	?SWL140:	.equal	$
 6500                     	;SysMemcpy(chars,"{得到<铁剑>： 攻击",20)
 6501                     			.c_start  03f30h,280
 6502                     			.const_data_psfar2
 6503  80AA     7B B5 C3 B5 BD 	?PLC141:	.byte	"{得到<铁剑>： 攻击",0
              3C CC FA BD A3 
              3E A3 BA 20 B9 
              A5 BB F7 00 
 6504                     			.program_psfar2
 6505  6FDA     A9 14       			lda	#.low.20
 6506  6FDC     85 20       			sta	__oper1
 6507  6FDE     A9 00       			lda	#.high.20
 6508  6FE0     85 21       			sta	__oper1+1
 6509  6FE2     20 CA DA    			jsr	__store_int_funct_arg
 6510  6FE5     A9 AA       			lda	#.low.?PLC141
 6511  6FE7     85 20       			sta	__oper1
 6512  6FE9     A9 80       			lda	#.high.?PLC141
 6513  6FEB     85 21       			sta	__oper1+1
 6514  6FED     20 CA DA    			jsr	__store_int_funct_arg
 6515  6FF0     A0 06       			ldy	#+2+?LSC0+?TSC0+4
 6516  6FF2     B1 28       			lda	(__stack_ptr),y
 6517  6FF4     85 20       			sta	__oper1
 6518  6FF6     C8          			iny
 6519  6FF7     B1 28       			lda	(__stack_ptr),y
 6520  6FF9     85 21       			sta	__oper1+1
  Tue Jan 13 23:03:19 2026                                                                                               Page  123




 6521  6FFB     20 CA DA    			jsr	__store_int_funct_arg
 6522                     			.f_call	_SysMemcpy
 6523  6FFE     20 01 E9    			jsr	_SysMemcpy
 6524  7001     08          			php
 6525  7002     78          			sei
 6526  7003     18          			clc
 6527  7004     A5 28       			lda	__stack_ptr
 6528  7006     69 06       			adc	#.low.6
 6529  7008     85 28       			sta	__stack_ptr
 6530  700A     A5 29       			lda	__stack_ptr+1
 6531  700C     69 00       			adc	#.high.6
 6532  700E     85 29       			sta	__stack_ptr+1
 6533  7010     28          			plp
 6534                     			.c_end	03f58h,280
 6535                     	;break;
 6536                     	;		
 6537                     			.sw_break
 6538  7011     4C CC 72    			jmp	?BOL0
 6539                     	;case 484:		
 6540         3213 7014   	?SWL141:	.equal	$
 6541                     	;SysMemcpy(chars,"+ 10}             ",20)
 6542                     			.c_start  03f6eh,281
 6543                     			.const_data_psfar2
 6544  80BD     2B 20 31 30 7D 	?PLC142:	.byte	"+ 10}             ",0
              20 20 20 20 20 
              20 20 20 20 20 
              20 20 20 00 
 6545                     			.program_psfar2
 6546  7014     A9 14       			lda	#.low.20
 6547  7016     85 20       			sta	__oper1
 6548  7018     A9 00       			lda	#.high.20
 6549  701A     85 21       			sta	__oper1+1
 6550  701C     20 CA DA    			jsr	__store_int_funct_arg
 6551  701F     A9 BD       			lda	#.low.?PLC142
 6552  7021     85 20       			sta	__oper1
 6553  7023     A9 80       			lda	#.high.?PLC142
 6554  7025     85 21       			sta	__oper1+1
 6555  7027     20 CA DA    			jsr	__store_int_funct_arg
 6556  702A     A0 06       			ldy	#+2+?LSC0+?TSC0+4
 6557  702C     B1 28       			lda	(__stack_ptr),y
 6558  702E     85 20       			sta	__oper1
 6559  7030     C8          			iny
 6560  7031     B1 28       			lda	(__stack_ptr),y
 6561  7033     85 21       			sta	__oper1+1
 6562  7035     20 CA DA    			jsr	__store_int_funct_arg
 6563                     			.f_call	_SysMemcpy
 6564  7038     20 01 E9    			jsr	_SysMemcpy
 6565  703B     08          			php
 6566  703C     78          			sei
 6567  703D     18          			clc
 6568  703E     A5 28       			lda	__stack_ptr
 6569  7040     69 06       			adc	#.low.6
 6570  7042     85 28       			sta	__stack_ptr
 6571  7044     A5 29       			lda	__stack_ptr+1
 6572  7046     69 00       			adc	#.high.6
 6573  7048     85 29       			sta	__stack_ptr+1
 6574  704A     28          			plp
  Tue Jan 13 23:03:19 2026                                                                                               Page  124




 6575                     			.c_end	03f96h,281
 6576                     	;break;
 6577                     	;		
 6578                     			.sw_break
 6579  704B     4C CC 72    			jmp	?BOL0
 6580                     	;case 485:		
 6581         4316 704E   	?SWL142:	.equal	$
 6582                     	;SysMemcpy(chars,"{得到<铁盾>： 防御",20)
 6583                     			.c_start  03fach,282
 6584                     			.const_data_psfar2
 6585  80D0     7B B5 C3 B5 BD 	?PLC143:	.byte	"{得到<铁盾>： 防御",0
              3C CC FA B6 DC 
              3E A3 BA 20 B7 
              C0 D3 F9 00 
 6586                     			.program_psfar2
 6587  704E     A9 14       			lda	#.low.20
 6588  7050     85 20       			sta	__oper1
 6589  7052     A9 00       			lda	#.high.20
 6590  7054     85 21       			sta	__oper1+1
 6591  7056     20 CA DA    			jsr	__store_int_funct_arg
 6592  7059     A9 D0       			lda	#.low.?PLC143
 6593  705B     85 20       			sta	__oper1
 6594  705D     A9 80       			lda	#.high.?PLC143
 6595  705F     85 21       			sta	__oper1+1
 6596  7061     20 CA DA    			jsr	__store_int_funct_arg
 6597  7064     A0 06       			ldy	#+2+?LSC0+?TSC0+4
 6598  7066     B1 28       			lda	(__stack_ptr),y
 6599  7068     85 20       			sta	__oper1
 6600  706A     C8          			iny
 6601  706B     B1 28       			lda	(__stack_ptr),y
 6602  706D     85 21       			sta	__oper1+1
 6603  706F     20 CA DA    			jsr	__store_int_funct_arg
 6604                     			.f_call	_SysMemcpy
 6605  7072     20 01 E9    			jsr	_SysMemcpy
 6606  7075     08          			php
 6607  7076     78          			sei
 6608  7077     18          			clc
 6609  7078     A5 28       			lda	__stack_ptr
 6610  707A     69 06       			adc	#.low.6
 6611  707C     85 28       			sta	__stack_ptr
 6612  707E     A5 29       			lda	__stack_ptr+1
 6613  7080     69 00       			adc	#.high.6
 6614  7082     85 29       			sta	__stack_ptr+1
 6615  7084     28          			plp
 6616                     			.c_end	03fd4h,282
 6617                     	;break;
 6618                     	;		
 6619                     			.sw_break
 6620  7085     4C CC 72    			jmp	?BOL0
 6621                     	;case 486:		
 6622         361A 7088   	?SWL143:	.equal	$
 6623                     	;SysMemcpy(chars,"+ 10}             ",20)
 6624                     			.c_start  03feah,283
 6625                     			.const_data_psfar2
 6626  80E3     2B 20 31 30 7D 	?PLC144:	.byte	"+ 10}             ",0
              20 20 20 20 20 
              20 20 20 20 20 
  Tue Jan 13 23:03:19 2026                                                                                               Page  125




              20 20 20 00 
 6627                     			.program_psfar2
 6628  7088     A9 14       			lda	#.low.20
 6629  708A     85 20       			sta	__oper1
 6630  708C     A9 00       			lda	#.high.20
 6631  708E     85 21       			sta	__oper1+1
 6632  7090     20 CA DA    			jsr	__store_int_funct_arg
 6633  7093     A9 E3       			lda	#.low.?PLC144
 6634  7095     85 20       			sta	__oper1
 6635  7097     A9 80       			lda	#.high.?PLC144
 6636  7099     85 21       			sta	__oper1+1
 6637  709B     20 CA DA    			jsr	__store_int_funct_arg
 6638  709E     A0 06       			ldy	#+2+?LSC0+?TSC0+4
 6639  70A0     B1 28       			lda	(__stack_ptr),y
 6640  70A2     85 20       			sta	__oper1
 6641  70A4     C8          			iny
 6642  70A5     B1 28       			lda	(__stack_ptr),y
 6643  70A7     85 21       			sta	__oper1+1
 6644  70A9     20 CA DA    			jsr	__store_int_funct_arg
 6645                     			.f_call	_SysMemcpy
 6646  70AC     20 01 E9    			jsr	_SysMemcpy
 6647  70AF     08          			php
 6648  70B0     78          			sei
 6649  70B1     18          			clc
 6650  70B2     A5 28       			lda	__stack_ptr
 6651  70B4     69 06       			adc	#.low.6
 6652  70B6     85 28       			sta	__stack_ptr
 6653  70B8     A5 29       			lda	__stack_ptr+1
 6654  70BA     69 00       			adc	#.high.6
 6655  70BC     85 29       			sta	__stack_ptr+1
 6656  70BE     28          			plp
 6657                     			.c_end	04012h,283
 6658                     	;break;	
 6659                     	;		
 6660                     			.sw_break
 6661  70BF     4C CC 72    			jmp	?BOL0
 6662                     	;case 487:		
 6663         4724 70C2   	?SWL144:	.equal	$
 6664                     	;SysMemcpy(chars,"开发团队：        ",20)
 6665                     			.c_start  04029h,284
 6666                     			.const_data_psfar2
 6667  80F6     BF AA B7 A2 CD 	?PLC145:	.byte	"开发团队：        ",0
              C5 B6 D3 A3 BA 
              20 20 20 20 20 
              20 20 20 00 
 6668                     			.program_psfar2
 6669  70C2     A9 14       			lda	#.low.20
 6670  70C4     85 20       			sta	__oper1
 6671  70C6     A9 00       			lda	#.high.20
 6672  70C8     85 21       			sta	__oper1+1
 6673  70CA     20 CA DA    			jsr	__store_int_funct_arg
 6674  70CD     A9 F6       			lda	#.low.?PLC145
 6675  70CF     85 20       			sta	__oper1
 6676  70D1     A9 80       			lda	#.high.?PLC145
 6677  70D3     85 21       			sta	__oper1+1
 6678  70D5     20 CA DA    			jsr	__store_int_funct_arg
 6679  70D8     A0 06       			ldy	#+2+?LSC0+?TSC0+4
  Tue Jan 13 23:03:19 2026                                                                                               Page  126




 6680  70DA     B1 28       			lda	(__stack_ptr),y
 6681  70DC     85 20       			sta	__oper1
 6682  70DE     C8          			iny
 6683  70DF     B1 28       			lda	(__stack_ptr),y
 6684  70E1     85 21       			sta	__oper1+1
 6685  70E3     20 CA DA    			jsr	__store_int_funct_arg
 6686                     			.f_call	_SysMemcpy
 6687  70E6     20 01 E9    			jsr	_SysMemcpy
 6688  70E9     08          			php
 6689  70EA     78          			sei
 6690  70EB     18          			clc
 6691  70EC     A5 28       			lda	__stack_ptr
 6692  70EE     69 06       			adc	#.low.6
 6693  70F0     85 28       			sta	__stack_ptr
 6694  70F2     A5 29       			lda	__stack_ptr+1
 6695  70F4     69 00       			adc	#.high.6
 6696  70F6     85 29       			sta	__stack_ptr+1
 6697  70F8     28          			plp
 6698                     			.c_end	04051h,284
 6699                     	;break;
 6700                     	;		
 6701                     			.sw_break
 6702  70F9     4C CC 72    			jmp	?BOL0
 6703                     	;case 488:		
 6704         3A28 70FC   	?SWL145:	.equal	$
 6705                     	;SysMemcpy(chars,"   华中科技大学   ",20)
 6706                     			.c_start  04067h,285
 6707                     			.const_data_psfar2
 6708  8109     20 20 20 BB AA 	?PLC146:	.byte	"   华中科技大学   ",0
              D6 D0 BF C6 BC 
              BC B4 F3 D1 A7 
              20 20 20 00 
 6709                     			.program_psfar2
 6710  70FC     A9 14       			lda	#.low.20
 6711  70FE     85 20       			sta	__oper1
 6712  7100     A9 00       			lda	#.high.20
 6713  7102     85 21       			sta	__oper1+1
 6714  7104     20 CA DA    			jsr	__store_int_funct_arg
 6715  7107     A9 09       			lda	#.low.?PLC146
 6716  7109     85 20       			sta	__oper1
 6717  710B     A9 81       			lda	#.high.?PLC146
 6718  710D     85 21       			sta	__oper1+1
 6719  710F     20 CA DA    			jsr	__store_int_funct_arg
 6720  7112     A0 06       			ldy	#+2+?LSC0+?TSC0+4
 6721  7114     B1 28       			lda	(__stack_ptr),y
 6722  7116     85 20       			sta	__oper1
 6723  7118     C8          			iny
 6724  7119     B1 28       			lda	(__stack_ptr),y
 6725  711B     85 21       			sta	__oper1+1
 6726  711D     20 CA DA    			jsr	__store_int_funct_arg
 6727                     			.f_call	_SysMemcpy
 6728  7120     20 01 E9    			jsr	_SysMemcpy
 6729  7123     08          			php
 6730  7124     78          			sei
 6731  7125     18          			clc
 6732  7126     A5 28       			lda	__stack_ptr
 6733  7128     69 06       			adc	#.low.6
  Tue Jan 13 23:03:19 2026                                                                                               Page  127




 6734  712A     85 28       			sta	__stack_ptr
 6735  712C     A5 29       			lda	__stack_ptr+1
 6736  712E     69 00       			adc	#.high.6
 6737  7130     85 29       			sta	__stack_ptr+1
 6738  7132     28          			plp
 6739                     			.c_end	0408fh,285
 6740                     	;break;
 6741                     	;		
 6742                     			.sw_break
 6743  7133     4C CC 72    			jmp	?BOL0
 6744                     	;case 489:		
 6745         3415 7136   	?SWL146:	.equal	$
 6746                     	;SysMemcpy(chars,"    计算机协会    ",20)
 6747                     			.c_start  040a5h,286
 6748                     			.const_data_psfar2
 6749  811C     20 20 20 20 BC 	?PLC147:	.byte	"    计算机协会    ",0
              C6 CB E3 BB FA 
              D0 AD BB E1 20 
              20 20 20 00 
 6750                     			.program_psfar2
 6751  7136     A9 14       			lda	#.low.20
 6752  7138     85 20       			sta	__oper1
 6753  713A     A9 00       			lda	#.high.20
 6754  713C     85 21       			sta	__oper1+1
 6755  713E     20 CA DA    			jsr	__store_int_funct_arg
 6756  7141     A9 1C       			lda	#.low.?PLC147
 6757  7143     85 20       			sta	__oper1
 6758  7145     A9 81       			lda	#.high.?PLC147
 6759  7147     85 21       			sta	__oper1+1
 6760  7149     20 CA DA    			jsr	__store_int_funct_arg
 6761  714C     A0 06       			ldy	#+2+?LSC0+?TSC0+4
 6762  714E     B1 28       			lda	(__stack_ptr),y
 6763  7150     85 20       			sta	__oper1
 6764  7152     C8          			iny
 6765  7153     B1 28       			lda	(__stack_ptr),y
 6766  7155     85 21       			sta	__oper1+1
 6767  7157     20 CA DA    			jsr	__store_int_funct_arg
 6768                     			.f_call	_SysMemcpy
 6769  715A     20 01 E9    			jsr	_SysMemcpy
 6770  715D     08          			php
 6771  715E     78          			sei
 6772  715F     18          			clc
 6773  7160     A5 28       			lda	__stack_ptr
 6774  7162     69 06       			adc	#.low.6
 6775  7164     85 28       			sta	__stack_ptr
 6776  7166     A5 29       			lda	__stack_ptr+1
 6777  7168     69 00       			adc	#.high.6
 6778  716A     85 29       			sta	__stack_ptr+1
 6779  716C     28          			plp
 6780                     			.c_end	040cdh,286
 6781                     	;break;
 6782                     	;		
 6783                     			.sw_break
 6784  716D     4C CC 72    			jmp	?BOL0
 6785                     	;case 490:		
 6786         4518 7170   	?SWL147:	.equal	$
 6787                     	;SysMemcpy(chars,"程序设计：        ",20)
  Tue Jan 13 23:03:19 2026                                                                                               Page  128




 6788                     			.c_start  040e3h,287
 6789                     			.const_data_psfar2
 6790  812F     B3 CC D0 F2 C9 	?PLC148:	.byte	"程序设计：        ",0
              E8 BC C6 A3 BA 
              20 20 20 20 20 
              20 20 20 00 
 6791                     			.program_psfar2
 6792  7170     A9 14       			lda	#.low.20
 6793  7172     85 20       			sta	__oper1
 6794  7174     A9 00       			lda	#.high.20
 6795  7176     85 21       			sta	__oper1+1
 6796  7178     20 CA DA    			jsr	__store_int_funct_arg
 6797  717B     A9 2F       			lda	#.low.?PLC148
 6798  717D     85 20       			sta	__oper1
 6799  717F     A9 81       			lda	#.high.?PLC148
 6800  7181     85 21       			sta	__oper1+1
 6801  7183     20 CA DA    			jsr	__store_int_funct_arg
 6802  7186     A0 06       			ldy	#+2+?LSC0+?TSC0+4
 6803  7188     B1 28       			lda	(__stack_ptr),y
 6804  718A     85 20       			sta	__oper1
 6805  718C     C8          			iny
 6806  718D     B1 28       			lda	(__stack_ptr),y
 6807  718F     85 21       			sta	__oper1+1
 6808  7191     20 CA DA    			jsr	__store_int_funct_arg
 6809                     			.f_call	_SysMemcpy
 6810  7194     20 01 E9    			jsr	_SysMemcpy
 6811  7197     08          			php
 6812  7198     78          			sei
 6813  7199     18          			clc
 6814  719A     A5 28       			lda	__stack_ptr
 6815  719C     69 06       			adc	#.low.6
 6816  719E     85 28       			sta	__stack_ptr
 6817  71A0     A5 29       			lda	__stack_ptr+1
 6818  71A2     69 00       			adc	#.high.6
 6819  71A4     85 29       			sta	__stack_ptr+1
 6820  71A6     28          			plp
 6821                     			.c_end	0410bh,287
 6822                     	;break;
 6823                     	;		
 6824                     			.sw_break
 6825  71A7     4C CC 72    			jmp	?BOL0
 6826                     	;case 491:		
 6827         3823 71AA   	?SWL148:	.equal	$
 6828                     	;SysMemcpy(chars,"罗博明(SavageKing)",20)
 6829                     			.c_start  04121h,288
 6830                     			.const_data_psfar2
 6831  8142     C2 DE B2 A9 C3 	?PLC149:	.byte	"罗博明(SavageKing)",0
              F7 28 53 61 76 
              61 67 65 4B 69 
              6E 67 29 00 
 6832                     			.program_psfar2
 6833  71AA     A9 14       			lda	#.low.20
 6834  71AC     85 20       			sta	__oper1
 6835  71AE     A9 00       			lda	#.high.20
 6836  71B0     85 21       			sta	__oper1+1
 6837  71B2     20 CA DA    			jsr	__store_int_funct_arg
 6838  71B5     A9 42       			lda	#.low.?PLC149
  Tue Jan 13 23:03:19 2026                                                                                               Page  129




 6839  71B7     85 20       			sta	__oper1
 6840  71B9     A9 81       			lda	#.high.?PLC149
 6841  71BB     85 21       			sta	__oper1+1
 6842  71BD     20 CA DA    			jsr	__store_int_funct_arg
 6843  71C0     A0 06       			ldy	#+2+?LSC0+?TSC0+4
 6844  71C2     B1 28       			lda	(__stack_ptr),y
 6845  71C4     85 20       			sta	__oper1
 6846  71C6     C8          			iny
 6847  71C7     B1 28       			lda	(__stack_ptr),y
 6848  71C9     85 21       			sta	__oper1+1
 6849  71CB     20 CA DA    			jsr	__store_int_funct_arg
 6850                     			.f_call	_SysMemcpy
 6851  71CE     20 01 E9    			jsr	_SysMemcpy
 6852  71D1     08          			php
 6853  71D2     78          			sei
 6854  71D3     18          			clc
 6855  71D4     A5 28       			lda	__stack_ptr
 6856  71D6     69 06       			adc	#.low.6
 6857  71D8     85 28       			sta	__stack_ptr
 6858  71DA     A5 29       			lda	__stack_ptr+1
 6859  71DC     69 00       			adc	#.high.6
 6860  71DE     85 29       			sta	__stack_ptr+1
 6861  71E0     28          			plp
 6862                     			.c_end	04149h,288
 6863                     	;break;
 6864                     	;		
 6865                     			.sw_break
 6866  71E1     4C CC 72    			jmp	?BOL0
 6867                     	;case 492:		
 6868         3227 71E4   	?SWL149:	.equal	$
 6869                     	;SysMemcpy(chars,"策划：            ",20)
 6870                     			.c_start  0415fh,289
 6871                     			.const_data_psfar2
 6872  8155     B2 DF BB AE A3 	?PLC150:	.byte	"策划：            ",0
              BA 20 20 20 20 
              20 20 20 20 20 
              20 20 20 00 
 6873                     			.program_psfar2
 6874  71E4     A9 14       			lda	#.low.20
 6875  71E6     85 20       			sta	__oper1
 6876  71E8     A9 00       			lda	#.high.20
 6877  71EA     85 21       			sta	__oper1+1
 6878  71EC     20 CA DA    			jsr	__store_int_funct_arg
 6879  71EF     A9 55       			lda	#.low.?PLC150
 6880  71F1     85 20       			sta	__oper1
 6881  71F3     A9 81       			lda	#.high.?PLC150
 6882  71F5     85 21       			sta	__oper1+1
 6883  71F7     20 CA DA    			jsr	__store_int_funct_arg
 6884  71FA     A0 06       			ldy	#+2+?LSC0+?TSC0+4
 6885  71FC     B1 28       			lda	(__stack_ptr),y
 6886  71FE     85 20       			sta	__oper1
 6887  7200     C8          			iny
 6888  7201     B1 28       			lda	(__stack_ptr),y
 6889  7203     85 21       			sta	__oper1+1
 6890  7205     20 CA DA    			jsr	__store_int_funct_arg
 6891                     			.f_call	_SysMemcpy
 6892  7208     20 01 E9    			jsr	_SysMemcpy
  Tue Jan 13 23:03:19 2026                                                                                               Page  130




 6893  720B     08          			php
 6894  720C     78          			sei
 6895  720D     18          			clc
 6896  720E     A5 28       			lda	__stack_ptr
 6897  7210     69 06       			adc	#.low.6
 6898  7212     85 28       			sta	__stack_ptr
 6899  7214     A5 29       			lda	__stack_ptr+1
 6900  7216     69 00       			adc	#.high.6
 6901  7218     85 29       			sta	__stack_ptr+1
 6902  721A     28          			plp
 6903                     			.c_end	04187h,289
 6904                     	;break;
 6905                     	;		
 6906                     			.sw_break
 6907  721B     4C CC 72    			jmp	?BOL0
 6908                     	;case 493:		
 6909         4313 721E   	?SWL150:	.equal	$
 6910                     	;SysMemcpy(chars,"      王青海      ",20)
 6911                     			.c_start  0419dh,290
 6912                     			.const_data_psfar2
 6913  8168     20 20 20 20 20 	?PLC151:	.byte	"      王青海      ",0
              20 CD F5 C7 E0 
              BA A3 20 20 20 
              20 20 20 00 
 6914                     			.program_psfar2
 6915  721E     A9 14       			lda	#.low.20
 6916  7220     85 20       			sta	__oper1
 6917  7222     A9 00       			lda	#.high.20
 6918  7224     85 21       			sta	__oper1+1
 6919  7226     20 CA DA    			jsr	__store_int_funct_arg
 6920  7229     A9 68       			lda	#.low.?PLC151
 6921  722B     85 20       			sta	__oper1
 6922  722D     A9 81       			lda	#.high.?PLC151
 6923  722F     85 21       			sta	__oper1+1
 6924  7231     20 CA DA    			jsr	__store_int_funct_arg
 6925  7234     A0 06       			ldy	#+2+?LSC0+?TSC0+4
 6926  7236     B1 28       			lda	(__stack_ptr),y
 6927  7238     85 20       			sta	__oper1
 6928  723A     C8          			iny
 6929  723B     B1 28       			lda	(__stack_ptr),y
 6930  723D     85 21       			sta	__oper1+1
 6931  723F     20 CA DA    			jsr	__store_int_funct_arg
 6932                     			.f_call	_SysMemcpy
 6933  7242     20 01 E9    			jsr	_SysMemcpy
 6934  7245     08          			php
 6935  7246     78          			sei
 6936  7247     18          			clc
 6937  7248     A5 28       			lda	__stack_ptr
 6938  724A     69 06       			adc	#.low.6
 6939  724C     85 28       			sta	__stack_ptr
 6940  724E     A5 29       			lda	__stack_ptr+1
 6941  7250     69 00       			adc	#.high.6
 6942  7252     85 29       			sta	__stack_ptr+1
 6943  7254     28          			plp
 6944                     			.c_end	041c5h,290
 6945                     	;break;
 6946                     	;		
  Tue Jan 13 23:03:19 2026                                                                                               Page  131




 6947                     			.sw_break
 6948  7255     4C CC 72    			jmp	?BOL0
 6949                     	;case 494:		
 6950         3617 7258   	?SWL151:	.equal	$
 6951                     	;SysMemcpy(chars,"哎呀，风之罗盘怎么",20)
 6952                     			.c_start  041dbh,291
 6953                     			.const_data_psfar2
 6954  817B     B0 A5 D1 BD A3 	?PLC152:	.byte	"哎呀，风之罗盘怎么",0
              AC B7 E7 D6 AE 
              C2 DE C5 CC D4 
              F5 C3 B4 00 
 6955                     			.program_psfar2
 6956  7258     A9 14       			lda	#.low.20
 6957  725A     85 20       			sta	__oper1
 6958  725C     A9 00       			lda	#.high.20
 6959  725E     85 21       			sta	__oper1+1
 6960  7260     20 CA DA    			jsr	__store_int_funct_arg
 6961  7263     A9 7B       			lda	#.low.?PLC152
 6962  7265     85 20       			sta	__oper1
 6963  7267     A9 81       			lda	#.high.?PLC152
 6964  7269     85 21       			sta	__oper1+1
 6965  726B     20 CA DA    			jsr	__store_int_funct_arg
 6966  726E     A0 06       			ldy	#+2+?LSC0+?TSC0+4
 6967  7270     B1 28       			lda	(__stack_ptr),y
 6968  7272     85 20       			sta	__oper1
 6969  7274     C8          			iny
 6970  7275     B1 28       			lda	(__stack_ptr),y
 6971  7277     85 21       			sta	__oper1+1
 6972  7279     20 CA DA    			jsr	__store_int_funct_arg
 6973                     			.f_call	_SysMemcpy
 6974  727C     20 01 E9    			jsr	_SysMemcpy
 6975  727F     08          			php
 6976  7280     78          			sei
 6977  7281     18          			clc
 6978  7282     A5 28       			lda	__stack_ptr
 6979  7284     69 06       			adc	#.low.6
 6980  7286     85 28       			sta	__stack_ptr
 6981  7288     A5 29       			lda	__stack_ptr+1
 6982  728A     69 00       			adc	#.high.6
 6983  728C     85 29       			sta	__stack_ptr+1
 6984  728E     28          			plp
 6985                     			.c_end	04203h,291
 6986                     	;break;
 6987                     	;		
 6988                     			.sw_break
 6989  728F     4C CC 72    			jmp	?BOL0
 6990                     	;case 495:		
 6991         471A 7292   	?SWL152:	.equal	$
 6992                     	;SysMemcpy(chars,"不见了？          ",20)
 6993                     			.c_start  04219h,292
 6994                     			.const_data_psfar2
 6995  818E     B2 BB BC FB C1 	?PLC153:	.byte	"不见了？          ",0
              CB A3 BF 20 20 
              20 20 20 20 20 
              20 20 20 00 
 6996                     			.program_psfar2
 6997  7292     A9 14       			lda	#.low.20
  Tue Jan 13 23:03:19 2026                                                                                               Page  132




 6998  7294     85 20       			sta	__oper1
 6999  7296     A9 00       			lda	#.high.20
 7000  7298     85 21       			sta	__oper1+1
 7001  729A     20 CA DA    			jsr	__store_int_funct_arg
 7002  729D     A9 8E       			lda	#.low.?PLC153
 7003  729F     85 20       			sta	__oper1
 7004  72A1     A9 81       			lda	#.high.?PLC153
 7005  72A3     85 21       			sta	__oper1+1
 7006  72A5     20 CA DA    			jsr	__store_int_funct_arg
 7007  72A8     A0 06       			ldy	#+2+?LSC0+?TSC0+4
 7008  72AA     B1 28       			lda	(__stack_ptr),y
 7009  72AC     85 20       			sta	__oper1
 7010  72AE     C8          			iny
 7011  72AF     B1 28       			lda	(__stack_ptr),y
 7012  72B1     85 21       			sta	__oper1+1
 7013  72B3     20 CA DA    			jsr	__store_int_funct_arg
 7014                     			.f_call	_SysMemcpy
 7015  72B6     20 01 E9    			jsr	_SysMemcpy
 7016  72B9     08          			php
 7017  72BA     78          			sei
 7018  72BB     18          			clc
 7019  72BC     A5 28       			lda	__stack_ptr
 7020  72BE     69 06       			adc	#.low.6
 7021  72C0     85 28       			sta	__stack_ptr
 7022  72C2     A5 29       			lda	__stack_ptr+1
 7023  72C4     69 00       			adc	#.high.6
 7024  72C6     85 29       			sta	__stack_ptr+1
 7025  72C8     28          			plp
 7026                     			.c_end	04241h,292
 7027                     	;break;
 7028                     	;	
 7029                     			.sw_break
 7030  72C9     4C CC 72    			jmp	?BOL0
 7031                     	;
 7032         3A25 72CC   	?BOL0:		.equal	$
 7033                     	;
 7034                     	;
 7035                     			.f_end	0424eh,294
 7036         3B07 72CC   	?BOF0:		.equal	$
 7037                     			.f_return
 7038  72CC     60          			rts
 7039                     	;
 7040                     			.f_start  04414h,306
 7041                     			.bank_table
 7042                     			.global	&GameMTGetMapData
 7043  905D     CD 72 E2    	&GameMTGetMapData:	.bankaddr	_GameMTGetMapData
 7044                     			.ends
 7045         4517 72CD   	_GameMTGetMapData:	.equal	$
 7046                     			.attrib	_GameMTGetMapData,307,f,b
 7047                     	;
 7048                     	;
 7049         0000        	?ASC1:		.equal	0
 7050         0000        	?TSC1:		.equal	0
 7051         0000        	?LSC1:		.equal	0
 7052                     	;SysMemcpy(g_GameMTCurMap,"32222,2222332222(2222332222(2222332222(2222332222(2222332222(2222333222(2223333333)33333m
                            3m3(8(3m3mmmmmm(mmmmmmmmmm(mmmmm,(IkQk(((((3333333333(E([)(3EIE3(I[?3(3EIE3(3)33(333U3(I2(3()jki3(>(J3(3
                            3333(3)33((((((((2(33+333)3E9I3K((3IeJE@I3(1(3III13(X(3?>IK3(3>393?>IJ3(3I3I3?>IY3(3I3I3333)3(3(3((()((3
                            (3)33)33)33(n((((3(Y(((3)33*30303(3I39E3(3(3(3I39E3(3(3,3?39E37363CQI3/.-3333QI(3(((3(i(I[(33)33(3(3)33(
                            [(3I3Q(((333(3I3ik3(iQi(3I3Qk33333(((3((((((33)33(3333i3Q(Q3(3((((3>iI3_333P3UP3(3E3,((3Uh3>3E33333(P3U3
                            (((3(h((3U333O3)33(3(Z(3Z3((((333)3(333(((_((3(TNT(:I(333(((3(I(f)(((3()Z3)33(333(3I(((3(3(((3I(((+(313(
                            3E3*33(333(33>V?3_3,3(3E3)33((()(3IZEZ33*33(3I*ZE3d_d3()Z<*Z)9d93(3((33>f3f?33(((33)3)33(d(((((3(((d9(3(
                            33333(33P3((III((3Ih3(3333)33IP3(0(13()h((333333)33((3E>?3(h(3I(3E>?+_3_3I,3E>?3J3J3EE3I3J3K39;9E3I3J3K3
                            OOOE3I3J3K3(O()3)3)3)33*3(((((3((((()33*333*33)>3(b9g9b(3?>3f33333f3?>3f3/.-3f3?33+3E(E3+331(((((((((,6>
                            3(YXY(39G?(3(3)3(3(9((3(3X3(3(((g3(3I3(3^(gc3(3I3(3]^3*3(3E3(3*3((((3E3((((333(333(333>g)ccScc)g?33333*3
                            3333,(((((((((1(g(((((3(c((33333)3(3((3((b((3(3(93+333(3(3(Y3((c3b3?3(X3(`03S3?3(Y3c073b3?3>(33333(3(3>(
                            Y(3(((c(3>33(3933333(1((*(,3M`)(3(^L,(((((33(9333339(33(3333333(33(333A333(33(3330333(33(E33c33E(33(223`
                            322(33(223c322(33(223*322(33bSb*(*bSb333333133333((((12,(((((222222222((223333322((233736332((233>3>332(
                            (233?3?332((223(3(322((223)3)322((222(((222((2222+2222((((((((((((22222(1222222222(2222222222(2222222223
                            +3222222233(3322222233W3322222233(3322222233,332222222333222222222222222222222222222^`(((((((^2`22222222
                            (2(2^((((((^2(2(22222222(2(2^(((^22(2^((222(22(22222^(^22`22212(2222^`(l(2^((^2222222222(,(l(((((((^2222
                            2222222222222222222222222222222223332222222334332222223303322222233+3322222223+3222222222222222222222222
                            221((((((((((((((((((((((2(22222(2((2(22222(2((2(22,22(2((2(22(22(2((2W22(22W2((2022a2202((2F22(22=2((22
                            22(2222((2222(2222(((((((((((1l?NE`K`EN?l92I2J2J2I292>N(^(^(N>2E2I2(1(2I2E`J^(((((^J`K2(2(2(2(2K`J^(((((
                            ^J`E2I2(,(2I2E2>N(^(^(N>292I2J2J2I29l?NE`K`EN?l2222222222222(42a25(222((22]22((22(((2]2(((222(((((((2222
                            (((((((22222((2((2222222n1n2222222222222222222222222222222222222",2662)

(1(3333?9I3,(U(3(5(3((1(3333?9I3,(U(3(5(3((1(3333?9I3,(U(3(5(3((1(3333?9I3,(U(3(5(3((1(3333?9I3,(U(3(5(3((1(3333?9I3,(U(3(5(3((1(333
                            3?9I3,(U(3(5(3((1(3333?9I3,(U(3(5(3((1(3333?9I3,(U(3(5(3((1(3333?9I3,(U(3(5(3((1(3333?9I3,(U(3(5(3((1(33
                            33?9I3,(U(3(5(3((1(3333?9I3,(U(3(5(3((1(3333?9I3,(U(3(5(3((1(3333?9I3,(U(3(5(3((1(3333?9I3,(U(3(5(3((1(3
                            333?9I3,(U(3(5(3((1(3333?9I3,(U(3(5(3((1(3333?9I3,(U(3(5(3((1(3333?9I3,(U(3(5(3((1(3333?9I3,(U(3(5(3((1(
                            3333?9I3,(U(3(5(3((1(3333?9I3,(U(3(5(3((1(3333?9I3,(U(3(5(3((1(3333?_333P3UP3(3E3,((3Uh3>3E33333(P3U3(((
                            3(h((3U333O3)33(3(Z(3Z3((((333)3(333(((_((3(TNT(:I(333(((3(I(f)(((3()Z3)33(333(3I(((3(3(((3I(((+(313(3E3
                            *33(333(33>V?3_3,3(3E3)33((()(3IZEZ33*33(3I*ZE3d_d3()Z<*Z)9d93(3((33>f3f?33(((33)3)33(d(((((3(((d9(3(333
                            33(33P3((III((3Ih3(3333)33IP3(0(13()h((333333)33((3E>?3(h(3I(3E>?+_3_3I,3E>?3J3J3EE3I3J3K39;9E3I3J3K3OOO
                            E3I3J3K3(O()3)3)3)33*3(((((3((((()33*333*33)>3(b9g9b(3?>3f33333f3?>3f3/.-3f3?33+3E(E3+331(((((((((,6>3(Y
                            XY(39G?(3(3)3(3(9((3(3X3(3(((g3(3I3(3^(gc3(3I3(3]^3*3(3E3(3*3((((3E3((((333(333(333>g)ccScc)g?33333*3333
                            3,(((((((((1(g(((((3(c((33333)3(3((3((b((3(3(93+333(3(3(Y3((c3b3?3(X3(`03S3?3(Y3c073b3?3>(33333(3(3>(Y(3
                            (((c(3>33(3933333(1((*(,3M`)(3(^L,(((((33(9333339(33(3333333(33(333A333(33(3330333(33(E33c33E(33(223`322
                            (33(223c322(33(223*322(33bSb*(*bSb333333133333((((12,(((((222222222((223333322((233736332((233>3>332((23
                            3?3?332((223(3(322((223)3)322((222(((222((2222+2222((((((((((((22222(1222222222(2222222222(2222222223+32
                            22222233(3322222233W3322222233(3322222233,332222222333222222222222222222222222222^`(((((((^2`22222222(2(
                            2^((((((^2(2(22222222(2(2^(((^22(2^((222(22(22222^(^22`22212(2222^`(l(2^((^2222222222(,(l(((((((^2222222
                            2222222222222222222222222222223332222222334332222223303322222233+3322222223+3222222222222222222222222221
                            ((((((((((((((((((((((2(22222(2((2(22222(2((2(22,22(2((2(22(22(2((2W22(22W2((2022a2202((2F22(22=2((2222(
                            2222((2222(2222(((((((((((1l?NE`K`EN?l92I2J2J2I292>N(^(^(N>2E2I2(1(2I2E`J^(((((^J`K2(2(2(2(2K`J^(((((^J`
                            E2I2(,(2I2E2>N(^(^(N>292I2J2J2I29l?NE`K`EN?l2222222222222(42a25(222((22]22((22(((2]2(((222(((((((2222(((
                            ((((22222((2((2222222n1n2222222222222222222222222222222222222",2662)

9I3,(U(3(5(3((1(3333?_333P3UP3(3E3,((3Uh3>3E33333(P3U3(((3(h((3U333O3)33(3(Z(3Z3((((333)3(333(((_((3(TNT(:I(333(((3(I(f)(((3()Z3)33(
                            333(3I(((3(3(((3I(((+(313(3E3*33(333(33>V?3_3,3(3E3)33((()(3IZEZ33*33(3I*ZE3d_d3()Z<*Z)9d93(3((33>f3f?33
                            (((33)3)33(d(((((3(((d9(3(33333(33P3((III((3Ih3(3333)33IP3(0(13()h((333333)33((3E>?3(h(3I(3E>?+_3_3I,3E>
                            ?3J3J3EE3I3J3K39;9E3I3J3K3OOOE3I3J3K3(O()3)3)3)33*3(((((3((((()33*333*33)>3(b9g9b(3?>3f33333f3?>3f3/.-3f
                            3?33+3E(E3+331(((((((((,6>3(YXY(39G?(3(3)3(3(9((3(3X3(3(((g3(3I3(3^(_333P3UP3(3E3,((3Uh3>3E33333(P3U3(((
                            3(h((3U333O3)33(3(Z(3Z3((((333)3(333(((_((3(TNT(:I(333(((3(I(f)(((3()Z3)33(333(3I(((3(3(((3I(((+(313(3E3
                            *33(333(33>V?3_3,3(3E3)33((()(3IZEZ33*33(3I*ZE3d_d3()Z<*Z)9d93(3((33>f3f?33(((33)3)33(d(((((3(((d9(3(333
                            33(33P3((III((3Ih3(3333)33IP3(0(13()h((333333)33((3E>?3(h(3I(3E>?+_3_3I,3E>?3J3J3EE3I3J3K39;9E3I3J3K3OOO
                            E3I3J3K3(O()3)3)3)33*3(((((3((((()33*333*33)>3(b9g9b(3?>3f33333f3?>3f3/.-3f3?33+3E(E3+331(((((((((,6>3(Y
                            XY(39G?(3(3)3(3(9((3(3X3(3(((g3(3I3(3^(gc3(3I3(3]^3*3(3E3(3*3((((3E3((((333(333(333>g)ccScc)g?33333*3333
                            3,(((((((((1(g(((((3(c((33333)3(3((3((b((3(3(93+333(3(3(Y3((c3b3?3(X3(`03S3?3(Y3c073b3?3>(33333(3(3>(Y(3
                            (((c(3>33(3933333(1((*(,3M`)(3(^L,(((((33(9333339(33(3333333(33(333A333(33(3330333(33(E33c33E(33(223`322
                            (33(223c322(33(223*322(33bSb*(*bSb333333133333((((12,(((((222222222((223333322((233736332((233>3>332((23
                            3?3?332((223(3(322((223)3)322((222(((222((2222+2222((((((((((((22222(1222222222(2222222222(2222222223+32
                            22222233(3322222233W3322222233(3322222233,332222222333222222222222222222222222222^`(((((((^2`22222222(2(
                            2^((((((^2(2(22222222(2(2^(((^22(2^((222(22(22222^(^22`22212(2222^`(l(2^((^2222222222(,(l(((((((^2222222
                            2222222222222222222222222222223332222222334332222223303322222233+3322222223+3222222222222222222222222221
                            ((((((((((((((((((((((2(22222(2((2(22222(2((2(22,22(2((2(22(22(2((2W22(22W2((2022a2202((2F22(22=2((2222(
                            2222((2222(2222(((((((((((1l?NE`K`EN?l92I2J2J2I292>N(^(^(N>2E2I2(1(2I2E`J^(((((^J`K2(2(2(2(2K`J^(((((^J`
                            E2I2(,(2I2E2>N(^(^(N>292I2J2J2I29l?NE`K`EN?l2222222222222(42a25(222((22]22((22(((2]2(((222(((((((2222(((
                            ((((22222((2((2222222n1n2222222222222222222222222222222222222",2662)

gc3(3I3(3]^3*3(3E3(3*3((((3E3((((333(333(333>g)ccScc)g?33333*33333,(((((((((1(g(((((3(c((33333)3(3((3((b((3(3(93+333(3(3(Y3((c3b3?3(
                            X3(`03S3?3(Y3c073b3?3>(33333(3(3>(Y(3(((c(3>33(3933333(1((*(,3M`)(3(^L,(((((33(9333339(33(3333333(33(333
                            A333(33(3330333(33(E33c33E(33(223`322(33(223c322(33(223*322(33bSb*(*bSb333333133333((((12,(((((222222222
                            ((223333322((233736332((233>3>332((233?3?332((223(3(322((223)3)322((222(((222((2222+2222((((((((((((2222
                            2(1222222222(2222222222(2222222223+3222222233(3322222233W3322222233(_333P3UP3(3E3,((3Uh3>3E33333(P3U3(((
                            3(h((3U333O3)33(3(Z(3Z3((((333)3(333(((_((3(TNT(:I(333(((3(I(f)(((3()Z3)33(333(3I(((3(3(((3I(((+(313(3E3
                            *33(333(33>V?3_3,3(3E3)33((()(3IZEZ33*33(3I*ZE3d_d3()Z<*Z)9d93(3((33>f3f?33(((33)3)33(d(((((3(((d9(3(333
                            33(33P3((III((3Ih3(3333)33IP3(0(13()h((333333)33((3E>?3(h(3I(3E>?+_3_3I,3E>?3J3J3EE3I3J3K39;9E3I3J3K3OOO
                            E3I3J3K3(O()3)3)3)33*3(((((3((((()33*333*33)>3(b9g9b(3?>3f33333f3?>3f3/.-3f3?33+3E(E3+331(((((((((,6>3(Y
                            XY(39G?(3(3)3(3(9((3(3X3(3(((g3(3I3(3^(gc3(3I3(3]^3*3(3E3(3*3((((3E3((((333(333(333>g)ccScc)g?33333*3333
                            3,(((((((((1(g(((((3(c((33333)3(3((3((b((3(3(93+333(3(3(Y3((c3b3?3(X3(`03S3?3(Y3c073b3?3>(33333(3(3>(Y(3
                            (((c(3>33(3933333(1((*(,3M`)(3(^L,(((((33(9333339(33(3333333(33(333A333(33(3330333(33(E33c33E(33(223`322
                            (33(223c322(33(223*322(33bSb*(*bSb333333133333((((12,(((((222222222((223333322((233736332((233>3>332((23
                            3?3?332((223(3(322((223)3)322((222(((222((2222+2222((((((((((((22222(1222222222(2222222222(2222222223+32
                            22222233(3322222233W3322222233(3322222233,332222222333222222222222222222222222222^`(((((((^2`22222222(2(
                            2^((((((^2(2(22222222(2(2^(((^22(2^((222(22(22222^(^22`22212(2222^`(l(2^((^2222222222(,(l(((((((^2222222
                            2222222222222222222222222222223332222222334332222223303322222233+3322222223+3222222222222222222222222221
                            ((((((((((((((((((((((2(22222(2((2(22222(2((2(22,22(2((2(22(22(2((2W22(22W2((2022a2202((2F22(22=2((2222(
                            2222((2222(2222(((((((((((1l?NE`K`EN?l92I2J2J2I292>N(^(^(N>2E2I2(1(2I2E`J^(((((^J`K2(2(2(2(2K`J^(((((^J`
                            E2I2(,(2I2E2>N(^(^(N>292I2J2J2I29l?NE`K`EN?l2222222222222(42a25(222((22]22((22(((2]2(((222(((((((2222(((
                            ((((22222((2((2222222n1n2222222222222222222222222222222222222",2662)

3322222233,332222222333222222222222222222222222222^`(((((((^2`22222222(2(2^((((((^2(2(22222222(2(2^(((^22(2^((222(22(22222^(^22`2221
                            2(2222^`(l(2^((^2222222222(,(l(((((((^222222222222222222222222222222222222233322222223343322222233033222
                            22233+3322222223+3222222222222222222222222221((((((((((((((((((((((2(22222(2((2(22222(2((2(22,22(2((2(22
                            (22(2((2W22(22W2((2022a2202((2F22(22=2((2222(2222((2222(2222(((((((((((1l?NE`K`EN?l92I2J2J2I292>N(^(^(N>
                            2E2I2(1(2I2E`J^(((((^J`K2(2(2(2(2K`J^(((((^J`E2I2(,(2I2E2>N(^(^(N>29_333P3UP3(3E3,((3Uh3>3E33333(P3U3(((
                            3(h((3U333O3)33(3(Z(3Z3((((333)3(333(((_((3(TNT(:I(333(((3(I(f)(((3()Z3)33(333(3I(((3(3(((3I(((+(313(3E3
                            *33(333(33>V?3_3,3(3E3)33((()(3IZEZ33*33(3I*ZE3d_d3()Z<*Z)9d93(3((33>f3f?33(((33)3)33(d(((((3(((d9(3(333
                            33(33P3((III((3Ih3(3333)33IP3(0(13()h((333333)33((3E>?3(h(3I(3E>?+_3_3I,3E>?3J3J3EE3I3J3K39;9E3I3J3K3OOO
                            E3I3J3K3(O()3)3)3)33*3(((((3((((()33*333*33)>3(b9g9b(3?>3f33333f3?>3f3/.-3f3?33+3E(E3+331(((((((((,6>3(Y
                            XY(39G?(3(3)3(3(9((3(3X3(3(((g3(3I3(3^(gc3(3I3(3]^3*3(3E3(3*3((((3E3((((333(333(333>g)ccScc)g?33333*3333
                            3,(((((((((1(g(((((3(c((33333)3(3((3((b((3(3(93+333(3(3(Y3((c3b3?3(X3(`03S3?3(Y3c073b3?3>(33333(3(3>(Y(3
                            (((c(3>33(3933333(1((*(,3M`)(3(^L,(((((33(9333339(33(3333333(33(333A333(33(3330333(33(E33c33E(33(223`322
                            (33(223c322(33(223*322(33bSb*(*bSb333333133333((((12,(((((222222222((223333322((233736332((233>3>332((23
                            3?3?332((223(3(322((223)3)322((222(((222((2222+2222((((((((((((22222(1222222222(2222222222(2222222223+32
                            22222233(3322222233W3322222233(3322222233,332222222333222222222222222222222222222^`(((((((^2`22222222(2(
                            2^((((((^2(2(22222222(2(2^(((^22(2^((222(22(22222^(^22`22212(2222^`(l(2^((^2222222222(,(l(((((((^2222222
                            2222222222222222222222222222223332222222334332222223303322222233+3322222223+3222222222222222222222222221
                            ((((((((((((((((((((((2(22222(2((2(22222(2((2(22,22(2((2(22(22(2((2W22(22W2((2022a2202((2F22(22=2((2222(
                            2222((2222(2222(((((((((((1l?NE`K`EN?l92I2J2J2I292>N(^(^(N>2E2I2(1(2I2E`J^(((((^J`K2(2(2(2(2K`J^(((((^J`
                            E2I2(,(2I2E2>N(^(^(N>292I2J2J2I29l?NE`K`EN?l2222222222222(42a25(222((22]22((22(((2]2(((222(((((((2222(((
                            ((((22222((2((2222222n1n2222222222222222222222222222222222222",2662)

2I2J2J2I29l?NE`K`EN?l2222222222222(42a25(222((22]22((22(((2]2(((222(((((((2222(((((((22222((2((2222222n1n222222222222222222222222222
                            2222222222",2662)
  Tue Jan 13 23:03:19 2026                                                                                               Page  133




 7053                     			.c_start  0442ch,308
 7054                     			.const_data_psfar2
 7055  81A1     33 32 32 32 32 	?PLC154:	.byte	"32222,2222332222(2222332222(2222332222(2222332222(2222332222(2222333222(2223333333)33333m3m
                            3(8(3m3mmmmmm(mmmmmmmmmm(mmmmm,(IkQk(((((3333333333(E([)(3EIE3(I[?3(3EIE3(3)33(333U3(I2(3()jki3(>(J3(333
                            33(3)3"
              2C 32 32 32 32 
              33 33 32 32 32 
              32 28 32 32 32 
              32 33 33 32 32 
              32 32 28 32 32 
              32 32 33 33 32 
              32 32 32 28 32 
              32 32 32 33 33 
              32 32 32 32 28 
              32 32 32 32 33 
              33 32 32 32 32 
              28 32 32 32 32 
              33 33 33 32 32 
              32 28 32 32 32 
              33 33 33 33 33 
              33 33 29 33 33 
              33 33 33 6D 33 
              6D 33 28 38 28 
              33 6D 33 6D 6D 
              6D 6D 6D 6D 28 
              6D 6D 6D 6D 6D 
              6D 6D 6D 6D 6D 
              28 6D 6D 6D 6D 
              6D 2C 28 49 6B 
              51 6B 28 28 28 
              28 28 33 33 33 
              33 33 33 33 33 
              33 33 28 45 28 
              5B 29 28 33 45 
              49 45 33 28 49 
              5B 3F 33 28 33 
              45 49 45 33 28 
              33 29 33 33 28 
              33 33 33 55 33 
              28 49 32 28 33 
              28 29 6A 6B 69 
              33 28 3E 28 4A 
              33 28 33 33 33 
              33 33 28 33 29 
              33 
 7056  826A     33 28 28 28 28 			.byte	"3((((((((2(33+333)3E9I3K((3IeJE@I3(1(3III13(X(3?>IK3(3>393?>IJ3(3I3I3?>IY3(3I3I3333)3(3(3((
                            ()((3(3)33)33)33(n((((3(Y(((3)33*30303(3I39E3(3(3(3I39E3(3(3,3?39E37363CQI3/.-3333QI(3(((3(i(I[(33)33(3(
                            3)33(["
              28 28 28 28 32 
              28 33 33 2B 33 
              33 33 29 33 45 
              39 49 33 4B 28 
              28 33 49 65 4A 
              45 40 49 33 28 
              31 28 33 49 49 
              49 31 33 28 58 
              28 33 3F 3E 49 
  Tue Jan 13 23:03:19 2026                                                                                               Page  134




              4B 33 28 33 3E 
              33 39 33 3F 3E 
              49 4A 33 28 33 
              49 33 49 33 3F 
              3E 49 59 33 28 
              33 49 33 49 33 
              33 33 33 29 33 
              28 33 28 33 28 
              28 28 29 28 28 
              33 28 33 29 33 
              33 29 33 33 29 
              33 33 28 6E 28 
              28 28 28 33 28 
              59 28 28 28 33 
              29 33 33 2A 33 
              30 33 30 33 28 
              33 49 33 39 45 
              33 28 33 28 33 
              28 33 49 33 39 
              45 33 28 33 28 
              33 2C 33 3F 33 
              39 45 33 37 33 
              36 33 43 51 49 
              33 2F 2E 2D 33 
              33 33 33 51 49 
              28 33 28 28 28 
              33 28 69 28 49 
              5B 28 33 33 29 
              33 33 28 33 28 
              33 29 33 33 28 
              5B 
 7057  8333     28 33 49 33 51 			.byte	"(3I3Q(((333(3I3ik3(iQi(3I3Qk33333(((3((((((33)33(3333i3Q(Q3(3((((3>iI3(1(3333?9I3,(U(3(5(3(
                            U()3)3(((3)3)(3(33033(3((3[3PhP3[3(i3E3>P>3E3ii3E33+33E3iQ3E3eOe3E3Q(3(3?e?3(3((3(33*33(3((3(3I(I3(3(,3(
                            U(((U("
              28 28 28 33 33 
              33 28 33 49 33 
              69 6B 33 28 69 
              51 69 28 33 49 
              33 51 6B 33 33 
              33 33 33 28 28 
              28 33 28 28 28 
              28 28 28 33 33 
              29 33 33 28 33 
              33 33 33 69 33 
              51 28 51 33 28 
              33 28 28 28 28 
              33 3E 69 49 33 
              28 31 28 33 33 
              33 33 3F 39 49 
              33 2C 28 55 28 
              33 28 35 28 33 
              28 55 28 29 33 
              29 33 28 28 28 
              33 29 33 29 28 
              33 28 33 33 30 
              33 33 28 33 28 
              28 33 5B 33 50 
  Tue Jan 13 23:03:19 2026                                                                                               Page  135




              68 50 33 5B 33 
              28 69 33 45 33 
              3E 50 3E 33 45 
              33 69 69 33 45 
              33 33 2B 33 33 
              45 33 69 51 33 
              45 33 65 4F 65 
              33 45 33 51 28 
              33 28 33 3F 65 
              3F 33 28 33 28 
              28 33 28 33 33 
              2A 33 33 28 33 
              28 28 33 28 33 
              49 28 49 33 28 
              33 28 2C 33 28 
              55 28 28 28 55 
              28 
 7058  83FC     33 31 4C 33 45 			.byte	"31L3E39j((jIJ(3?3j((((jIP3(32(33)33()j3B23(e26P3(3333(((2?3(((i[((((>33U3333((((73U3(((eO(3
                            33i3)3*3)3((3(3i3>)(31(i(((3I3,3DZ3>3ITo399ZI3?3(IT3d9Ih*(*h(I3(d((3O3(((3f(333+33333)3((R(III(R(((33333
                            33333("
              33 39 6A 28 28 
              6A 49 4A 28 33 
              3F 33 6A 28 28 
              28 28 6A 49 50 
              33 28 33 32 28 
              33 33 29 33 33 
              28 29 6A 33 42 
              32 33 28 65 32 
              36 50 33 28 33 
              33 33 33 28 28 
              28 32 3F 33 28 
              28 28 69 5B 28 
              28 28 28 3E 33 
              33 55 33 33 33 
              33 28 28 28 28 
              37 33 55 33 28 
              28 28 65 4F 28 
              33 33 33 69 33 
              29 33 2A 33 29 
              33 28 28 33 28 
              33 69 33 3E 29 
              28 33 31 28 69 
              28 28 28 33 49 
              33 2C 33 44 5A 
              33 3E 33 49 54 
              6F 33 39 39 5A 
              49 33 3F 33 28 
              49 54 33 64 39 
              49 68 2A 28 2A 
              68 28 49 33 28 
              64 28 28 33 4F 
              33 28 28 28 33 
              66 28 33 33 33 
              2B 33 33 33 33 
              33 29 33 28 28 
              52 28 49 49 49 
              28 52 28 28 28 
  Tue Jan 13 23:03:19 2026                                                                                               Page  136




              33 33 33 33 33 
              33 33 33 33 33 
              28 
 7059  84C5     33 50 29 50 28 			.byte	"3P)P(((((3(3)3)3333*3(3P3((33((3(((3,())(13,(((((((33333(h3*3Z(333(h>3N3?Z(3((3330333((((*N
                            0H0N*(((333303333((3E?3N3>E3((3IE3*3EI3((33JJ9JJ33(((333+333((3(()1(()((313((((3(IZ((3(33)3)33((3(3((*((
                            3?(3(3"
              28 28 28 28 33 
              28 33 29 33 29 
              33 33 33 33 2A 
              33 28 33 50 33 
              28 28 33 33 28 
              28 33 28 28 28 
              33 2C 28 29 29 
              28 31 33 2C 28 
              28 28 28 28 28 
              28 33 33 33 33 
              33 28 68 33 2A 
              33 5A 28 33 33 
              33 28 68 3E 33 
              4E 33 3F 5A 28 
              33 28 28 33 33 
              33 30 33 33 33 
              28 28 28 28 2A 
              4E 30 48 30 4E 
              2A 28 28 28 33 
              33 33 33 30 33 
              33 33 33 28 28 
              33 45 3F 33 4E 
              33 3E 45 33 28 
              28 33 49 45 33 
              2A 33 45 49 33 
              28 28 33 33 4A 
              4A 39 4A 4A 33 
              33 28 28 28 33 
              33 33 2B 33 33 
              33 28 28 33 28 
              28 29 31 28 28 
              29 28 28 33 31 
              33 28 28 28 28 
              33 28 49 5A 28 
              28 33 28 33 33 
              29 33 29 33 33 
              28 28 33 28 33 
              28 28 2A 28 28 
              33 3F 28 33 28 
              33 
 7060  858E     5F 33 33 33 50 			.byte	"_333P3UP3(3E3,((3Uh3>3E33333(P3U3(((3(h((3U333O3)33(3(Z(3Z3((((333)3(333(((_((3(TNT(:I(333(
                            ((3(I(f)(((3()Z3)33(333(3I(((3(3(((3I(((+(313(3E3*33(333(33>V?3_3,3(3E3)33((()(3IZEZ33*33(3I*ZE3d_d3()Z<
                            *Z)9d9"
              33 55 50 33 28 
              33 45 33 2C 28 
              28 33 55 68 33 
              3E 33 45 33 33 
              33 33 33 28 50 
              33 55 33 28 28 
              28 33 28 68 28 
              28 33 55 33 33 
  Tue Jan 13 23:03:19 2026                                                                                               Page  137




              33 4F 33 29 33 
              33 28 33 28 5A 
              28 33 5A 33 28 
              28 28 28 33 33 
              33 29 33 28 33 
              33 33 28 28 28 
              5F 28 28 33 28 
              54 4E 54 28 3A 
              49 28 33 33 33 
              28 28 28 33 28 
              49 28 66 29 28 
              28 28 33 28 29 
              5A 33 29 33 33 
              28 33 33 33 28 
              33 49 28 28 28 
              33 28 33 28 28 
              28 33 49 28 28 
              28 2B 28 33 31 
              33 28 33 45 33 
              2A 33 33 28 33 
              33 33 28 33 33 
              3E 56 3F 33 5F 
              33 2C 33 28 33 
              45 33 29 33 33 
              28 28 28 29 28 
              33 49 5A 45 5A 
              33 33 2A 33 33 
              28 33 49 2A 5A 
              45 33 64 5F 64 
              33 28 29 5A 3C 
              2A 5A 29 39 64 
              39 
 7061  8657     33 28 33 28 28 			.byte	"3(3((33>f3f?33(((33)3)33(d(((((3(((d9(3(33333(33P3((III((3Ih3(3333)33IP3(0(13()h((333333)33
                            ((3E>?3(h(3I(3E>?+_3_3I,3E>?3J3J3EE3I3J3K39;9E3I3J3K3OOOE3I3J3K3(O()3)3)3)33*3(((((3((((()33*333*33)>3(b
                            9g9b(3"
              33 33 3E 66 33 
              66 3F 33 33 28 
              28 28 33 33 29 
              33 29 33 33 28 
              64 28 28 28 28 
              28 33 28 28 28 
              64 39 28 33 28 
              33 33 33 33 33 
              28 33 33 50 33 
              28 28 49 49 49 
              28 28 33 49 68 
              33 28 33 33 33 
              33 29 33 33 49 
              50 33 28 30 28 
              31 33 28 29 68 
              28 28 33 33 33 
              33 33 33 29 33 
              33 28 28 33 45 
              3E 3F 33 28 68 
              28 33 49 28 33 
              45 3E 3F 2B 5F 
              33 5F 33 49 2C 
  Tue Jan 13 23:03:19 2026                                                                                               Page  138




              33 45 3E 3F 33 
              4A 33 4A 33 45 
              45 33 49 33 4A 
              33 4B 33 39 3B 
              39 45 33 49 33 
              4A 33 4B 33 4F 
              4F 4F 45 33 49 
              33 4A 33 4B 33 
              28 4F 28 29 33 
              29 33 29 33 29 
              33 33 2A 33 28 
              28 28 28 28 33 
              28 28 28 28 28 
              29 33 33 2A 33 
              33 33 2A 33 33 
              29 3E 33 28 62 
              39 67 39 62 28 
              33 
 7062  8720     3F 3E 33 66 33 			.byte	"?>3f33333f3?>3f3/.-3f3?33+3E(E3+331(((((((((,6>3(YXY(39G?(3(3)3(3(9((3(3X3(3(((g3(3I3(3^(gc
                            3(3I3(3]^3*3(3E3(3*3((((3E3((((333(333(333>g)ccScc)g?33333*33333,(((((((((1(g(((((3(c((33333)3(3((3((b((
                            3(3(93"
              33 33 33 33 66 
              33 3F 3E 33 66 
              33 2F 2E 2D 33 
              66 33 3F 33 33 
              2B 33 45 28 45 
              33 2B 33 33 31 
              28 28 28 28 28 
              28 28 28 28 2C 
              36 3E 33 28 59 
              58 59 28 33 39 
              47 3F 28 33 28 
              33 29 33 28 33 
              28 39 28 28 33 
              28 33 58 33 28 
              33 28 28 28 67 
              33 28 33 49 33 
              28 33 5E 28 67 
              63 33 28 33 49 
              33 28 33 5D 5E 
              33 2A 33 28 33 
              45 33 28 33 2A 
              33 28 28 28 28 
              33 45 33 28 28 
              28 28 33 33 33 
              28 33 33 33 28 
              33 33 33 3E 67 
              29 63 63 53 63 
              63 29 67 3F 33 
              33 33 33 33 2A 
              33 33 33 33 33 
              2C 28 28 28 28 
              28 28 28 28 28 
              31 28 67 28 28 
              28 28 28 33 28 
              63 28 28 33 33 
              33 33 33 29 33 
  Tue Jan 13 23:03:19 2026                                                                                               Page  139




              28 33 28 28 33 
              28 28 62 28 28 
              33 28 33 28 39 
              33 
 7063  87E9     2B 33 33 33 28 			.byte	"+333(3(3(Y3((c3b3?3(X3(`03S3?3(Y3c073b3?3>(33333(3(3>(Y(3(((c(3>33(3933333(1((*(,3M`)(3(^L,
                            (((((33(9333339(33(3333333(33(333A333(33(3330333(33(E33c33E(33(223`322(33(223c322(33(223*322(33bSb*(*bSb
                            333333"
              33 28 33 28 59 
              33 28 28 63 33 
              62 33 3F 33 28 
              58 33 28 60 30 
              33 53 33 3F 33 
              28 59 33 63 30 
              37 33 62 33 3F 
              33 3E 28 33 33 
              33 33 33 28 33 
              28 33 3E 28 59 
              28 33 28 28 28 
              63 28 33 3E 33 
              33 28 33 39 33 
              33 33 33 33 28 
              31 28 28 2A 28 
              2C 33 4D 60 29 
              28 33 28 5E 4C 
              2C 28 28 28 28 
              28 33 33 28 39 
              33 33 33 33 33 
              39 28 33 33 28 
              33 33 33 33 33 
              33 33 28 33 33 
              28 33 33 33 41 
              33 33 33 28 33 
              33 28 33 33 33 
              30 33 33 33 28 
              33 33 28 45 33 
              33 63 33 33 45 
              28 33 33 28 32 
              32 33 60 33 32 
              32 28 33 33 28 
              32 32 33 63 33 
              32 32 28 33 33 
              28 32 32 33 2A 
              33 32 32 28 33 
              33 62 53 62 2A 
              28 2A 62 53 62 
              33 33 33 33 33 
              33 
 7064  88B2     31 33 33 33 33 			.byte	"133333((((12,(((((222222222((223333322((233736332((233>3>332((233?3?332((223(3(322((223)3)3
                            22((222(((222((2222+2222((((((((((((22222(1222222222(2222222222(2222222223+3222222233(3322222233W3322222
                            233(33"
              33 28 28 28 28 
              31 32 2C 28 28 
              28 28 28 32 32 
              32 32 32 32 32 
              32 32 28 28 32 
              32 33 33 33 33 
              33 32 32 28 28 
  Tue Jan 13 23:03:19 2026                                                                                               Page  140




              32 33 33 37 33 
              36 33 33 32 28 
              28 32 33 33 3E 
              33 3E 33 33 32 
              28 28 32 33 33 
              3F 33 3F 33 33 
              32 28 28 32 32 
              33 28 33 28 33 
              32 32 28 28 32 
              32 33 29 33 29 
              33 32 32 28 28 
              32 32 32 28 28 
              28 32 32 32 28 
              28 32 32 32 32 
              2B 32 32 32 32 
              28 28 28 28 28 
              28 28 28 28 28 
              28 28 32 32 32 
              32 32 28 31 32 
              32 32 32 32 32 
              32 32 32 28 32 
              32 32 32 32 32 
              32 32 32 32 28 
              32 32 32 32 32 
              32 32 32 32 33 
              2B 33 32 32 32 
              32 32 32 32 33 
              33 28 33 33 32 
              32 32 32 32 32 
              33 33 57 33 33 
              32 32 32 32 32 
              32 33 33 28 33 
              33 
 7065  897B     32 32 32 32 32 			.byte	"22222233,332222222333222222222222222222222222222^`(((((((^2`22222222(2(2^((((((^2(2(2222222
                            2(2(2^(((^22(2^((222(22(22222^(^22`22212(2222^`(l(2^((^2222222222(,(l(((((((^222222222222222222222222222
                            222222"
              32 33 33 2C 33 
              33 32 32 32 32 
              32 32 32 33 33 
              33 32 32 32 32 
              32 32 32 32 32 
              32 32 32 32 32 
              32 32 32 32 32 
              32 32 32 32 32 
              32 32 32 5E 60 
              28 28 28 28 28 
              28 28 5E 32 60 
              32 32 32 32 32 
              32 32 32 28 32 
              28 32 5E 28 28 
              28 28 28 28 5E 
              32 28 32 28 32 
              32 32 32 32 32 
              32 32 28 32 28 
              32 5E 28 28 28 
              5E 32 32 28 32 
              5E 28 28 32 32 
  Tue Jan 13 23:03:19 2026                                                                                               Page  141




              32 28 32 32 28 
              32 32 32 32 32 
              5E 28 5E 32 32 
              60 32 32 32 31 
              32 28 32 32 32 
              32 5E 60 28 6C 
              28 32 5E 28 28 
              5E 32 32 32 32 
              32 32 32 32 32 
              32 28 2C 28 6C 
              28 28 28 28 28 
              28 28 5E 32 32 
              32 32 32 32 32 
              32 32 32 32 32 
              32 32 32 32 32 
              32 32 32 32 32 
              32 32 32 32 32 
              32 32 32 32 32 
              32 
 7066  8A44     32 32 32 32 33 			.byte	"22223332222222334332222223303322222233+3322222223+3222222222222222222222222221(((((((((((((
                            (((((((((2(22222(2((2(22222(2((2(22,22(2((2(22(22(2((2W22(22W2((2022a2202((2F22(22=2((2222(2222((2222(22
                            22(((("
              33 33 32 32 32 
              32 32 32 32 33 
              33 34 33 33 32 
              32 32 32 32 32 
              33 33 30 33 33 
              32 32 32 32 32 
              32 33 33 2B 33 
              33 32 32 32 32 
              32 32 32 33 2B 
              33 32 32 32 32 
              32 32 32 32 32 
              32 32 32 32 32 
              32 32 32 32 32 
              32 32 32 32 32 
              32 32 31 28 28 
              28 28 28 28 28 
              28 28 28 28 28 
              28 28 28 28 28 
              28 28 28 28 28 
              32 28 32 32 32 
              32 32 28 32 28 
              28 32 28 32 32 
              32 32 32 28 32 
              28 28 32 28 32 
              32 2C 32 32 28 
              32 28 28 32 28 
              32 32 28 32 32 
              28 32 28 28 32 
              57 32 32 28 32 
              32 57 32 28 28 
              32 30 32 32 61 
              32 32 30 32 28 
              28 32 46 32 32 
              28 32 32 3D 32 
              28 28 32 32 32 
  Tue Jan 13 23:03:19 2026                                                                                               Page  142




              32 28 32 32 32 
              32 28 28 32 32 
              32 32 28 32 32 
              32 32 28 28 28 
              28 
 7067  8B0D     28 28 28 28 28 			.byte	"(((((((1l?NE`K`EN?l92I2J2J2I292>N(^(^(N>2E2I2(1(2I2E`J^(((((^J`K2(2(2(2(2K`J^(((((^J`E2I2(,
                            (2I2E2>N(^(^(N>292I2J2J2I29l?NE`K`EN?l2222222222222(42a25(222((22]22((22(((2]2(((222(((((((2222(((((((22
                            222((2"
              28 28 31 6C 3F 
              4E 45 60 4B 60 
              45 4E 3F 6C 39 
              32 49 32 4A 32 
              4A 32 49 32 39 
              32 3E 4E 28 5E 
              28 5E 28 4E 3E 
              32 45 32 49 32 
              28 31 28 32 49 
              32 45 60 4A 5E 
              28 28 28 28 28 
              5E 4A 60 4B 32 
              28 32 28 32 28 
              32 28 32 4B 60 
              4A 5E 28 28 28 
              28 28 5E 4A 60 
              45 32 49 32 28 
              2C 28 32 49 32 
              45 32 3E 4E 28 
              5E 28 5E 28 4E 
              3E 32 39 32 49 
              32 4A 32 4A 32 
              49 32 39 6C 3F 
              4E 45 60 4B 60 
              45 4E 3F 6C 32 
              32 32 32 32 32 
              32 32 32 32 32 
              32 32 28 34 32 
              61 32 35 28 32 
              32 32 28 28 32 
              32 5D 32 32 28 
              28 32 32 28 28 
              28 32 5D 32 28 
              28 28 32 32 32 
              28 28 28 28 28 
              28 28 32 32 32 
              32 28 28 28 28 
              28 28 28 32 32 
              32 32 32 28 28 
              32 
 7068  8BD6     28 28 32 32 32 			.byte	"((2222222n1n2222222222222222222222222222222222222",0
              32 32 32 32 6E 
              31 6E 32 32 32 
              32 32 32 32 32 
              32 32 32 32 32 
              32 32 32 32 32 
              32 32 32 32 32 
              32 32 32 32 32 
              32 32 32 32 32 
  Tue Jan 13 23:03:19 2026                                                                                               Page  143




              32 32 32 32 00 
 7069                     			.program_psfar2
 7070  72CD     A9 66       			lda	#.low.2662
 7071  72CF     85 20       			sta	__oper1
 7072  72D1     A9 0A       			lda	#.high.2662
 7073  72D3     85 21       			sta	__oper1+1
 7074  72D5     20 CA DA    			jsr	__store_int_funct_arg
 7075  72D8     A9 A1       			lda	#.low.?PLC154
 7076  72DA     85 20       			sta	__oper1
 7077  72DC     A9 81       			lda	#.high.?PLC154
 7078  72DE     85 21       			sta	__oper1+1
 7079  72E0     20 CA DA    			jsr	__store_int_funct_arg
 7080  72E3     AD A8 1F    			lda	_g_GameMTCurMap
 7081  72E6     85 20       			sta	__oper1
 7082  72E8     AD A9 1F    			lda	_g_GameMTCurMap+1
 7083  72EB     85 21       			sta	__oper1+1
 7084  72ED     20 CA DA    			jsr	__store_int_funct_arg
 7085                     			.f_call	_SysMemcpy
 7086  72F0     20 01 E9    			jsr	_SysMemcpy
 7087  72F3     08          			php
 7088  72F4     78          			sei
 7089  72F5     18          			clc
 7090  72F6     A5 28       			lda	__stack_ptr
 7091  72F8     69 06       			adc	#.low.6
 7092  72FA     85 28       			sta	__stack_ptr
 7093  72FC     A5 29       			lda	__stack_ptr+1
 7094  72FE     69 00       			adc	#.high.6
 7095  7300     85 29       			sta	__stack_ptr+1
 7096  7302     28          			plp
 7097                     			.c_end	04eb3h,308
 7098                     	;g_GameMTCurMap[177]=92
 7099                     			.c_start  04eb7h,309
 7100  7303     AD A8 1F    			lda	_g_GameMTCurMap
 7101  7306     85 20       			sta	__oper1
 7102  7308     AD A9 1F    			lda	_g_GameMTCurMap+1
 7103  730B     85 21       			sta	__oper1+1
 7104  730D     18          			clc
 7105  730E     A5 20       			lda	__oper1
 7106  7310     69 B1       			adc	#.low.177
 7107  7312     85 20       			sta	__oper1
 7108  7314     A5 21       			lda	__oper1+1
 7109  7316     69 00       			adc	#.high.177
 7110  7318     85 21       			sta	__oper1+1
 7111  731A     A5 20       			lda	__oper1
 7112  731C     85 23       			sta	__oper2
 7113  731E     A5 21       			lda	__oper1+1
 7114  7320     85 24       			sta	__oper2+1
 7115  7322     A9 5C       			lda	#92
 7116  7324     A0 00       			ldy	#0
 7117  7326     91 23       			sta	(__oper2),y
 7118                     			.c_end	04ecdh,309
 7119                     	;g_GameMTCurMap[210]=92
 7120                     			.c_start  04ed1h,310
 7121  7328     AD A8 1F    			lda	_g_GameMTCurMap
 7122  732B     85 20       			sta	__oper1
 7123  732D     AD A9 1F    			lda	_g_GameMTCurMap+1
 7124  7330     85 21       			sta	__oper1+1
  Tue Jan 13 23:03:19 2026                                                                                               Page  144




 7125  7332     18          			clc
 7126  7333     A5 20       			lda	__oper1
 7127  7335     69 D2       			adc	#.low.210
 7128  7337     85 20       			sta	__oper1
 7129  7339     A5 21       			lda	__oper1+1
 7130  733B     69 00       			adc	#.high.210
 7131  733D     85 21       			sta	__oper1+1
 7132  733F     A5 20       			lda	__oper1
 7133  7341     85 23       			sta	__oper2
 7134  7343     A5 21       			lda	__oper1+1
 7135  7345     85 24       			sta	__oper2+1
 7136  7347     A9 5C       			lda	#92
 7137  7349     A0 00       			ldy	#0
 7138  734B     91 23       			sta	(__oper2),y
 7139                     			.c_end	04ee7h,310
 7140                     	;g_GameMTCurMap[631]=92
 7141                     			.c_start  04eebh,311
 7142  734D     AD A8 1F    			lda	_g_GameMTCurMap
 7143  7350     85 20       			sta	__oper1
 7144  7352     AD A9 1F    			lda	_g_GameMTCurMap+1
 7145  7355     85 21       			sta	__oper1+1
 7146  7357     18          			clc
 7147  7358     A5 20       			lda	__oper1
 7148  735A     69 77       			adc	#.low.631
 7149  735C     85 20       			sta	__oper1
 7150  735E     A5 21       			lda	__oper1+1
 7151  7360     69 02       			adc	#.high.631
 7152  7362     85 21       			sta	__oper1+1
 7153  7364     A5 20       			lda	__oper1
 7154  7366     85 23       			sta	__oper2
 7155  7368     A5 21       			lda	__oper1+1
 7156  736A     85 24       			sta	__oper2+1
 7157  736C     A9 5C       			lda	#92
 7158  736E     A0 00       			ldy	#0
 7159  7370     91 23       			sta	(__oper2),y
 7160                     			.c_end	04f01h,311
 7161                     	;g_GameMTCurMap[643]=92
 7162                     			.c_start  04f05h,312
 7163  7372     AD A8 1F    			lda	_g_GameMTCurMap
 7164  7375     85 20       			sta	__oper1
 7165  7377     AD A9 1F    			lda	_g_GameMTCurMap+1
 7166  737A     85 21       			sta	__oper1+1
 7167  737C     18          			clc
 7168  737D     A5 20       			lda	__oper1
 7169  737F     69 83       			adc	#.low.643
 7170  7381     85 20       			sta	__oper1
 7171  7383     A5 21       			lda	__oper1+1
 7172  7385     69 02       			adc	#.high.643
 7173  7387     85 21       			sta	__oper1+1
 7174  7389     A5 20       			lda	__oper1
 7175  738B     85 23       			sta	__oper2
 7176  738D     A5 21       			lda	__oper1+1
 7177  738F     85 24       			sta	__oper2+1
 7178  7391     A9 5C       			lda	#92
 7179  7393     A0 00       			ldy	#0
 7180  7395     91 23       			sta	(__oper2),y
 7181                     			.c_end	04f1bh,312
  Tue Jan 13 23:03:19 2026                                                                                               Page  145




 7182                     	;g_GameMTCurMap[647]=92
 7183                     			.c_start  04f1fh,313
 7184  7397     AD A8 1F    			lda	_g_GameMTCurMap
 7185  739A     85 20       			sta	__oper1
 7186  739C     AD A9 1F    			lda	_g_GameMTCurMap+1
 7187  739F     85 21       			sta	__oper1+1
 7188  73A1     18          			clc
 7189  73A2     A5 20       			lda	__oper1
 7190  73A4     69 87       			adc	#.low.647
 7191  73A6     85 20       			sta	__oper1
 7192  73A8     A5 21       			lda	__oper1+1
 7193  73AA     69 02       			adc	#.high.647
 7194  73AC     85 21       			sta	__oper1+1
 7195  73AE     A5 20       			lda	__oper1
 7196  73B0     85 23       			sta	__oper2
 7197  73B2     A5 21       			lda	__oper1+1
 7198  73B4     85 24       			sta	__oper2+1
 7199  73B6     A9 5C       			lda	#92
 7200  73B8     A0 00       			ldy	#0
 7201  73BA     91 23       			sta	(__oper2),y
 7202                     			.c_end	04f35h,313
 7203                     	;g_GameMTCurMap[659]=92
 7204                     			.c_start  04f39h,314
 7205  73BC     AD A8 1F    			lda	_g_GameMTCurMap
 7206  73BF     85 20       			sta	__oper1
 7207  73C1     AD A9 1F    			lda	_g_GameMTCurMap+1
 7208  73C4     85 21       			sta	__oper1+1
 7209  73C6     18          			clc
 7210  73C7     A5 20       			lda	__oper1
 7211  73C9     69 93       			adc	#.low.659
 7212  73CB     85 20       			sta	__oper1
 7213  73CD     A5 21       			lda	__oper1+1
 7214  73CF     69 02       			adc	#.high.659
 7215  73D1     85 21       			sta	__oper1+1
 7216  73D3     A5 20       			lda	__oper1
 7217  73D5     85 23       			sta	__oper2
 7218  73D7     A5 21       			lda	__oper1+1
 7219  73D9     85 24       			sta	__oper2+1
 7220  73DB     A9 5C       			lda	#92
 7221  73DD     A0 00       			ldy	#0
 7222  73DF     91 23       			sta	(__oper2),y
 7223                     			.c_end	04f4fh,314
 7224                     	;
 7225                     			.f_end	04f52h,315
 7226         4726 73E1   	?BOF1:		.equal	$
 7227                     			.f_return
 7228  73E1     60          			rts
 7229                     	
 7230                     			.extern	_GameMTTalkData
 7231                     			.extern	_GameMTTalkSide
 7232                     			.extern	_GameMTTalkDown
 7233                     			.extern	_GameMTTalkUp
 7234                     			.extern	_GameMTTalkSigh
 7235                     			.extern	_SysMemcpy
 7236                     			.extern	_g_GameMTBuf
 7237                     			.extern	_GameMTWorkPad
 7238                     			.extern	_g_GameMTCurMap
  Tue Jan 13 23:03:19 2026                                                                                               Page  146




 7239                     			.extern	_g_GameMTFloor
 7240                     			.extern	_g_GameMTHeroX
 7241                     			.extern	_g_GameMTHeroY
 7242                     			.extern	_g_GameMTHeroDamige
 7243                     			.extern	_g_GameMTHeroDefence
 7244                     			.extern	_g_GameMTHeroMoney
 7245                     			.extern	_g_GameMTHeroExp
 7246                     			.extern	_g_GameMTHeroDir
 7247                     			.extern	_g_GameMTHeroLife
 7248                     			.extern	_g_GameMTJuidgeX
 7249                     			.extern	_g_GameMTJuidgeY
 7250                     			.extern	_g_GameMTKBState
 7251                     			.extern	_g_GameMTKey
 7252                     			.extern	_g_GameMTMapX
 7253                     			.extern	_g_GameMTMapY
 7254                     			.extern	_GameMTStartPoint
 7255                     			.extern	_GameMTBattlePad
 7256                     			.extern	_g_GameMTReadKey
 7257                     			.extern	_GameMTVictory
 7258                     			.extern	_GameMTHeroPic
 7259                     			.global	_GameMTGetTalk
 7260                     			.global	_GameMTGetMapData
 7261                     			.extern	_g_GameMTTimeOut
 7262                     			.extern	_g_GameMTTopFloor
 7263                     			.extern	_GameMTNum39
 7264                     			.extern	_GameMTNum35
 7265                     			.extern	_GameMTNum78
 7266                     			.extern	_GameMTMonName
 7267                     			.extern	_GameMTMonData
 7268                     			.extern	_GameMTUnitPic
 7269                     			.extern	__store_int_funct_arg
 7270                     			.extern	__switch_comparison
 7271                     	
 7272                     			.end


             Lines Assembled : 7272                  Errors : 0


